
/home/reglisse/Documents/Code/Github/SecPump/SecPump-RISC-V/SiFive-freedom-e-sdk/software/coremark/release/coremark.elf:     format de fichier elf32-littleriscv
/home/reglisse/Documents/Code/Github/SecPump/SecPump-RISC-V/SiFive-freedom-e-sdk/software/coremark/release/coremark.elf
architecture: riscv:rv32, fanions 0x00000112:
EXEC_P, HAS_SYMS, D_PAGED
adresse de départ 0x20400000

En-tête de programme:
    LOAD off    0x00001000 vaddr 0x20400000 paddr 0x20400000 align 2**12
         filesz 0x0000031e memsz 0x0000031e flags rwx
    LOAD off    0x00002000 vaddr 0x80000000 paddr 0x20407c18 align 2**12
         filesz 0x00001fc8 memsz 0x00001fc8 flags rw-
     TLS off    0x00000000 vaddr 0x00000000 paddr 0x00000000 align 2**2
         filesz 0x00000000 memsz 0x00000000 flags ---
    LOAD off    0x00003fc8 vaddr 0x80001fc8 paddr 0x80001fc8 align 2**12
         filesz 0x00000000 memsz 0x000018b8 flags rw-
    LOAD off    0x00003fc8 vaddr 0x00000000 paddr 0x00000000 align 2**12
         filesz 0x00000000 memsz 0x00000000 flags ---
    LOAD off    0x00004380 vaddr 0x20400380 paddr 0x20400380 align 2**12
         filesz 0x00007894 memsz 0x00007894 flags r-x
    LOAD off    0x0000bc14 vaddr 0x00000000 paddr 0x00000000 align 2**12
         filesz 0x00000000 memsz 0x00000000 flags ---

Sections :
Idx Name              Taille    VMA       LMA       Off fich  Algn  Fanions
  0 .init             000002dc  20400000  20400000  00001000  2**4  CONTENTS, ALLOC, LOAD, READONLY, CODE
  1 .init_array       0000000c  204002e0  204002e0  000012e0  2**3  CONTENTS, ALLOC, LOAD, DATA
  2 .ctors            00000032  204002ec  204002ec  000012ec  2**1  CONTENTS, ALLOC, LOAD, READONLY, CODE
  3 .text             00007894  20400380  20400380  00004380  2**7  CONTENTS, ALLOC, LOAD, READONLY, CODE
  4 .data             00001fc8  80000000  20407c18  00002000  2**3  CONTENTS, ALLOC, LOAD, DATA
  5 .bss              000000b8  80001fc8  80001fc8  00003fc8  2**3  ALLOC
  6 .stack            00001000  80002080  80002080  00003fc8  2**4  ALLOC
  7 .heap             00000800  80003080  80003080  00003fc8  2**3  ALLOC
  8 .comment          00000028  00000000  00000000  0000bc14  2**0  CONTENTS, READONLY
  9 .riscv.attributes 0000002b  00000000  00000000  0000bc3c  2**0  CONTENTS, READONLY
 10 .debug_info       00003052  00000000  00000000  0000bc67  2**0  CONTENTS, READONLY, DEBUGGING
 11 .debug_abbrev     0000079c  00000000  00000000  0000ecb9  2**0  CONTENTS, READONLY, DEBUGGING
 12 .debug_loc        00001539  00000000  00000000  0000f455  2**0  CONTENTS, READONLY, DEBUGGING
 13 .debug_aranges    00000058  00000000  00000000  0001098e  2**0  CONTENTS, READONLY, DEBUGGING
 14 .debug_ranges     000001d0  00000000  00000000  000109e6  2**0  CONTENTS, READONLY, DEBUGGING
 15 .debug_line       00001972  00000000  00000000  00010bb6  2**0  CONTENTS, READONLY, DEBUGGING
 16 .debug_str        000008eb  00000000  00000000  00012528  2**0  CONTENTS, READONLY, DEBUGGING
SYMBOL TABLE:
20400000 l    d  .init	00000000 .init
204002e0 l    d  .init_array	00000000 .init_array
204002ec l    d  .ctors	00000000 .ctors
20400380 l    d  .text	00000000 .text
80000000 l    d  .data	00000000 .data
80001fc8 l    d  .bss	00000000 .bss
80002080 l    d  .stack	00000000 .stack
80003080 l    d  .heap	00000000 .heap
00000000 l    d  .comment	00000000 .comment
00000000 l    d  .riscv.attributes	00000000 .riscv.attributes
00000000 l    d  .debug_info	00000000 .debug_info
00000000 l    d  .debug_abbrev	00000000 .debug_abbrev
00000000 l    d  .debug_loc	00000000 .debug_loc
00000000 l    d  .debug_aranges	00000000 .debug_aranges
00000000 l    d  .debug_ranges	00000000 .debug_ranges
00000000 l    d  .debug_line	00000000 .debug_line
00000000 l    d  .debug_str	00000000 .debug_str
00000000 l    df *ABS*	00000000 scrub.o
204000d2 l     F .init	00000000 __metal_memory_scrub
20400140 l       .init	00000000 skip_scrub
00000000 l    df *ABS*	00000000 synchronize_harts.c
00000000 l    df *ABS*	00000000 crt0.o
20400248 l       .init	00000000 _skip_init
80001400 l       .data	00000000 argv
80001404 l       .data	00000000 envp
80001408 l       .data	00000000 name
00000000 l    df *ABS*	00000000 tty.c
00000000 l    df *ABS*	00000000 sifive_fe310-g000_pll.c
20407204 l     F .text	00000006 __metal_driver_sifive_fe310_g000_pll_config_base
2040720a l     F .text	00000004 __metal_driver_sifive_fe310_g000_pll_config_offset
80001690 l     O .data	00000880 pll_configs
00000000 l    df *ABS*	00000000 core_list_join.c
20400380 l     F .text	0000000c core_bench_list.cold.1
2040038c l     F .text	00000006 core_list_init.cold.2
00000000 l    df *ABS*	00000000 core_main.c
80000ad0 l     O .data	0000000a list_known_crc
8000125c l     O .data	0000000a matrix_known_crc
80001268 l     O .data	0000000a state_known_crc
00000000 l    df *ABS*	00000000 core_matrix.c
00000000 l    df *ABS*	00000000 core_state.c
80001274 l     O .data	00000010 errpat
80001284 l     O .data	00000010 floatpat
80001294 l     O .data	00000010 intpat
800012a4 l     O .data	00000010 scipat
00000000 l    df *ABS*	00000000 core_util.c
00000000 l    df *ABS*	00000000 core_portme.c
80001fd4 l     O .bss	00000004 start_time_val
80001fd8 l     O .bss	00000004 stop_time_val
00000000 l    df *ABS*	00000000 clock.c
00000000 l    df *ABS*	00000000 printf.c
00000000 l    df *ABS*	00000000 puts.c
00000000 l    df *ABS*	00000000 timesr.c
00000000 l    df *ABS*	00000000 wbuf.c
00000000 l    df *ABS*	00000000 wsetup.c
00000000 l    df *ABS*	00000000 fflush.c
00000000 l    df *ABS*	00000000 findfp.c
204042ee l     F .text	00000068 std
00000000 l    df *ABS*	00000000 fwalk.c
00000000 l    df *ABS*	00000000 makebuf.c
00000000 l    df *ABS*	00000000 nano-mallocr.c
00000000 l    df *ABS*	00000000 nano-mallocr.c
00000000 l    df *ABS*	00000000 nano-vfprintf.c
2040479e l     F .text	0000002a __sfputc_r
00000000 l    df *ABS*	00000000 sbrkr.c
00000000 l    df *ABS*	00000000 stdio.c
00000000 l    df *ABS*	00000000 writer.c
00000000 l    df *ABS*	00000000 closer.c
00000000 l    df *ABS*	00000000 fstatr.c
00000000 l    df *ABS*	00000000 isattyr.c
00000000 l    df *ABS*	00000000 lseekr.c
00000000 l    df *ABS*	00000000 memchr.c
00000000 l    df *ABS*	00000000 mlock.c
00000000 l    df *ABS*	00000000 nano-vfprintf_i.c
00000000 l    df *ABS*	00000000 readr.c
00000000 l    df *ABS*	00000000 sys_close.c
00000000 l    df *ABS*	00000000 sys_fstat.c
00000000 l    df *ABS*	00000000 sys_isatty.c
00000000 l    df *ABS*	00000000 sys_lseek.c
00000000 l    df *ABS*	00000000 sys_read.c
00000000 l    df *ABS*	00000000 sys_sbrk.c
80000a84 l     O .data	00000004 __brk
00000000 l    df *ABS*	00000000 sys_times.c
00000000 l    df *ABS*	00000000 sys_write.c
00000000 l    df *ABS*	00000000 atexit.c
00000000 l    df *ABS*	00000000 errno.c
00000000 l    df *ABS*	00000000 exit.c
00000000 l    df *ABS*	00000000 fini.c
00000000 l    df *ABS*	00000000 init.c
00000000 l    df *ABS*	00000000 __atexit.c
80001ff0 l     O .bss	0000008c _global_atexit0
00000000 l    df *ABS*	00000000 __call_atexit.c
00000000 l    df *ABS*	00000000 libgcc2.c
00000000 l    df *ABS*	00000000 libgcc2.c
00000000 l    df *ABS*	00000000 cpu.c
00000000 l    df *ABS*	00000000 init.c
80001fe8 l     O .bss	00000004 fini_done.1540
80001fec l     O .bss	00000004 init_done.1531
00000000 l    df *ABS*	00000000 timer.c
00000000 l    df *ABS*	00000000 uart.c
00000000 l    df *ABS*	00000000 riscv_clint0.c
20405c00 l     F .text	00000010 _get_cpu_intc
00000000 l    df *ABS*	00000000 riscv_cpu.c
80000aa8 l     O .data	00000003 CSWTCH.18
00000000 l    df *ABS*	00000000 riscv_plic0.c
00000000 l    df *ABS*	00000000 sifive_fe310-g000_hfrosc.c
00000000 l    df *ABS*	00000000 sifive_fe310-g000_hfxosc.c
00000000 l    df *ABS*	00000000 sifive_fe310-g000_prci.c
00000000 l    df *ABS*	00000000 sifive_gpio0.c
00000000 l    df *ABS*	00000000 sifive_uart0.c
20407970 l     F .text	0000007c pre_rate_change_callback_func
204079ec l     F .text	00000006 post_rate_change_callback_func
00000000 l    df *ABS*	00000000 clock.c
00000000 l    df *ABS*	00000000 shutdown.c
00000000 l    df *ABS*	00000000 vector.o
20407b00 l       .text	00000000 IRQ_0
20407b04 l       .text	00000000 IRQ_1
20407b08 l       .text	00000000 IRQ_2
20407b0c l       .text	00000000 IRQ_3
20407b10 l       .text	00000000 IRQ_4
20407b14 l       .text	00000000 IRQ_5
20407b18 l       .text	00000000 IRQ_6
20407b1c l       .text	00000000 IRQ_7
20407b20 l       .text	00000000 IRQ_8
20407b24 l       .text	00000000 IRQ_9
20407b28 l       .text	00000000 IRQ_10
20407b2c l       .text	00000000 IRQ_11
20407b30 l       .text	00000000 IRQ_12
20407b34 l       .text	00000000 IRQ_13
20407b38 l       .text	00000000 IRQ_14
20407b3c l       .text	00000000 IRQ_15
20407b40 l       .text	00000000 IRQ_LC0
20407b44 l       .text	00000000 IRQ_LC1
20407b48 l       .text	00000000 IRQ_LC2
20407b4c l       .text	00000000 IRQ_LC3
20407b50 l       .text	00000000 IRQ_LC4
20407b54 l       .text	00000000 IRQ_LC5
20407b58 l       .text	00000000 IRQ_LC6
20407b5c l       .text	00000000 IRQ_LC7
20407b60 l       .text	00000000 IRQ_LC8
20407b64 l       .text	00000000 IRQ_LC9
20407b68 l       .text	00000000 IRQ_LC10
20407b6c l       .text	00000000 IRQ_LC11
20407b70 l       .text	00000000 IRQ_LC12
20407b74 l       .text	00000000 IRQ_LC13
20407b78 l       .text	00000000 IRQ_LC14
20407b7c l       .text	00000000 IRQ_LC15
00000000 l    df *ABS*	00000000 fixed-clock.c
00000000 l    df *ABS*	00000000 sys_exit.c
00000000 l    df *ABS*	00000000 impure.c
80000000 l     O .data	00000060 impure_data
00000000 l    df *ABS*	00000000 inline.c
00000000 l    df *ABS*	00000000 libgcc2.c
00000000 l    df *ABS*	00000000 
204002ec l       .init_array	00000000 metal_constructors_end
204002f0 l       .init_array	00000000 __fini_array_end
204002f0 l       .init_array	00000000 metal_destructors_end
204002f0 l       .init_array	00000000 metal_destructors_start
204002f0 l       .init_array	00000000 __fini_array_start
204002e0 l       .init_array	00000000 __init_array_end
204002e0 l       .init_array	00000000 __preinit_array_end
204002e0 l       .init_array	00000000 __init_array_start
204002e0 l       .init_array	00000000 metal_constructors_start
204002e0 l       .init_array	00000000 __preinit_array_start
80001f88 g     O .data	00000040 __metal_driver_vtable_sifive_uart0
20404c18 g     F .text	00000030 _isatty_r
2040658a  w    F .text	0000007c metal_lc4_interrupt_vector_handler
80001fc8 g     O .bss	00000004 seed1_volatile
20403eba g     F .text	000000ce _puts_r
20404c48 g     F .text	00000034 _lseek_r
20407abe g     F .text	00000008 metal_clock_get_rate_hz
2040791e g     F .text	00000052 __metal_driver_sifive_uart0_set_baud_rate
20405c10 g     F .text	00000026 __metal_driver_riscv_clint0_set_vector_mode
20407844 g     F .text	00000024 __metal_driver_sifive_uart0_set_tx_watermark
2040650e  w    F .text	0000007c metal_lc3_interrupt_vector_handler
20406b7a g     F .text	00000036 __metal_valid_interrupt_id
20403e7a g     F .text	00000040 printf
204002e4 g     O .init_array	00000004 _use_hfxosc_ptr
20406b78 g     F .text	00000002 __metal_driver_riscv_cpu_controller_get_vector_mode
80001270 g       .data	00000000 __global_pointer$
204012b0 g     F .text	00000328 core_list_init
204002ec g     F .ctors	00000012 metal_tty_init
20407aa6 g     F .text	00000018 _metal_clock_append_to_callbacks
20406dec g     F .text	00000022 __metal_plic0_complete_interrupt
20406bb0 g     F .text	000000d2 __metal_driver_riscv_cpu_controller_interrupt_register
204002e8 g     O .init_array	00000004 _metal_sifive_fe310_g000_pll_init_ptr
20404b46 g     F .text	00000036 __sseek
204043a4 g     F .text	00000066 __sinit
204038f0 g     F .text	000002e8 crcu32
20403f98 g     F .text	000000b4 __swbuf_r
80001fc8 g       .data	00000000 __tls_base
20404360 g     F .text	00000044 __sfmoreglue
20404c98 g     F .text	00000002 __malloc_unlock
20403d70 g     F .text	00000004 check_data_types
20405ac6 g     F .text	0000000c metal_cpu_get
20403db0 g     F .text	00000014 stop_time
80000a50 g     O .data	00000020 __metal_dt_serial_10013000
204075f0 g     F .text	0000001c __metal_driver_sifive_gpio0_disable_io
80001514 g     O .data	00000064 __metal_driver_vtable_riscv_clint0
80002080 g       .bss	00000000 metal_segment_bss_target_end
20405d7c g     F .text	00000026 __metal_clint0_mtime_get
20406118 g     F .text	00000012 __metal_driver_cpu_get_instruction_length
20403770 g     F .text	0000016e crcu16
00000001 g       *ABS*	00000000 __metal_chicken_bit
204078a8 g     F .text	0000001c __metal_driver_sifive_uart0_get_rx_watermark
2040750e g     F .text	0000001c __metal_driver_sifive_gpio0_disable_input
204051e8 g     F .text	00000008 __errno
80000000 g       .text	00000000 metal_segment_itim_target_start
20405116  w    F .text	0000008c times
20405ab6 g     F .text	00000008 metal_cpu_get_timebase
2040782a g     F .text	0000001a __metal_driver_sifive_uart0_txready
204077f0 g     F .text	0000001e __metal_driver_sifive_uart0_rx_interrupt_enable
20400152 g     F .init	00000002 __metal_synchronize_harts
80001fc8 g       .data	00000000 metal_segment_bss_target_start
20405bd0 g     F .text	00000028 __metal_driver_riscv_clint0_mtimecmp_set
20404be6 g     F .text	00000032 _fstat_r
20407686 g     F .text	00000060 __metal_driver_sifive_gpio0_clear_int
8000207c g     O .bss	00000004 errno
2040725e g     F .text	000000be __metal_driver_sifive_fe310_g000_pll_get_rate_hz
00001000 g       *ABS*	00000000 __stack_size
20403e40 g     F .text	00000006 portable_fini
204067f6  w    F .text	0000007c metal_lc9_interrupt_vector_handler
204000de  w    F .init	00000000 __metal_before_start
20405b68  w    F .text	00000002 metal_init_run
20403dd0 g     F .text	00000014 get_time
20402ce0 g     F .text	00000872 core_bench_state
80001620 g     O .data	00000064 __metal_driver_vtable_riscv_plic0
80001578 g     O .data	00000044 __metal_driver_vtable_cpu
20405bc8 g     F .text	00000008 metal_uart_set_baud_rate
204079f2 g     F .text	00000098 __metal_driver_sifive_uart0_init
20400bd0 g     F .text	000006cc core_bench_list
00000000 g       *ABS*	00000000 __metal_eccscrub_bit
20403f92 g     F .text	00000006 _times_r
20405ffe g     F .text	00000012 __metal_driver_cpu_mcycle_get
80001684 g     O .data	0000000c __metal_driver_vtable_sifive_fe310_g000_pll
80003080 g       .heap	00000000 metal_segment_heap_target_start
20404356 g     F .text	0000000a _cleanup_r
80000a94 g     O .data	00000008 __metal_dt_cpu_0
2040677a  w    F .text	0000007c metal_lc8_interrupt_vector_handler
2040731c g     F .text	000001c4 __metal_driver_sifive_fe310_g000_pll_set_rate_hz
20405b8c g     F .text	00000020 metal_timer_get_timebase_frequency
20406ea8 g     F .text	00000048 __metal_driver_riscv_plic0_affinity_set_threshold
20403f88 g     F .text	0000000a puts
204069e6  w    F .text	0000007c metal_lc13_interrupt_vector_handler
2040613c g     F .text	0000000c __metal_default_exception_handler
20405090 g     F .text	00000014 _fstat
20405e44 g     F .text	0000001e __metal_driver_riscv_clint0_set_interrupt
20406240 g     F .text	00000032 __metal_driver_riscv_cpu_controller_set_vector_mode
80000a74 g     O .data	00000004 seed3_volatile
800015bc g     O .data	00000064 __metal_driver_vtable_riscv_cpu_intc
20406f2a g     F .text	0000000e __metal_driver_riscv_plic0_affinity_get_threshold
204066fe  w    F .text	0000007c metal_lc7_interrupt_vector_handler
20406872  w    F .text	0000007c metal_lc10_interrupt_vector_handler
20404a98 g     F .text	00000030 _sbrk_r
20407088 g     F .text	00000040 __metal_driver_riscv_plic0_disable
20405ad8 g     F .text	00000048 metal_init
20405048 g     F .text	00000034 _read_r
20406064 g     F .text	00000006 __metal_driver_cpu_timer_controller_interrupt
2040756e g     F .text	00000018 __metal_driver_sifive_gpio0_enable_output
80000a78 g     O .data	00000004 seed4_volatile
80000000 g       .text	00000000 metal_segment_lim_target_end
20405e62 g     F .text	00000042 __metal_default_sw_handler
80000078 g     O .data	0000000c __metal_dt_clock_2
20407788 g     F .text	0000001a __metal_driver_sifive_uart0_interrupt_controller
20405764 g     F .text	0000034a .hidden __umoddi3
204050a4 g     F .text	00000008 _isatty
204075ba g     F .text	00000018 __metal_driver_sifive_gpio0_output_toggle
204015f0 g     F .text	000001cc iterate
204077b6 g     F .text	0000001e __metal_driver_sifive_uart0_tx_interrupt_enable
80000ac4 g     O .data	00000008 __metal_driver_vtable_fixed_clock
80000a80 g     O .data	00000004 _global_impure_ptr
2040631e  w    F .text	0000007c metal_timer_interrupt_vector_handler
20405250 g     F .text	0000006a __libc_init_array
20407586 g     F .text	00000018 __metal_driver_sifive_gpio0_output_set
204068ee  w    F .text	0000007c metal_lc11_interrupt_vector_handler
2040540e g     F .text	00000356 .hidden __udivdi3
20407202 g     F .text	00000002 __metal_driver_sifive_fe310_g000_hfxosc_set_rate_hz
20406cf4 g     F .text	00000004 __metal_driver_riscv_cpu_controller_interrupt_enable
204050d4 g     F .text	00000042 _sbrk
20407552 g     F .text	0000001c __metal_driver_sifive_gpio0_disable_output
20407a8a g     F .text	0000001c _metal_clock_call_all_callbacks
204002bc g     F .init	00000002 _init
2040760c g     F .text	0000007a __metal_driver_sifive_gpio0_config_int
204060a2 g     F .text	00000030 __metal_driver_cpu_clear_sw_ipi
80001f4c g     O .data	0000003c __metal_driver_vtable_sifive_gpio0
204077d4 g     F .text	0000001c __metal_driver_sifive_uart0_tx_interrupt_disable
204075d2 g     F .text	0000001e __metal_driver_sifive_gpio0_enable_io
20405218 g     F .text	00000038 __libc_fini_array
20405116 g     F .text	0000008c _times
80000090 g     O .data	0000000c __metal_dt_clock_4
204076e6 g     F .text	00000016 __metal_driver_gpio_interrupt_controller
20405b20 g     F .text	00000048 metal_fini
2040606e g     F .text	00000004 __metal_driver_cpu_get_sw_interrupt_id
20406138 g     F .text	00000004 __metal_driver_cpu_get_buserror
80000000 g       .data	00000000 metal_segment_data_target_start
20405e26 g     F .text	0000001e __metal_driver_riscv_clint0_clear_interrupt
20405bac g     F .text	0000000c metal_tty_putc
20406d3e g     F .text	0000000c __metal_plic0_default_handler
204051a2  w    F .text	0000003c write
00000000 g       *ABS*	00000000 __tbss_size
80000060 g     O .data	0000000c __metal_dt_clock_0
00000800 g       *ABS*	00000000 __heap_size
204017c0 g     F .text	000012c2 core_bench_matrix
20406e8c g     F .text	0000001c __metal_driver_riscv_plic0_set_threshold
20405ea4 g     F .text	00000002 __metal_default_beu_handler
80001364 g     O .data	00000020 __sf_fake_stderr
204077a2 g     F .text	00000014 __metal_driver_sifive_uart0_get_interrupt_id
20405ffa g     F .text	00000004 __metal_driver_riscv_cpu_controller_command_request
20403d90 g     F .text	00000014 start_time
204061b0 g     F .text	0000005e __metal_driver_riscv_cpu_controller_interrupt_init
204047c8 g     F .text	00000042 __sfputs_r
2040620e g     F .text	0000002c __metal_driver_cpu_exception_register
20406416  w    F .text	0000007c metal_lc1_interrupt_vector_handler
20404c7c g     F .text	0000001a memchr
20404614 g     F .text	000000ac _free_r
80001fe4 g     O .bss	00000004 _global_atexit
80001fd0 g     O .bss	00000004 seed5_volatile
20406cfc g     F .text	00000026 __metal_driver_riscv_plic0_set_priority
20406b5a g     F .text	0000001e __metal_controller_interrupt_vector_mode
20405346 g     F .text	000000c8 __call_exitprocs
80003080 g       .stack	00000000 _sp
204002e0 g     O .init_array	00000004 _metal_tty_init_ptr
20400154 g     F .init	00000000 _start
2040718c g     F .text	00000040 __metal_driver_sifive_fe310_g000_hfrosc_get_rate_hz
20405b6c g     F .text	00000020 metal_timer_get_cyclecount
204050ac g     F .text	00000014 _lseek
20406102 g     F .text	00000016 __metal_driver_cpu_controller_interrupt
2040612a g     F .text	00000006 __metal_driver_cpu_get_exception_pc
204052ba g     F .text	0000008c __register_exitproc
204078c4 g     F .text	00000032 __metal_driver_sifive_uart0_putc
20406f76 g     F .text	000000d2 __metal_driver_riscv_plic0_init
20407048 g     F .text	00000040 __metal_driver_riscv_plic0_enable
20403bf0 g     F .text	00000172 crc16
2040753e g     F .text	00000014 __metal_driver_sifive_gpio0_output
20406682  w    F .text	0000007c metal_lc6_interrupt_vector_handler
20406272 g     F .text	00000006 __metal_myhart_id
204076fc g     F .text	0000008c __metal_driver_gpio_get_interrupt_id
204062a2  w    F .text	0000007c metal_software_interrupt_vector_handler
20406cf8 g     F .text	00000004 __metal_driver_riscv_cpu_controller_interrupt_disable
20404bb6 g     F .text	00000030 _close_r
20405aae g     F .text	00000008 metal_cpu_get_timer
2040791a g     F .text	00000004 __metal_driver_sifive_uart0_get_baud_rate
20405d1c g     F .text	00000060 __metal_driver_riscv_clint0_register
80000a8c g     O .data	00000008 __metal_dt_clint_2000000
2040404c g     F .text	00000100 __swsetup_r
2040440a g     F .text	0000009a __sfp
20407ac6 g     F .text	0000002c metal_clock_set_rate_hz
20404ac8 g     F .text	00000030 __sread
204074f6 g     F .text	00000018 __metal_driver_sifive_gpio0_enable_input
204002be  w    F .init	00000000 secondary_main
20406278  w    F .text	0000002a metal_interrupt_vector_handler
20404c96 g     F .text	00000002 __malloc_lock
2040780e g     F .text	0000001c __metal_driver_sifive_uart0_rx_interrupt_disable
20404296 g     F .text	00000058 _fflush_r
20406ef0 g     F .text	00000022 __metal_plic0_get_threshold
204074e0 g     F .text	0000000a __metal_driver_sifive_fe310_g000_prci_get_reg
80001384 g     O .data	00000020 __sf_fake_stdin
20406c82 g     F .text	00000072 __metal_local_interrupt_enable
20405da2 g     F .text	00000084 __metal_driver_riscv_clint0_command_request
20404604 g     F .text	00000010 memset
20406606  w    F .text	0000007c metal_lc5_interrupt_vector_handler
204003a0 g     F .text	0000081c main
80001fc8 g       .data	00000000 metal_segment_data_target_end
20407884 g     F .text	00000024 __metal_driver_sifive_uart0_set_rx_watermark
80000aac g     O .data	00000008 __metal_driver_vtable_sifive_fe310_g000_hfrosc
20406072 g     F .text	00000030 __metal_driver_cpu_set_sw_ipi
204060d2 g     F .text	00000030 __metal_driver_cpu_get_msip
20407af2 g     F .text	00000004 metal_shutdown
80000000 g       .text	00000000 metal_segment_itim_target_end
20406130 g     F .text	00000008 __metal_driver_cpu_set_exception_pc
20406dca g     F .text	00000022 __metal_plic0_claim_interrupt
20407868 g     F .text	0000001c __metal_driver_sifive_uart0_get_tx_watermark
20404b7c g     F .text	00000006 __sclose
2040696a  w    F .text	0000007c metal_lc12_interrupt_vector_handler
2040009a g     F .init	00000000 metal_mem_scrub
20403700 g     F .text	00000062 get_seed_32
204046c0 g     F .text	000000de _malloc_r
20405bfc g     F .text	00000004 __metal_driver_riscv_clint0_get_vector_mode
80000aa0 g     O .data	00000004 __metal_dt_prci_10008000
20406010 g     F .text	00000022 __metal_driver_cpu_timebase_get
2040712a g     F .text	00000062 __metal_driver_riscv_plic0_affinity_disable
20400000 g       .init	00000000 _enter
20405ad2 g     F .text	00000006 metal_cpu_get_current_hartid
204071ce g     F .text	00000034 __metal_driver_sifive_fe310_g000_hfxosc_get_rate_hz
20407b00 g       .text	00000000 __metal_vector_table
20400320 g       *ABS*	00000000 metal_segment_itim_source_start
80000a88  w    O .data	00000004 __metal_cpu_table
800000a8 g     O .data	000003d0 __metal_dt_cpu_0_interrupt_controller
204002bc g     F .init	00000002 _fini
20403e7a g     F .text	00000040 iprintf
80000000 g       .text	00000000 metal_segment_lim_target_start
80001414 g     O .data	00000100 .hidden __clz_tab
20406d22 g     F .text	0000001c __metal_driver_riscv_plic0_get_priority
2040030a g     F .ctors	00000014 use_hfxosc
204051de g     F .text	0000000a atexit
20404b82 g     F .text	00000034 _write_r
204078f6 g     F .text	00000024 __metal_driver_sifive_uart0_getc
20405c88 g     F .text	0000004a __metal_driver_riscv_clint0_disable
20404c9a g     F .text	0000010c _printf_common
80000a7c g     O .data	00000004 _impure_ptr
20406154 g     F .text	00000024 __metal_driver_cpu_mtimecmp_set
2040414c g     F .text	0000014a __sflush_r
20406f12 g     F .text	00000018 __metal_driver_riscv_plic0_get_threshold
2040720e g     F .text	00000050 __metal_driver_sifive_fe310_g000_pll_init
8000009c g     O .data	0000000c __metal_dt_clock_5
204074ea g     F .text	0000000c __metal_driver_sifive_fe310_g000_prci_set_reg
20407b80 g     F .text	00000046 __metal_driver_fixed_clock_get_rate_hz
20403e20 g     F .text	00000008 portable_init
20405cd2 g     F .text	0000004a __metal_driver_riscv_clint0_enable
20407c18 g       *ABS*	00000000 metal_segment_data_source_start
20402a90 g     F .text	00000248 core_init_matrix
20400144 g       .init	00000000 early_trap_vector
80003880 g       .heap	00000000 metal_segment_heap_target_end
8000006c g     O .data	0000000c __metal_dt_clock_1
80000478 g     O .data	000005d8 __metal_dt_interrupt_controller_c000000
20404510 g     F .text	00000058 __swhatbuf_r
2040759e g     F .text	0000001c __metal_driver_sifive_gpio0_output_clear
20406178 g     F .text	00000038 __metal_default_timer_handler
204051a2 g     F .text	0000003c _write
20406e0e g     F .text	0000005c __metal_plic0_handler
20406492  w    F .text	0000007c metal_lc2_interrupt_vector_handler
20406ade  w    F .text	0000007c metal_lc15_interrupt_vector_handler
20405abe g     F .text	00000008 metal_cpu_interrupt_controller
20404af8 g     F .text	0000004e __swrite
204051f0 g     F .text	00000028 exit
2040480a g     F .text	0000028e _vfiprintf_r
204044a4 g     F .text	0000006c _fwalk_reent
20403560 g     F .text	00000194 core_init_state
20407bc6 g     F .text	00000046 __metal_driver_fixed_clock_set_rate_hz
20400320 g       *ABS*	00000000 metal_segment_lim_source_start
800013a4 g     O .data	00000020 __sf_fake_stdout
80000a9c g     O .data	00000004 __metal_dt_gpio_10012000
20403e00 g     F .text	0000000e time_in_secs
20406148 g     F .text	0000000c __metal_default_interrupt_handler
20405bc0 g     F .text	00000008 metal_uart_putc
204050c0 g     F .text	00000014 _read
20405b6a  w    F .text	00000002 metal_fini_run
2040752a g     F .text	00000014 __metal_driver_sifive_gpio0_input
20405f00 g     F .text	000000de __metal_exception_handler
2040639a  w    F .text	0000007c metal_lc0_interrupt_vector_handler
20407c0c g     F .text	00000008 _exit
20406032 g     F .text	00000032 __metal_driver_cpu_mtime_get
20404568 g     F .text	0000009c __smakebuf_r
20405bf8 g     F .text	00000004 __metal_driver_riscv_clint0_vector_register
20404da6 g     F .text	000002a2 _printf_i
80001fe0 g     O .bss	00000004 __malloc_sbrk_start
20403e52 g     F .text	00000028 clock
20406a62  w    F .text	0000007c metal_lc14_interrupt_vector_handler
80000ab4 g     O .data	00000008 __metal_driver_vtable_sifive_fe310_g000_hfxosc
20405c36 g     F .text	00000052 __metal_driver_riscv_clint0_init
80001fdc g     O .bss	00000004 __malloc_free_list
80001fcc g     O .bss	00000004 seed2_volatile
204002fe g     F .ctors	0000000c metal_sifive_fe310_g000_pll_init
2040480a g     F .text	0000028e _vfprintf_r
2040606a g     F .text	00000004 __metal_driver_cpu_get_timer_interrupt_id
20406f38 g     F .text	0000003e __metal_plic0_enable
20400098  w      .init	00000000 __register_frame_info
204071cc g     F .text	00000002 __metal_driver_sifive_fe310_g000_hfrosc_set_rate_hz
2040623a g     F .text	00000006 __metal_driver_cpu_sw_controller_interrupt
20405bb8 g     F .text	00000008 metal_uart_init
80000a70 g     O .data	00000004 default_num_contexts
80000084 g     O .data	0000000c __metal_dt_clock_3
20406e6a g     F .text	00000022 __metal_plic0_set_threshold
204070c8 g     F .text	00000062 __metal_driver_riscv_plic0_affinity_enable
2040507c g     F .text	00000014 _close
80000abc g     O .data	00000008 __metal_driver_vtable_sifive_fe310_g000_prci
00000000 g       *ABS*	00000000 __metal_boot_hart
20406d4a g     F .text	00000080 __metal_driver_riscv_plic0_register



Déassemblage de la section .init :

20400000 <_enter>:
_enter():
20400000:	5fc01197          	auipc	gp,0x5fc01
20400004:	27018193          	addi	gp,gp,624 # 80001270 <__global_pointer$>
20400008:	00000297          	auipc	t0,0x0
2040000c:	01828293          	addi	t0,t0,24 # 20400020 <_enter+0x20>
20400010:	30529073          	csrw	mtvec,t0
20400014:	00100293          	li	t0,1
20400018:	00028463          	beqz	t0,20400020 <_enter+0x20>
2040001c:	7c105073          	csrwi	0x7c1,0
20400020:	00000297          	auipc	t0,0x0
20400024:	12428293          	addi	t0,t0,292 # 20400144 <early_trap_vector>
20400028:	30529073          	csrw	mtvec,t0
2040002c:	dfc00117          	auipc	sp,0xdfc00
20400030:	fd410113          	addi	sp,sp,-44 # 0 <__metal_boot_hart>
20400034:	00011663          	bnez	sp,20400040 <_enter+0x40>
20400038:	5fc03117          	auipc	sp,0x5fc03
2040003c:	04810113          	addi	sp,sp,72 # 80003080 <_sp>
20400040:	f1402573          	csrr	a0,mhartid
20400044:	4281                	li	t0,0
20400046:	dfc01317          	auipc	t1,0xdfc01
2040004a:	fba30313          	addi	t1,t1,-70 # 1000 <__stack_size>
2040004e:	ff017113          	andi	sp,sp,-16
20400052:	00a28563          	beq	t0,a0,2040005c <_enter+0x5c>
20400056:	911a                	add	sp,sp,t1
20400058:	0285                	addi	t0,t0,1
2040005a:	bfd5                	j	2040004e <_enter+0x4e>
2040005c:	00000097          	auipc	ra,0x0
20400060:	08208093          	addi	ra,ra,130 # 204000de <__metal_before_start>
20400064:	00008363          	beqz	ra,2040006a <_enter+0x6a>
20400068:	9082                	jalr	ra
2040006a:	f1402573          	csrr	a0,mhartid
2040006e:	4581                	li	a1,0
20400070:	4601                	li	a2,0
20400072:	20cd                	jal	20400154 <_start>
20400074:	dfc00097          	auipc	ra,0xdfc00
20400078:	f8c08093          	addi	ra,ra,-116 # 0 <__metal_boot_hart>
2040007c:	00008363          	beqz	ra,20400082 <_enter+0x82>
20400080:	9082                	jalr	ra
20400082:	00000297          	auipc	t0,0x0
20400086:	00c28293          	addi	t0,t0,12 # 2040008e <_enter+0x8e>
2040008a:	30529073          	csrw	mtvec,t0
2040008e:	00002303          	lw	t1,0(zero) # 0 <__metal_boot_hart>
20400092:	bff5                	j	2040008e <_enter+0x8e>
20400094:	0000                	unimp
	...

20400098 <__register_frame_info>:
__register_frame_info():
20400098:	8082                	ret

2040009a <metal_mem_scrub>:
metal_mem_scrub():
2040009a:	46a1                	li	a3,8
2040009c:	3006b373          	csrrc	t1,mstatus,a3
204000a0:	00400293          	li	t0,4
204000a4:	0055c563          	blt	a1,t0,204000ae <metal_mem_scrub+0x14>
204000a8:	00357613          	andi	a2,a0,3
204000ac:	ca11                	beqz	a2,204000c0 <metal_mem_scrub+0x26>
204000ae:	00050023          	sb	zero,0(a0)
204000b2:	0505                	addi	a0,a0,1
204000b4:	15fd                	addi	a1,a1,-1
204000b6:	feb047e3          	bgtz	a1,204000a4 <metal_mem_scrub+0xa>
204000ba:	30031073          	csrw	mstatus,t1
204000be:	8082                	ret
204000c0:	00052023          	sw	zero,0(a0)
204000c4:	0511                	addi	a0,a0,4
204000c6:	15f1                	addi	a1,a1,-4
204000c8:	fcb04ee3          	bgtz	a1,204000a4 <metal_mem_scrub+0xa>
204000cc:	30031073          	csrw	mstatus,t1
204000d0:	8082                	ret

204000d2 <__metal_memory_scrub>:
__metal_memory_scrub():
204000d2:	00032023          	sw	zero,0(t1)
204000d6:	0311                	addi	t1,t1,4
204000d8:	fe734de3          	blt	t1,t2,204000d2 <__metal_memory_scrub>
204000dc:	8082                	ret

204000de <__metal_before_start>:
__metal_before_start():
204000de:	8406                	mv	s0,ra
204000e0:	dfc00297          	auipc	t0,0xdfc00
204000e4:	f2028293          	addi	t0,t0,-224 # 0 <__metal_boot_hart>
204000e8:	04028c63          	beqz	t0,20400140 <skip_scrub>
204000ec:	dfc00297          	auipc	t0,0xdfc00
204000f0:	f1428293          	addi	t0,t0,-236 # 0 <__metal_boot_hart>
204000f4:	f14027f3          	csrr	a5,mhartid
204000f8:	46a1                	li	a3,8
204000fa:	3006b073          	csrc	mstatus,a3
204000fe:	830a                	mv	t1,sp
20400100:	dfc01397          	auipc	t2,0xdfc01
20400104:	f0038393          	addi	t2,t2,-256 # 1000 <__stack_size>
20400108:	938a                	add	t2,t2,sp
2040010a:	00730363          	beq	t1,t2,20400110 <__metal_before_start+0x32>
2040010e:	37d1                	jal	204000d2 <__metal_memory_scrub>
20400110:	02579863          	bne	a5,t0,20400140 <skip_scrub>
20400114:	5fc00317          	auipc	t1,0x5fc00
20400118:	eec30313          	addi	t1,t1,-276 # 80000000 <metal_segment_itim_target_end>
2040011c:	5fc02397          	auipc	t2,0x5fc02
20400120:	eac38393          	addi	t2,t2,-340 # 80001fc8 <__tls_base>
20400124:	00730363          	beq	t1,t2,2040012a <__metal_before_start+0x4c>
20400128:	376d                	jal	204000d2 <__metal_memory_scrub>
2040012a:	5fc00317          	auipc	t1,0x5fc00
2040012e:	ed630313          	addi	t1,t1,-298 # 80000000 <metal_segment_itim_target_end>
20400132:	5fc00397          	auipc	t2,0x5fc00
20400136:	ece38393          	addi	t2,t2,-306 # 80000000 <metal_segment_itim_target_end>
2040013a:	00730363          	beq	t1,t2,20400140 <skip_scrub>
2040013e:	3f51                	jal	204000d2 <__metal_memory_scrub>

20400140 <skip_scrub>:
skip_scrub():
20400140:	80a2                	mv	ra,s0
20400142:	8082                	ret

20400144 <early_trap_vector>:
early_trap_vector():
20400144:	342022f3          	csrr	t0,mcause
20400148:	34102373          	csrr	t1,mepc
2040014c:	343023f3          	csrr	t2,mtval
20400150:	bfd5                	j	20400144 <early_trap_vector>

20400152 <__metal_synchronize_harts>:
__metal_synchronize_harts():
20400152:	8082                	ret

20400154 <_start>:
_start():
20400154:	8406                	mv	s0,ra
20400156:	5fc01197          	auipc	gp,0x5fc01
2040015a:	11a18193          	addi	gp,gp,282 # 80001270 <__global_pointer$>
2040015e:	00000293          	li	t0,0
20400162:	0e551363          	bne	a0,t0,20400248 <_skip_init>
20400166:	00008297          	auipc	t0,0x8
2040016a:	ab228293          	addi	t0,t0,-1358 # 20407c18 <metal_segment_data_source_start>
2040016e:	5fc00317          	auipc	t1,0x5fc00
20400172:	e9230313          	addi	t1,t1,-366 # 80000000 <metal_segment_itim_target_end>
20400176:	5fc02397          	auipc	t2,0x5fc02
2040017a:	e5238393          	addi	t2,t2,-430 # 80001fc8 <__tls_base>
2040017e:	00628c63          	beq	t0,t1,20400196 <_start+0x42>
20400182:	00735a63          	bge	t1,t2,20400196 <_start+0x42>
20400186:	0002a503          	lw	a0,0(t0)
2040018a:	0291                	addi	t0,t0,4
2040018c:	00a32023          	sw	a0,0(t1)
20400190:	0311                	addi	t1,t1,4
20400192:	fe734ae3          	blt	t1,t2,20400186 <_start+0x32>
20400196:	00000297          	auipc	t0,0x0
2040019a:	18a28293          	addi	t0,t0,394 # 20400320 <metal_segment_itim_source_start>
2040019e:	5fc00317          	auipc	t1,0x5fc00
204001a2:	e6230313          	addi	t1,t1,-414 # 80000000 <metal_segment_itim_target_end>
204001a6:	5fc00397          	auipc	t2,0x5fc00
204001aa:	e5a38393          	addi	t2,t2,-422 # 80000000 <metal_segment_itim_target_end>
204001ae:	00628c63          	beq	t0,t1,204001c6 <_start+0x72>
204001b2:	00735a63          	bge	t1,t2,204001c6 <_start+0x72>
204001b6:	0002a503          	lw	a0,0(t0)
204001ba:	0291                	addi	t0,t0,4
204001bc:	00a32023          	sw	a0,0(t1)
204001c0:	0311                	addi	t1,t1,4
204001c2:	fe734ae3          	blt	t1,t2,204001b6 <_start+0x62>
204001c6:	0000100f          	fence.i
204001ca:	00000297          	auipc	t0,0x0
204001ce:	15628293          	addi	t0,t0,342 # 20400320 <metal_segment_itim_source_start>
204001d2:	5fc00317          	auipc	t1,0x5fc00
204001d6:	e2e30313          	addi	t1,t1,-466 # 80000000 <metal_segment_itim_target_end>
204001da:	5fc00397          	auipc	t2,0x5fc00
204001de:	e2638393          	addi	t2,t2,-474 # 80000000 <metal_segment_itim_target_end>
204001e2:	00628c63          	beq	t0,t1,204001fa <_start+0xa6>
204001e6:	00735a63          	bge	t1,t2,204001fa <_start+0xa6>
204001ea:	0002a503          	lw	a0,0(t0)
204001ee:	0291                	addi	t0,t0,4
204001f0:	00a32023          	sw	a0,0(t1)
204001f4:	0311                	addi	t1,t1,4
204001f6:	fe734ae3          	blt	t1,t2,204001ea <_start+0x96>
204001fa:	0000100f          	fence.i
204001fe:	5fc02317          	auipc	t1,0x5fc02
20400202:	dca30313          	addi	t1,t1,-566 # 80001fc8 <__tls_base>
20400206:	5fc02397          	auipc	t2,0x5fc02
2040020a:	e7a38393          	addi	t2,t2,-390 # 80002080 <metal_segment_bss_target_end>
2040020e:	00735763          	bge	t1,t2,2040021c <_start+0xc8>
20400212:	00032023          	sw	zero,0(t1)
20400216:	0311                	addi	t1,t1,4
20400218:	fe734de3          	blt	t1,t2,20400212 <_start+0xbe>
2040021c:	5fc02217          	auipc	tp,0x5fc02
20400220:	dac20213          	addi	tp,tp,-596 # 80001fc8 <__tls_base>
20400224:	c211                	beqz	a2,20400228 <_start+0xd4>
20400226:	9602                	jalr	a2
20400228:	00005517          	auipc	a0,0x5
2040022c:	ff050513          	addi	a0,a0,-16 # 20405218 <__libc_fini_array>
20400230:	7af040ef          	jal	ra,204051de <atexit>
20400234:	01c050ef          	jal	ra,20405250 <__libc_init_array>
20400238:	00006517          	auipc	a0,0x6
2040023c:	93250513          	addi	a0,a0,-1742 # 20405b6a <metal_fini_run>
20400240:	79f040ef          	jal	ra,204051de <atexit>
20400244:	125050ef          	jal	ra,20405b68 <metal_init_run>

20400248 <_skip_init>:
_skip_init():
20400248:	3729                	jal	20400152 <__metal_synchronize_harts>
2040024a:	56fd                	li	a3,-1
2040024c:	3046b073          	csrc	mie,a3
20400250:	3446b073          	csrc	mip,a3
20400254:	301027f3          	csrr	a5,misa
20400258:	00042737          	lui	a4,0x42
2040025c:	8f7d                	and	a4,a4,a5
2040025e:	c709                	beqz	a4,20400268 <_skip_init+0x20>
20400260:	3036b073          	csrc	mideleg,a3
20400264:	3026b073          	csrc	medeleg,a3
20400268:	00040737          	lui	a4,0x40
2040026c:	8f7d                	and	a4,a4,a5
2040026e:	c319                	beqz	a4,20400274 <_skip_init+0x2c>
20400270:	1806b073          	csrc	satp,a3
20400274:	00010737          	lui	a4,0x10
20400278:	02870713          	addi	a4,a4,40 # 10028 <__stack_size+0xf028>
2040027c:	8ff9                	and	a5,a5,a4
2040027e:	cb89                	beqz	a5,20400290 <_skip_init+0x48>
20400280:	300027f3          	csrr	a5,mstatus
20400284:	6709                	lui	a4,0x2
20400286:	8fd9                	or	a5,a5,a4
20400288:	30079073          	csrw	mstatus,a5
2040028c:	00305073          	csrwi	fcsr,0
20400290:	301027f3          	csrr	a5,misa
20400294:	00200737          	lui	a4,0x200
20400298:	8ff9                	and	a5,a5,a4
2040029a:	c799                	beqz	a5,204002a8 <_skip_init+0x60>
2040029c:	300027f3          	csrr	a5,mstatus
204002a0:	2007e793          	ori	a5,a5,512
204002a4:	30079073          	csrw	mstatus,a5
204002a8:	4505                	li	a0,1
204002aa:	19018593          	addi	a1,gp,400 # 80001400 <argv>
204002ae:	19418613          	addi	a2,gp,404 # 80001404 <envp>
204002b2:	2031                	jal	204002be <secondary_main>
204002b4:	73d040ef          	jal	ra,204051f0 <exit>
204002b8:	80a2                	mv	ra,s0
204002ba:	8082                	ret

204002bc <_fini>:
_init():
204002bc:	8082                	ret

204002be <secondary_main>:
secondary_main():
204002be:	1141                	addi	sp,sp,-16
204002c0:	c206                	sw	ra,4(sp)
204002c2:	f14022f3          	csrr	t0,mhartid
204002c6:	00000313          	li	t1,0
204002ca:	00628563          	beq	t0,t1,204002d4 <secondary_main+0x16>
204002ce:	10500073          	wfi
204002d2:	bff5                	j	204002ce <secondary_main+0x10>
204002d4:	20f1                	jal	204003a0 <main>
204002d6:	4092                	lw	ra,4(sp)
204002d8:	0141                	addi	sp,sp,16
204002da:	8082                	ret

Déassemblage de la section .ctors :

204002ec <metal_tty_init>:
metal_tty_init():
204002ec:	65f1                	lui	a1,0x1c
204002ee:	80001537          	lui	a0,0x80001
204002f2:	20058593          	addi	a1,a1,512 # 1c200 <__stack_size+0x1b200>
204002f6:	a5050513          	addi	a0,a0,-1456 # 80000a50 <metal_segment_heap_target_end+0xffffd1d0>
204002fa:	0bf0506f          	j	20405bb8 <metal_uart_init>

204002fe <metal_sifive_fe310_g000_pll_init>:
metal_sifive_fe310_g000_pll_init():
204002fe:	80000537          	lui	a0,0x80000
20400302:	09050513          	addi	a0,a0,144 # 80000090 <metal_segment_heap_target_end+0xffffc810>
20400306:	7090606f          	j	2040720e <__metal_driver_sifive_fe310_g000_pll_init>

2040030a <use_hfxosc>:
use_hfxosc():
2040030a:	00f425b7          	lui	a1,0xf42
2040030e:	80000537          	lui	a0,0x80000
20400312:	40058593          	addi	a1,a1,1024 # f42400 <__stack_size+0xf41400>
20400316:	09050513          	addi	a0,a0,144 # 80000090 <metal_segment_heap_target_end+0xffffc810>
2040031a:	7ac0706f          	j	20407ac6 <metal_clock_set_rate_hz>

Déassemblage de la section .text :

20400380 <core_bench_list.cold.1>:
core_bench_list.cold.1():
20400380:	00002023          	sw	zero,0(zero) # 0 <__metal_boot_hart>
20400384:	9002                	ebreak
20400386:	00002023          	sw	zero,0(zero) # 0 <__metal_boot_hart>
2040038a:	9002                	ebreak

2040038c <core_list_init.cold.2>:
core_list_init.cold.2():
2040038c:	00002023          	sw	zero,0(zero) # 0 <__metal_boot_hart>
20400390:	9002                	ebreak
	...

204003a0 <main>:
main():
204003a0:	7159                	addi	sp,sp,-112
204003a2:	d686                	sw	ra,108(sp)
204003a4:	6705                	lui	a4,0x1
204003a6:	d4a2                	sw	s0,104(sp)
204003a8:	d2a6                	sw	s1,100(sp)
204003aa:	d0ca                	sw	s2,96(sp)
204003ac:	cece                	sw	s3,92(sp)
204003ae:	ccd2                	sw	s4,88(sp)
204003b0:	cad6                	sw	s5,84(sp)
204003b2:	c8da                	sw	s6,80(sp)
204003b4:	c6de                	sw	s7,76(sp)
204003b6:	c4e2                	sw	s8,72(sp)
204003b8:	c2e6                	sw	s9,68(sp)
204003ba:	c0ea                	sw	s10,64(sp)
204003bc:	81010113          	addi	sp,sp,-2032
204003c0:	82070693          	addi	a3,a4,-2016 # 820 <__heap_size+0x20>
204003c4:	0808                	addi	a0,sp,16
204003c6:	96aa                	add	a3,a3,a0
204003c8:	77fd                	lui	a5,0xfffff
204003ca:	7e878613          	addi	a2,a5,2024 # fffff7e8 <metal_segment_heap_target_end+0x7fffbf68>
204003ce:	7e478593          	addi	a1,a5,2020
204003d2:	97b6                	add	a5,a5,a3
204003d4:	c63e                	sw	a5,12(sp)
204003d6:	82070793          	addi	a5,a4,-2016
204003da:	97aa                	add	a5,a5,a0
204003dc:	963e                	add	a2,a2,a5
204003de:	82070793          	addi	a5,a4,-2016
204003e2:	97aa                	add	a5,a5,a0
204003e4:	95be                	add	a1,a1,a5
204003e6:	47b2                	lw	a5,12(sp)
204003e8:	05e10513          	addi	a0,sp,94
204003ec:	7e07a223          	sw	zero,2020(a5)
204003f0:	231030ef          	jal	ra,20403e20 <portable_init>
204003f4:	4505                	li	a0,1
204003f6:	30a030ef          	jal	ra,20403700 <get_seed_32>
204003fa:	47b2                	lw	a5,12(sp)
204003fc:	7ea79623          	sh	a0,2028(a5)
20400400:	4509                	li	a0,2
20400402:	2fe030ef          	jal	ra,20403700 <get_seed_32>
20400406:	47b2                	lw	a5,12(sp)
20400408:	7ea79723          	sh	a0,2030(a5)
2040040c:	450d                	li	a0,3
2040040e:	2f2030ef          	jal	ra,20403700 <get_seed_32>
20400412:	47b2                	lw	a5,12(sp)
20400414:	7ea79823          	sh	a0,2032(a5)
20400418:	4511                	li	a0,4
2040041a:	2e6030ef          	jal	ra,20403700 <get_seed_32>
2040041e:	dc2a                	sw	a0,56(sp)
20400420:	4515                	li	a0,5
20400422:	2de030ef          	jal	ra,20403700 <get_seed_32>
20400426:	6e050463          	beqz	a0,20400b0e <main+0x76e>
2040042a:	de2a                	sw	a0,60(sp)
2040042c:	6705                	lui	a4,0x1
2040042e:	82070713          	addi	a4,a4,-2016 # 820 <__heap_size+0x20>
20400432:	0814                	addi	a3,sp,16
20400434:	77fd                	lui	a5,0xfffff
20400436:	9736                	add	a4,a4,a3
20400438:	97ba                	add	a5,a5,a4
2040043a:	c63e                	sw	a5,12(sp)
2040043c:	7ec7a783          	lw	a5,2028(a5) # fffff7ec <metal_segment_heap_target_end+0x7fffbf6c>
20400440:	40078763          	beqz	a5,2040084e <main+0x4ae>
20400444:	6705                	lui	a4,0x1
20400446:	82070713          	addi	a4,a4,-2016 # 820 <__heap_size+0x20>
2040044a:	0814                	addi	a3,sp,16
2040044c:	9736                	add	a4,a4,a3
2040044e:	77fd                	lui	a5,0xfffff
20400450:	97ba                	add	a5,a5,a4
20400452:	7ec7a703          	lw	a4,2028(a5) # fffff7ec <metal_segment_heap_target_end+0x7fffbf6c>
20400456:	c63e                	sw	a5,12(sp)
20400458:	4785                	li	a5,1
2040045a:	6cf70e63          	beq	a4,a5,20400b36 <main+0x796>
2040045e:	6585                	lui	a1,0x1
20400460:	0808                	addi	a0,sp,16
20400462:	82058593          	addi	a1,a1,-2016 # 820 <__heap_size+0x20>
20400466:	95aa                	add	a1,a1,a0
20400468:	767d                	lui	a2,0xfffff
2040046a:	57f2                	lw	a5,60(sp)
2040046c:	962e                	add	a2,a2,a1
2040046e:	c632                	sw	a2,12(sp)
20400470:	45b2                	lw	a1,12(sp)
20400472:	0017f693          	andi	a3,a5,1
20400476:	1090                	addi	a2,sp,96
20400478:	0027f713          	andi	a4,a5,2
2040047c:	01069513          	slli	a0,a3,0x10
20400480:	7ec5aa23          	sw	a2,2036(a1)
20400484:	8141                	srli	a0,a0,0x10
20400486:	00e035b3          	snez	a1,a4
2040048a:	04011e23          	sh	zero,92(sp)
2040048e:	0047f613          	andi	a2,a5,4
20400492:	952e                	add	a0,a0,a1
20400494:	c601                	beqz	a2,2040049c <main+0xfc>
20400496:	0505                	addi	a0,a0,1
20400498:	0542                	slli	a0,a0,0x10
2040049a:	8141                	srli	a0,a0,0x10
2040049c:	7d000613          	li	a2,2000
204004a0:	02a64533          	div	a0,a2,a0
204004a4:	6485                	lui	s1,0x1
204004a6:	01010893          	addi	a7,sp,16
204004aa:	767d                	lui	a2,0xfffff
204004ac:	82048413          	addi	s0,s1,-2016 # 820 <__heap_size+0x20>
204004b0:	9446                	add	s0,s0,a7
204004b2:	7ec60593          	addi	a1,a2,2028 # fffff7ec <metal_segment_heap_target_end+0x7fffbf6c>
204004b6:	95a2                	add	a1,a1,s0
204004b8:	82048413          	addi	s0,s1,-2016
204004bc:	9446                	add	s0,s0,a7
204004be:	4801                	li	a6,0
204004c0:	4301                	li	t1,0
204004c2:	4e05                	li	t3,1
204004c4:	9622                	add	a2,a2,s0
204004c6:	488d                	li	a7,3
204004c8:	da2a                	sw	a0,52(sp)
204004ca:	010e1eb3          	sll	t4,t3,a6
204004ce:	00fefeb3          	and	t4,t4,a5
204004d2:	02a30f33          	mul	t5,t1,a0
204004d6:	6a0e9363          	bnez	t4,20400b7c <main+0x7dc>
204004da:	0805                	addi	a6,a6,1
204004dc:	ff1817e3          	bne	a6,a7,204004ca <main+0x12a>
204004e0:	38069263          	bnez	a3,20400864 <main+0x4c4>
204004e4:	3a071463          	bnez	a4,2040088c <main+0x4ec>
204004e8:	8b91                	andi	a5,a5,4
204004ea:	cf99                	beqz	a5,20400508 <main+0x168>
204004ec:	6705                	lui	a4,0x1
204004ee:	82070713          	addi	a4,a4,-2016 # 820 <__heap_size+0x20>
204004f2:	0814                	addi	a3,sp,16
204004f4:	77fd                	lui	a5,0xfffff
204004f6:	9736                	add	a4,a4,a3
204004f8:	97ba                	add	a5,a5,a4
204004fa:	5642                	lw	a2,48(sp)
204004fc:	7ec79583          	lh	a1,2028(a5) # fffff7ec <metal_segment_heap_target_end+0x7fffbf6c>
20400500:	5552                	lw	a0,52(sp)
20400502:	c63e                	sw	a5,12(sp)
20400504:	05c030ef          	jal	ra,20403560 <core_init_state>
20400508:	57e2                	lw	a5,56(sp)
2040050a:	1a079c63          	bnez	a5,204006c2 <main+0x322>
2040050e:	4785                	li	a5,1
20400510:	dc3e                	sw	a5,56(sp)
20400512:	6785                	lui	a5,0x1
20400514:	747d                	lui	s0,0xfffff
20400516:	82078793          	addi	a5,a5,-2016 # 820 <__heap_size+0x20>
2040051a:	0818                	addi	a4,sp,16
2040051c:	7ec40413          	addi	s0,s0,2028 # fffff7ec <metal_segment_heap_target_end+0x7fffbf6c>
20400520:	97ba                	add	a5,a5,a4
20400522:	943e                	add	s0,s0,a5
20400524:	5762                	lw	a4,56(sp)
20400526:	4481                	li	s1,0
20400528:	00271793          	slli	a5,a4,0x2
2040052c:	97ba                	add	a5,a5,a4
2040052e:	0786                	slli	a5,a5,0x1
20400530:	dc3e                	sw	a5,56(sp)
20400532:	05f030ef          	jal	ra,20403d90 <start_time>
20400536:	59e2                	lw	s3,56(sp)
20400538:	ca82                	sw	zero,84(sp)
2040053a:	cc82                	sw	zero,88(sp)
2040053c:	17305363          	blez	s3,204006a2 <main+0x302>
20400540:	0039f793          	andi	a5,s3,3
20400544:	cfc9                	beqz	a5,204005de <main+0x23e>
20400546:	4705                	li	a4,1
20400548:	06e78363          	beq	a5,a4,204005ae <main+0x20e>
2040054c:	4709                	li	a4,2
2040054e:	02e78963          	beq	a5,a4,20400580 <main+0x1e0>
20400552:	4585                	li	a1,1
20400554:	8522                	mv	a0,s0
20400556:	67a000ef          	jal	ra,20400bd0 <core_bench_list>
2040055a:	05415583          	lhu	a1,84(sp)
2040055e:	4485                	li	s1,1
20400560:	210030ef          	jal	ra,20403770 <crcu16>
20400564:	04a11a23          	sh	a0,84(sp)
20400568:	55fd                	li	a1,-1
2040056a:	8522                	mv	a0,s0
2040056c:	664000ef          	jal	ra,20400bd0 <core_bench_list>
20400570:	05415583          	lhu	a1,84(sp)
20400574:	1fc030ef          	jal	ra,20403770 <crcu16>
20400578:	04a11a23          	sh	a0,84(sp)
2040057c:	04a11b23          	sh	a0,86(sp)
20400580:	4585                	li	a1,1
20400582:	8522                	mv	a0,s0
20400584:	64c000ef          	jal	ra,20400bd0 <core_bench_list>
20400588:	05415583          	lhu	a1,84(sp)
2040058c:	1e4030ef          	jal	ra,20403770 <crcu16>
20400590:	04a11a23          	sh	a0,84(sp)
20400594:	55fd                	li	a1,-1
20400596:	8522                	mv	a0,s0
20400598:	638000ef          	jal	ra,20400bd0 <core_bench_list>
2040059c:	05415583          	lhu	a1,84(sp)
204005a0:	1d0030ef          	jal	ra,20403770 <crcu16>
204005a4:	04a11a23          	sh	a0,84(sp)
204005a8:	56048d63          	beqz	s1,20400b22 <main+0x782>
204005ac:	0485                	addi	s1,s1,1
204005ae:	4585                	li	a1,1
204005b0:	8522                	mv	a0,s0
204005b2:	2d39                	jal	20400bd0 <core_bench_list>
204005b4:	05415583          	lhu	a1,84(sp)
204005b8:	1b8030ef          	jal	ra,20403770 <crcu16>
204005bc:	04a11a23          	sh	a0,84(sp)
204005c0:	55fd                	li	a1,-1
204005c2:	8522                	mv	a0,s0
204005c4:	2531                	jal	20400bd0 <core_bench_list>
204005c6:	05415583          	lhu	a1,84(sp)
204005ca:	1a6030ef          	jal	ra,20403770 <crcu16>
204005ce:	04a11a23          	sh	a0,84(sp)
204005d2:	e099                	bnez	s1,204005d8 <main+0x238>
204005d4:	04a11b23          	sh	a0,86(sp)
204005d8:	0485                	addi	s1,s1,1
204005da:	0c998463          	beq	s3,s1,204006a2 <main+0x302>
204005de:	4585                	li	a1,1
204005e0:	8522                	mv	a0,s0
204005e2:	23fd                	jal	20400bd0 <core_bench_list>
204005e4:	05415583          	lhu	a1,84(sp)
204005e8:	00148913          	addi	s2,s1,1
204005ec:	00190a93          	addi	s5,s2,1
204005f0:	180030ef          	jal	ra,20403770 <crcu16>
204005f4:	04a11a23          	sh	a0,84(sp)
204005f8:	55fd                	li	a1,-1
204005fa:	8522                	mv	a0,s0
204005fc:	2bd1                	jal	20400bd0 <core_bench_list>
204005fe:	05415583          	lhu	a1,84(sp)
20400602:	00290a13          	addi	s4,s2,2
20400606:	16a030ef          	jal	ra,20403770 <crcu16>
2040060a:	87aa                	mv	a5,a0
2040060c:	04f11a23          	sh	a5,84(sp)
20400610:	4585                	li	a1,1
20400612:	8522                	mv	a0,s0
20400614:	e099                	bnez	s1,2040061a <main+0x27a>
20400616:	04f11b23          	sh	a5,86(sp)
2040061a:	2b5d                	jal	20400bd0 <core_bench_list>
2040061c:	05415583          	lhu	a1,84(sp)
20400620:	00390493          	addi	s1,s2,3
20400624:	14c030ef          	jal	ra,20403770 <crcu16>
20400628:	04a11a23          	sh	a0,84(sp)
2040062c:	55fd                	li	a1,-1
2040062e:	8522                	mv	a0,s0
20400630:	2345                	jal	20400bd0 <core_bench_list>
20400632:	05415583          	lhu	a1,84(sp)
20400636:	13a030ef          	jal	ra,20403770 <crcu16>
2040063a:	87aa                	mv	a5,a0
2040063c:	04f11a23          	sh	a5,84(sp)
20400640:	4585                	li	a1,1
20400642:	8522                	mv	a0,s0
20400644:	00091463          	bnez	s2,2040064c <main+0x2ac>
20400648:	04f11b23          	sh	a5,86(sp)
2040064c:	2351                	jal	20400bd0 <core_bench_list>
2040064e:	05415583          	lhu	a1,84(sp)
20400652:	11e030ef          	jal	ra,20403770 <crcu16>
20400656:	04a11a23          	sh	a0,84(sp)
2040065a:	55fd                	li	a1,-1
2040065c:	8522                	mv	a0,s0
2040065e:	2b8d                	jal	20400bd0 <core_bench_list>
20400660:	05415583          	lhu	a1,84(sp)
20400664:	10c030ef          	jal	ra,20403770 <crcu16>
20400668:	87aa                	mv	a5,a0
2040066a:	04f11a23          	sh	a5,84(sp)
2040066e:	4585                	li	a1,1
20400670:	8522                	mv	a0,s0
20400672:	000a9463          	bnez	s5,2040067a <main+0x2da>
20400676:	04f11b23          	sh	a5,86(sp)
2040067a:	2b99                	jal	20400bd0 <core_bench_list>
2040067c:	05415583          	lhu	a1,84(sp)
20400680:	0f0030ef          	jal	ra,20403770 <crcu16>
20400684:	04a11a23          	sh	a0,84(sp)
20400688:	55fd                	li	a1,-1
2040068a:	8522                	mv	a0,s0
2040068c:	2391                	jal	20400bd0 <core_bench_list>
2040068e:	05415583          	lhu	a1,84(sp)
20400692:	0de030ef          	jal	ra,20403770 <crcu16>
20400696:	04a11a23          	sh	a0,84(sp)
2040069a:	460a0f63          	beqz	s4,20400b18 <main+0x778>
2040069e:	f49990e3          	bne	s3,s1,204005de <main+0x23e>
204006a2:	70e030ef          	jal	ra,20403db0 <stop_time>
204006a6:	72a030ef          	jal	ra,20403dd0 <get_time>
204006aa:	756030ef          	jal	ra,20403e00 <time_in_secs>
204006ae:	e6a05be3          	blez	a0,20400524 <main+0x184>
204006b2:	47a9                	li	a5,10
204006b4:	02a7c7b3          	div	a5,a5,a0
204006b8:	5762                	lw	a4,56(sp)
204006ba:	0785                	addi	a5,a5,1
204006bc:	02e787b3          	mul	a5,a5,a4
204006c0:	dc3e                	sw	a5,56(sp)
204006c2:	6ce030ef          	jal	ra,20403d90 <start_time>
204006c6:	6485                	lui	s1,0x1
204006c8:	0818                	addi	a4,sp,16
204006ca:	747d                	lui	s0,0xfffff
204006cc:	82048793          	addi	a5,s1,-2016 # 820 <__heap_size+0x20>
204006d0:	97ba                	add	a5,a5,a4
204006d2:	7ec40513          	addi	a0,s0,2028 # fffff7ec <metal_segment_heap_target_end+0x7fffbf6c>
204006d6:	953e                	add	a0,a0,a5
204006d8:	719000ef          	jal	ra,204015f0 <iterate>
204006dc:	6d4030ef          	jal	ra,20403db0 <stop_time>
204006e0:	6f0030ef          	jal	ra,20403dd0 <get_time>
204006e4:	0818                	addi	a4,sp,16
204006e6:	82048793          	addi	a5,s1,-2016
204006ea:	97ba                	add	a5,a5,a4
204006ec:	97a2                	add	a5,a5,s0
204006ee:	8b2a                	mv	s6,a0
204006f0:	7ec79503          	lh	a0,2028(a5)
204006f4:	4581                	li	a1,0
204006f6:	c63e                	sw	a5,12(sp)
204006f8:	4f8030ef          	jal	ra,20403bf0 <crc16>
204006fc:	47b2                	lw	a5,12(sp)
204006fe:	85aa                	mv	a1,a0
20400700:	7ee79503          	lh	a0,2030(a5)
20400704:	4ec030ef          	jal	ra,20403bf0 <crc16>
20400708:	47b2                	lw	a5,12(sp)
2040070a:	85aa                	mv	a1,a0
2040070c:	7f079503          	lh	a0,2032(a5)
20400710:	4e0030ef          	jal	ra,20403bf0 <crc16>
20400714:	85aa                	mv	a1,a0
20400716:	03411503          	lh	a0,52(sp)
2040071a:	4d6030ef          	jal	ra,20403bf0 <crc16>
2040071e:	67a1                	lui	a5,0x8
20400720:	b0578793          	addi	a5,a5,-1275 # 7b05 <__stack_size+0x6b05>
20400724:	89aa                	mv	s3,a0
20400726:	46f50963          	beq	a0,a5,20400b98 <main+0x7f8>
2040072a:	18a7f963          	bgeu	a5,a0,204008bc <main+0x51c>
2040072e:	67a5                	lui	a5,0x9
20400730:	a0278793          	addi	a5,a5,-1534 # 8a02 <__stack_size+0x7a02>
20400734:	46f50863          	beq	a0,a5,20400ba4 <main+0x804>
20400738:	67bd                	lui	a5,0xf
2040073a:	9f578793          	addi	a5,a5,-1547 # e9f5 <__stack_size+0xd9f5>
2040073e:	40f51e63          	bne	a0,a5,20400b5a <main+0x7ba>
20400742:	8f418513          	addi	a0,gp,-1804 # 80000b64 <list_known_crc+0x94>
20400746:	043030ef          	jal	ra,20403f88 <puts>
2040074a:	4a0d                	li	s4,3
2040074c:	80001937          	lui	s2,0x80001
20400750:	a7092783          	lw	a5,-1424(s2) # 80000a70 <metal_segment_heap_target_end+0xffffd1f0>
20400754:	4d01                	li	s10,0
20400756:	4481                	li	s1,0
20400758:	4c81                	li	s9,0
2040075a:	1af05163          	blez	a5,204008fc <main+0x55c>
2040075e:	6685                	lui	a3,0x1
20400760:	82068693          	addi	a3,a3,-2016 # 820 <__heap_size+0x20>
20400764:	0810                	addi	a2,sp,16
20400766:	001a1793          	slli	a5,s4,0x1
2040076a:	777d                	lui	a4,0xfffff
2040076c:	96b2                	add	a3,a3,a2
2040076e:	9736                	add	a4,a4,a3
20400770:	86018b93          	addi	s7,gp,-1952 # 80000ad0 <list_known_crc>
20400774:	fec18a93          	addi	s5,gp,-20 # 8000125c <matrix_known_crc>
20400778:	ff818a13          	addi	s4,gp,-8 # 80001268 <state_known_crc>
2040077c:	c63a                	sw	a4,12(sp)
2040077e:	9bbe                	add	s7,s7,a5
20400780:	9abe                	add	s5,s5,a5
20400782:	9a3e                	add	s4,s4,a5
20400784:	a035                	j	204007b0 <main+0x410>
20400786:	0001                	nop
20400788:	47b2                	lw	a5,12(sp)
2040078a:	9466                	add	s0,s0,s9
2040078c:	040a                	slli	s0,s0,0x2
2040078e:	943e                	add	s0,s0,a5
20400790:	6785                	lui	a5,0x1
20400792:	943e                	add	s0,s0,a5
20400794:	82c41703          	lh	a4,-2004(s0)
20400798:	0485                	addi	s1,s1,1
2040079a:	a7092783          	lw	a5,-1424(s2)
2040079e:	9d3a                	add	s10,s10,a4
204007a0:	04c2                	slli	s1,s1,0x10
204007a2:	80c1                	srli	s1,s1,0x10
204007a4:	0d42                	slli	s10,s10,0x10
204007a6:	410d5d13          	srai	s10,s10,0x10
204007aa:	8ca6                	mv	s9,s1
204007ac:	14f4d863          	bge	s1,a5,204008fc <main+0x55c>
204007b0:	004c9413          	slli	s0,s9,0x4
204007b4:	4732                	lw	a4,12(sp)
204007b6:	019407b3          	add	a5,s0,s9
204007ba:	078a                	slli	a5,a5,0x2
204007bc:	97ba                	add	a5,a5,a4
204007be:	6c05                	lui	s8,0x1
204007c0:	9c3e                	add	s8,s8,a5
204007c2:	80cc2783          	lw	a5,-2036(s8) # 80c <__heap_size+0xc>
204007c6:	820c1623          	sh	zero,-2004(s8)
204007ca:	8b85                	andi	a5,a5,1
204007cc:	c38d                	beqz	a5,204007ee <main+0x44e>
204007ce:	826c5603          	lhu	a2,-2010(s8)
204007d2:	000bd683          	lhu	a3,0(s7)
204007d6:	00d60c63          	beq	a2,a3,204007ee <main+0x44e>
204007da:	85e6                	mv	a1,s9
204007dc:	94c18513          	addi	a0,gp,-1716 # 80000bbc <list_known_crc+0xec>
204007e0:	69a030ef          	jal	ra,20403e7a <iprintf>
204007e4:	82cc5783          	lhu	a5,-2004(s8)
204007e8:	0785                	addi	a5,a5,1
204007ea:	82fc1623          	sh	a5,-2004(s8)
204007ee:	4732                	lw	a4,12(sp)
204007f0:	019407b3          	add	a5,s0,s9
204007f4:	078a                	slli	a5,a5,0x2
204007f6:	97ba                	add	a5,a5,a4
204007f8:	6c05                	lui	s8,0x1
204007fa:	9c3e                	add	s8,s8,a5
204007fc:	80cc2703          	lw	a4,-2036(s8) # 80c <__heap_size+0xc>
20400800:	00277793          	andi	a5,a4,2
20400804:	c39d                	beqz	a5,2040082a <main+0x48a>
20400806:	828c5603          	lhu	a2,-2008(s8)
2040080a:	000ad683          	lhu	a3,0(s5)
2040080e:	00d60e63          	beq	a2,a3,2040082a <main+0x48a>
20400812:	85e6                	mv	a1,s9
20400814:	97c18513          	addi	a0,gp,-1668 # 80000bec <list_known_crc+0x11c>
20400818:	662030ef          	jal	ra,20403e7a <iprintf>
2040081c:	82cc5783          	lhu	a5,-2004(s8)
20400820:	80cc2703          	lw	a4,-2036(s8)
20400824:	0785                	addi	a5,a5,1
20400826:	82fc1623          	sh	a5,-2004(s8)
2040082a:	8b11                	andi	a4,a4,4
2040082c:	df31                	beqz	a4,20400788 <main+0x3e8>
2040082e:	4732                	lw	a4,12(sp)
20400830:	019407b3          	add	a5,s0,s9
20400834:	078a                	slli	a5,a5,0x2
20400836:	97ba                	add	a5,a5,a4
20400838:	6405                	lui	s0,0x1
2040083a:	943e                	add	s0,s0,a5
2040083c:	82a45603          	lhu	a2,-2006(s0) # 82a <__heap_size+0x2a>
20400840:	000a5683          	lhu	a3,0(s4)
20400844:	08d61c63          	bne	a2,a3,204008dc <main+0x53c>
20400848:	82c41703          	lh	a4,-2004(s0)
2040084c:	b7b1                	j	20400798 <main+0x3f8>
2040084e:	47b2                	lw	a5,12(sp)
20400850:	7f079783          	lh	a5,2032(a5) # 17f0 <__stack_size+0x7f0>
20400854:	be0798e3          	bnez	a5,20400444 <main+0xa4>
20400858:	4732                	lw	a4,12(sp)
2040085a:	06600793          	li	a5,102
2040085e:	7ef71823          	sh	a5,2032(a4) # fffff7f0 <metal_segment_heap_target_end+0x7fffbf70>
20400862:	b6cd                	j	20400444 <main+0xa4>
20400864:	6705                	lui	a4,0x1
20400866:	0814                	addi	a3,sp,16
20400868:	82070713          	addi	a4,a4,-2016 # 820 <__heap_size+0x20>
2040086c:	9736                	add	a4,a4,a3
2040086e:	77fd                	lui	a5,0xfffff
20400870:	97ba                	add	a5,a5,a4
20400872:	7ec79603          	lh	a2,2028(a5) # fffff7ec <metal_segment_heap_target_end+0x7fffbf6c>
20400876:	7f87a583          	lw	a1,2040(a5)
2040087a:	c63e                	sw	a5,12(sp)
2040087c:	235000ef          	jal	ra,204012b0 <core_list_init>
20400880:	57f2                	lw	a5,60(sp)
20400882:	c0aa                	sw	a0,64(sp)
20400884:	0027f713          	andi	a4,a5,2
20400888:	c60700e3          	beqz	a4,204004e8 <main+0x148>
2040088c:	6705                	lui	a4,0x1
2040088e:	0814                	addi	a3,sp,16
20400890:	82070713          	addi	a4,a4,-2016 # 820 <__heap_size+0x20>
20400894:	9736                	add	a4,a4,a3
20400896:	77fd                	lui	a5,0xfffff
20400898:	97ba                	add	a5,a5,a4
2040089a:	c63e                	sw	a5,12(sp)
2040089c:	4732                	lw	a4,12(sp)
2040089e:	7ee79783          	lh	a5,2030(a5) # fffff7ee <metal_segment_heap_target_end+0x7fffbf6e>
204008a2:	5552                	lw	a0,52(sp)
204008a4:	7ec71603          	lh	a2,2028(a4)
204008a8:	7fc72583          	lw	a1,2044(a4)
204008ac:	07c2                	slli	a5,a5,0x10
204008ae:	8e5d                	or	a2,a2,a5
204008b0:	00d4                	addi	a3,sp,68
204008b2:	1de020ef          	jal	ra,20402a90 <core_init_matrix>
204008b6:	57f2                	lw	a5,60(sp)
204008b8:	b905                	j	204004e8 <main+0x148>
204008ba:	0001                	nop
204008bc:	6789                	lui	a5,0x2
204008be:	8f278793          	addi	a5,a5,-1806 # 18f2 <__stack_size+0x8f2>
204008c2:	2ef50763          	beq	a0,a5,20400bb0 <main+0x810>
204008c6:	6795                	lui	a5,0x5
204008c8:	eaf78793          	addi	a5,a5,-337 # 4eaf <__stack_size+0x3eaf>
204008cc:	02f51563          	bne	a0,a5,204008f6 <main+0x556>
204008d0:	8c418513          	addi	a0,gp,-1852 # 80000b34 <list_known_crc+0x64>
204008d4:	6b4030ef          	jal	ra,20403f88 <puts>
204008d8:	4a09                	li	s4,2
204008da:	bd8d                	j	2040074c <main+0x3ac>
204008dc:	85e6                	mv	a1,s9
204008de:	9b018513          	addi	a0,gp,-1616 # 80000c20 <list_known_crc+0x150>
204008e2:	598030ef          	jal	ra,20403e7a <iprintf>
204008e6:	82c45703          	lhu	a4,-2004(s0)
204008ea:	0705                	addi	a4,a4,1
204008ec:	0742                	slli	a4,a4,0x10
204008ee:	8741                	srai	a4,a4,0x10
204008f0:	82e41623          	sh	a4,-2004(s0)
204008f4:	b555                	j	20400798 <main+0x3f8>
204008f6:	5d7d                	li	s10,-1
204008f8:	80001937          	lui	s2,0x80001
204008fc:	474030ef          	jal	ra,20403d70 <check_data_types>
20400900:	55d2                	lw	a1,52(sp)
20400902:	00ad04b3          	add	s1,s10,a0
20400906:	9e018513          	addi	a0,gp,-1568 # 80000c50 <list_known_crc+0x180>
2040090a:	570030ef          	jal	ra,20403e7a <iprintf>
2040090e:	85da                	mv	a1,s6
20400910:	9f818513          	addi	a0,gp,-1544 # 80000c68 <list_known_crc+0x198>
20400914:	566030ef          	jal	ra,20403e7a <iprintf>
20400918:	855a                	mv	a0,s6
2040091a:	4e6030ef          	jal	ra,20403e00 <time_in_secs>
2040091e:	85aa                	mv	a1,a0
20400920:	a1018513          	addi	a0,gp,-1520 # 80000c80 <list_known_crc+0x1b0>
20400924:	556030ef          	jal	ra,20403e7a <iprintf>
20400928:	04c2                	slli	s1,s1,0x10
2040092a:	855a                	mv	a0,s6
2040092c:	84c1                	srai	s1,s1,0x10
2040092e:	4d2030ef          	jal	ra,20403e00 <time_in_secs>
20400932:	02a05063          	blez	a0,20400952 <main+0x5b2>
20400936:	a7092583          	lw	a1,-1424(s2) # 80000a70 <metal_segment_heap_target_end+0xffffd1f0>
2040093a:	5462                	lw	s0,56(sp)
2040093c:	855a                	mv	a0,s6
2040093e:	02b40433          	mul	s0,s0,a1
20400942:	4be030ef          	jal	ra,20403e00 <time_in_secs>
20400946:	02a445b3          	div	a1,s0,a0
2040094a:	a2818513          	addi	a0,gp,-1496 # 80000c98 <list_known_crc+0x1c8>
2040094e:	52c030ef          	jal	ra,20403e7a <iprintf>
20400952:	855a                	mv	a0,s6
20400954:	4ac030ef          	jal	ra,20403e00 <time_in_secs>
20400958:	47a5                	li	a5,9
2040095a:	20a7d963          	bge	a5,a0,20400b6c <main+0x7cc>
2040095e:	a7092783          	lw	a5,-1424(s2)
20400962:	55e2                	lw	a1,56(sp)
20400964:	a8018513          	addi	a0,gp,-1408 # 80000cf0 <list_known_crc+0x220>
20400968:	02f585b3          	mul	a1,a1,a5
2040096c:	50e030ef          	jal	ra,20403e7a <iprintf>
20400970:	a9818593          	addi	a1,gp,-1384 # 80000d08 <list_known_crc+0x238>
20400974:	aa418513          	addi	a0,gp,-1372 # 80000d14 <list_known_crc+0x244>
20400978:	502030ef          	jal	ra,20403e7a <iprintf>
2040097c:	abc18593          	addi	a1,gp,-1348 # 80000d2c <list_known_crc+0x25c>
20400980:	e6c18513          	addi	a0,gp,-404 # 800010dc <list_known_crc+0x60c>
20400984:	4f6030ef          	jal	ra,20403e7a <iprintf>
20400988:	e8418593          	addi	a1,gp,-380 # 800010f4 <list_known_crc+0x624>
2040098c:	e8c18513          	addi	a0,gp,-372 # 800010fc <list_known_crc+0x62c>
20400990:	4ea030ef          	jal	ra,20403e7a <iprintf>
20400994:	85ce                	mv	a1,s3
20400996:	ea418513          	addi	a0,gp,-348 # 80001114 <list_known_crc+0x644>
2040099a:	4e0030ef          	jal	ra,20403e7a <iprintf>
2040099e:	57f2                	lw	a5,60(sp)
204009a0:	0017f713          	andi	a4,a5,1
204009a4:	c731                	beqz	a4,204009f0 <main+0x650>
204009a6:	a7092703          	lw	a4,-1424(s2)
204009aa:	04e05363          	blez	a4,204009f0 <main+0x650>
204009ae:	6705                	lui	a4,0x1
204009b0:	82070713          	addi	a4,a4,-2016 # 820 <__heap_size+0x20>
204009b4:	0814                	addi	a3,sp,16
204009b6:	77fd                	lui	a5,0xfffff
204009b8:	9736                	add	a4,a4,a3
204009ba:	97ba                	add	a5,a5,a4
204009bc:	4401                	li	s0,0
204009be:	4581                	li	a1,0
204009c0:	c63e                	sw	a5,12(sp)
204009c2:	6a05                	lui	s4,0x1
204009c4:	00459793          	slli	a5,a1,0x4
204009c8:	4732                	lw	a4,12(sp)
204009ca:	97ae                	add	a5,a5,a1
204009cc:	078a                	slli	a5,a5,0x2
204009ce:	97ba                	add	a5,a5,a4
204009d0:	97d2                	add	a5,a5,s4
204009d2:	8267d603          	lhu	a2,-2010(a5) # ffffe826 <metal_segment_heap_target_end+0x7fffafa6>
204009d6:	ec018513          	addi	a0,gp,-320 # 80001130 <list_known_crc+0x660>
204009da:	0405                	addi	s0,s0,1
204009dc:	49e030ef          	jal	ra,20403e7a <iprintf>
204009e0:	a7092783          	lw	a5,-1424(s2)
204009e4:	0442                	slli	s0,s0,0x10
204009e6:	8041                	srli	s0,s0,0x10
204009e8:	85a2                	mv	a1,s0
204009ea:	fcf44de3          	blt	s0,a5,204009c4 <main+0x624>
204009ee:	57f2                	lw	a5,60(sp)
204009f0:	0027f713          	andi	a4,a5,2
204009f4:	a7092683          	lw	a3,-1424(s2)
204009f8:	c721                	beqz	a4,20400a40 <main+0x6a0>
204009fa:	04d05363          	blez	a3,20400a40 <main+0x6a0>
204009fe:	6705                	lui	a4,0x1
20400a00:	82070713          	addi	a4,a4,-2016 # 820 <__heap_size+0x20>
20400a04:	0814                	addi	a3,sp,16
20400a06:	77fd                	lui	a5,0xfffff
20400a08:	9736                	add	a4,a4,a3
20400a0a:	97ba                	add	a5,a5,a4
20400a0c:	4401                	li	s0,0
20400a0e:	4581                	li	a1,0
20400a10:	c63e                	sw	a5,12(sp)
20400a12:	6a05                	lui	s4,0x1
20400a14:	00459793          	slli	a5,a1,0x4
20400a18:	4732                	lw	a4,12(sp)
20400a1a:	97ae                	add	a5,a5,a1
20400a1c:	078a                	slli	a5,a5,0x2
20400a1e:	97ba                	add	a5,a5,a4
20400a20:	97d2                	add	a5,a5,s4
20400a22:	8287d603          	lhu	a2,-2008(a5) # ffffe828 <metal_segment_heap_target_end+0x7fffafa8>
20400a26:	edc18513          	addi	a0,gp,-292 # 8000114c <list_known_crc+0x67c>
20400a2a:	0405                	addi	s0,s0,1
20400a2c:	44e030ef          	jal	ra,20403e7a <iprintf>
20400a30:	a7092783          	lw	a5,-1424(s2)
20400a34:	0442                	slli	s0,s0,0x10
20400a36:	8041                	srli	s0,s0,0x10
20400a38:	85a2                	mv	a1,s0
20400a3a:	fcf44de3          	blt	s0,a5,20400a14 <main+0x674>
20400a3e:	57f2                	lw	a5,60(sp)
20400a40:	8b91                	andi	a5,a5,4
20400a42:	a7092703          	lw	a4,-1424(s2)
20400a46:	c7a1                	beqz	a5,20400a8e <main+0x6ee>
20400a48:	04e05363          	blez	a4,20400a8e <main+0x6ee>
20400a4c:	6705                	lui	a4,0x1
20400a4e:	82070713          	addi	a4,a4,-2016 # 820 <__heap_size+0x20>
20400a52:	0814                	addi	a3,sp,16
20400a54:	77fd                	lui	a5,0xfffff
20400a56:	9736                	add	a4,a4,a3
20400a58:	97ba                	add	a5,a5,a4
20400a5a:	4401                	li	s0,0
20400a5c:	4581                	li	a1,0
20400a5e:	c63e                	sw	a5,12(sp)
20400a60:	6a05                	lui	s4,0x1
20400a62:	0001                	nop
20400a64:	00459793          	slli	a5,a1,0x4
20400a68:	4732                	lw	a4,12(sp)
20400a6a:	97ae                	add	a5,a5,a1
20400a6c:	078a                	slli	a5,a5,0x2
20400a6e:	97ba                	add	a5,a5,a4
20400a70:	97d2                	add	a5,a5,s4
20400a72:	82a7d603          	lhu	a2,-2006(a5) # ffffe82a <metal_segment_heap_target_end+0x7fffafaa>
20400a76:	ef818513          	addi	a0,gp,-264 # 80001168 <list_known_crc+0x698>
20400a7a:	0405                	addi	s0,s0,1
20400a7c:	3fe030ef          	jal	ra,20403e7a <iprintf>
20400a80:	a7092783          	lw	a5,-1424(s2)
20400a84:	0442                	slli	s0,s0,0x10
20400a86:	8041                	srli	s0,s0,0x10
20400a88:	85a2                	mv	a1,s0
20400a8a:	fcf44de3          	blt	s0,a5,20400a64 <main+0x6c4>
20400a8e:	a7092783          	lw	a5,-1424(s2)
20400a92:	04f05263          	blez	a5,20400ad6 <main+0x736>
20400a96:	6705                	lui	a4,0x1
20400a98:	82070713          	addi	a4,a4,-2016 # 820 <__heap_size+0x20>
20400a9c:	0814                	addi	a3,sp,16
20400a9e:	77fd                	lui	a5,0xfffff
20400aa0:	9736                	add	a4,a4,a3
20400aa2:	97ba                	add	a5,a5,a4
20400aa4:	4401                	li	s0,0
20400aa6:	4581                	li	a1,0
20400aa8:	c63e                	sw	a5,12(sp)
20400aaa:	6a05                	lui	s4,0x1
20400aac:	00459793          	slli	a5,a1,0x4
20400ab0:	4732                	lw	a4,12(sp)
20400ab2:	97ae                	add	a5,a5,a1
20400ab4:	078a                	slli	a5,a5,0x2
20400ab6:	97ba                	add	a5,a5,a4
20400ab8:	97d2                	add	a5,a5,s4
20400aba:	8247d603          	lhu	a2,-2012(a5) # ffffe824 <metal_segment_heap_target_end+0x7fffafa4>
20400abe:	f1418513          	addi	a0,gp,-236 # 80001184 <list_known_crc+0x6b4>
20400ac2:	0405                	addi	s0,s0,1
20400ac4:	3b6030ef          	jal	ra,20403e7a <iprintf>
20400ac8:	a7092783          	lw	a5,-1424(s2)
20400acc:	0442                	slli	s0,s0,0x10
20400ace:	8041                	srli	s0,s0,0x10
20400ad0:	85a2                	mv	a1,s0
20400ad2:	fcf44de3          	blt	s0,a5,20400aac <main+0x70c>
20400ad6:	c4d1                	beqz	s1,20400b62 <main+0x7c2>
20400ad8:	04905863          	blez	s1,20400b28 <main+0x788>
20400adc:	f7818513          	addi	a0,gp,-136 # 800011e8 <list_known_crc+0x718>
20400ae0:	4a8030ef          	jal	ra,20403f88 <puts>
20400ae4:	05e10513          	addi	a0,sp,94
20400ae8:	358030ef          	jal	ra,20403e40 <portable_fini>
20400aec:	7f010113          	addi	sp,sp,2032
20400af0:	50b6                	lw	ra,108(sp)
20400af2:	4501                	li	a0,0
20400af4:	5426                	lw	s0,104(sp)
20400af6:	5496                	lw	s1,100(sp)
20400af8:	5906                	lw	s2,96(sp)
20400afa:	49f6                	lw	s3,92(sp)
20400afc:	4a66                	lw	s4,88(sp)
20400afe:	4ad6                	lw	s5,84(sp)
20400b00:	4b46                	lw	s6,80(sp)
20400b02:	4bb6                	lw	s7,76(sp)
20400b04:	4c26                	lw	s8,72(sp)
20400b06:	4c96                	lw	s9,68(sp)
20400b08:	4d06                	lw	s10,64(sp)
20400b0a:	6165                	addi	sp,sp,112
20400b0c:	8082                	ret
20400b0e:	479d                	li	a5,7
20400b10:	de3e                	sw	a5,60(sp)
20400b12:	91bff06f          	j	2040042c <main+0x8c>
20400b16:	0001                	nop
20400b18:	04a11b23          	sh	a0,86(sp)
20400b1c:	ac9991e3          	bne	s3,s1,204005de <main+0x23e>
20400b20:	b649                	j	204006a2 <main+0x302>
20400b22:	04a11b23          	sh	a0,86(sp)
20400b26:	b459                	j	204005ac <main+0x20c>
20400b28:	fa04dee3          	bgez	s1,20400ae4 <main+0x744>
20400b2c:	f8818513          	addi	a0,gp,-120 # 800011f8 <list_known_crc+0x728>
20400b30:	458030ef          	jal	ra,20403f88 <puts>
20400b34:	bf45                	j	20400ae4 <main+0x744>
20400b36:	47b2                	lw	a5,12(sp)
20400b38:	7f079783          	lh	a5,2032(a5)
20400b3c:	920791e3          	bnez	a5,2040045e <main+0xbe>
20400b40:	4732                	lw	a4,12(sp)
20400b42:	341537b7          	lui	a5,0x34153
20400b46:	41578793          	addi	a5,a5,1045 # 34153415 <metal_segment_data_source_start+0x13d4b7fd>
20400b4a:	7ef72623          	sw	a5,2028(a4)
20400b4e:	06600793          	li	a5,102
20400b52:	7ef71823          	sh	a5,2032(a4)
20400b56:	909ff06f          	j	2040045e <main+0xbe>
20400b5a:	5d7d                	li	s10,-1
20400b5c:	80001937          	lui	s2,0x80001
20400b60:	bb71                	j	204008fc <main+0x55c>
20400b62:	f3018513          	addi	a0,gp,-208 # 800011a0 <list_known_crc+0x6d0>
20400b66:	422030ef          	jal	ra,20403f88 <puts>
20400b6a:	bfad                	j	20400ae4 <main+0x744>
20400b6c:	0485                	addi	s1,s1,1
20400b6e:	a4018513          	addi	a0,gp,-1472 # 80000cb0 <list_known_crc+0x1e0>
20400b72:	04c2                	slli	s1,s1,0x10
20400b74:	414030ef          	jal	ra,20403f88 <puts>
20400b78:	84c1                	srai	s1,s1,0x10
20400b7a:	b3d5                	j	2040095e <main+0x5be>
20400b7c:	7f462f83          	lw	t6,2036(a2)
20400b80:	00281e93          	slli	t4,a6,0x2
20400b84:	0305                	addi	t1,t1,1
20400b86:	9eae                	add	t4,t4,a1
20400b88:	0342                	slli	t1,t1,0x10
20400b8a:	9f7e                	add	t5,t5,t6
20400b8c:	01035313          	srli	t1,t1,0x10
20400b90:	01eea623          	sw	t5,12(t4)
20400b94:	947ff06f          	j	204004da <main+0x13a>
20400b98:	89818513          	addi	a0,gp,-1896 # 80000b08 <list_known_crc+0x38>
20400b9c:	3ec030ef          	jal	ra,20403f88 <puts>
20400ba0:	4a05                	li	s4,1
20400ba2:	b66d                	j	2040074c <main+0x3ac>
20400ba4:	86c18513          	addi	a0,gp,-1940 # 80000adc <list_known_crc+0xc>
20400ba8:	3e0030ef          	jal	ra,20403f88 <puts>
20400bac:	4a01                	li	s4,0
20400bae:	be79                	j	2040074c <main+0x3ac>
20400bb0:	92018513          	addi	a0,gp,-1760 # 80000b90 <list_known_crc+0xc0>
20400bb4:	3d4030ef          	jal	ra,20403f88 <puts>
20400bb8:	4a11                	li	s4,4
20400bba:	be49                	j	2040074c <main+0x3ac>
	...

20400bd0 <core_bench_list>:
core_bench_list():
20400bd0:	00451e03          	lh	t3,4(a0)
20400bd4:	711d                	addi	sp,sp,-96
20400bd6:	d86a                	sw	s10,48(sp)
20400bd8:	d66e                	sw	s11,44(sp)
20400bda:	ce86                	sw	ra,92(sp)
20400bdc:	cca2                	sw	s0,88(sp)
20400bde:	caa6                	sw	s1,84(sp)
20400be0:	c8ca                	sw	s2,80(sp)
20400be2:	c6ce                	sw	s3,76(sp)
20400be4:	c4d2                	sw	s4,72(sp)
20400be6:	c2d6                	sw	s5,68(sp)
20400be8:	c0da                	sw	s6,64(sp)
20400bea:	de5e                	sw	s7,60(sp)
20400bec:	dc62                	sw	s8,56(sp)
20400bee:	da66                	sw	s9,52(sp)
20400bf0:	ca02                	sw	zero,20(sp)
20400bf2:	8daa                	mv	s11,a0
20400bf4:	02452d03          	lw	s10,36(a0)
20400bf8:	69c05d63          	blez	t3,20401292 <core_bench_list+0x6c2>
20400bfc:	c62e                	sw	a1,12(sp)
20400bfe:	4601                	li	a2,0
20400c00:	4301                	li	t1,0
20400c02:	4501                	li	a0,0
20400c04:	4f01                	li	t5,0
20400c06:	0001                	nop
20400c08:	47b2                	lw	a5,12(sp)
20400c0a:	0ff67693          	andi	a3,a2,255
20400c0e:	ca36                	sw	a3,20(sp)
20400c10:	2c07c263          	bltz	a5,20400ed4 <core_bench_list+0x304>
20400c14:	010f1893          	slli	a7,t5,0x10
20400c18:	4108d893          	srai	a7,a7,0x10
20400c1c:	2e0d0463          	beqz	s10,20400f04 <core_bench_list+0x334>
20400c20:	004d2703          	lw	a4,4(s10)
20400c24:	46b2                	lw	a3,12(sp)
20400c26:	87ea                	mv	a5,s10
20400c28:	00271703          	lh	a4,2(a4)
20400c2c:	00d71a63          	bne	a4,a3,20400c40 <core_bench_list+0x70>
20400c30:	a811                	j	20400c44 <core_bench_list+0x74>
20400c32:	0001                	nop
20400c34:	43d8                	lw	a4,4(a5)
20400c36:	46b2                	lw	a3,12(sp)
20400c38:	00271703          	lh	a4,2(a4)
20400c3c:	00d70463          	beq	a4,a3,20400c44 <core_bench_list+0x74>
20400c40:	439c                	lw	a5,0(a5)
20400c42:	fbed                	bnez	a5,20400c34 <core_bench_list+0x64>
20400c44:	4681                	li	a3,0
20400c46:	a011                	j	20400c4a <core_bench_list+0x7a>
20400c48:	8d3a                	mv	s10,a4
20400c4a:	000d2703          	lw	a4,0(s10)
20400c4e:	00dd2023          	sw	a3,0(s10)
20400c52:	86ea                	mv	a3,s10
20400c54:	fb75                	bnez	a4,20400c48 <core_bench_list+0x78>
20400c56:	2a078763          	beqz	a5,20400f04 <core_bench_list+0x334>
20400c5a:	43d8                	lw	a4,4(a5)
20400c5c:	0505                	addi	a0,a0,1
20400c5e:	0542                	slli	a0,a0,0x10
20400c60:	00071703          	lh	a4,0(a4)
20400c64:	8141                	srli	a0,a0,0x10
20400c66:	00177693          	andi	a3,a4,1
20400c6a:	ce81                	beqz	a3,20400c82 <core_bench_list+0xb2>
20400c6c:	8725                	srai	a4,a4,0x9
20400c6e:	8b05                	andi	a4,a4,1
20400c70:	9746                	add	a4,a4,a7
20400c72:	01071893          	slli	a7,a4,0x10
20400c76:	4108d893          	srai	a7,a7,0x10
20400c7a:	01089f13          	slli	t5,a7,0x10
20400c7e:	010f5f13          	srli	t5,t5,0x10
20400c82:	4394                	lw	a3,0(a5)
20400c84:	ca81                	beqz	a3,20400c94 <core_bench_list+0xc4>
20400c86:	4298                	lw	a4,0(a3)
20400c88:	c398                	sw	a4,0(a5)
20400c8a:	000d2783          	lw	a5,0(s10)
20400c8e:	c29c                	sw	a5,0(a3)
20400c90:	00dd2023          	sw	a3,0(s10)
20400c94:	47b2                	lw	a5,12(sp)
20400c96:	0007c863          	bltz	a5,20400ca6 <core_bench_list+0xd6>
20400c9a:	00178b13          	addi	s6,a5,1
20400c9e:	010b1793          	slli	a5,s6,0x10
20400ca2:	87c1                	srai	a5,a5,0x10
20400ca4:	c63e                	sw	a5,12(sp)
20400ca6:	0605                	addi	a2,a2,1
20400ca8:	0642                	slli	a2,a2,0x10
20400caa:	8641                	srai	a2,a2,0x10
20400cac:	f4ce1ee3          	bne	t3,a2,20400c08 <core_bench_list+0x38>
20400cb0:	00251793          	slli	a5,a0,0x2
20400cb4:	406787b3          	sub	a5,a5,t1
20400cb8:	00f88c33          	add	s8,a7,a5
20400cbc:	010c1793          	slli	a5,s8,0x10
20400cc0:	83c1                	srli	a5,a5,0x10
20400cc2:	ce3e                	sw	a5,28(sp)
20400cc4:	2ab04363          	bgtz	a1,20400f6a <core_bench_list+0x39a>
20400cc8:	000d2783          	lw	a5,0(s10)
20400ccc:	846a                	mv	s0,s10
20400cce:	4384                	lw	s1,0(a5)
20400cd0:	43d8                	lw	a4,4(a5)
20400cd2:	40d0                	lw	a2,4(s1)
20400cd4:	4094                	lw	a3,0(s1)
20400cd6:	c3d0                	sw	a2,4(a5)
20400cd8:	c0d8                	sw	a4,4(s1)
20400cda:	c394                	sw	a3,0(a5)
20400cdc:	47b2                	lw	a5,12(sp)
20400cde:	0004a023          	sw	zero,0(s1)
20400ce2:	1807c163          	bltz	a5,20400e64 <core_bench_list+0x294>
20400ce6:	0001                	nop
20400ce8:	405c                	lw	a5,4(s0)
20400cea:	46b2                	lw	a3,12(sp)
20400cec:	00279783          	lh	a5,2(a5)
20400cf0:	00d78863          	beq	a5,a3,20400d00 <core_bench_list+0x130>
20400cf4:	4000                	lw	s0,0(s0)
20400cf6:	f86d                	bnez	s0,20400ce8 <core_bench_list+0x118>
20400cf8:	000d2783          	lw	a5,0(s10)
20400cfc:	843e                	mv	s0,a5
20400cfe:	cf91                	beqz	a5,20400d1a <core_bench_list+0x14a>
20400d00:	004d2783          	lw	a5,4(s10)
20400d04:	45f2                	lw	a1,28(sp)
20400d06:	00079503          	lh	a0,0(a5)
20400d0a:	6e7020ef          	jal	ra,20403bf0 <crc16>
20400d0e:	4000                	lw	s0,0(s0)
20400d10:	ce2a                	sw	a0,28(sp)
20400d12:	f47d                	bnez	s0,20400d00 <core_bench_list+0x130>
20400d14:	40d8                	lw	a4,4(s1)
20400d16:	000d2783          	lw	a5,0(s10)
20400d1a:	43d0                	lw	a2,4(a5)
20400d1c:	4394                	lw	a3,0(a5)
20400d1e:	4505                	li	a0,1
20400d20:	c0d0                	sw	a2,4(s1)
20400d22:	c3d8                	sw	a4,4(a5)
20400d24:	c094                	sw	a3,0(s1)
20400d26:	c384                	sw	s1,0(a5)
20400d28:	4f85                	li	t6,1
20400d2a:	0001                	nop
20400d2c:	4f01                	li	t5,0
20400d2e:	4301                	li	t1,0
20400d30:	4881                	li	a7,0
20400d32:	0001                	nop
20400d34:	fff50693          	addi	a3,a0,-1
20400d38:	8a9d                	andi	a3,a3,7
20400d3a:	0f05                	addi	t5,t5,1
20400d3c:	18a05063          	blez	a0,20400ebc <core_bench_list+0x2ec>
20400d40:	000d2783          	lw	a5,0(s10)
20400d44:	4705                	li	a4,1
20400d46:	18078163          	beqz	a5,20400ec8 <core_bench_list+0x2f8>
20400d4a:	c6b9                	beqz	a3,20400d98 <core_bench_list+0x1c8>
20400d4c:	439c                	lw	a5,0(a5)
20400d4e:	4605                	li	a2,1
20400d50:	458d                	li	a1,3
20400d52:	4e11                	li	t3,4
20400d54:	4709                	li	a4,2
20400d56:	c3d9                	beqz	a5,20400ddc <core_bench_list+0x20c>
20400d58:	04c68063          	beq	a3,a2,20400d98 <core_bench_list+0x1c8>
20400d5c:	02e68b63          	beq	a3,a4,20400d92 <core_bench_list+0x1c2>
20400d60:	02b68663          	beq	a3,a1,20400d8c <core_bench_list+0x1bc>
20400d64:	03c68163          	beq	a3,t3,20400d86 <core_bench_list+0x1b6>
20400d68:	4615                	li	a2,5
20400d6a:	00c68b63          	beq	a3,a2,20400d80 <core_bench_list+0x1b0>
20400d6e:	4619                	li	a2,6
20400d70:	00c68563          	beq	a3,a2,20400d7a <core_bench_list+0x1aa>
20400d74:	439c                	lw	a5,0(a5)
20400d76:	0705                	addi	a4,a4,1
20400d78:	c3b5                	beqz	a5,20400ddc <core_bench_list+0x20c>
20400d7a:	439c                	lw	a5,0(a5)
20400d7c:	0705                	addi	a4,a4,1
20400d7e:	cfb9                	beqz	a5,20400ddc <core_bench_list+0x20c>
20400d80:	439c                	lw	a5,0(a5)
20400d82:	0705                	addi	a4,a4,1
20400d84:	cfa1                	beqz	a5,20400ddc <core_bench_list+0x20c>
20400d86:	439c                	lw	a5,0(a5)
20400d88:	0705                	addi	a4,a4,1
20400d8a:	cba9                	beqz	a5,20400ddc <core_bench_list+0x20c>
20400d8c:	439c                	lw	a5,0(a5)
20400d8e:	0705                	addi	a4,a4,1
20400d90:	c7b1                	beqz	a5,20400ddc <core_bench_list+0x20c>
20400d92:	439c                	lw	a5,0(a5)
20400d94:	0705                	addi	a4,a4,1
20400d96:	c3b9                	beqz	a5,20400ddc <core_bench_list+0x20c>
20400d98:	04a70263          	beq	a4,a0,20400ddc <core_bench_list+0x20c>
20400d9c:	439c                	lw	a5,0(a5)
20400d9e:	0705                	addi	a4,a4,1
20400da0:	86ba                	mv	a3,a4
20400da2:	cf8d                	beqz	a5,20400ddc <core_bench_list+0x20c>
20400da4:	439c                	lw	a5,0(a5)
20400da6:	0705                	addi	a4,a4,1
20400da8:	cb95                	beqz	a5,20400ddc <core_bench_list+0x20c>
20400daa:	439c                	lw	a5,0(a5)
20400dac:	00268713          	addi	a4,a3,2
20400db0:	c795                	beqz	a5,20400ddc <core_bench_list+0x20c>
20400db2:	439c                	lw	a5,0(a5)
20400db4:	00368713          	addi	a4,a3,3
20400db8:	c395                	beqz	a5,20400ddc <core_bench_list+0x20c>
20400dba:	439c                	lw	a5,0(a5)
20400dbc:	00468713          	addi	a4,a3,4
20400dc0:	cf91                	beqz	a5,20400ddc <core_bench_list+0x20c>
20400dc2:	439c                	lw	a5,0(a5)
20400dc4:	00568713          	addi	a4,a3,5
20400dc8:	cb91                	beqz	a5,20400ddc <core_bench_list+0x20c>
20400dca:	439c                	lw	a5,0(a5)
20400dcc:	00668713          	addi	a4,a3,6
20400dd0:	c791                	beqz	a5,20400ddc <core_bench_list+0x20c>
20400dd2:	439c                	lw	a5,0(a5)
20400dd4:	00768713          	addi	a4,a3,7
20400dd8:	f3e1                	bnez	a5,20400d98 <core_bench_list+0x1c8>
20400dda:	0001                	nop
20400ddc:	862a                	mv	a2,a0
20400dde:	859a                	mv	a1,t1
20400de0:	8446                	mv	s0,a7
20400de2:	06e05563          	blez	a4,20400e4c <core_bench_list+0x27c>
20400de6:	0001                	nop
20400de8:	c255                	beqz	a2,20400e8c <core_bench_list+0x2bc>
20400dea:	c3cd                	beqz	a5,20400e8c <core_bench_list+0x2bc>
20400dec:	004d2e03          	lw	t3,4(s10)
20400df0:	0047a303          	lw	t1,4(a5)
20400df4:	000e1683          	lh	a3,0(t3)
20400df8:	00231283          	lh	t0,2(t1)
20400dfc:	002e1883          	lh	a7,2(t3)
20400e00:	01069e93          	slli	t4,a3,0x10
20400e04:	010ede93          	srli	t4,t4,0x10
20400e08:	f006f693          	andi	a3,a3,-256
20400e0c:	008ede93          	srli	t4,t4,0x8
20400e10:	01d6e6b3          	or	a3,a3,t4
20400e14:	00de1023          	sh	a3,0(t3)
20400e18:	00031683          	lh	a3,0(t1)
20400e1c:	405888b3          	sub	a7,a7,t0
20400e20:	01069e13          	slli	t3,a3,0x10
20400e24:	010e5e13          	srli	t3,t3,0x10
20400e28:	f006f693          	andi	a3,a3,-256
20400e2c:	008e5e13          	srli	t3,t3,0x8
20400e30:	01c6e6b3          	or	a3,a3,t3
20400e34:	00d31023          	sh	a3,0(t1)
20400e38:	05105463          	blez	a7,20400e80 <core_bench_list+0x2b0>
20400e3c:	86be                	mv	a3,a5
20400e3e:	439c                	lw	a5,0(a5)
20400e40:	167d                	addi	a2,a2,-1
20400e42:	cd89                	beqz	a1,20400e5c <core_bench_list+0x28c>
20400e44:	c194                	sw	a3,0(a1)
20400e46:	85b6                	mv	a1,a3
20400e48:	fae040e3          	bgtz	a4,20400de8 <core_bench_list+0x218>
20400e4c:	04c05663          	blez	a2,20400e98 <core_bench_list+0x2c8>
20400e50:	cfa1                	beqz	a5,20400ea8 <core_bench_list+0x2d8>
20400e52:	ff49                	bnez	a4,20400dec <core_bench_list+0x21c>
20400e54:	86be                	mv	a3,a5
20400e56:	167d                	addi	a2,a2,-1
20400e58:	439c                	lw	a5,0(a5)
20400e5a:	f5ed                	bnez	a1,20400e44 <core_bench_list+0x274>
20400e5c:	8436                	mv	s0,a3
20400e5e:	85b6                	mv	a1,a3
20400e60:	b7e5                	j	20400e48 <core_bench_list+0x278>
20400e62:	0001                	nop
20400e64:	405c                	lw	a5,4(s0)
20400e66:	46d2                	lw	a3,20(sp)
20400e68:	0007c783          	lbu	a5,0(a5)
20400e6c:	e8d78ae3          	beq	a5,a3,20400d00 <core_bench_list+0x130>
20400e70:	4000                	lw	s0,0(s0)
20400e72:	f86d                	bnez	s0,20400e64 <core_bench_list+0x294>
20400e74:	000d2783          	lw	a5,0(s10)
20400e78:	843e                	mv	s0,a5
20400e7a:	e80793e3          	bnez	a5,20400d00 <core_bench_list+0x130>
20400e7e:	bd71                	j	20400d1a <core_bench_list+0x14a>
20400e80:	86ea                	mv	a3,s10
20400e82:	177d                	addi	a4,a4,-1
20400e84:	000d2d03          	lw	s10,0(s10)
20400e88:	bf6d                	j	20400e42 <core_bench_list+0x272>
20400e8a:	0001                	nop
20400e8c:	86ea                	mv	a3,s10
20400e8e:	177d                	addi	a4,a4,-1
20400e90:	000d2d03          	lw	s10,0(s10)
20400e94:	b77d                	j	20400e42 <core_bench_list+0x272>
20400e96:	0001                	nop
20400e98:	8d3e                	mv	s10,a5
20400e9a:	88a2                	mv	a7,s0
20400e9c:	832e                	mv	t1,a1
20400e9e:	e8079be3          	bnez	a5,20400d34 <core_bench_list+0x164>
20400ea2:	8d22                	mv	s10,s0
20400ea4:	a019                	j	20400eaa <core_bench_list+0x2da>
20400ea6:	0001                	nop
20400ea8:	8d22                	mv	s10,s0
20400eaa:	0005a023          	sw	zero,0(a1)
20400eae:	09efd263          	bge	t6,t5,20400f32 <core_bench_list+0x362>
20400eb2:	0506                	slli	a0,a0,0x1
20400eb4:	e6041ce3          	bnez	s0,20400d2c <core_bench_list+0x15c>
20400eb8:	cceff06f          	j	20400386 <core_bench_list.cold.1+0x6>
20400ebc:	87ea                	mv	a5,s10
20400ebe:	4701                	li	a4,0
20400ec0:	862a                	mv	a2,a0
20400ec2:	859a                	mv	a1,t1
20400ec4:	8446                	mv	s0,a7
20400ec6:	bf31                	j	20400de2 <core_bench_list+0x212>
20400ec8:	4705                	li	a4,1
20400eca:	862a                	mv	a2,a0
20400ecc:	859a                	mv	a1,t1
20400ece:	8446                	mv	s0,a7
20400ed0:	bf09                	j	20400de2 <core_bench_list+0x212>
20400ed2:	0001                	nop
20400ed4:	010f1893          	slli	a7,t5,0x10
20400ed8:	4108d893          	srai	a7,a7,0x10
20400edc:	020d0463          	beqz	s10,20400f04 <core_bench_list+0x334>
20400ee0:	004d2703          	lw	a4,4(s10)
20400ee4:	87ea                	mv	a5,s10
20400ee6:	00074703          	lbu	a4,0(a4)
20400eea:	00e69963          	bne	a3,a4,20400efc <core_bench_list+0x32c>
20400eee:	bb99                	j	20400c44 <core_bench_list+0x74>
20400ef0:	43d8                	lw	a4,4(a5)
20400ef2:	46d2                	lw	a3,20(sp)
20400ef4:	00074703          	lbu	a4,0(a4)
20400ef8:	d4d706e3          	beq	a4,a3,20400c44 <core_bench_list+0x74>
20400efc:	439c                	lw	a5,0(a5)
20400efe:	fbed                	bnez	a5,20400ef0 <core_bench_list+0x320>
20400f00:	b391                	j	20400c44 <core_bench_list+0x74>
20400f02:	0001                	nop
20400f04:	000d2703          	lw	a4,0(s10)
20400f08:	00130793          	addi	a5,t1,1
20400f0c:	01079313          	slli	t1,a5,0x10
20400f10:	435c                	lw	a5,4(a4)
20400f12:	01035313          	srli	t1,t1,0x10
20400f16:	00178c03          	lb	s8,1(a5)
20400f1a:	001c7c13          	andi	s8,s8,1
20400f1e:	9c46                	add	s8,s8,a7
20400f20:	010c1893          	slli	a7,s8,0x10
20400f24:	4108d893          	srai	a7,a7,0x10
20400f28:	01089f13          	slli	t5,a7,0x10
20400f2c:	010f5f13          	srli	t5,t5,0x10
20400f30:	b395                	j	20400c94 <core_bench_list+0xc4>
20400f32:	4004                	lw	s1,0(s0)
20400f34:	c899                	beqz	s1,20400f4a <core_bench_list+0x37a>
20400f36:	0001                	nop
20400f38:	405c                	lw	a5,4(s0)
20400f3a:	45f2                	lw	a1,28(sp)
20400f3c:	00079503          	lh	a0,0(a5)
20400f40:	4b1020ef          	jal	ra,20403bf0 <crc16>
20400f44:	4084                	lw	s1,0(s1)
20400f46:	ce2a                	sw	a0,28(sp)
20400f48:	f8e5                	bnez	s1,20400f38 <core_bench_list+0x368>
20400f4a:	40f6                	lw	ra,92(sp)
20400f4c:	4466                	lw	s0,88(sp)
20400f4e:	4572                	lw	a0,28(sp)
20400f50:	44d6                	lw	s1,84(sp)
20400f52:	4946                	lw	s2,80(sp)
20400f54:	49b6                	lw	s3,76(sp)
20400f56:	4a26                	lw	s4,72(sp)
20400f58:	4a96                	lw	s5,68(sp)
20400f5a:	4b06                	lw	s6,64(sp)
20400f5c:	5bf2                	lw	s7,60(sp)
20400f5e:	5c62                	lw	s8,56(sp)
20400f60:	5cd2                	lw	s9,52(sp)
20400f62:	5d42                	lw	s10,48(sp)
20400f64:	5db2                	lw	s11,44(sp)
20400f66:	6125                	addi	sp,sp,96
20400f68:	8082                	ret
20400f6a:	028d8793          	addi	a5,s11,40
20400f6e:	4a05                	li	s4,1
20400f70:	cc3e                	sw	a5,24(sp)
20400f72:	0001                	nop
20400f74:	160d0763          	beqz	s10,204010e2 <core_bench_list+0x512>
20400f78:	4681                	li	a3,0
20400f7a:	4701                	li	a4,0
20400f7c:	c802                	sw	zero,16(sp)
20400f7e:	0001                	nop
20400f80:	4642                	lw	a2,16(sp)
20400f82:	fffa0793          	addi	a5,s4,-1 # fff <__heap_size+0x7ff>
20400f86:	8b9d                	andi	a5,a5,7
20400f88:	0605                	addi	a2,a2,1
20400f8a:	c832                	sw	a2,16(sp)
20400f8c:	2f405863          	blez	s4,2040127c <core_bench_list+0x6ac>
20400f90:	000d2c83          	lw	s9,0(s10)
20400f94:	4c05                	li	s8,1
20400f96:	2e0c8963          	beqz	s9,20401288 <core_bench_list+0x6b8>
20400f9a:	c7ad                	beqz	a5,20401004 <core_bench_list+0x434>
20400f9c:	000cac83          	lw	s9,0(s9)
20400fa0:	4605                	li	a2,1
20400fa2:	458d                	li	a1,3
20400fa4:	4511                	li	a0,4
20400fa6:	4c09                	li	s8,2
20400fa8:	0c0c8063          	beqz	s9,20401068 <core_bench_list+0x498>
20400fac:	04c78c63          	beq	a5,a2,20401004 <core_bench_list+0x434>
20400fb0:	05878563          	beq	a5,s8,20400ffa <core_bench_list+0x42a>
20400fb4:	02b78e63          	beq	a5,a1,20400ff0 <core_bench_list+0x420>
20400fb8:	02a78763          	beq	a5,a0,20400fe6 <core_bench_list+0x416>
20400fbc:	4615                	li	a2,5
20400fbe:	00c78f63          	beq	a5,a2,20400fdc <core_bench_list+0x40c>
20400fc2:	4619                	li	a2,6
20400fc4:	00c78763          	beq	a5,a2,20400fd2 <core_bench_list+0x402>
20400fc8:	000cac83          	lw	s9,0(s9)
20400fcc:	0c05                	addi	s8,s8,1
20400fce:	080c8d63          	beqz	s9,20401068 <core_bench_list+0x498>
20400fd2:	000cac83          	lw	s9,0(s9)
20400fd6:	0c05                	addi	s8,s8,1
20400fd8:	080c8863          	beqz	s9,20401068 <core_bench_list+0x498>
20400fdc:	000cac83          	lw	s9,0(s9)
20400fe0:	0c05                	addi	s8,s8,1
20400fe2:	080c8363          	beqz	s9,20401068 <core_bench_list+0x498>
20400fe6:	000cac83          	lw	s9,0(s9)
20400fea:	0c05                	addi	s8,s8,1
20400fec:	060c8e63          	beqz	s9,20401068 <core_bench_list+0x498>
20400ff0:	000cac83          	lw	s9,0(s9)
20400ff4:	0c05                	addi	s8,s8,1
20400ff6:	060c8963          	beqz	s9,20401068 <core_bench_list+0x498>
20400ffa:	000cac83          	lw	s9,0(s9)
20400ffe:	0c05                	addi	s8,s8,1
20401000:	060c8463          	beqz	s9,20401068 <core_bench_list+0x498>
20401004:	078a0263          	beq	s4,s8,20401068 <core_bench_list+0x498>
20401008:	000cac83          	lw	s9,0(s9)
2040100c:	0c05                	addi	s8,s8,1
2040100e:	87e2                	mv	a5,s8
20401010:	040c8c63          	beqz	s9,20401068 <core_bench_list+0x498>
20401014:	000cac83          	lw	s9,0(s9)
20401018:	0c05                	addi	s8,s8,1
2040101a:	040c8763          	beqz	s9,20401068 <core_bench_list+0x498>
2040101e:	000cac83          	lw	s9,0(s9)
20401022:	00278c13          	addi	s8,a5,2
20401026:	040c8163          	beqz	s9,20401068 <core_bench_list+0x498>
2040102a:	000cac83          	lw	s9,0(s9)
2040102e:	00378c13          	addi	s8,a5,3
20401032:	020c8b63          	beqz	s9,20401068 <core_bench_list+0x498>
20401036:	000cac83          	lw	s9,0(s9)
2040103a:	00478c13          	addi	s8,a5,4
2040103e:	020c8563          	beqz	s9,20401068 <core_bench_list+0x498>
20401042:	000cac83          	lw	s9,0(s9)
20401046:	00578c13          	addi	s8,a5,5
2040104a:	000c8f63          	beqz	s9,20401068 <core_bench_list+0x498>
2040104e:	000cac83          	lw	s9,0(s9)
20401052:	00678c13          	addi	s8,a5,6
20401056:	000c8963          	beqz	s9,20401068 <core_bench_list+0x498>
2040105a:	000cac83          	lw	s9,0(s9)
2040105e:	00778c13          	addi	s8,a5,7
20401062:	fa0c91e3          	bnez	s9,20401004 <core_bench_list+0x434>
20401066:	0001                	nop
20401068:	8bd2                	mv	s7,s4
2040106a:	84b6                	mv	s1,a3
2040106c:	89ba                	mv	s3,a4
2040106e:	05805663          	blez	s8,204010ba <core_bench_list+0x4ea>
20401072:	0001                	nop
20401074:	060b8263          	beqz	s7,204010d8 <core_bench_list+0x508>
20401078:	060c8063          	beqz	s9,204010d8 <core_bench_list+0x508>
2040107c:	004d2a83          	lw	s5,4(s10)
20401080:	004ca903          	lw	s2,4(s9)
20401084:	000a9403          	lh	s0,0(s5)
20401088:	08047793          	andi	a5,s0,128
2040108c:	cbc5                	beqz	a5,2040113c <core_bench_list+0x56c>
2040108e:	07f47b13          	andi	s6,s0,127
20401092:	00091a83          	lh	s5,0(s2) # 80001000 <metal_segment_heap_target_end+0xffffd780>
20401096:	080af793          	andi	a5,s5,128
2040109a:	c7b9                	beqz	a5,204010e8 <core_bench_list+0x518>
2040109c:	07faf413          	andi	s0,s5,127
204010a0:	408b0433          	sub	s0,s6,s0
204010a4:	08805763          	blez	s0,20401132 <core_bench_list+0x562>
204010a8:	87e6                	mv	a5,s9
204010aa:	000cac83          	lw	s9,0(s9)
204010ae:	1bfd                	addi	s7,s7,-1
204010b0:	c085                	beqz	s1,204010d0 <core_bench_list+0x500>
204010b2:	c09c                	sw	a5,0(s1)
204010b4:	84be                	mv	s1,a5
204010b6:	fb804fe3          	bgtz	s8,20401074 <core_bench_list+0x4a4>
204010ba:	0d705363          	blez	s7,20401180 <core_bench_list+0x5b0>
204010be:	160c8d63          	beqz	s9,20401238 <core_bench_list+0x668>
204010c2:	fa0c1de3          	bnez	s8,2040107c <core_bench_list+0x4ac>
204010c6:	87e6                	mv	a5,s9
204010c8:	1bfd                	addi	s7,s7,-1
204010ca:	000cac83          	lw	s9,0(s9)
204010ce:	f0f5                	bnez	s1,204010b2 <core_bench_list+0x4e2>
204010d0:	89be                	mv	s3,a5
204010d2:	84be                	mv	s1,a5
204010d4:	b7cd                	j	204010b6 <core_bench_list+0x4e6>
204010d6:	0001                	nop
204010d8:	87ea                	mv	a5,s10
204010da:	1c7d                	addi	s8,s8,-1
204010dc:	000d2d03          	lw	s10,0(s10)
204010e0:	bfc1                	j	204010b0 <core_bench_list+0x4e0>
204010e2:	a9eff06f          	j	20400380 <core_bench_list.cold.1>
204010e6:	0001                	nop
204010e8:	403ad593          	srai	a1,s5,0x3
204010ec:	89bd                	andi	a1,a1,15
204010ee:	00459693          	slli	a3,a1,0x4
204010f2:	007af713          	andi	a4,s5,7
204010f6:	038dd783          	lhu	a5,56(s11)
204010fa:	8dd5                	or	a1,a1,a3
204010fc:	c755                	beqz	a4,204011a8 <core_bench_list+0x5d8>
204010fe:	4685                	li	a3,1
20401100:	08d70863          	beq	a4,a3,20401190 <core_bench_list+0x5c0>
20401104:	010a9513          	slli	a0,s5,0x10
20401108:	8456                	mv	s0,s5
2040110a:	8141                	srli	a0,a0,0x10
2040110c:	85be                	mv	a1,a5
2040110e:	662020ef          	jal	ra,20403770 <crcu16>
20401112:	07f47413          	andi	s0,s0,127
20401116:	f00afe13          	andi	t3,s5,-256
2040111a:	01c46e33          	or	t3,s0,t3
2040111e:	02ad9c23          	sh	a0,56(s11)
20401122:	080e6e13          	ori	t3,t3,128
20401126:	01c91023          	sh	t3,0(s2)
2040112a:	408b0433          	sub	s0,s6,s0
2040112e:	f6804de3          	bgtz	s0,204010a8 <core_bench_list+0x4d8>
20401132:	87ea                	mv	a5,s10
20401134:	1c7d                	addi	s8,s8,-1
20401136:	000d2d03          	lw	s10,0(s10)
2040113a:	bf9d                	j	204010b0 <core_bench_list+0x4e0>
2040113c:	40345593          	srai	a1,s0,0x3
20401140:	89bd                	andi	a1,a1,15
20401142:	00459693          	slli	a3,a1,0x4
20401146:	00747713          	andi	a4,s0,7
2040114a:	038dd783          	lhu	a5,56(s11)
2040114e:	8dd5                	or	a1,a1,a3
20401150:	c755                	beqz	a4,204011fc <core_bench_list+0x62c>
20401152:	4685                	li	a3,1
20401154:	08d70663          	beq	a4,a3,204011e0 <core_bench_list+0x610>
20401158:	01041513          	slli	a0,s0,0x10
2040115c:	8b22                	mv	s6,s0
2040115e:	8141                	srli	a0,a0,0x10
20401160:	85be                	mv	a1,a5
20401162:	60e020ef          	jal	ra,20403770 <crcu16>
20401166:	07fb7b13          	andi	s6,s6,127
2040116a:	f0047e13          	andi	t3,s0,-256
2040116e:	01cb6e33          	or	t3,s6,t3
20401172:	02ad9c23          	sh	a0,56(s11)
20401176:	080e6e13          	ori	t3,t3,128
2040117a:	01ca9023          	sh	t3,0(s5)
2040117e:	bf11                	j	20401092 <core_bench_list+0x4c2>
20401180:	8d66                	mv	s10,s9
20401182:	874e                	mv	a4,s3
20401184:	86a6                	mv	a3,s1
20401186:	de0c9de3          	bnez	s9,20400f80 <core_bench_list+0x3b0>
2040118a:	8d4e                	mv	s10,s3
2040118c:	a07d                	j	2040123a <core_bench_list+0x66a>
2040118e:	0001                	nop
20401190:	4562                	lw	a0,24(sp)
20401192:	863e                	mv	a2,a5
20401194:	2535                	jal	204017c0 <core_bench_matrix>
20401196:	03cdd783          	lhu	a5,60(s11)
2040119a:	01051413          	slli	s0,a0,0x10
2040119e:	8441                	srai	s0,s0,0x10
204011a0:	c7d5                	beqz	a5,2040124c <core_bench_list+0x67c>
204011a2:	038dd783          	lhu	a5,56(s11)
204011a6:	b79d                	j	2040110c <core_bench_list+0x53c>
204011a8:	02200693          	li	a3,34
204011ac:	872e                	mv	a4,a1
204011ae:	00d5d463          	bge	a1,a3,204011b6 <core_bench_list+0x5e6>
204011b2:	02200713          	li	a4,34
204011b6:	002d9683          	lh	a3,2(s11)
204011ba:	000d9603          	lh	a2,0(s11)
204011be:	014da583          	lw	a1,20(s11)
204011c2:	018da503          	lw	a0,24(s11)
204011c6:	0ff77713          	andi	a4,a4,255
204011ca:	317010ef          	jal	ra,20402ce0 <core_bench_state>
204011ce:	03edd783          	lhu	a5,62(s11)
204011d2:	01051413          	slli	s0,a0,0x10
204011d6:	8441                	srai	s0,s0,0x10
204011d8:	c3c1                	beqz	a5,20401258 <core_bench_list+0x688>
204011da:	038dd783          	lhu	a5,56(s11)
204011de:	b73d                	j	2040110c <core_bench_list+0x53c>
204011e0:	4562                	lw	a0,24(sp)
204011e2:	863e                	mv	a2,a5
204011e4:	2bf1                	jal	204017c0 <core_bench_matrix>
204011e6:	03cdd783          	lhu	a5,60(s11)
204011ea:	01051b13          	slli	s6,a0,0x10
204011ee:	410b5b13          	srai	s6,s6,0x10
204011f2:	cbad                	beqz	a5,20401264 <core_bench_list+0x694>
204011f4:	038dd783          	lhu	a5,56(s11)
204011f8:	b7a5                	j	20401160 <core_bench_list+0x590>
204011fa:	0001                	nop
204011fc:	02200693          	li	a3,34
20401200:	872e                	mv	a4,a1
20401202:	00d5d463          	bge	a1,a3,2040120a <core_bench_list+0x63a>
20401206:	02200713          	li	a4,34
2040120a:	002d9683          	lh	a3,2(s11)
2040120e:	000d9603          	lh	a2,0(s11)
20401212:	014da583          	lw	a1,20(s11)
20401216:	018da503          	lw	a0,24(s11)
2040121a:	0ff77713          	andi	a4,a4,255
2040121e:	2c3010ef          	jal	ra,20402ce0 <core_bench_state>
20401222:	03edd783          	lhu	a5,62(s11)
20401226:	01051b13          	slli	s6,a0,0x10
2040122a:	410b5b13          	srai	s6,s6,0x10
2040122e:	c3a9                	beqz	a5,20401270 <core_bench_list+0x6a0>
20401230:	038dd783          	lhu	a5,56(s11)
20401234:	b735                	j	20401160 <core_bench_list+0x590>
20401236:	0001                	nop
20401238:	8d4e                	mv	s10,s3
2040123a:	4742                	lw	a4,16(sp)
2040123c:	0004a023          	sw	zero,0(s1)
20401240:	4785                	li	a5,1
20401242:	04e7db63          	bge	a5,a4,20401298 <core_bench_list+0x6c8>
20401246:	0a06                	slli	s4,s4,0x1
20401248:	b335                	j	20400f74 <core_bench_list+0x3a4>
2040124a:	0001                	nop
2040124c:	038dd783          	lhu	a5,56(s11)
20401250:	02ad9e23          	sh	a0,60(s11)
20401254:	bd65                	j	2040110c <core_bench_list+0x53c>
20401256:	0001                	nop
20401258:	02ad9f23          	sh	a0,62(s11)
2040125c:	038dd783          	lhu	a5,56(s11)
20401260:	b575                	j	2040110c <core_bench_list+0x53c>
20401262:	0001                	nop
20401264:	038dd783          	lhu	a5,56(s11)
20401268:	02ad9e23          	sh	a0,60(s11)
2040126c:	bdd5                	j	20401160 <core_bench_list+0x590>
2040126e:	0001                	nop
20401270:	02ad9f23          	sh	a0,62(s11)
20401274:	038dd783          	lhu	a5,56(s11)
20401278:	b5e5                	j	20401160 <core_bench_list+0x590>
2040127a:	0001                	nop
2040127c:	8cea                	mv	s9,s10
2040127e:	4c01                	li	s8,0
20401280:	8bd2                	mv	s7,s4
20401282:	84b6                	mv	s1,a3
20401284:	89ba                	mv	s3,a4
20401286:	b3e5                	j	2040106e <core_bench_list+0x49e>
20401288:	4c05                	li	s8,1
2040128a:	8bd2                	mv	s7,s4
2040128c:	84b6                	mv	s1,a3
2040128e:	89ba                	mv	s3,a4
20401290:	bbf9                	j	2040106e <core_bench_list+0x49e>
20401292:	c62e                	sw	a1,12(sp)
20401294:	ce02                	sw	zero,28(sp)
20401296:	b43d                	j	20400cc4 <core_bench_list+0xf4>
20401298:	8d4e                	mv	s10,s3
2040129a:	b43d                	j	20400cc8 <core_bench_list+0xf8>
	...

204012b0 <core_list_init>:
core_list_init():
204012b0:	47d1                	li	a5,20
204012b2:	02f54533          	div	a0,a0,a5
204012b6:	77e1                	lui	a5,0xffff8
204012b8:	08078813          	addi	a6,a5,128 # ffff8080 <metal_segment_heap_target_end+0x7fff4800>
204012bc:	0005a023          	sw	zero,0(a1)
204012c0:	01058693          	addi	a3,a1,16
204012c4:	fff7c793          	not	a5,a5
204012c8:	00858713          	addi	a4,a1,8
204012cc:	1579                	addi	a0,a0,-2
204012ce:	00351313          	slli	t1,a0,0x3
204012d2:	932e                	add	t1,t1,a1
204012d4:	0065a223          	sw	t1,4(a1)
204012d8:	00251e93          	slli	t4,a0,0x2
204012dc:	01031023          	sh	a6,0(t1)
204012e0:	00031123          	sh	zero,2(t1)
204012e4:	00830813          	addi	a6,t1,8
204012e8:	9e9a                	add	t4,t4,t1
204012ea:	00430893          	addi	a7,t1,4
204012ee:	2c66fd63          	bgeu	a3,t1,204015c8 <core_list_init+0x318>
204012f2:	2dd87f63          	bgeu	a6,t4,204015d0 <core_list_init+0x320>
204012f6:	0115a623          	sw	a7,12(a1)
204012fa:	0005a423          	sw	zero,8(a1)
204012fe:	c198                	sw	a4,0(a1)
20401300:	58fd                	li	a7,-1
20401302:	01131223          	sh	a7,4(t1)
20401306:	00f31323          	sh	a5,6(t1)
2040130a:	0aa05563          	blez	a0,204013b4 <core_list_init+0x104>
2040130e:	7f61                	lui	t5,0xffff8
20401310:	00157793          	andi	a5,a0,1
20401314:	4881                	li	a7,0
20401316:	ffff4f13          	not	t5,t5
2040131a:	26079963          	bnez	a5,2040158c <core_list_init+0x2dc>
2040131e:	0001                	nop
20401320:	01089e13          	slli	t3,a7,0x10
20401324:	410e5e13          	srai	t3,t3,0x10
20401328:	00ce47b3          	xor	a5,t3,a2
2040132c:	8bbd                	andi	a5,a5,15
2040132e:	007e7e13          	andi	t3,t3,7
20401332:	078e                	slli	a5,a5,0x3
20401334:	01c7e7b3          	or	a5,a5,t3
20401338:	00879293          	slli	t0,a5,0x8
2040133c:	00868e13          	addi	t3,a3,8
20401340:	00480f93          	addi	t6,a6,4
20401344:	0057e7b3          	or	a5,a5,t0
20401348:	006e7f63          	bgeu	t3,t1,20401366 <core_list_init+0xb6>
2040134c:	01dffd63          	bgeu	t6,t4,20401366 <core_list_init+0xb6>
20401350:	c298                	sw	a4,0(a3)
20401352:	c194                	sw	a3,0(a1)
20401354:	0106a223          	sw	a6,4(a3)
20401358:	8736                	mv	a4,a3
2040135a:	00f81023          	sh	a5,0(a6)
2040135e:	01e81123          	sh	t5,2(a6)
20401362:	86f2                	mv	a3,t3
20401364:	887e                	mv	a6,t6
20401366:	0885                	addi	a7,a7,1
20401368:	01089e13          	slli	t3,a7,0x10
2040136c:	410e5e13          	srai	t3,t3,0x10
20401370:	00ce47b3          	xor	a5,t3,a2
20401374:	8bbd                	andi	a5,a5,15
20401376:	007e7e13          	andi	t3,t3,7
2040137a:	078e                	slli	a5,a5,0x3
2040137c:	01c7e7b3          	or	a5,a5,t3
20401380:	00879f93          	slli	t6,a5,0x8
20401384:	00868e13          	addi	t3,a3,8
20401388:	01f7e7b3          	or	a5,a5,t6
2040138c:	026e7163          	bgeu	t3,t1,204013ae <core_list_init+0xfe>
20401390:	00480f93          	addi	t6,a6,4
20401394:	01dffd63          	bgeu	t6,t4,204013ae <core_list_init+0xfe>
20401398:	c298                	sw	a4,0(a3)
2040139a:	c194                	sw	a3,0(a1)
2040139c:	0106a223          	sw	a6,4(a3)
204013a0:	00f81023          	sh	a5,0(a6)
204013a4:	01e81123          	sh	t5,2(a6)
204013a8:	8736                	mv	a4,a3
204013aa:	887e                	mv	a6,t6
204013ac:	86f2                	mv	a3,t3
204013ae:	0885                	addi	a7,a7,1
204013b0:	f6a898e3          	bne	a7,a0,20401320 <core_list_init+0x70>
204013b4:	431c                	lw	a5,0(a4)
204013b6:	c7a1                	beqz	a5,204013fe <core_list_init+0x14e>
204013b8:	4895                	li	a7,5
204013ba:	6311                	lui	t1,0x4
204013bc:	031548b3          	div	a7,a0,a7
204013c0:	4785                	li	a5,1
204013c2:	137d                	addi	t1,t1,-1
204013c4:	a801                	j	204013d4 <core_list_init+0x124>
204013c6:	0001                	nop
204013c8:	4318                	lw	a4,0(a4)
204013ca:	00a81123          	sh	a0,2(a6)
204013ce:	0785                	addi	a5,a5,1
204013d0:	4314                	lw	a3,0(a4)
204013d2:	c695                	beqz	a3,204013fe <core_list_init+0x14e>
204013d4:	01079513          	slli	a0,a5,0x10
204013d8:	00472803          	lw	a6,4(a4)
204013dc:	8541                	srai	a0,a0,0x10
204013de:	ff17c5e3          	blt	a5,a7,204013c8 <core_list_init+0x118>
204013e2:	0785                	addi	a5,a5,1
204013e4:	00879693          	slli	a3,a5,0x8
204013e8:	7006f693          	andi	a3,a3,1792
204013ec:	8d31                	xor	a0,a0,a2
204013ee:	4318                	lw	a4,0(a4)
204013f0:	8ec9                	or	a3,a3,a0
204013f2:	0066f6b3          	and	a3,a3,t1
204013f6:	00d81123          	sh	a3,2(a6)
204013fa:	4314                	lw	a3,0(a4)
204013fc:	fee1                	bnez	a3,204013d4 <core_list_init+0x124>
204013fe:	4885                	li	a7,1
20401400:	4285                	li	t0,1
20401402:	0001                	nop
20401404:	4f81                	li	t6,0
20401406:	4301                	li	t1,0
20401408:	4601                	li	a2,0
2040140a:	0001                	nop
2040140c:	fff88693          	addi	a3,a7,-1
20401410:	8a9d                	andi	a3,a3,7
20401412:	0f85                	addi	t6,t6,1
20401414:	15105e63          	blez	a7,20401570 <core_list_init+0x2c0>
20401418:	419c                	lw	a5,0(a1)
2040141a:	4705                	li	a4,1
2040141c:	16078063          	beqz	a5,2040157c <core_list_init+0x2cc>
20401420:	c6b9                	beqz	a3,2040146e <core_list_init+0x1be>
20401422:	439c                	lw	a5,0(a5)
20401424:	4e05                	li	t3,1
20401426:	480d                	li	a6,3
20401428:	4511                	li	a0,4
2040142a:	4709                	li	a4,2
2040142c:	c3d1                	beqz	a5,204014b0 <core_list_init+0x200>
2040142e:	05c68063          	beq	a3,t3,2040146e <core_list_init+0x1be>
20401432:	02e68b63          	beq	a3,a4,20401468 <core_list_init+0x1b8>
20401436:	03068663          	beq	a3,a6,20401462 <core_list_init+0x1b2>
2040143a:	02a68163          	beq	a3,a0,2040145c <core_list_init+0x1ac>
2040143e:	4515                	li	a0,5
20401440:	00a68b63          	beq	a3,a0,20401456 <core_list_init+0x1a6>
20401444:	4519                	li	a0,6
20401446:	00a68563          	beq	a3,a0,20401450 <core_list_init+0x1a0>
2040144a:	439c                	lw	a5,0(a5)
2040144c:	0705                	addi	a4,a4,1
2040144e:	c3ad                	beqz	a5,204014b0 <core_list_init+0x200>
20401450:	439c                	lw	a5,0(a5)
20401452:	0705                	addi	a4,a4,1
20401454:	cfb1                	beqz	a5,204014b0 <core_list_init+0x200>
20401456:	439c                	lw	a5,0(a5)
20401458:	0705                	addi	a4,a4,1
2040145a:	cbb9                	beqz	a5,204014b0 <core_list_init+0x200>
2040145c:	439c                	lw	a5,0(a5)
2040145e:	0705                	addi	a4,a4,1
20401460:	cba1                	beqz	a5,204014b0 <core_list_init+0x200>
20401462:	439c                	lw	a5,0(a5)
20401464:	0705                	addi	a4,a4,1
20401466:	c7a9                	beqz	a5,204014b0 <core_list_init+0x200>
20401468:	439c                	lw	a5,0(a5)
2040146a:	0705                	addi	a4,a4,1
2040146c:	c3b1                	beqz	a5,204014b0 <core_list_init+0x200>
2040146e:	05170163          	beq	a4,a7,204014b0 <core_list_init+0x200>
20401472:	439c                	lw	a5,0(a5)
20401474:	0705                	addi	a4,a4,1
20401476:	86ba                	mv	a3,a4
20401478:	cf85                	beqz	a5,204014b0 <core_list_init+0x200>
2040147a:	439c                	lw	a5,0(a5)
2040147c:	0705                	addi	a4,a4,1
2040147e:	cb8d                	beqz	a5,204014b0 <core_list_init+0x200>
20401480:	439c                	lw	a5,0(a5)
20401482:	00268713          	addi	a4,a3,2
20401486:	c78d                	beqz	a5,204014b0 <core_list_init+0x200>
20401488:	439c                	lw	a5,0(a5)
2040148a:	00368713          	addi	a4,a3,3
2040148e:	c38d                	beqz	a5,204014b0 <core_list_init+0x200>
20401490:	439c                	lw	a5,0(a5)
20401492:	00468713          	addi	a4,a3,4
20401496:	cf89                	beqz	a5,204014b0 <core_list_init+0x200>
20401498:	439c                	lw	a5,0(a5)
2040149a:	00568713          	addi	a4,a3,5
2040149e:	cb89                	beqz	a5,204014b0 <core_list_init+0x200>
204014a0:	439c                	lw	a5,0(a5)
204014a2:	00668713          	addi	a4,a3,6
204014a6:	c789                	beqz	a5,204014b0 <core_list_init+0x200>
204014a8:	439c                	lw	a5,0(a5)
204014aa:	00768713          	addi	a4,a3,7
204014ae:	f3e1                	bnez	a5,2040146e <core_list_init+0x1be>
204014b0:	86c6                	mv	a3,a7
204014b2:	881a                	mv	a6,t1
204014b4:	8532                	mv	a0,a2
204014b6:	06e05763          	blez	a4,20401524 <core_list_init+0x274>
204014ba:	0001                	nop
204014bc:	c6c1                	beqz	a3,20401544 <core_list_init+0x294>
204014be:	c3d9                	beqz	a5,20401544 <core_list_init+0x294>
204014c0:	0045ae83          	lw	t4,4(a1)
204014c4:	0047ae03          	lw	t3,4(a5)
204014c8:	000e9603          	lh	a2,0(t4)
204014cc:	002e1383          	lh	t2,2(t3)
204014d0:	002e9303          	lh	t1,2(t4)
204014d4:	01061f13          	slli	t5,a2,0x10
204014d8:	010f5f13          	srli	t5,t5,0x10
204014dc:	f0067613          	andi	a2,a2,-256
204014e0:	008f5f13          	srli	t5,t5,0x8
204014e4:	01e66633          	or	a2,a2,t5
204014e8:	00ce9023          	sh	a2,0(t4)
204014ec:	000e1603          	lh	a2,0(t3)
204014f0:	40730333          	sub	t1,t1,t2
204014f4:	01061e93          	slli	t4,a2,0x10
204014f8:	010ede93          	srli	t4,t4,0x10
204014fc:	f0067613          	andi	a2,a2,-256
20401500:	008ede93          	srli	t4,t4,0x8
20401504:	01d66633          	or	a2,a2,t4
20401508:	00ce1023          	sh	a2,0(t3)
2040150c:	02605863          	blez	t1,2040153c <core_list_init+0x28c>
20401510:	863e                	mv	a2,a5
20401512:	439c                	lw	a5,0(a5)
20401514:	16fd                	addi	a3,a3,-1
20401516:	02080063          	beqz	a6,20401536 <core_list_init+0x286>
2040151a:	00c82023          	sw	a2,0(a6)
2040151e:	8832                	mv	a6,a2
20401520:	f8e04ee3          	bgtz	a4,204014bc <core_list_init+0x20c>
20401524:	02d05463          	blez	a3,2040154c <core_list_init+0x29c>
20401528:	cb95                	beqz	a5,2040155c <core_list_init+0x2ac>
2040152a:	fb59                	bnez	a4,204014c0 <core_list_init+0x210>
2040152c:	863e                	mv	a2,a5
2040152e:	16fd                	addi	a3,a3,-1
20401530:	439c                	lw	a5,0(a5)
20401532:	fe0814e3          	bnez	a6,2040151a <core_list_init+0x26a>
20401536:	8532                	mv	a0,a2
20401538:	8832                	mv	a6,a2
2040153a:	b7dd                	j	20401520 <core_list_init+0x270>
2040153c:	862e                	mv	a2,a1
2040153e:	177d                	addi	a4,a4,-1
20401540:	418c                	lw	a1,0(a1)
20401542:	bfd1                	j	20401516 <core_list_init+0x266>
20401544:	862e                	mv	a2,a1
20401546:	177d                	addi	a4,a4,-1
20401548:	418c                	lw	a1,0(a1)
2040154a:	b7f1                	j	20401516 <core_list_init+0x266>
2040154c:	85be                	mv	a1,a5
2040154e:	862a                	mv	a2,a0
20401550:	8342                	mv	t1,a6
20401552:	ea079de3          	bnez	a5,2040140c <core_list_init+0x15c>
20401556:	85aa                	mv	a1,a0
20401558:	a019                	j	2040155e <core_list_init+0x2ae>
2040155a:	0001                	nop
2040155c:	85aa                	mv	a1,a0
2040155e:	00082023          	sw	zero,0(a6)
20401562:	03f2d363          	bge	t0,t6,20401588 <core_list_init+0x2d8>
20401566:	0886                	slli	a7,a7,0x1
20401568:	e8051ee3          	bnez	a0,20401404 <core_list_init+0x154>
2040156c:	e21fe06f          	j	2040038c <core_list_init.cold.2>
20401570:	87ae                	mv	a5,a1
20401572:	4701                	li	a4,0
20401574:	86c6                	mv	a3,a7
20401576:	881a                	mv	a6,t1
20401578:	8532                	mv	a0,a2
2040157a:	bf35                	j	204014b6 <core_list_init+0x206>
2040157c:	4705                	li	a4,1
2040157e:	86c6                	mv	a3,a7
20401580:	881a                	mv	a6,t1
20401582:	8532                	mv	a0,a2
20401584:	bf0d                	j	204014b6 <core_list_init+0x206>
20401586:	0001                	nop
20401588:	8082                	ret
2040158a:	0001                	nop
2040158c:	00f67793          	andi	a5,a2,15
20401590:	078e                	slli	a5,a5,0x3
20401592:	00879f93          	slli	t6,a5,0x8
20401596:	00868893          	addi	a7,a3,8
2040159a:	00480e13          	addi	t3,a6,4
2040159e:	01f7e7b3          	or	a5,a5,t6
204015a2:	0068ff63          	bgeu	a7,t1,204015c0 <core_list_init+0x310>
204015a6:	01de7d63          	bgeu	t3,t4,204015c0 <core_list_init+0x310>
204015aa:	c298                	sw	a4,0(a3)
204015ac:	c194                	sw	a3,0(a1)
204015ae:	0106a223          	sw	a6,4(a3)
204015b2:	00f81023          	sh	a5,0(a6)
204015b6:	01e81123          	sh	t5,2(a6)
204015ba:	8736                	mv	a4,a3
204015bc:	8872                	mv	a6,t3
204015be:	86c6                	mv	a3,a7
204015c0:	4885                	li	a7,1
204015c2:	d4a89fe3          	bne	a7,a0,20401320 <core_list_init+0x70>
204015c6:	b3fd                	j	204013b4 <core_list_init+0x104>
204015c8:	86ba                	mv	a3,a4
204015ca:	8846                	mv	a6,a7
204015cc:	4701                	li	a4,0
204015ce:	bb35                	j	2040130a <core_list_init+0x5a>
204015d0:	86ba                	mv	a3,a4
204015d2:	8846                	mv	a6,a7
204015d4:	4701                	li	a4,0
204015d6:	bb15                	j	2040130a <core_list_init+0x5a>
	...

204015f0 <iterate>:
iterate():
204015f0:	1101                	addi	sp,sp,-32
204015f2:	c64e                	sw	s3,12(sp)
204015f4:	01c52983          	lw	s3,28(a0)
204015f8:	ce06                	sw	ra,28(sp)
204015fa:	cc22                	sw	s0,24(sp)
204015fc:	ca26                	sw	s1,20(sp)
204015fe:	c84a                	sw	s2,16(sp)
20401600:	c452                	sw	s4,8(sp)
20401602:	c256                	sw	s5,4(sp)
20401604:	02052c23          	sw	zero,56(a0)
20401608:	02052e23          	sw	zero,60(a0)
2040160c:	17305e63          	blez	s3,20401788 <iterate+0x198>
20401610:	0039f793          	andi	a5,s3,3
20401614:	842a                	mv	s0,a0
20401616:	4481                	li	s1,0
20401618:	cfd1                	beqz	a5,204016b4 <iterate+0xc4>
2040161a:	4705                	li	a4,1
2040161c:	06e78263          	beq	a5,a4,20401680 <iterate+0x90>
20401620:	4709                	li	a4,2
20401622:	02e78863          	beq	a5,a4,20401652 <iterate+0x62>
20401626:	4585                	li	a1,1
20401628:	da8ff0ef          	jal	ra,20400bd0 <core_bench_list>
2040162c:	03845583          	lhu	a1,56(s0)
20401630:	4485                	li	s1,1
20401632:	13e020ef          	jal	ra,20403770 <crcu16>
20401636:	02a41c23          	sh	a0,56(s0)
2040163a:	55fd                	li	a1,-1
2040163c:	8522                	mv	a0,s0
2040163e:	d92ff0ef          	jal	ra,20400bd0 <core_bench_list>
20401642:	03845583          	lhu	a1,56(s0)
20401646:	12a020ef          	jal	ra,20403770 <crcu16>
2040164a:	02a41c23          	sh	a0,56(s0)
2040164e:	02a41d23          	sh	a0,58(s0)
20401652:	4585                	li	a1,1
20401654:	8522                	mv	a0,s0
20401656:	d7aff0ef          	jal	ra,20400bd0 <core_bench_list>
2040165a:	03845583          	lhu	a1,56(s0)
2040165e:	112020ef          	jal	ra,20403770 <crcu16>
20401662:	02a41c23          	sh	a0,56(s0)
20401666:	55fd                	li	a1,-1
20401668:	8522                	mv	a0,s0
2040166a:	d66ff0ef          	jal	ra,20400bd0 <core_bench_list>
2040166e:	03845583          	lhu	a1,56(s0)
20401672:	0fe020ef          	jal	ra,20403770 <crcu16>
20401676:	02a41c23          	sh	a0,56(s0)
2040167a:	12048d63          	beqz	s1,204017b4 <iterate+0x1c4>
2040167e:	0485                	addi	s1,s1,1
20401680:	4585                	li	a1,1
20401682:	8522                	mv	a0,s0
20401684:	d4cff0ef          	jal	ra,20400bd0 <core_bench_list>
20401688:	03845583          	lhu	a1,56(s0)
2040168c:	0e4020ef          	jal	ra,20403770 <crcu16>
20401690:	02a41c23          	sh	a0,56(s0)
20401694:	55fd                	li	a1,-1
20401696:	8522                	mv	a0,s0
20401698:	d38ff0ef          	jal	ra,20400bd0 <core_bench_list>
2040169c:	03845583          	lhu	a1,56(s0)
204016a0:	0d0020ef          	jal	ra,20403770 <crcu16>
204016a4:	02a41c23          	sh	a0,56(s0)
204016a8:	10048063          	beqz	s1,204017a8 <iterate+0x1b8>
204016ac:	0485                	addi	s1,s1,1
204016ae:	0c998d63          	beq	s3,s1,20401788 <iterate+0x198>
204016b2:	0001                	nop
204016b4:	4585                	li	a1,1
204016b6:	8522                	mv	a0,s0
204016b8:	d18ff0ef          	jal	ra,20400bd0 <core_bench_list>
204016bc:	03845583          	lhu	a1,56(s0)
204016c0:	00148913          	addi	s2,s1,1
204016c4:	00190a93          	addi	s5,s2,1
204016c8:	0a8020ef          	jal	ra,20403770 <crcu16>
204016cc:	02a41c23          	sh	a0,56(s0)
204016d0:	55fd                	li	a1,-1
204016d2:	8522                	mv	a0,s0
204016d4:	cfcff0ef          	jal	ra,20400bd0 <core_bench_list>
204016d8:	03845583          	lhu	a1,56(s0)
204016dc:	00290a13          	addi	s4,s2,2
204016e0:	090020ef          	jal	ra,20403770 <crcu16>
204016e4:	87aa                	mv	a5,a0
204016e6:	02f41c23          	sh	a5,56(s0)
204016ea:	4585                	li	a1,1
204016ec:	8522                	mv	a0,s0
204016ee:	e099                	bnez	s1,204016f4 <iterate+0x104>
204016f0:	02f41d23          	sh	a5,58(s0)
204016f4:	cdcff0ef          	jal	ra,20400bd0 <core_bench_list>
204016f8:	03845583          	lhu	a1,56(s0)
204016fc:	00390493          	addi	s1,s2,3
20401700:	070020ef          	jal	ra,20403770 <crcu16>
20401704:	02a41c23          	sh	a0,56(s0)
20401708:	55fd                	li	a1,-1
2040170a:	8522                	mv	a0,s0
2040170c:	cc4ff0ef          	jal	ra,20400bd0 <core_bench_list>
20401710:	03845583          	lhu	a1,56(s0)
20401714:	05c020ef          	jal	ra,20403770 <crcu16>
20401718:	87aa                	mv	a5,a0
2040171a:	02f41c23          	sh	a5,56(s0)
2040171e:	4585                	li	a1,1
20401720:	8522                	mv	a0,s0
20401722:	00091463          	bnez	s2,2040172a <iterate+0x13a>
20401726:	02f41d23          	sh	a5,58(s0)
2040172a:	ca6ff0ef          	jal	ra,20400bd0 <core_bench_list>
2040172e:	03845583          	lhu	a1,56(s0)
20401732:	03e020ef          	jal	ra,20403770 <crcu16>
20401736:	02a41c23          	sh	a0,56(s0)
2040173a:	55fd                	li	a1,-1
2040173c:	8522                	mv	a0,s0
2040173e:	c92ff0ef          	jal	ra,20400bd0 <core_bench_list>
20401742:	03845583          	lhu	a1,56(s0)
20401746:	02a020ef          	jal	ra,20403770 <crcu16>
2040174a:	87aa                	mv	a5,a0
2040174c:	02f41c23          	sh	a5,56(s0)
20401750:	4585                	li	a1,1
20401752:	8522                	mv	a0,s0
20401754:	000a9463          	bnez	s5,2040175c <iterate+0x16c>
20401758:	02f41d23          	sh	a5,58(s0)
2040175c:	c74ff0ef          	jal	ra,20400bd0 <core_bench_list>
20401760:	03845583          	lhu	a1,56(s0)
20401764:	00c020ef          	jal	ra,20403770 <crcu16>
20401768:	02a41c23          	sh	a0,56(s0)
2040176c:	55fd                	li	a1,-1
2040176e:	8522                	mv	a0,s0
20401770:	c60ff0ef          	jal	ra,20400bd0 <core_bench_list>
20401774:	03845583          	lhu	a1,56(s0)
20401778:	7f9010ef          	jal	ra,20403770 <crcu16>
2040177c:	02a41c23          	sh	a0,56(s0)
20401780:	000a0e63          	beqz	s4,2040179c <iterate+0x1ac>
20401784:	f29998e3          	bne	s3,s1,204016b4 <iterate+0xc4>
20401788:	40f2                	lw	ra,28(sp)
2040178a:	4462                	lw	s0,24(sp)
2040178c:	44d2                	lw	s1,20(sp)
2040178e:	4942                	lw	s2,16(sp)
20401790:	49b2                	lw	s3,12(sp)
20401792:	4a22                	lw	s4,8(sp)
20401794:	4a92                	lw	s5,4(sp)
20401796:	4501                	li	a0,0
20401798:	6105                	addi	sp,sp,32
2040179a:	8082                	ret
2040179c:	02a41d23          	sh	a0,58(s0)
204017a0:	f0999ae3          	bne	s3,s1,204016b4 <iterate+0xc4>
204017a4:	b7d5                	j	20401788 <iterate+0x198>
204017a6:	0001                	nop
204017a8:	02a41d23          	sh	a0,58(s0)
204017ac:	0485                	addi	s1,s1,1
204017ae:	f09993e3          	bne	s3,s1,204016b4 <iterate+0xc4>
204017b2:	bfd9                	j	20401788 <iterate+0x198>
204017b4:	02a41d23          	sh	a0,58(s0)
204017b8:	0485                	addi	s1,s1,1
204017ba:	b5d9                	j	20401680 <iterate+0x90>
204017bc:	0000                	unimp
	...

204017c0 <core_bench_matrix>:
core_bench_matrix():
204017c0:	711d                	addi	sp,sp,-96
204017c2:	415c                	lw	a5,4(a0)
204017c4:	c4d2                	sw	s4,72(sp)
204017c6:	00052a03          	lw	s4,0(a0)
204017ca:	cca2                	sw	s0,88(sp)
204017cc:	c2d6                	sw	s5,68(sp)
204017ce:	c0da                	sw	s6,64(sp)
204017d0:	747d                	lui	s0,0xfffff
204017d2:	ce86                	sw	ra,92(sp)
204017d4:	caa6                	sw	s1,84(sp)
204017d6:	c8ca                	sw	s2,80(sp)
204017d8:	c6ce                	sw	s3,76(sp)
204017da:	de5e                	sw	s7,60(sp)
204017dc:	dc62                	sw	s8,56(sp)
204017de:	da66                	sw	s9,52(sp)
204017e0:	d86a                	sw	s10,48(sp)
204017e2:	d66e                	sw	s11,44(sp)
204017e4:	c23e                	sw	a5,4(sp)
204017e6:	c432                	sw	a2,8(sp)
204017e8:	00c52b03          	lw	s6,12(a0)
204017ec:	00852a83          	lw	s5,8(a0)
204017f0:	8c4d                	or	s0,s0,a1
204017f2:	01404463          	bgtz	s4,204017fa <core_bench_matrix+0x3a>
204017f6:	26a0106f          	j	20402a60 <core_bench_matrix+0x12a0>
204017fa:	84ae                	mv	s1,a1
204017fc:	4681                	li	a3,0
204017fe:	001a1913          	slli	s2,s4,0x1
20401802:	0001                	nop
20401804:	ffe90713          	addi	a4,s2,-2
20401808:	8305                	srli	a4,a4,0x1
2040180a:	0705                	addi	a4,a4,1
2040180c:	8b1d                	andi	a4,a4,7
2040180e:	012785b3          	add	a1,a5,s2
20401812:	cf3d                	beqz	a4,20401890 <core_bench_matrix+0xd0>
20401814:	4605                	li	a2,1
20401816:	06c70563          	beq	a4,a2,20401880 <core_bench_matrix+0xc0>
2040181a:	4609                	li	a2,2
2040181c:	04c70c63          	beq	a4,a2,20401874 <core_bench_matrix+0xb4>
20401820:	460d                	li	a2,3
20401822:	04c70363          	beq	a4,a2,20401868 <core_bench_matrix+0xa8>
20401826:	4611                	li	a2,4
20401828:	02c70a63          	beq	a4,a2,2040185c <core_bench_matrix+0x9c>
2040182c:	4615                	li	a2,5
2040182e:	02c70163          	beq	a4,a2,20401850 <core_bench_matrix+0x90>
20401832:	4619                	li	a2,6
20401834:	00c70863          	beq	a4,a2,20401844 <core_bench_matrix+0x84>
20401838:	0007d703          	lhu	a4,0(a5)
2040183c:	0789                	addi	a5,a5,2
2040183e:	9726                	add	a4,a4,s1
20401840:	fee79f23          	sh	a4,-2(a5)
20401844:	0007d703          	lhu	a4,0(a5)
20401848:	0789                	addi	a5,a5,2
2040184a:	9726                	add	a4,a4,s1
2040184c:	fee79f23          	sh	a4,-2(a5)
20401850:	0007d703          	lhu	a4,0(a5)
20401854:	0789                	addi	a5,a5,2
20401856:	9726                	add	a4,a4,s1
20401858:	fee79f23          	sh	a4,-2(a5)
2040185c:	0007d703          	lhu	a4,0(a5)
20401860:	0789                	addi	a5,a5,2
20401862:	9726                	add	a4,a4,s1
20401864:	fee79f23          	sh	a4,-2(a5)
20401868:	0007d703          	lhu	a4,0(a5)
2040186c:	0789                	addi	a5,a5,2
2040186e:	9726                	add	a4,a4,s1
20401870:	fee79f23          	sh	a4,-2(a5)
20401874:	0007d703          	lhu	a4,0(a5)
20401878:	0789                	addi	a5,a5,2
2040187a:	9726                	add	a4,a4,s1
2040187c:	fee79f23          	sh	a4,-2(a5)
20401880:	0007d703          	lhu	a4,0(a5)
20401884:	0789                	addi	a5,a5,2
20401886:	9726                	add	a4,a4,s1
20401888:	fee79f23          	sh	a4,-2(a5)
2040188c:	04b78d63          	beq	a5,a1,204018e6 <core_bench_matrix+0x126>
20401890:	0007de83          	lhu	t4,0(a5)
20401894:	0027de03          	lhu	t3,2(a5)
20401898:	0047d303          	lhu	t1,4(a5)
2040189c:	0067d883          	lhu	a7,6(a5)
204018a0:	0087d803          	lhu	a6,8(a5)
204018a4:	00a7d503          	lhu	a0,10(a5)
204018a8:	00c7d603          	lhu	a2,12(a5)
204018ac:	00e7d703          	lhu	a4,14(a5)
204018b0:	9ea6                	add	t4,t4,s1
204018b2:	9e26                	add	t3,t3,s1
204018b4:	9326                	add	t1,t1,s1
204018b6:	98a6                	add	a7,a7,s1
204018b8:	9826                	add	a6,a6,s1
204018ba:	9526                	add	a0,a0,s1
204018bc:	9626                	add	a2,a2,s1
204018be:	9726                	add	a4,a4,s1
204018c0:	01d79023          	sh	t4,0(a5)
204018c4:	01c79123          	sh	t3,2(a5)
204018c8:	00679223          	sh	t1,4(a5)
204018cc:	01179323          	sh	a7,6(a5)
204018d0:	01079423          	sh	a6,8(a5)
204018d4:	00a79523          	sh	a0,10(a5)
204018d8:	00c79623          	sh	a2,12(a5)
204018dc:	00e79723          	sh	a4,14(a5)
204018e0:	07c1                	addi	a5,a5,16
204018e2:	fab797e3          	bne	a5,a1,20401890 <core_bench_matrix+0xd0>
204018e6:	0685                	addi	a3,a3,1
204018e8:	f0da1ee3          	bne	s4,a3,20401804 <core_bench_matrix+0x44>
204018ec:	4792                	lw	a5,4(sp)
204018ee:	4581                	li	a1,0
204018f0:	002a1993          	slli	s3,s4,0x2
204018f4:	865a                	mv	a2,s6
204018f6:	0001                	nop
204018f8:	ffe90693          	addi	a3,s2,-2
204018fc:	8285                	srli	a3,a3,0x1
204018fe:	0685                	addi	a3,a3,1
20401900:	8a9d                	andi	a3,a3,7
20401902:	8732                	mv	a4,a2
20401904:	01278533          	add	a0,a5,s2
20401908:	cec9                	beqz	a3,204019a2 <core_bench_matrix+0x1e2>
2040190a:	4805                	li	a6,1
2040190c:	09068163          	beq	a3,a6,2040198e <core_bench_matrix+0x1ce>
20401910:	4809                	li	a6,2
20401912:	07068663          	beq	a3,a6,2040197e <core_bench_matrix+0x1be>
20401916:	480d                	li	a6,3
20401918:	05068b63          	beq	a3,a6,2040196e <core_bench_matrix+0x1ae>
2040191c:	4811                	li	a6,4
2040191e:	05068063          	beq	a3,a6,2040195e <core_bench_matrix+0x19e>
20401922:	4815                	li	a6,5
20401924:	03068563          	beq	a3,a6,2040194e <core_bench_matrix+0x18e>
20401928:	4819                	li	a6,6
2040192a:	01068a63          	beq	a3,a6,2040193e <core_bench_matrix+0x17e>
2040192e:	00079683          	lh	a3,0(a5)
20401932:	00460713          	addi	a4,a2,4
20401936:	0789                	addi	a5,a5,2
20401938:	029686b3          	mul	a3,a3,s1
2040193c:	c214                	sw	a3,0(a2)
2040193e:	00079683          	lh	a3,0(a5)
20401942:	0711                	addi	a4,a4,4
20401944:	0789                	addi	a5,a5,2
20401946:	029686b3          	mul	a3,a3,s1
2040194a:	fed72e23          	sw	a3,-4(a4)
2040194e:	00079683          	lh	a3,0(a5)
20401952:	0711                	addi	a4,a4,4
20401954:	0789                	addi	a5,a5,2
20401956:	029686b3          	mul	a3,a3,s1
2040195a:	fed72e23          	sw	a3,-4(a4)
2040195e:	00079683          	lh	a3,0(a5)
20401962:	0711                	addi	a4,a4,4
20401964:	0789                	addi	a5,a5,2
20401966:	029686b3          	mul	a3,a3,s1
2040196a:	fed72e23          	sw	a3,-4(a4)
2040196e:	00079683          	lh	a3,0(a5)
20401972:	0711                	addi	a4,a4,4
20401974:	0789                	addi	a5,a5,2
20401976:	029686b3          	mul	a3,a3,s1
2040197a:	fed72e23          	sw	a3,-4(a4)
2040197e:	00079683          	lh	a3,0(a5)
20401982:	0711                	addi	a4,a4,4
20401984:	0789                	addi	a5,a5,2
20401986:	029686b3          	mul	a3,a3,s1
2040198a:	fed72e23          	sw	a3,-4(a4)
2040198e:	00079683          	lh	a3,0(a5)
20401992:	0789                	addi	a5,a5,2
20401994:	0711                	addi	a4,a4,4
20401996:	029686b3          	mul	a3,a3,s1
2040199a:	fed72e23          	sw	a3,-4(a4)
2040199e:	06a78763          	beq	a5,a0,20401a0c <core_bench_matrix+0x24c>
204019a2:	00079f83          	lh	t6,0(a5)
204019a6:	00279f03          	lh	t5,2(a5)
204019aa:	00479e83          	lh	t4,4(a5)
204019ae:	00679e03          	lh	t3,6(a5)
204019b2:	00879303          	lh	t1,8(a5)
204019b6:	00a79883          	lh	a7,10(a5)
204019ba:	00c79803          	lh	a6,12(a5)
204019be:	00e79683          	lh	a3,14(a5)
204019c2:	029f8fb3          	mul	t6,t6,s1
204019c6:	07c1                	addi	a5,a5,16
204019c8:	02070713          	addi	a4,a4,32
204019cc:	029f0f33          	mul	t5,t5,s1
204019d0:	fff72023          	sw	t6,-32(a4)
204019d4:	029e8eb3          	mul	t4,t4,s1
204019d8:	ffe72223          	sw	t5,-28(a4)
204019dc:	029e0e33          	mul	t3,t3,s1
204019e0:	ffd72423          	sw	t4,-24(a4)
204019e4:	02930333          	mul	t1,t1,s1
204019e8:	ffc72623          	sw	t3,-20(a4)
204019ec:	029888b3          	mul	a7,a7,s1
204019f0:	fe672823          	sw	t1,-16(a4)
204019f4:	02980833          	mul	a6,a6,s1
204019f8:	ff172a23          	sw	a7,-12(a4)
204019fc:	029686b3          	mul	a3,a3,s1
20401a00:	ff072c23          	sw	a6,-8(a4)
20401a04:	fed72e23          	sw	a3,-4(a4)
20401a08:	f8a79de3          	bne	a5,a0,204019a2 <core_bench_matrix+0x1e2>
20401a0c:	0585                	addi	a1,a1,1
20401a0e:	964e                	add	a2,a2,s3
20401a10:	eeba14e3          	bne	s4,a1,204018f8 <core_bench_matrix+0x138>
20401a14:	41400cb3          	neg	s9,s4
20401a18:	4e81                	li	t4,0
20401a1a:	4781                	li	a5,0
20401a1c:	4301                	li	t1,0
20401a1e:	4601                	li	a2,0
20401a20:	003c9813          	slli	a6,s9,0x3
20401a24:	013b06b3          	add	a3,s6,s3
20401a28:	002c9593          	slli	a1,s9,0x2
20401a2c:	00b68733          	add	a4,a3,a1
20401a30:	40e68e33          	sub	t3,a3,a4
20401a34:	1e71                	addi	t3,t3,-4
20401a36:	002e5e13          	srli	t3,t3,0x2
20401a3a:	0e05                	addi	t3,t3,1
20401a3c:	007e7e13          	andi	t3,t3,7
20401a40:	88ba                	mv	a7,a4
20401a42:	8576                	mv	a0,t4
20401a44:	160e0d63          	beqz	t3,20401bbe <core_bench_matrix+0x3fe>
20401a48:	4e85                	li	t4,1
20401a4a:	0dde0463          	beq	t3,t4,20401b12 <core_bench_matrix+0x352>
20401a4e:	4e89                	li	t4,2
20401a50:	0bde0363          	beq	t3,t4,20401af6 <core_bench_matrix+0x336>
20401a54:	4e8d                	li	t4,3
20401a56:	09de0263          	beq	t3,t4,20401ada <core_bench_matrix+0x31a>
20401a5a:	4e91                	li	t4,4
20401a5c:	07de0263          	beq	t3,t4,20401ac0 <core_bench_matrix+0x300>
20401a60:	4e95                	li	t4,5
20401a62:	05de0263          	beq	t3,t4,20401aa6 <core_bench_matrix+0x2e6>
20401a66:	4e99                	li	t4,6
20401a68:	03de0263          	beq	t3,t4,20401a8c <core_bench_matrix+0x2cc>
20401a6c:	00072e03          	lw	t3,0(a4)
20401a70:	9372                	add	t1,t1,t3
20401a72:	00645463          	bge	s0,t1,20401a7a <core_bench_matrix+0x2ba>
20401a76:	7db0006f          	j	20402a50 <core_bench_matrix+0x1290>
20401a7a:	01c7a7b3          	slt	a5,a5,t3
20401a7e:	97aa                	add	a5,a5,a0
20401a80:	01079513          	slli	a0,a5,0x10
20401a84:	8541                	srai	a0,a0,0x10
20401a86:	00470893          	addi	a7,a4,4
20401a8a:	87f2                	mv	a5,t3
20401a8c:	0008ae03          	lw	t3,0(a7)
20401a90:	9372                	add	t1,t1,t3
20401a92:	64644de3          	blt	s0,t1,204028ec <core_bench_matrix+0x112c>
20401a96:	01c7a7b3          	slt	a5,a5,t3
20401a9a:	97aa                	add	a5,a5,a0
20401a9c:	01079513          	slli	a0,a5,0x10
20401aa0:	8541                	srai	a0,a0,0x10
20401aa2:	0891                	addi	a7,a7,4
20401aa4:	87f2                	mv	a5,t3
20401aa6:	0008ae03          	lw	t3,0(a7)
20401aaa:	9372                	add	t1,t1,t3
20401aac:	626448e3          	blt	s0,t1,204028dc <core_bench_matrix+0x111c>
20401ab0:	01c7a7b3          	slt	a5,a5,t3
20401ab4:	97aa                	add	a5,a5,a0
20401ab6:	01079513          	slli	a0,a5,0x10
20401aba:	8541                	srai	a0,a0,0x10
20401abc:	0891                	addi	a7,a7,4
20401abe:	87f2                	mv	a5,t3
20401ac0:	0008ae03          	lw	t3,0(a7)
20401ac4:	9372                	add	t1,t1,t3
20401ac6:	62644be3          	blt	s0,t1,204028fc <core_bench_matrix+0x113c>
20401aca:	01c7a7b3          	slt	a5,a5,t3
20401ace:	97aa                	add	a5,a5,a0
20401ad0:	01079513          	slli	a0,a5,0x10
20401ad4:	8541                	srai	a0,a0,0x10
20401ad6:	0891                	addi	a7,a7,4
20401ad8:	87f2                	mv	a5,t3
20401ada:	0008ae03          	lw	t3,0(a7)
20401ade:	9372                	add	t1,t1,t3
20401ae0:	62644ee3          	blt	s0,t1,2040291c <core_bench_matrix+0x115c>
20401ae4:	01c7aeb3          	slt	t4,a5,t3
20401ae8:	01d507b3          	add	a5,a0,t4
20401aec:	01079513          	slli	a0,a5,0x10
20401af0:	8541                	srai	a0,a0,0x10
20401af2:	0891                	addi	a7,a7,4
20401af4:	87f2                	mv	a5,t3
20401af6:	0008ae03          	lw	t3,0(a7)
20401afa:	9372                	add	t1,t1,t3
20401afc:	606448e3          	blt	s0,t1,2040290c <core_bench_matrix+0x114c>
20401b00:	01c7aeb3          	slt	t4,a5,t3
20401b04:	01d507b3          	add	a5,a0,t4
20401b08:	01079513          	slli	a0,a5,0x10
20401b0c:	8541                	srai	a0,a0,0x10
20401b0e:	0891                	addi	a7,a7,4
20401b10:	87f2                	mv	a5,t3
20401b12:	0008ae03          	lw	t3,0(a7)
20401b16:	9372                	add	t1,t1,t3
20401b18:	646444e3          	blt	s0,t1,20402960 <core_bench_matrix+0x11a0>
20401b1c:	01c7aeb3          	slt	t4,a5,t3
20401b20:	01d507b3          	add	a5,a0,t4
20401b24:	01079513          	slli	a0,a5,0x10
20401b28:	8541                	srai	a0,a0,0x10
20401b2a:	0891                	addi	a7,a7,4
20401b2c:	87f2                	mv	a5,t3
20401b2e:	08d89863          	bne	a7,a3,20401bbe <core_bench_matrix+0x3fe>
20401b32:	a235                	j	20401c5e <core_bench_matrix+0x49e>
20401b34:	0048a503          	lw	a0,4(a7)
20401b38:	07a9                	addi	a5,a5,10
20401b3a:	4301                	li	t1,0
20401b3c:	07c2                	slli	a5,a5,0x10
20401b3e:	932a                	add	t1,t1,a0
20401b40:	87c1                	srai	a5,a5,0x10
20401b42:	0a644863          	blt	s0,t1,20401bf2 <core_bench_matrix+0x432>
20401b46:	00ae2e33          	slt	t3,t3,a0
20401b4a:	97f2                	add	a5,a5,t3
20401b4c:	0088ae03          	lw	t3,8(a7)
20401b50:	07c2                	slli	a5,a5,0x10
20401b52:	87c1                	srai	a5,a5,0x10
20401b54:	9372                	add	t1,t1,t3
20401b56:	0a644763          	blt	s0,t1,20401c04 <core_bench_matrix+0x444>
20401b5a:	01c52533          	slt	a0,a0,t3
20401b5e:	97aa                	add	a5,a5,a0
20401b60:	00c8a503          	lw	a0,12(a7)
20401b64:	07c2                	slli	a5,a5,0x10
20401b66:	87c1                	srai	a5,a5,0x10
20401b68:	932a                	add	t1,t1,a0
20401b6a:	0a644663          	blt	s0,t1,20401c16 <core_bench_matrix+0x456>
20401b6e:	00ae2e33          	slt	t3,t3,a0
20401b72:	97f2                	add	a5,a5,t3
20401b74:	0108ae03          	lw	t3,16(a7)
20401b78:	07c2                	slli	a5,a5,0x10
20401b7a:	87c1                	srai	a5,a5,0x10
20401b7c:	9372                	add	t1,t1,t3
20401b7e:	0a644563          	blt	s0,t1,20401c28 <core_bench_matrix+0x468>
20401b82:	01c52533          	slt	a0,a0,t3
20401b86:	97aa                	add	a5,a5,a0
20401b88:	0148a503          	lw	a0,20(a7)
20401b8c:	07c2                	slli	a5,a5,0x10
20401b8e:	87c1                	srai	a5,a5,0x10
20401b90:	932a                	add	t1,t1,a0
20401b92:	0a644463          	blt	s0,t1,20401c3a <core_bench_matrix+0x47a>
20401b96:	00ae2e33          	slt	t3,t3,a0
20401b9a:	97f2                	add	a5,a5,t3
20401b9c:	0188ae03          	lw	t3,24(a7)
20401ba0:	07c2                	slli	a5,a5,0x10
20401ba2:	87c1                	srai	a5,a5,0x10
20401ba4:	9372                	add	t1,t1,t3
20401ba6:	0a644363          	blt	s0,t1,20401c4c <core_bench_matrix+0x48c>
20401baa:	01c52533          	slt	a0,a0,t3
20401bae:	97aa                	add	a5,a5,a0
20401bb0:	01079513          	slli	a0,a5,0x10
20401bb4:	08f1                	addi	a7,a7,28
20401bb6:	8541                	srai	a0,a0,0x10
20401bb8:	87f2                	mv	a5,t3
20401bba:	0ad88263          	beq	a7,a3,20401c5e <core_bench_matrix+0x49e>
20401bbe:	0008ae83          	lw	t4,0(a7)
20401bc2:	9376                	add	t1,t1,t4
20401bc4:	506454e3          	bge	s0,t1,204028cc <core_bench_matrix+0x110c>
20401bc8:	00a50793          	addi	a5,a0,10
20401bcc:	07c2                	slli	a5,a5,0x10
20401bce:	4301                	li	t1,0
20401bd0:	87c1                	srai	a5,a5,0x10
20401bd2:	0048ae03          	lw	t3,4(a7)
20401bd6:	0891                	addi	a7,a7,4
20401bd8:	9372                	add	t1,t1,t3
20401bda:	f4644de3          	blt	s0,t1,20401b34 <core_bench_matrix+0x374>
20401bde:	0048a503          	lw	a0,4(a7)
20401be2:	01ceaeb3          	slt	t4,t4,t3
20401be6:	97f6                	add	a5,a5,t4
20401be8:	07c2                	slli	a5,a5,0x10
20401bea:	932a                	add	t1,t1,a0
20401bec:	87c1                	srai	a5,a5,0x10
20401bee:	f4645ce3          	bge	s0,t1,20401b46 <core_bench_matrix+0x386>
20401bf2:	0088ae03          	lw	t3,8(a7)
20401bf6:	07a9                	addi	a5,a5,10
20401bf8:	4301                	li	t1,0
20401bfa:	07c2                	slli	a5,a5,0x10
20401bfc:	9372                	add	t1,t1,t3
20401bfe:	87c1                	srai	a5,a5,0x10
20401c00:	f4645de3          	bge	s0,t1,20401b5a <core_bench_matrix+0x39a>
20401c04:	00c8a503          	lw	a0,12(a7)
20401c08:	07a9                	addi	a5,a5,10
20401c0a:	4301                	li	t1,0
20401c0c:	07c2                	slli	a5,a5,0x10
20401c0e:	932a                	add	t1,t1,a0
20401c10:	87c1                	srai	a5,a5,0x10
20401c12:	f4645ee3          	bge	s0,t1,20401b6e <core_bench_matrix+0x3ae>
20401c16:	0108ae03          	lw	t3,16(a7)
20401c1a:	07a9                	addi	a5,a5,10
20401c1c:	4301                	li	t1,0
20401c1e:	07c2                	slli	a5,a5,0x10
20401c20:	9372                	add	t1,t1,t3
20401c22:	87c1                	srai	a5,a5,0x10
20401c24:	f4645fe3          	bge	s0,t1,20401b82 <core_bench_matrix+0x3c2>
20401c28:	0148a503          	lw	a0,20(a7)
20401c2c:	07a9                	addi	a5,a5,10
20401c2e:	4301                	li	t1,0
20401c30:	07c2                	slli	a5,a5,0x10
20401c32:	932a                	add	t1,t1,a0
20401c34:	87c1                	srai	a5,a5,0x10
20401c36:	f66450e3          	bge	s0,t1,20401b96 <core_bench_matrix+0x3d6>
20401c3a:	0188ae03          	lw	t3,24(a7)
20401c3e:	07a9                	addi	a5,a5,10
20401c40:	4301                	li	t1,0
20401c42:	07c2                	slli	a5,a5,0x10
20401c44:	9372                	add	t1,t1,t3
20401c46:	87c1                	srai	a5,a5,0x10
20401c48:	f66451e3          	bge	s0,t1,20401baa <core_bench_matrix+0x3ea>
20401c4c:	07a9                	addi	a5,a5,10
20401c4e:	01079513          	slli	a0,a5,0x10
20401c52:	08f1                	addi	a7,a7,28
20401c54:	8541                	srai	a0,a0,0x10
20401c56:	4301                	li	t1,0
20401c58:	87f2                	mv	a5,t3
20401c5a:	f6d892e3          	bne	a7,a3,20401bbe <core_bench_matrix+0x3fe>
20401c5e:	0605                	addi	a2,a2,1
20401c60:	87f2                	mv	a5,t3
20401c62:	8eaa                	mv	t4,a0
20401c64:	410706b3          	sub	a3,a4,a6
20401c68:	dcca12e3          	bne	s4,a2,20401a2c <core_bench_matrix+0x26c>
20401c6c:	4581                	li	a1,0
20401c6e:	783010ef          	jal	ra,20403bf0 <crc16>
20401c72:	4592                	lw	a1,4(sp)
20401c74:	013b07b3          	add	a5,s6,s3
20401c78:	c82a                	sw	a0,16(sp)
20401c7a:	c63e                	sw	a5,12(sp)
20401c7c:	855a                	mv	a0,s6
20401c7e:	012a82b3          	add	t0,s5,s2
20401c82:	0001                	nop
20401c84:	41528733          	sub	a4,t0,s5
20401c88:	1779                	addi	a4,a4,-2
20401c8a:	8305                	srli	a4,a4,0x1
20401c8c:	0705                	addi	a4,a4,1
20401c8e:	00052023          	sw	zero,0(a0)
20401c92:	8b1d                	andi	a4,a4,7
20401c94:	862e                	mv	a2,a1
20401c96:	4781                	li	a5,0
20401c98:	86d6                	mv	a3,s5
20401c9a:	c74d                	beqz	a4,20401d44 <core_bench_matrix+0x584>
20401c9c:	4805                	li	a6,1
20401c9e:	09070863          	beq	a4,a6,20401d2e <core_bench_matrix+0x56e>
20401ca2:	4809                	li	a6,2
20401ca4:	07070c63          	beq	a4,a6,20401d1c <core_bench_matrix+0x55c>
20401ca8:	480d                	li	a6,3
20401caa:	07070063          	beq	a4,a6,20401d0a <core_bench_matrix+0x54a>
20401cae:	4811                	li	a6,4
20401cb0:	05070463          	beq	a4,a6,20401cf8 <core_bench_matrix+0x538>
20401cb4:	4815                	li	a6,5
20401cb6:	03070863          	beq	a4,a6,20401ce6 <core_bench_matrix+0x526>
20401cba:	4819                	li	a6,6
20401cbc:	01070c63          	beq	a4,a6,20401cd4 <core_bench_matrix+0x514>
20401cc0:	00059703          	lh	a4,0(a1)
20401cc4:	000a9783          	lh	a5,0(s5)
20401cc8:	00258613          	addi	a2,a1,2
20401ccc:	002a8693          	addi	a3,s5,2
20401cd0:	02f707b3          	mul	a5,a4,a5
20401cd4:	00061703          	lh	a4,0(a2)
20401cd8:	00069803          	lh	a6,0(a3)
20401cdc:	0609                	addi	a2,a2,2
20401cde:	0689                	addi	a3,a3,2
20401ce0:	03070733          	mul	a4,a4,a6
20401ce4:	97ba                	add	a5,a5,a4
20401ce6:	00061703          	lh	a4,0(a2)
20401cea:	00069803          	lh	a6,0(a3)
20401cee:	0609                	addi	a2,a2,2
20401cf0:	0689                	addi	a3,a3,2
20401cf2:	03070733          	mul	a4,a4,a6
20401cf6:	97ba                	add	a5,a5,a4
20401cf8:	00061703          	lh	a4,0(a2)
20401cfc:	00069803          	lh	a6,0(a3)
20401d00:	0609                	addi	a2,a2,2
20401d02:	0689                	addi	a3,a3,2
20401d04:	03070733          	mul	a4,a4,a6
20401d08:	97ba                	add	a5,a5,a4
20401d0a:	00061703          	lh	a4,0(a2)
20401d0e:	00069803          	lh	a6,0(a3)
20401d12:	0609                	addi	a2,a2,2
20401d14:	0689                	addi	a3,a3,2
20401d16:	03070733          	mul	a4,a4,a6
20401d1a:	97ba                	add	a5,a5,a4
20401d1c:	00061703          	lh	a4,0(a2)
20401d20:	00069803          	lh	a6,0(a3)
20401d24:	0609                	addi	a2,a2,2
20401d26:	0689                	addi	a3,a3,2
20401d28:	03070733          	mul	a4,a4,a6
20401d2c:	97ba                	add	a5,a5,a4
20401d2e:	00061703          	lh	a4,0(a2)
20401d32:	00069803          	lh	a6,0(a3)
20401d36:	0689                	addi	a3,a3,2
20401d38:	0609                	addi	a2,a2,2
20401d3a:	03070733          	mul	a4,a4,a6
20401d3e:	97ba                	add	a5,a5,a4
20401d40:	06d28e63          	beq	t0,a3,20401dbc <core_bench_matrix+0x5fc>
20401d44:	00061803          	lh	a6,0(a2)
20401d48:	00069703          	lh	a4,0(a3)
20401d4c:	00269e83          	lh	t4,2(a3)
20401d50:	00261d03          	lh	s10,2(a2)
20401d54:	02e80733          	mul	a4,a6,a4
20401d58:	00461083          	lh	ra,4(a2)
20401d5c:	00469d83          	lh	s11,4(a3)
20401d60:	00661f83          	lh	t6,6(a2)
20401d64:	00669c03          	lh	s8,6(a3)
20401d68:	00861e03          	lh	t3,8(a2)
20401d6c:	00869b83          	lh	s7,8(a3)
20401d70:	00a61303          	lh	t1,10(a2)
20401d74:	00a69383          	lh	t2,10(a3)
20401d78:	00c61883          	lh	a7,12(a2)
20401d7c:	03dd0d33          	mul	s10,s10,t4
20401d80:	973e                	add	a4,a4,a5
20401d82:	00c69f03          	lh	t5,12(a3)
20401d86:	00e61803          	lh	a6,14(a2)
20401d8a:	00e69e83          	lh	t4,14(a3)
20401d8e:	06c1                	addi	a3,a3,16
20401d90:	0641                	addi	a2,a2,16
20401d92:	03b080b3          	mul	ra,ra,s11
20401d96:	976a                	add	a4,a4,s10
20401d98:	038f87b3          	mul	a5,t6,s8
20401d9c:	9706                	add	a4,a4,ra
20401d9e:	037e0e33          	mul	t3,t3,s7
20401da2:	97ba                	add	a5,a5,a4
20401da4:	02730333          	mul	t1,t1,t2
20401da8:	97f2                	add	a5,a5,t3
20401daa:	03e888b3          	mul	a7,a7,t5
20401dae:	979a                	add	a5,a5,t1
20401db0:	03d80733          	mul	a4,a6,t4
20401db4:	97c6                	add	a5,a5,a7
20401db6:	97ba                	add	a5,a5,a4
20401db8:	f8d296e3          	bne	t0,a3,20401d44 <core_bench_matrix+0x584>
20401dbc:	c11c                	sw	a5,0(a0)
20401dbe:	47b2                	lw	a5,12(sp)
20401dc0:	0511                	addi	a0,a0,4
20401dc2:	95ca                	add	a1,a1,s2
20401dc4:	eca790e3          	bne	a5,a0,20401c84 <core_bench_matrix+0x4c4>
20401dc8:	4e81                	li	t4,0
20401dca:	4881                	li	a7,0
20401dcc:	4301                	li	t1,0
20401dce:	4601                	li	a2,0
20401dd0:	003c9813          	slli	a6,s9,0x3
20401dd4:	013b06b3          	add	a3,s6,s3
20401dd8:	002c9593          	slli	a1,s9,0x2
20401ddc:	00d58733          	add	a4,a1,a3
20401de0:	40e68f33          	sub	t5,a3,a4
20401de4:	1f71                	addi	t5,t5,-4
20401de6:	002f5f13          	srli	t5,t5,0x2
20401dea:	0f05                	addi	t5,t5,1
20401dec:	007f7f13          	andi	t5,t5,7
20401df0:	8e3a                	mv	t3,a4
20401df2:	87f6                	mv	a5,t4
20401df4:	160f0063          	beqz	t5,20401f54 <core_bench_matrix+0x794>
20401df8:	4505                	li	a0,1
20401dfa:	0aaf0a63          	beq	t5,a0,20401eae <core_bench_matrix+0x6ee>
20401dfe:	4509                	li	a0,2
20401e00:	08af0b63          	beq	t5,a0,20401e96 <core_bench_matrix+0x6d6>
20401e04:	450d                	li	a0,3
20401e06:	06af0c63          	beq	t5,a0,20401e7e <core_bench_matrix+0x6be>
20401e0a:	4511                	li	a0,4
20401e0c:	04af0d63          	beq	t5,a0,20401e66 <core_bench_matrix+0x6a6>
20401e10:	4515                	li	a0,5
20401e12:	02af0e63          	beq	t5,a0,20401e4e <core_bench_matrix+0x68e>
20401e16:	4519                	li	a0,6
20401e18:	00af0f63          	beq	t5,a0,20401e36 <core_bench_matrix+0x676>
20401e1c:	4308                	lw	a0,0(a4)
20401e1e:	932a                	add	t1,t1,a0
20401e20:	426440e3          	blt	s0,t1,20402a40 <core_bench_matrix+0x1280>
20401e24:	00a8a8b3          	slt	a7,a7,a0
20401e28:	011e87b3          	add	a5,t4,a7
20401e2c:	07c2                	slli	a5,a5,0x10
20401e2e:	87c1                	srai	a5,a5,0x10
20401e30:	00470e13          	addi	t3,a4,4
20401e34:	88aa                	mv	a7,a0
20401e36:	000e2503          	lw	a0,0(t3)
20401e3a:	932a                	add	t1,t1,a0
20401e3c:	3c644ee3          	blt	s0,t1,20402a18 <core_bench_matrix+0x1258>
20401e40:	00a8a8b3          	slt	a7,a7,a0
20401e44:	97c6                	add	a5,a5,a7
20401e46:	07c2                	slli	a5,a5,0x10
20401e48:	87c1                	srai	a5,a5,0x10
20401e4a:	0e11                	addi	t3,t3,4
20401e4c:	88aa                	mv	a7,a0
20401e4e:	000e2503          	lw	a0,0(t3)
20401e52:	932a                	add	t1,t1,a0
20401e54:	306440e3          	blt	s0,t1,20402954 <core_bench_matrix+0x1194>
20401e58:	00a8a8b3          	slt	a7,a7,a0
20401e5c:	97c6                	add	a5,a5,a7
20401e5e:	07c2                	slli	a5,a5,0x10
20401e60:	87c1                	srai	a5,a5,0x10
20401e62:	0e11                	addi	t3,t3,4
20401e64:	88aa                	mv	a7,a0
20401e66:	000e2503          	lw	a0,0(t3)
20401e6a:	932a                	add	t1,t1,a0
20401e6c:	2c644ee3          	blt	s0,t1,20402948 <core_bench_matrix+0x1188>
20401e70:	00a8a8b3          	slt	a7,a7,a0
20401e74:	97c6                	add	a5,a5,a7
20401e76:	07c2                	slli	a5,a5,0x10
20401e78:	87c1                	srai	a5,a5,0x10
20401e7a:	0e11                	addi	t3,t3,4
20401e7c:	88aa                	mv	a7,a0
20401e7e:	000e2e83          	lw	t4,0(t3)
20401e82:	9376                	add	t1,t1,t4
20401e84:	386444e3          	blt	s0,t1,20402a0c <core_bench_matrix+0x124c>
20401e88:	01d8a8b3          	slt	a7,a7,t4
20401e8c:	97c6                	add	a5,a5,a7
20401e8e:	07c2                	slli	a5,a5,0x10
20401e90:	87c1                	srai	a5,a5,0x10
20401e92:	0e11                	addi	t3,t3,4
20401e94:	88f6                	mv	a7,t4
20401e96:	000e2e83          	lw	t4,0(t3)
20401e9a:	9376                	add	t1,t1,t4
20401e9c:	2a6440e3          	blt	s0,t1,2040293c <core_bench_matrix+0x117c>
20401ea0:	01d8a8b3          	slt	a7,a7,t4
20401ea4:	97c6                	add	a5,a5,a7
20401ea6:	07c2                	slli	a5,a5,0x10
20401ea8:	87c1                	srai	a5,a5,0x10
20401eaa:	0e11                	addi	t3,t3,4
20401eac:	88f6                	mv	a7,t4
20401eae:	000e2e83          	lw	t4,0(t3)
20401eb2:	9376                	add	t1,t1,t4
20401eb4:	2e644ce3          	blt	s0,t1,204029ac <core_bench_matrix+0x11ec>
20401eb8:	01d8a8b3          	slt	a7,a7,t4
20401ebc:	97c6                	add	a5,a5,a7
20401ebe:	07c2                	slli	a5,a5,0x10
20401ec0:	87c1                	srai	a5,a5,0x10
20401ec2:	0e11                	addi	t3,t3,4
20401ec4:	88f6                	mv	a7,t4
20401ec6:	08de1763          	bne	t3,a3,20401f54 <core_bench_matrix+0x794>
20401eca:	a21d                	j	20401ff0 <core_bench_matrix+0x830>
20401ecc:	004e2503          	lw	a0,4(t3)
20401ed0:	07a9                	addi	a5,a5,10
20401ed2:	4301                	li	t1,0
20401ed4:	07c2                	slli	a5,a5,0x10
20401ed6:	932a                	add	t1,t1,a0
20401ed8:	87c1                	srai	a5,a5,0x10
20401eda:	0a644663          	blt	s0,t1,20401f86 <core_bench_matrix+0x7c6>
20401ede:	00a8a8b3          	slt	a7,a7,a0
20401ee2:	97c6                	add	a5,a5,a7
20401ee4:	008e2883          	lw	a7,8(t3)
20401ee8:	07c2                	slli	a5,a5,0x10
20401eea:	87c1                	srai	a5,a5,0x10
20401eec:	9346                	add	t1,t1,a7
20401eee:	0a644563          	blt	s0,t1,20401f98 <core_bench_matrix+0x7d8>
20401ef2:	01152533          	slt	a0,a0,a7
20401ef6:	97aa                	add	a5,a5,a0
20401ef8:	00ce2503          	lw	a0,12(t3)
20401efc:	07c2                	slli	a5,a5,0x10
20401efe:	87c1                	srai	a5,a5,0x10
20401f00:	932a                	add	t1,t1,a0
20401f02:	0a644463          	blt	s0,t1,20401faa <core_bench_matrix+0x7ea>
20401f06:	00a8a8b3          	slt	a7,a7,a0
20401f0a:	97c6                	add	a5,a5,a7
20401f0c:	010e2883          	lw	a7,16(t3)
20401f10:	07c2                	slli	a5,a5,0x10
20401f12:	87c1                	srai	a5,a5,0x10
20401f14:	9346                	add	t1,t1,a7
20401f16:	0a644363          	blt	s0,t1,20401fbc <core_bench_matrix+0x7fc>
20401f1a:	01152533          	slt	a0,a0,a7
20401f1e:	97aa                	add	a5,a5,a0
20401f20:	014e2503          	lw	a0,20(t3)
20401f24:	07c2                	slli	a5,a5,0x10
20401f26:	87c1                	srai	a5,a5,0x10
20401f28:	932a                	add	t1,t1,a0
20401f2a:	0a644263          	blt	s0,t1,20401fce <core_bench_matrix+0x80e>
20401f2e:	018e2e83          	lw	t4,24(t3)
20401f32:	00a8a8b3          	slt	a7,a7,a0
20401f36:	97c6                	add	a5,a5,a7
20401f38:	07c2                	slli	a5,a5,0x10
20401f3a:	9376                	add	t1,t1,t4
20401f3c:	87c1                	srai	a5,a5,0x10
20401f3e:	0a644163          	blt	s0,t1,20401fe0 <core_bench_matrix+0x820>
20401f42:	01d52533          	slt	a0,a0,t4
20401f46:	97aa                	add	a5,a5,a0
20401f48:	07c2                	slli	a5,a5,0x10
20401f4a:	0e71                	addi	t3,t3,28
20401f4c:	87c1                	srai	a5,a5,0x10
20401f4e:	88f6                	mv	a7,t4
20401f50:	0ade0063          	beq	t3,a3,20401ff0 <core_bench_matrix+0x830>
20401f54:	000e2e83          	lw	t4,0(t3)
20401f58:	9376                	add	t1,t1,t4
20401f5a:	1c6459e3          	bge	s0,t1,2040292c <core_bench_matrix+0x116c>
20401f5e:	07a9                	addi	a5,a5,10
20401f60:	07c2                	slli	a5,a5,0x10
20401f62:	4301                	li	t1,0
20401f64:	87c1                	srai	a5,a5,0x10
20401f66:	004e2883          	lw	a7,4(t3)
20401f6a:	0e11                	addi	t3,t3,4
20401f6c:	9346                	add	t1,t1,a7
20401f6e:	f4644fe3          	blt	s0,t1,20401ecc <core_bench_matrix+0x70c>
20401f72:	004e2503          	lw	a0,4(t3)
20401f76:	011eaeb3          	slt	t4,t4,a7
20401f7a:	97f6                	add	a5,a5,t4
20401f7c:	07c2                	slli	a5,a5,0x10
20401f7e:	932a                	add	t1,t1,a0
20401f80:	87c1                	srai	a5,a5,0x10
20401f82:	f4645ee3          	bge	s0,t1,20401ede <core_bench_matrix+0x71e>
20401f86:	008e2883          	lw	a7,8(t3)
20401f8a:	07a9                	addi	a5,a5,10
20401f8c:	4301                	li	t1,0
20401f8e:	07c2                	slli	a5,a5,0x10
20401f90:	9346                	add	t1,t1,a7
20401f92:	87c1                	srai	a5,a5,0x10
20401f94:	f4645fe3          	bge	s0,t1,20401ef2 <core_bench_matrix+0x732>
20401f98:	00ce2503          	lw	a0,12(t3)
20401f9c:	07a9                	addi	a5,a5,10
20401f9e:	4301                	li	t1,0
20401fa0:	07c2                	slli	a5,a5,0x10
20401fa2:	932a                	add	t1,t1,a0
20401fa4:	87c1                	srai	a5,a5,0x10
20401fa6:	f66450e3          	bge	s0,t1,20401f06 <core_bench_matrix+0x746>
20401faa:	010e2883          	lw	a7,16(t3)
20401fae:	07a9                	addi	a5,a5,10
20401fb0:	4301                	li	t1,0
20401fb2:	07c2                	slli	a5,a5,0x10
20401fb4:	9346                	add	t1,t1,a7
20401fb6:	87c1                	srai	a5,a5,0x10
20401fb8:	f66451e3          	bge	s0,t1,20401f1a <core_bench_matrix+0x75a>
20401fbc:	014e2503          	lw	a0,20(t3)
20401fc0:	07a9                	addi	a5,a5,10
20401fc2:	4301                	li	t1,0
20401fc4:	07c2                	slli	a5,a5,0x10
20401fc6:	932a                	add	t1,t1,a0
20401fc8:	87c1                	srai	a5,a5,0x10
20401fca:	f66452e3          	bge	s0,t1,20401f2e <core_bench_matrix+0x76e>
20401fce:	018e2e83          	lw	t4,24(t3)
20401fd2:	07a9                	addi	a5,a5,10
20401fd4:	4301                	li	t1,0
20401fd6:	07c2                	slli	a5,a5,0x10
20401fd8:	9376                	add	t1,t1,t4
20401fda:	87c1                	srai	a5,a5,0x10
20401fdc:	f66453e3          	bge	s0,t1,20401f42 <core_bench_matrix+0x782>
20401fe0:	07a9                	addi	a5,a5,10
20401fe2:	07c2                	slli	a5,a5,0x10
20401fe4:	0e71                	addi	t3,t3,28
20401fe6:	87c1                	srai	a5,a5,0x10
20401fe8:	4301                	li	t1,0
20401fea:	88f6                	mv	a7,t4
20401fec:	f6de14e3          	bne	t3,a3,20401f54 <core_bench_matrix+0x794>
20401ff0:	0605                	addi	a2,a2,1
20401ff2:	88f6                	mv	a7,t4
20401ff4:	410706b3          	sub	a3,a4,a6
20401ff8:	8ebe                	mv	t4,a5
20401ffa:	deca11e3          	bne	s4,a2,20401ddc <core_bench_matrix+0x61c>
20401ffe:	45c2                	lw	a1,16(sp)
20402000:	853e                	mv	a0,a5
20402002:	3ef010ef          	jal	ra,20403bf0 <crc16>
20402006:	012a87b3          	add	a5,s5,s2
2040200a:	4592                	lw	a1,4(sp)
2040200c:	cc3e                	sw	a5,24(sp)
2040200e:	87a6                	mv	a5,s1
20402010:	83da                	mv	t2,s6
20402012:	84a2                	mv	s1,s0
20402014:	ce2a                	sw	a0,28(sp)
20402016:	845a                	mv	s0,s6
20402018:	4081                	li	ra,0
2040201a:	8b3e                	mv	s6,a5
2040201c:	87a2                	mv	a5,s0
2040201e:	881e                	mv	a6,t2
20402020:	8452                	mv	s0,s4
20402022:	8656                	mv	a2,s5
20402024:	00b90533          	add	a0,s2,a1
20402028:	8a3e                	mv	s4,a5
2040202a:	0001                	nop
2040202c:	40b508b3          	sub	a7,a0,a1
20402030:	18f9                	addi	a7,a7,-2
20402032:	0018d893          	srli	a7,a7,0x1
20402036:	0885                	addi	a7,a7,1
20402038:	00082023          	sw	zero,0(a6)
2040203c:	0078f893          	andi	a7,a7,7
20402040:	87b2                	mv	a5,a2
20402042:	86ae                	mv	a3,a1
20402044:	4701                	li	a4,0
20402046:	0a088663          	beqz	a7,204020f2 <core_bench_matrix+0x932>
2040204a:	4305                	li	t1,1
2040204c:	08688863          	beq	a7,t1,204020dc <core_bench_matrix+0x91c>
20402050:	4309                	li	t1,2
20402052:	06688c63          	beq	a7,t1,204020ca <core_bench_matrix+0x90a>
20402056:	430d                	li	t1,3
20402058:	06688063          	beq	a7,t1,204020b8 <core_bench_matrix+0x8f8>
2040205c:	4311                	li	t1,4
2040205e:	04688463          	beq	a7,t1,204020a6 <core_bench_matrix+0x8e6>
20402062:	4315                	li	t1,5
20402064:	02688863          	beq	a7,t1,20402094 <core_bench_matrix+0x8d4>
20402068:	4319                	li	t1,6
2040206a:	00688c63          	beq	a7,t1,20402082 <core_bench_matrix+0x8c2>
2040206e:	00059883          	lh	a7,0(a1)
20402072:	00061703          	lh	a4,0(a2)
20402076:	00258693          	addi	a3,a1,2
2040207a:	012607b3          	add	a5,a2,s2
2040207e:	02e88733          	mul	a4,a7,a4
20402082:	00069883          	lh	a7,0(a3)
20402086:	00079303          	lh	t1,0(a5)
2040208a:	0689                	addi	a3,a3,2
2040208c:	97ca                	add	a5,a5,s2
2040208e:	026888b3          	mul	a7,a7,t1
20402092:	9746                	add	a4,a4,a7
20402094:	00069883          	lh	a7,0(a3)
20402098:	00079303          	lh	t1,0(a5)
2040209c:	0689                	addi	a3,a3,2
2040209e:	97ca                	add	a5,a5,s2
204020a0:	026888b3          	mul	a7,a7,t1
204020a4:	9746                	add	a4,a4,a7
204020a6:	00069883          	lh	a7,0(a3)
204020aa:	00079303          	lh	t1,0(a5)
204020ae:	0689                	addi	a3,a3,2
204020b0:	97ca                	add	a5,a5,s2
204020b2:	026888b3          	mul	a7,a7,t1
204020b6:	9746                	add	a4,a4,a7
204020b8:	00069883          	lh	a7,0(a3)
204020bc:	00079303          	lh	t1,0(a5)
204020c0:	0689                	addi	a3,a3,2
204020c2:	97ca                	add	a5,a5,s2
204020c4:	026888b3          	mul	a7,a7,t1
204020c8:	9746                	add	a4,a4,a7
204020ca:	00069883          	lh	a7,0(a3)
204020ce:	00079303          	lh	t1,0(a5)
204020d2:	0689                	addi	a3,a3,2
204020d4:	97ca                	add	a5,a5,s2
204020d6:	026888b3          	mul	a7,a7,t1
204020da:	9746                	add	a4,a4,a7
204020dc:	00069883          	lh	a7,0(a3)
204020e0:	00079303          	lh	t1,0(a5)
204020e4:	0689                	addi	a3,a3,2
204020e6:	97ca                	add	a5,a5,s2
204020e8:	026888b3          	mul	a7,a7,t1
204020ec:	9746                	add	a4,a4,a7
204020ee:	08d50d63          	beq	a0,a3,20402188 <core_bench_matrix+0x9c8>
204020f2:	00079303          	lh	t1,0(a5)
204020f6:	00069d83          	lh	s11,0(a3)
204020fa:	97ca                	add	a5,a5,s2
204020fc:	00079883          	lh	a7,0(a5)
20402100:	00269f03          	lh	t5,2(a3)
20402104:	026d8db3          	mul	s11,s11,t1
20402108:	97ca                	add	a5,a5,s2
2040210a:	00669303          	lh	t1,6(a3)
2040210e:	00469e83          	lh	t4,4(a3)
20402112:	00079d03          	lh	s10,0(a5)
20402116:	c61a                	sw	t1,12(sp)
20402118:	97ca                	add	a5,a5,s2
2040211a:	00079e03          	lh	t3,0(a5)
2040211e:	00869f83          	lh	t6,8(a3)
20402122:	00a69283          	lh	t0,10(a3)
20402126:	031f0f33          	mul	t5,t5,a7
2040212a:	976e                	add	a4,a4,s11
2040212c:	97ca                	add	a5,a5,s2
2040212e:	c87e                	sw	t6,16(sp)
20402130:	00079c03          	lh	s8,0(a5)
20402134:	ca16                	sw	t0,20(sp)
20402136:	97ca                	add	a5,a5,s2
20402138:	00079b83          	lh	s7,0(a5)
2040213c:	97ca                	add	a5,a5,s2
2040213e:	00c69303          	lh	t1,12(a3)
20402142:	977a                	add	a4,a4,t5
20402144:	03ae8eb3          	mul	t4,t4,s10
20402148:	4f32                	lw	t5,12(sp)
2040214a:	00079283          	lh	t0,0(a5)
2040214e:	97ca                	add	a5,a5,s2
20402150:	00e69883          	lh	a7,14(a3)
20402154:	00079f83          	lh	t6,0(a5)
20402158:	06c1                	addi	a3,a3,16
2040215a:	97ca                	add	a5,a5,s2
2040215c:	03cf0e33          	mul	t3,t5,t3
20402160:	9eba                	add	t4,t4,a4
20402162:	4742                	lw	a4,16(sp)
20402164:	03870c33          	mul	s8,a4,s8
20402168:	01ce8733          	add	a4,t4,t3
2040216c:	4e52                	lw	t3,20(sp)
2040216e:	037e0bb3          	mul	s7,t3,s7
20402172:	9762                	add	a4,a4,s8
20402174:	02530333          	mul	t1,t1,t0
20402178:	975e                	add	a4,a4,s7
2040217a:	03f888b3          	mul	a7,a7,t6
2040217e:	971a                	add	a4,a4,t1
20402180:	9746                	add	a4,a4,a7
20402182:	f6d518e3          	bne	a0,a3,204020f2 <core_bench_matrix+0x932>
20402186:	0001                	nop
20402188:	47e2                	lw	a5,24(sp)
2040218a:	00e82023          	sw	a4,0(a6)
2040218e:	0609                	addi	a2,a2,2
20402190:	0811                	addi	a6,a6,4
20402192:	e8c79de3          	bne	a5,a2,2040202c <core_bench_matrix+0x86c>
20402196:	87d2                	mv	a5,s4
20402198:	0085                	addi	ra,ra,1
2040219a:	8a22                	mv	s4,s0
2040219c:	85aa                	mv	a1,a0
2040219e:	843e                	mv	s0,a5
204021a0:	93ce                	add	t2,t2,s3
204021a2:	e61a1de3          	bne	s4,ra,2040201c <core_bench_matrix+0x85c>
204021a6:	87da                	mv	a5,s6
204021a8:	8b22                	mv	s6,s0
204021aa:	4e81                	li	t4,0
204021ac:	8426                	mv	s0,s1
204021ae:	4881                	li	a7,0
204021b0:	84be                	mv	s1,a5
204021b2:	4301                	li	t1,0
204021b4:	4601                	li	a2,0
204021b6:	003c9813          	slli	a6,s9,0x3
204021ba:	013b06b3          	add	a3,s6,s3
204021be:	002c9593          	slli	a1,s9,0x2
204021c2:	0001                	nop
204021c4:	00d58733          	add	a4,a1,a3
204021c8:	40e68f33          	sub	t5,a3,a4
204021cc:	1f71                	addi	t5,t5,-4
204021ce:	002f5f13          	srli	t5,t5,0x2
204021d2:	0f05                	addi	t5,t5,1
204021d4:	007f7f13          	andi	t5,t5,7
204021d8:	8e3a                	mv	t3,a4
204021da:	87f6                	mv	a5,t4
204021dc:	160f0a63          	beqz	t5,20402350 <core_bench_matrix+0xb90>
204021e0:	4505                	li	a0,1
204021e2:	0aaf0a63          	beq	t5,a0,20402296 <core_bench_matrix+0xad6>
204021e6:	4509                	li	a0,2
204021e8:	08af0b63          	beq	t5,a0,2040227e <core_bench_matrix+0xabe>
204021ec:	450d                	li	a0,3
204021ee:	06af0c63          	beq	t5,a0,20402266 <core_bench_matrix+0xaa6>
204021f2:	4511                	li	a0,4
204021f4:	04af0d63          	beq	t5,a0,2040224e <core_bench_matrix+0xa8e>
204021f8:	4515                	li	a0,5
204021fa:	02af0e63          	beq	t5,a0,20402236 <core_bench_matrix+0xa76>
204021fe:	4519                	li	a0,6
20402200:	00af0f63          	beq	t5,a0,2040221e <core_bench_matrix+0xa5e>
20402204:	4308                	lw	a0,0(a4)
20402206:	932a                	add	t1,t1,a0
20402208:	026444e3          	blt	s0,t1,20402a30 <core_bench_matrix+0x1270>
2040220c:	00a8a8b3          	slt	a7,a7,a0
20402210:	011e87b3          	add	a5,t4,a7
20402214:	07c2                	slli	a5,a5,0x10
20402216:	87c1                	srai	a5,a5,0x10
20402218:	00470e13          	addi	t3,a4,4
2040221c:	88aa                	mv	a7,a0
2040221e:	000e2503          	lw	a0,0(t3)
20402222:	932a                	add	t1,t1,a0
20402224:	76644863          	blt	s0,t1,20402994 <core_bench_matrix+0x11d4>
20402228:	00a8a8b3          	slt	a7,a7,a0
2040222c:	97c6                	add	a5,a5,a7
2040222e:	07c2                	slli	a5,a5,0x10
20402230:	87c1                	srai	a5,a5,0x10
20402232:	0e11                	addi	t3,t3,4
20402234:	88aa                	mv	a7,a0
20402236:	000e2503          	lw	a0,0(t3)
2040223a:	932a                	add	t1,t1,a0
2040223c:	76644263          	blt	s0,t1,204029a0 <core_bench_matrix+0x11e0>
20402240:	00a8a8b3          	slt	a7,a7,a0
20402244:	97c6                	add	a5,a5,a7
20402246:	07c2                	slli	a5,a5,0x10
20402248:	87c1                	srai	a5,a5,0x10
2040224a:	0e11                	addi	t3,t3,4
2040224c:	88aa                	mv	a7,a0
2040224e:	000e2503          	lw	a0,0(t3)
20402252:	932a                	add	t1,t1,a0
20402254:	72644a63          	blt	s0,t1,20402988 <core_bench_matrix+0x11c8>
20402258:	00a8a8b3          	slt	a7,a7,a0
2040225c:	97c6                	add	a5,a5,a7
2040225e:	07c2                	slli	a5,a5,0x10
20402260:	87c1                	srai	a5,a5,0x10
20402262:	0e11                	addi	t3,t3,4
20402264:	88aa                	mv	a7,a0
20402266:	000e2e83          	lw	t4,0(t3)
2040226a:	9376                	add	t1,t1,t4
2040226c:	70644863          	blt	s0,t1,2040297c <core_bench_matrix+0x11bc>
20402270:	01d8a8b3          	slt	a7,a7,t4
20402274:	97c6                	add	a5,a5,a7
20402276:	07c2                	slli	a5,a5,0x10
20402278:	87c1                	srai	a5,a5,0x10
2040227a:	0e11                	addi	t3,t3,4
2040227c:	88f6                	mv	a7,t4
2040227e:	000e2e83          	lw	t4,0(t3)
20402282:	9376                	add	t1,t1,t4
20402284:	6e644663          	blt	s0,t1,20402970 <core_bench_matrix+0x11b0>
20402288:	01d8a8b3          	slt	a7,a7,t4
2040228c:	97c6                	add	a5,a5,a7
2040228e:	07c2                	slli	a5,a5,0x10
20402290:	87c1                	srai	a5,a5,0x10
20402292:	0e11                	addi	t3,t3,4
20402294:	88f6                	mv	a7,t4
20402296:	000e2e83          	lw	t4,0(t3)
2040229a:	9376                	add	t1,t1,t4
2040229c:	76644263          	blt	s0,t1,20402a00 <core_bench_matrix+0x1240>
204022a0:	01d8a8b3          	slt	a7,a7,t4
204022a4:	97c6                	add	a5,a5,a7
204022a6:	07c2                	slli	a5,a5,0x10
204022a8:	87c1                	srai	a5,a5,0x10
204022aa:	0e11                	addi	t3,t3,4
204022ac:	88f6                	mv	a7,t4
204022ae:	0bc69163          	bne	a3,t3,20402350 <core_bench_matrix+0xb90>
204022b2:	aa35                	j	204023ee <core_bench_matrix+0xc2e>
204022b4:	004e2883          	lw	a7,4(t3)
204022b8:	07a9                	addi	a5,a5,10
204022ba:	4301                	li	t1,0
204022bc:	07c2                	slli	a5,a5,0x10
204022be:	9346                	add	t1,t1,a7
204022c0:	87c1                	srai	a5,a5,0x10
204022c2:	0e11                	addi	t3,t3,4
204022c4:	0a645663          	bge	s0,t1,20402370 <core_bench_matrix+0xbb0>
204022c8:	004e2503          	lw	a0,4(t3)
204022cc:	07a9                	addi	a5,a5,10
204022ce:	4301                	li	t1,0
204022d0:	07c2                	slli	a5,a5,0x10
204022d2:	932a                	add	t1,t1,a0
204022d4:	87c1                	srai	a5,a5,0x10
204022d6:	0a644763          	blt	s0,t1,20402384 <core_bench_matrix+0xbc4>
204022da:	00a8a8b3          	slt	a7,a7,a0
204022de:	97c6                	add	a5,a5,a7
204022e0:	008e2883          	lw	a7,8(t3)
204022e4:	07c2                	slli	a5,a5,0x10
204022e6:	87c1                	srai	a5,a5,0x10
204022e8:	9346                	add	t1,t1,a7
204022ea:	0a644663          	blt	s0,t1,20402396 <core_bench_matrix+0xbd6>
204022ee:	01152533          	slt	a0,a0,a7
204022f2:	97aa                	add	a5,a5,a0
204022f4:	00ce2503          	lw	a0,12(t3)
204022f8:	07c2                	slli	a5,a5,0x10
204022fa:	87c1                	srai	a5,a5,0x10
204022fc:	932a                	add	t1,t1,a0
204022fe:	0a644563          	blt	s0,t1,204023a8 <core_bench_matrix+0xbe8>
20402302:	00a8a8b3          	slt	a7,a7,a0
20402306:	97c6                	add	a5,a5,a7
20402308:	010e2883          	lw	a7,16(t3)
2040230c:	07c2                	slli	a5,a5,0x10
2040230e:	87c1                	srai	a5,a5,0x10
20402310:	9346                	add	t1,t1,a7
20402312:	0a644463          	blt	s0,t1,204023ba <core_bench_matrix+0xbfa>
20402316:	01152533          	slt	a0,a0,a7
2040231a:	97aa                	add	a5,a5,a0
2040231c:	014e2503          	lw	a0,20(t3)
20402320:	07c2                	slli	a5,a5,0x10
20402322:	87c1                	srai	a5,a5,0x10
20402324:	932a                	add	t1,t1,a0
20402326:	0a644363          	blt	s0,t1,204023cc <core_bench_matrix+0xc0c>
2040232a:	018e2e83          	lw	t4,24(t3)
2040232e:	00a8a8b3          	slt	a7,a7,a0
20402332:	97c6                	add	a5,a5,a7
20402334:	07c2                	slli	a5,a5,0x10
20402336:	9376                	add	t1,t1,t4
20402338:	87c1                	srai	a5,a5,0x10
2040233a:	0a644263          	blt	s0,t1,204023de <core_bench_matrix+0xc1e>
2040233e:	01d52533          	slt	a0,a0,t4
20402342:	97aa                	add	a5,a5,a0
20402344:	07c2                	slli	a5,a5,0x10
20402346:	0e71                	addi	t3,t3,28
20402348:	87c1                	srai	a5,a5,0x10
2040234a:	88f6                	mv	a7,t4
2040234c:	0bc68163          	beq	a3,t3,204023ee <core_bench_matrix+0xc2e>
20402350:	000e2e83          	lw	t4,0(t3)
20402354:	9376                	add	t1,t1,t4
20402356:	f4644fe3          	blt	s0,t1,204022b4 <core_bench_matrix+0xaf4>
2040235a:	01d8a8b3          	slt	a7,a7,t4
2040235e:	97c6                	add	a5,a5,a7
20402360:	004e2883          	lw	a7,4(t3)
20402364:	07c2                	slli	a5,a5,0x10
20402366:	87c1                	srai	a5,a5,0x10
20402368:	9346                	add	t1,t1,a7
2040236a:	0e11                	addi	t3,t3,4
2040236c:	f4644ee3          	blt	s0,t1,204022c8 <core_bench_matrix+0xb08>
20402370:	004e2503          	lw	a0,4(t3)
20402374:	011eaeb3          	slt	t4,t4,a7
20402378:	97f6                	add	a5,a5,t4
2040237a:	07c2                	slli	a5,a5,0x10
2040237c:	932a                	add	t1,t1,a0
2040237e:	87c1                	srai	a5,a5,0x10
20402380:	f4645de3          	bge	s0,t1,204022da <core_bench_matrix+0xb1a>
20402384:	008e2883          	lw	a7,8(t3)
20402388:	07a9                	addi	a5,a5,10
2040238a:	4301                	li	t1,0
2040238c:	07c2                	slli	a5,a5,0x10
2040238e:	9346                	add	t1,t1,a7
20402390:	87c1                	srai	a5,a5,0x10
20402392:	f4645ee3          	bge	s0,t1,204022ee <core_bench_matrix+0xb2e>
20402396:	00ce2503          	lw	a0,12(t3)
2040239a:	07a9                	addi	a5,a5,10
2040239c:	4301                	li	t1,0
2040239e:	07c2                	slli	a5,a5,0x10
204023a0:	932a                	add	t1,t1,a0
204023a2:	87c1                	srai	a5,a5,0x10
204023a4:	f4645fe3          	bge	s0,t1,20402302 <core_bench_matrix+0xb42>
204023a8:	010e2883          	lw	a7,16(t3)
204023ac:	07a9                	addi	a5,a5,10
204023ae:	4301                	li	t1,0
204023b0:	07c2                	slli	a5,a5,0x10
204023b2:	9346                	add	t1,t1,a7
204023b4:	87c1                	srai	a5,a5,0x10
204023b6:	f66450e3          	bge	s0,t1,20402316 <core_bench_matrix+0xb56>
204023ba:	014e2503          	lw	a0,20(t3)
204023be:	07a9                	addi	a5,a5,10
204023c0:	4301                	li	t1,0
204023c2:	07c2                	slli	a5,a5,0x10
204023c4:	932a                	add	t1,t1,a0
204023c6:	87c1                	srai	a5,a5,0x10
204023c8:	f66451e3          	bge	s0,t1,2040232a <core_bench_matrix+0xb6a>
204023cc:	018e2e83          	lw	t4,24(t3)
204023d0:	07a9                	addi	a5,a5,10
204023d2:	4301                	li	t1,0
204023d4:	07c2                	slli	a5,a5,0x10
204023d6:	9376                	add	t1,t1,t4
204023d8:	87c1                	srai	a5,a5,0x10
204023da:	f66452e3          	bge	s0,t1,2040233e <core_bench_matrix+0xb7e>
204023de:	07a9                	addi	a5,a5,10
204023e0:	07c2                	slli	a5,a5,0x10
204023e2:	0e71                	addi	t3,t3,28
204023e4:	87c1                	srai	a5,a5,0x10
204023e6:	4301                	li	t1,0
204023e8:	88f6                	mv	a7,t4
204023ea:	f7c693e3          	bne	a3,t3,20402350 <core_bench_matrix+0xb90>
204023ee:	0605                	addi	a2,a2,1
204023f0:	88f6                	mv	a7,t4
204023f2:	410706b3          	sub	a3,a4,a6
204023f6:	8ebe                	mv	t4,a5
204023f8:	dcca16e3          	bne	s4,a2,204021c4 <core_bench_matrix+0xa04>
204023fc:	45f2                	lw	a1,28(sp)
204023fe:	853e                	mv	a0,a5
20402400:	7f0010ef          	jal	ra,20403bf0 <crc16>
20402404:	4892                	lw	a7,4(sp)
20402406:	85aa                	mv	a1,a0
20402408:	4f01                	li	t5,0
2040240a:	8eda                	mv	t4,s6
2040240c:	012a8fb3          	add	t6,s5,s2
20402410:	8376                	mv	t1,t4
20402412:	8556                	mv	a0,s5
20402414:	01190833          	add	a6,s2,a7
20402418:	41180633          	sub	a2,a6,a7
2040241c:	1679                	addi	a2,a2,-2
2040241e:	8205                	srli	a2,a2,0x1
20402420:	0605                	addi	a2,a2,1
20402422:	00032023          	sw	zero,0(t1) # 4000 <__stack_size+0x3000>
20402426:	8a0d                	andi	a2,a2,3
20402428:	87aa                	mv	a5,a0
2040242a:	8746                	mv	a4,a7
2040242c:	4681                	li	a3,0
2040242e:	ce3d                	beqz	a2,204024ac <core_bench_matrix+0xcec>
20402430:	4e05                	li	t3,1
20402432:	05c60963          	beq	a2,t3,20402484 <core_bench_matrix+0xcc4>
20402436:	4e09                	li	t3,2
20402438:	03c60463          	beq	a2,t3,20402460 <core_bench_matrix+0xca0>
2040243c:	00051683          	lh	a3,0(a0)
20402440:	00089603          	lh	a2,0(a7)
20402444:	00288713          	addi	a4,a7,2
20402448:	012507b3          	add	a5,a0,s2
2040244c:	02d60633          	mul	a2,a2,a3
20402450:	40265693          	srai	a3,a2,0x2
20402454:	8615                	srai	a2,a2,0x5
20402456:	8abd                	andi	a3,a3,15
20402458:	07f67613          	andi	a2,a2,127
2040245c:	02c686b3          	mul	a3,a3,a2
20402460:	00079e03          	lh	t3,0(a5)
20402464:	00071603          	lh	a2,0(a4)
20402468:	97ca                	add	a5,a5,s2
2040246a:	0709                	addi	a4,a4,2
2040246c:	03c60633          	mul	a2,a2,t3
20402470:	40265e13          	srai	t3,a2,0x2
20402474:	8615                	srai	a2,a2,0x5
20402476:	00fe7e13          	andi	t3,t3,15
2040247a:	07f67613          	andi	a2,a2,127
2040247e:	02ce0633          	mul	a2,t3,a2
20402482:	96b2                	add	a3,a3,a2
20402484:	00079e03          	lh	t3,0(a5)
20402488:	00071603          	lh	a2,0(a4)
2040248c:	0709                	addi	a4,a4,2
2040248e:	97ca                	add	a5,a5,s2
20402490:	03c60633          	mul	a2,a2,t3
20402494:	40265e13          	srai	t3,a2,0x2
20402498:	8615                	srai	a2,a2,0x5
2040249a:	00fe7e13          	andi	t3,t3,15
2040249e:	07f67613          	andi	a2,a2,127
204024a2:	02ce0633          	mul	a2,t3,a2
204024a6:	96b2                	add	a3,a3,a2
204024a8:	08e80e63          	beq	a6,a4,20402544 <core_bench_matrix+0xd84>
204024ac:	00079603          	lh	a2,0(a5)
204024b0:	00071d03          	lh	s10,0(a4)
204024b4:	97ca                	add	a5,a5,s2
204024b6:	00271c03          	lh	s8,2(a4)
204024ba:	00079383          	lh	t2,0(a5)
204024be:	97ca                	add	a5,a5,s2
204024c0:	00471b83          	lh	s7,4(a4)
204024c4:	00079283          	lh	t0,0(a5)
204024c8:	97ca                	add	a5,a5,s2
204024ca:	00671083          	lh	ra,6(a4)
204024ce:	02cd0d33          	mul	s10,s10,a2
204024d2:	00079e03          	lh	t3,0(a5)
204024d6:	0721                	addi	a4,a4,8
204024d8:	97ca                	add	a5,a5,s2
204024da:	027c03b3          	mul	t2,s8,t2
204024de:	405d5613          	srai	a2,s10,0x5
204024e2:	402d5c13          	srai	s8,s10,0x2
204024e6:	00fc7c13          	andi	s8,s8,15
204024ea:	07f67613          	andi	a2,a2,127
204024ee:	025b82b3          	mul	t0,s7,t0
204024f2:	4023db93          	srai	s7,t2,0x2
204024f6:	4053d393          	srai	t2,t2,0x5
204024fa:	00fbfb93          	andi	s7,s7,15
204024fe:	07f3f393          	andi	t2,t2,127
20402502:	03c08e33          	mul	t3,ra,t3
20402506:	4022d093          	srai	ra,t0,0x2
2040250a:	4052d293          	srai	t0,t0,0x5
2040250e:	00f0f093          	andi	ra,ra,15
20402512:	07f2f293          	andi	t0,t0,127
20402516:	02cc0633          	mul	a2,s8,a2
2040251a:	402e5c13          	srai	s8,t3,0x2
2040251e:	405e5e13          	srai	t3,t3,0x5
20402522:	00fc7c13          	andi	s8,s8,15
20402526:	07fe7e13          	andi	t3,t3,127
2040252a:	027b83b3          	mul	t2,s7,t2
2040252e:	96b2                	add	a3,a3,a2
20402530:	025082b3          	mul	t0,ra,t0
20402534:	969e                	add	a3,a3,t2
20402536:	03cc0e33          	mul	t3,s8,t3
2040253a:	9696                	add	a3,a3,t0
2040253c:	96f2                	add	a3,a3,t3
2040253e:	f6e817e3          	bne	a6,a4,204024ac <core_bench_matrix+0xcec>
20402542:	0001                	nop
20402544:	00d32023          	sw	a3,0(t1)
20402548:	0509                	addi	a0,a0,2
2040254a:	0311                	addi	t1,t1,4
2040254c:	ecaf96e3          	bne	t6,a0,20402418 <core_bench_matrix+0xc58>
20402550:	0f05                	addi	t5,t5,1
20402552:	88c2                	mv	a7,a6
20402554:	9ece                	add	t4,t4,s3
20402556:	ebea1de3          	bne	s4,t5,20402410 <core_bench_matrix+0xc50>
2040255a:	4e81                	li	t4,0
2040255c:	4701                	li	a4,0
2040255e:	4e01                	li	t3,0
20402560:	4681                	li	a3,0
20402562:	003c9613          	slli	a2,s9,0x3
20402566:	99da                	add	s3,s3,s6
20402568:	002c9893          	slli	a7,s9,0x2
2040256c:	01388833          	add	a6,a7,s3
20402570:	41098f33          	sub	t5,s3,a6
20402574:	1f71                	addi	t5,t5,-4
20402576:	002f5f13          	srli	t5,t5,0x2
2040257a:	0f05                	addi	t5,t5,1
2040257c:	007f7f13          	andi	t5,t5,7
20402580:	8342                	mv	t1,a6
20402582:	87f6                	mv	a5,t4
20402584:	160f0c63          	beqz	t5,204026fc <core_bench_matrix+0xf3c>
20402588:	4505                	li	a0,1
2040258a:	0aaf0b63          	beq	t5,a0,20402640 <core_bench_matrix+0xe80>
2040258e:	4509                	li	a0,2
20402590:	08af0c63          	beq	t5,a0,20402628 <core_bench_matrix+0xe68>
20402594:	450d                	li	a0,3
20402596:	06af0d63          	beq	t5,a0,20402610 <core_bench_matrix+0xe50>
2040259a:	4511                	li	a0,4
2040259c:	04af0e63          	beq	t5,a0,204025f8 <core_bench_matrix+0xe38>
204025a0:	4515                	li	a0,5
204025a2:	02af0f63          	beq	t5,a0,204025e0 <core_bench_matrix+0xe20>
204025a6:	4519                	li	a0,6
204025a8:	02af0063          	beq	t5,a0,204025c8 <core_bench_matrix+0xe08>
204025ac:	00082503          	lw	a0,0(a6)
204025b0:	9e2a                	add	t3,t3,a0
204025b2:	47c44963          	blt	s0,t3,20402a24 <core_bench_matrix+0x1264>
204025b6:	00a72733          	slt	a4,a4,a0
204025ba:	00ee87b3          	add	a5,t4,a4
204025be:	07c2                	slli	a5,a5,0x10
204025c0:	87c1                	srai	a5,a5,0x10
204025c2:	00480313          	addi	t1,a6,4
204025c6:	872a                	mv	a4,a0
204025c8:	00032503          	lw	a0,0(t1)
204025cc:	9e2a                	add	t3,t3,a0
204025ce:	3fc44b63          	blt	s0,t3,204029c4 <core_bench_matrix+0x1204>
204025d2:	00a72733          	slt	a4,a4,a0
204025d6:	97ba                	add	a5,a5,a4
204025d8:	07c2                	slli	a5,a5,0x10
204025da:	87c1                	srai	a5,a5,0x10
204025dc:	0311                	addi	t1,t1,4
204025de:	872a                	mv	a4,a0
204025e0:	00032e83          	lw	t4,0(t1)
204025e4:	9e76                	add	t3,t3,t4
204025e6:	3dc44963          	blt	s0,t3,204029b8 <core_bench_matrix+0x11f8>
204025ea:	01d72733          	slt	a4,a4,t4
204025ee:	97ba                	add	a5,a5,a4
204025f0:	07c2                	slli	a5,a5,0x10
204025f2:	87c1                	srai	a5,a5,0x10
204025f4:	0311                	addi	t1,t1,4
204025f6:	8776                	mv	a4,t4
204025f8:	00032e83          	lw	t4,0(t1)
204025fc:	9e76                	add	t3,t3,t4
204025fe:	3dc44963          	blt	s0,t3,204029d0 <core_bench_matrix+0x1210>
20402602:	01d72733          	slt	a4,a4,t4
20402606:	97ba                	add	a5,a5,a4
20402608:	07c2                	slli	a5,a5,0x10
2040260a:	87c1                	srai	a5,a5,0x10
2040260c:	0311                	addi	t1,t1,4
2040260e:	8776                	mv	a4,t4
20402610:	00032e83          	lw	t4,0(t1)
20402614:	9e76                	add	t3,t3,t4
20402616:	3dc44963          	blt	s0,t3,204029e8 <core_bench_matrix+0x1228>
2040261a:	01d72733          	slt	a4,a4,t4
2040261e:	97ba                	add	a5,a5,a4
20402620:	07c2                	slli	a5,a5,0x10
20402622:	87c1                	srai	a5,a5,0x10
20402624:	0311                	addi	t1,t1,4
20402626:	8776                	mv	a4,t4
20402628:	00032e83          	lw	t4,0(t1)
2040262c:	9e76                	add	t3,t3,t4
2040262e:	3bc44763          	blt	s0,t3,204029dc <core_bench_matrix+0x121c>
20402632:	01d72733          	slt	a4,a4,t4
20402636:	97ba                	add	a5,a5,a4
20402638:	07c2                	slli	a5,a5,0x10
2040263a:	87c1                	srai	a5,a5,0x10
2040263c:	0311                	addi	t1,t1,4
2040263e:	8776                	mv	a4,t4
20402640:	00032e83          	lw	t4,0(t1)
20402644:	9e76                	add	t3,t3,t4
20402646:	3bc44763          	blt	s0,t3,204029f4 <core_bench_matrix+0x1234>
2040264a:	01d72733          	slt	a4,a4,t4
2040264e:	97ba                	add	a5,a5,a4
20402650:	07c2                	slli	a5,a5,0x10
20402652:	87c1                	srai	a5,a5,0x10
20402654:	0311                	addi	t1,t1,4
20402656:	8776                	mv	a4,t4
20402658:	0a699263          	bne	s3,t1,204026fc <core_bench_matrix+0xf3c>
2040265c:	aa3d                	j	2040279a <core_bench_matrix+0xfda>
2040265e:	0001                	nop
20402660:	00432503          	lw	a0,4(t1)
20402664:	07a9                	addi	a5,a5,10
20402666:	4e01                	li	t3,0
20402668:	07c2                	slli	a5,a5,0x10
2040266a:	9e2a                	add	t3,t3,a0
2040266c:	87c1                	srai	a5,a5,0x10
2040266e:	0311                	addi	t1,t1,4
20402670:	0bc45663          	bge	s0,t3,2040271c <core_bench_matrix+0xf5c>
20402674:	00432703          	lw	a4,4(t1)
20402678:	07a9                	addi	a5,a5,10
2040267a:	4e01                	li	t3,0
2040267c:	07c2                	slli	a5,a5,0x10
2040267e:	9e3a                	add	t3,t3,a4
20402680:	87c1                	srai	a5,a5,0x10
20402682:	0bc44763          	blt	s0,t3,20402730 <core_bench_matrix+0xf70>
20402686:	00e52533          	slt	a0,a0,a4
2040268a:	97aa                	add	a5,a5,a0
2040268c:	00832503          	lw	a0,8(t1)
20402690:	07c2                	slli	a5,a5,0x10
20402692:	87c1                	srai	a5,a5,0x10
20402694:	9e2a                	add	t3,t3,a0
20402696:	0bc44663          	blt	s0,t3,20402742 <core_bench_matrix+0xf82>
2040269a:	00a72733          	slt	a4,a4,a0
2040269e:	97ba                	add	a5,a5,a4
204026a0:	00c32703          	lw	a4,12(t1)
204026a4:	07c2                	slli	a5,a5,0x10
204026a6:	87c1                	srai	a5,a5,0x10
204026a8:	9e3a                	add	t3,t3,a4
204026aa:	0bc44563          	blt	s0,t3,20402754 <core_bench_matrix+0xf94>
204026ae:	00e52533          	slt	a0,a0,a4
204026b2:	97aa                	add	a5,a5,a0
204026b4:	01032503          	lw	a0,16(t1)
204026b8:	07c2                	slli	a5,a5,0x10
204026ba:	87c1                	srai	a5,a5,0x10
204026bc:	9e2a                	add	t3,t3,a0
204026be:	0bc44463          	blt	s0,t3,20402766 <core_bench_matrix+0xfa6>
204026c2:	00a72733          	slt	a4,a4,a0
204026c6:	97ba                	add	a5,a5,a4
204026c8:	01432703          	lw	a4,20(t1)
204026cc:	07c2                	slli	a5,a5,0x10
204026ce:	87c1                	srai	a5,a5,0x10
204026d0:	9e3a                	add	t3,t3,a4
204026d2:	0bc44363          	blt	s0,t3,20402778 <core_bench_matrix+0xfb8>
204026d6:	01832e83          	lw	t4,24(t1)
204026da:	00e52533          	slt	a0,a0,a4
204026de:	97aa                	add	a5,a5,a0
204026e0:	07c2                	slli	a5,a5,0x10
204026e2:	9e76                	add	t3,t3,t4
204026e4:	87c1                	srai	a5,a5,0x10
204026e6:	0bc44263          	blt	s0,t3,2040278a <core_bench_matrix+0xfca>
204026ea:	01d72733          	slt	a4,a4,t4
204026ee:	97ba                	add	a5,a5,a4
204026f0:	07c2                	slli	a5,a5,0x10
204026f2:	0371                	addi	t1,t1,28
204026f4:	87c1                	srai	a5,a5,0x10
204026f6:	8776                	mv	a4,t4
204026f8:	0a698163          	beq	s3,t1,2040279a <core_bench_matrix+0xfda>
204026fc:	00032e83          	lw	t4,0(t1)
20402700:	9e76                	add	t3,t3,t4
20402702:	f5c44fe3          	blt	s0,t3,20402660 <core_bench_matrix+0xea0>
20402706:	00432503          	lw	a0,4(t1)
2040270a:	01d72733          	slt	a4,a4,t4
2040270e:	97ba                	add	a5,a5,a4
20402710:	07c2                	slli	a5,a5,0x10
20402712:	9e2a                	add	t3,t3,a0
20402714:	87c1                	srai	a5,a5,0x10
20402716:	0311                	addi	t1,t1,4
20402718:	f5c44ee3          	blt	s0,t3,20402674 <core_bench_matrix+0xeb4>
2040271c:	00432703          	lw	a4,4(t1)
20402720:	00aeaeb3          	slt	t4,t4,a0
20402724:	97f6                	add	a5,a5,t4
20402726:	07c2                	slli	a5,a5,0x10
20402728:	9e3a                	add	t3,t3,a4
2040272a:	87c1                	srai	a5,a5,0x10
2040272c:	f5c45de3          	bge	s0,t3,20402686 <core_bench_matrix+0xec6>
20402730:	00832503          	lw	a0,8(t1)
20402734:	07a9                	addi	a5,a5,10
20402736:	4e01                	li	t3,0
20402738:	07c2                	slli	a5,a5,0x10
2040273a:	9e2a                	add	t3,t3,a0
2040273c:	87c1                	srai	a5,a5,0x10
2040273e:	f5c45ee3          	bge	s0,t3,2040269a <core_bench_matrix+0xeda>
20402742:	00c32703          	lw	a4,12(t1)
20402746:	07a9                	addi	a5,a5,10
20402748:	4e01                	li	t3,0
2040274a:	07c2                	slli	a5,a5,0x10
2040274c:	9e3a                	add	t3,t3,a4
2040274e:	87c1                	srai	a5,a5,0x10
20402750:	f5c45fe3          	bge	s0,t3,204026ae <core_bench_matrix+0xeee>
20402754:	01032503          	lw	a0,16(t1)
20402758:	07a9                	addi	a5,a5,10
2040275a:	4e01                	li	t3,0
2040275c:	07c2                	slli	a5,a5,0x10
2040275e:	9e2a                	add	t3,t3,a0
20402760:	87c1                	srai	a5,a5,0x10
20402762:	f7c450e3          	bge	s0,t3,204026c2 <core_bench_matrix+0xf02>
20402766:	01432703          	lw	a4,20(t1)
2040276a:	07a9                	addi	a5,a5,10
2040276c:	4e01                	li	t3,0
2040276e:	07c2                	slli	a5,a5,0x10
20402770:	9e3a                	add	t3,t3,a4
20402772:	87c1                	srai	a5,a5,0x10
20402774:	f7c451e3          	bge	s0,t3,204026d6 <core_bench_matrix+0xf16>
20402778:	01832e83          	lw	t4,24(t1)
2040277c:	07a9                	addi	a5,a5,10
2040277e:	4e01                	li	t3,0
20402780:	07c2                	slli	a5,a5,0x10
20402782:	9e76                	add	t3,t3,t4
20402784:	87c1                	srai	a5,a5,0x10
20402786:	f7c452e3          	bge	s0,t3,204026ea <core_bench_matrix+0xf2a>
2040278a:	07a9                	addi	a5,a5,10
2040278c:	07c2                	slli	a5,a5,0x10
2040278e:	0371                	addi	t1,t1,28
20402790:	87c1                	srai	a5,a5,0x10
20402792:	4e01                	li	t3,0
20402794:	8776                	mv	a4,t4
20402796:	f66993e3          	bne	s3,t1,204026fc <core_bench_matrix+0xf3c>
2040279a:	0685                	addi	a3,a3,1
2040279c:	8776                	mv	a4,t4
2040279e:	40c809b3          	sub	s3,a6,a2
204027a2:	8ebe                	mv	t4,a5
204027a4:	dcda14e3          	bne	s4,a3,2040256c <core_bench_matrix+0xdac>
204027a8:	853e                	mv	a0,a5
204027aa:	446010ef          	jal	ra,20403bf0 <crc16>
204027ae:	4792                	lw	a5,4(sp)
204027b0:	4681                	li	a3,0
204027b2:	0001                	nop
204027b4:	ffe90713          	addi	a4,s2,-2
204027b8:	8305                	srli	a4,a4,0x1
204027ba:	0705                	addi	a4,a4,1
204027bc:	8b1d                	andi	a4,a4,7
204027be:	00f90833          	add	a6,s2,a5
204027c2:	cf3d                	beqz	a4,20402840 <core_bench_matrix+0x1080>
204027c4:	4605                	li	a2,1
204027c6:	06c70563          	beq	a4,a2,20402830 <core_bench_matrix+0x1070>
204027ca:	4609                	li	a2,2
204027cc:	04c70c63          	beq	a4,a2,20402824 <core_bench_matrix+0x1064>
204027d0:	460d                	li	a2,3
204027d2:	04c70363          	beq	a4,a2,20402818 <core_bench_matrix+0x1058>
204027d6:	4611                	li	a2,4
204027d8:	02c70a63          	beq	a4,a2,2040280c <core_bench_matrix+0x104c>
204027dc:	4615                	li	a2,5
204027de:	02c70163          	beq	a4,a2,20402800 <core_bench_matrix+0x1040>
204027e2:	4619                	li	a2,6
204027e4:	00c70863          	beq	a4,a2,204027f4 <core_bench_matrix+0x1034>
204027e8:	0007d703          	lhu	a4,0(a5)
204027ec:	0789                	addi	a5,a5,2
204027ee:	8f05                	sub	a4,a4,s1
204027f0:	fee79f23          	sh	a4,-2(a5)
204027f4:	0007d703          	lhu	a4,0(a5)
204027f8:	0789                	addi	a5,a5,2
204027fa:	8f05                	sub	a4,a4,s1
204027fc:	fee79f23          	sh	a4,-2(a5)
20402800:	0007d703          	lhu	a4,0(a5)
20402804:	0789                	addi	a5,a5,2
20402806:	8f05                	sub	a4,a4,s1
20402808:	fee79f23          	sh	a4,-2(a5)
2040280c:	0007d703          	lhu	a4,0(a5)
20402810:	0789                	addi	a5,a5,2
20402812:	8f05                	sub	a4,a4,s1
20402814:	fee79f23          	sh	a4,-2(a5)
20402818:	0007d703          	lhu	a4,0(a5)
2040281c:	0789                	addi	a5,a5,2
2040281e:	8f05                	sub	a4,a4,s1
20402820:	fee79f23          	sh	a4,-2(a5)
20402824:	0007d703          	lhu	a4,0(a5)
20402828:	0789                	addi	a5,a5,2
2040282a:	8f05                	sub	a4,a4,s1
2040282c:	fee79f23          	sh	a4,-2(a5)
20402830:	0007d703          	lhu	a4,0(a5)
20402834:	0789                	addi	a5,a5,2
20402836:	8f05                	sub	a4,a4,s1
20402838:	fee79f23          	sh	a4,-2(a5)
2040283c:	07078263          	beq	a5,a6,204028a0 <core_bench_matrix+0x10e0>
20402840:	0007df03          	lhu	t5,0(a5)
20402844:	0027de83          	lhu	t4,2(a5)
20402848:	0047de03          	lhu	t3,4(a5)
2040284c:	0067d303          	lhu	t1,6(a5)
20402850:	0087d883          	lhu	a7,8(a5)
20402854:	00a7d583          	lhu	a1,10(a5)
20402858:	00c7d603          	lhu	a2,12(a5)
2040285c:	00e7d703          	lhu	a4,14(a5)
20402860:	409f0f33          	sub	t5,t5,s1
20402864:	409e8eb3          	sub	t4,t4,s1
20402868:	409e0e33          	sub	t3,t3,s1
2040286c:	40930333          	sub	t1,t1,s1
20402870:	409888b3          	sub	a7,a7,s1
20402874:	8d85                	sub	a1,a1,s1
20402876:	8e05                	sub	a2,a2,s1
20402878:	8f05                	sub	a4,a4,s1
2040287a:	01e79023          	sh	t5,0(a5)
2040287e:	01d79123          	sh	t4,2(a5)
20402882:	01c79223          	sh	t3,4(a5)
20402886:	00679323          	sh	t1,6(a5)
2040288a:	01179423          	sh	a7,8(a5)
2040288e:	00b79523          	sh	a1,10(a5)
20402892:	00c79623          	sh	a2,12(a5)
20402896:	00e79723          	sh	a4,14(a5)
2040289a:	07c1                	addi	a5,a5,16
2040289c:	fb0792e3          	bne	a5,a6,20402840 <core_bench_matrix+0x1080>
204028a0:	0685                	addi	a3,a3,1
204028a2:	f0da19e3          	bne	s4,a3,204027b4 <core_bench_matrix+0xff4>
204028a6:	4466                	lw	s0,88(sp)
204028a8:	45a2                	lw	a1,8(sp)
204028aa:	40f6                	lw	ra,92(sp)
204028ac:	44d6                	lw	s1,84(sp)
204028ae:	4946                	lw	s2,80(sp)
204028b0:	49b6                	lw	s3,76(sp)
204028b2:	4a26                	lw	s4,72(sp)
204028b4:	4a96                	lw	s5,68(sp)
204028b6:	4b06                	lw	s6,64(sp)
204028b8:	5bf2                	lw	s7,60(sp)
204028ba:	5c62                	lw	s8,56(sp)
204028bc:	5cd2                	lw	s9,52(sp)
204028be:	5d42                	lw	s10,48(sp)
204028c0:	5db2                	lw	s11,44(sp)
204028c2:	0542                	slli	a0,a0,0x10
204028c4:	8541                	srai	a0,a0,0x10
204028c6:	6125                	addi	sp,sp,96
204028c8:	3280106f          	j	20403bf0 <crc16>
204028cc:	01d7a7b3          	slt	a5,a5,t4
204028d0:	97aa                	add	a5,a5,a0
204028d2:	07c2                	slli	a5,a5,0x10
204028d4:	87c1                	srai	a5,a5,0x10
204028d6:	afcff06f          	j	20401bd2 <core_bench_matrix+0x412>
204028da:	0001                	nop
204028dc:	00a50793          	addi	a5,a0,10
204028e0:	01079513          	slli	a0,a5,0x10
204028e4:	8541                	srai	a0,a0,0x10
204028e6:	4301                	li	t1,0
204028e8:	9d4ff06f          	j	20401abc <core_bench_matrix+0x2fc>
204028ec:	00a50793          	addi	a5,a0,10
204028f0:	01079513          	slli	a0,a5,0x10
204028f4:	8541                	srai	a0,a0,0x10
204028f6:	4301                	li	t1,0
204028f8:	9aaff06f          	j	20401aa2 <core_bench_matrix+0x2e2>
204028fc:	00a50793          	addi	a5,a0,10
20402900:	01079513          	slli	a0,a5,0x10
20402904:	8541                	srai	a0,a0,0x10
20402906:	4301                	li	t1,0
20402908:	9ceff06f          	j	20401ad6 <core_bench_matrix+0x316>
2040290c:	00a50793          	addi	a5,a0,10
20402910:	01079513          	slli	a0,a5,0x10
20402914:	8541                	srai	a0,a0,0x10
20402916:	4301                	li	t1,0
20402918:	9f6ff06f          	j	20401b0e <core_bench_matrix+0x34e>
2040291c:	00a50793          	addi	a5,a0,10
20402920:	01079513          	slli	a0,a5,0x10
20402924:	8541                	srai	a0,a0,0x10
20402926:	4301                	li	t1,0
20402928:	9caff06f          	j	20401af2 <core_bench_matrix+0x332>
2040292c:	01d8a8b3          	slt	a7,a7,t4
20402930:	97c6                	add	a5,a5,a7
20402932:	07c2                	slli	a5,a5,0x10
20402934:	87c1                	srai	a5,a5,0x10
20402936:	e30ff06f          	j	20401f66 <core_bench_matrix+0x7a6>
2040293a:	0001                	nop
2040293c:	07a9                	addi	a5,a5,10
2040293e:	07c2                	slli	a5,a5,0x10
20402940:	87c1                	srai	a5,a5,0x10
20402942:	4301                	li	t1,0
20402944:	d66ff06f          	j	20401eaa <core_bench_matrix+0x6ea>
20402948:	07a9                	addi	a5,a5,10
2040294a:	07c2                	slli	a5,a5,0x10
2040294c:	87c1                	srai	a5,a5,0x10
2040294e:	4301                	li	t1,0
20402950:	d2aff06f          	j	20401e7a <core_bench_matrix+0x6ba>
20402954:	07a9                	addi	a5,a5,10
20402956:	07c2                	slli	a5,a5,0x10
20402958:	87c1                	srai	a5,a5,0x10
2040295a:	4301                	li	t1,0
2040295c:	d06ff06f          	j	20401e62 <core_bench_matrix+0x6a2>
20402960:	00a50793          	addi	a5,a0,10
20402964:	01079513          	slli	a0,a5,0x10
20402968:	8541                	srai	a0,a0,0x10
2040296a:	4301                	li	t1,0
2040296c:	9beff06f          	j	20401b2a <core_bench_matrix+0x36a>
20402970:	07a9                	addi	a5,a5,10
20402972:	07c2                	slli	a5,a5,0x10
20402974:	87c1                	srai	a5,a5,0x10
20402976:	4301                	li	t1,0
20402978:	ba29                	j	20402292 <core_bench_matrix+0xad2>
2040297a:	0001                	nop
2040297c:	07a9                	addi	a5,a5,10
2040297e:	07c2                	slli	a5,a5,0x10
20402980:	87c1                	srai	a5,a5,0x10
20402982:	4301                	li	t1,0
20402984:	b8dd                	j	2040227a <core_bench_matrix+0xaba>
20402986:	0001                	nop
20402988:	07a9                	addi	a5,a5,10
2040298a:	07c2                	slli	a5,a5,0x10
2040298c:	87c1                	srai	a5,a5,0x10
2040298e:	4301                	li	t1,0
20402990:	b8c9                	j	20402262 <core_bench_matrix+0xaa2>
20402992:	0001                	nop
20402994:	07a9                	addi	a5,a5,10
20402996:	07c2                	slli	a5,a5,0x10
20402998:	87c1                	srai	a5,a5,0x10
2040299a:	4301                	li	t1,0
2040299c:	b859                	j	20402232 <core_bench_matrix+0xa72>
2040299e:	0001                	nop
204029a0:	07a9                	addi	a5,a5,10
204029a2:	07c2                	slli	a5,a5,0x10
204029a4:	87c1                	srai	a5,a5,0x10
204029a6:	4301                	li	t1,0
204029a8:	b04d                	j	2040224a <core_bench_matrix+0xa8a>
204029aa:	0001                	nop
204029ac:	07a9                	addi	a5,a5,10
204029ae:	07c2                	slli	a5,a5,0x10
204029b0:	87c1                	srai	a5,a5,0x10
204029b2:	4301                	li	t1,0
204029b4:	d0eff06f          	j	20401ec2 <core_bench_matrix+0x702>
204029b8:	07a9                	addi	a5,a5,10
204029ba:	07c2                	slli	a5,a5,0x10
204029bc:	87c1                	srai	a5,a5,0x10
204029be:	4e01                	li	t3,0
204029c0:	b915                	j	204025f4 <core_bench_matrix+0xe34>
204029c2:	0001                	nop
204029c4:	07a9                	addi	a5,a5,10
204029c6:	07c2                	slli	a5,a5,0x10
204029c8:	87c1                	srai	a5,a5,0x10
204029ca:	4e01                	li	t3,0
204029cc:	b901                	j	204025dc <core_bench_matrix+0xe1c>
204029ce:	0001                	nop
204029d0:	07a9                	addi	a5,a5,10
204029d2:	07c2                	slli	a5,a5,0x10
204029d4:	87c1                	srai	a5,a5,0x10
204029d6:	4e01                	li	t3,0
204029d8:	b915                	j	2040260c <core_bench_matrix+0xe4c>
204029da:	0001                	nop
204029dc:	07a9                	addi	a5,a5,10
204029de:	07c2                	slli	a5,a5,0x10
204029e0:	87c1                	srai	a5,a5,0x10
204029e2:	4e01                	li	t3,0
204029e4:	b9a1                	j	2040263c <core_bench_matrix+0xe7c>
204029e6:	0001                	nop
204029e8:	07a9                	addi	a5,a5,10
204029ea:	07c2                	slli	a5,a5,0x10
204029ec:	87c1                	srai	a5,a5,0x10
204029ee:	4e01                	li	t3,0
204029f0:	b915                	j	20402624 <core_bench_matrix+0xe64>
204029f2:	0001                	nop
204029f4:	07a9                	addi	a5,a5,10
204029f6:	07c2                	slli	a5,a5,0x10
204029f8:	87c1                	srai	a5,a5,0x10
204029fa:	4e01                	li	t3,0
204029fc:	b9a1                	j	20402654 <core_bench_matrix+0xe94>
204029fe:	0001                	nop
20402a00:	07a9                	addi	a5,a5,10
20402a02:	07c2                	slli	a5,a5,0x10
20402a04:	87c1                	srai	a5,a5,0x10
20402a06:	4301                	li	t1,0
20402a08:	b04d                	j	204022aa <core_bench_matrix+0xaea>
20402a0a:	0001                	nop
20402a0c:	07a9                	addi	a5,a5,10
20402a0e:	07c2                	slli	a5,a5,0x10
20402a10:	87c1                	srai	a5,a5,0x10
20402a12:	4301                	li	t1,0
20402a14:	c7eff06f          	j	20401e92 <core_bench_matrix+0x6d2>
20402a18:	07a9                	addi	a5,a5,10
20402a1a:	07c2                	slli	a5,a5,0x10
20402a1c:	87c1                	srai	a5,a5,0x10
20402a1e:	4301                	li	t1,0
20402a20:	c2aff06f          	j	20401e4a <core_bench_matrix+0x68a>
20402a24:	00ae8793          	addi	a5,t4,10
20402a28:	07c2                	slli	a5,a5,0x10
20402a2a:	87c1                	srai	a5,a5,0x10
20402a2c:	4e01                	li	t3,0
20402a2e:	be51                	j	204025c2 <core_bench_matrix+0xe02>
20402a30:	00ae8793          	addi	a5,t4,10
20402a34:	07c2                	slli	a5,a5,0x10
20402a36:	87c1                	srai	a5,a5,0x10
20402a38:	4301                	li	t1,0
20402a3a:	fdeff06f          	j	20402218 <core_bench_matrix+0xa58>
20402a3e:	0001                	nop
20402a40:	00ae8793          	addi	a5,t4,10
20402a44:	07c2                	slli	a5,a5,0x10
20402a46:	87c1                	srai	a5,a5,0x10
20402a48:	4301                	li	t1,0
20402a4a:	be6ff06f          	j	20401e30 <core_bench_matrix+0x670>
20402a4e:	0001                	nop
20402a50:	00a50793          	addi	a5,a0,10
20402a54:	01079513          	slli	a0,a5,0x10
20402a58:	8541                	srai	a0,a0,0x10
20402a5a:	4301                	li	t1,0
20402a5c:	82aff06f          	j	20401a86 <core_bench_matrix+0x2c6>
20402a60:	4581                	li	a1,0
20402a62:	4501                	li	a0,0
20402a64:	18c010ef          	jal	ra,20403bf0 <crc16>
20402a68:	85aa                	mv	a1,a0
20402a6a:	4501                	li	a0,0
20402a6c:	184010ef          	jal	ra,20403bf0 <crc16>
20402a70:	85aa                	mv	a1,a0
20402a72:	4501                	li	a0,0
20402a74:	17c010ef          	jal	ra,20403bf0 <crc16>
20402a78:	85aa                	mv	a1,a0
20402a7a:	4501                	li	a0,0
20402a7c:	174010ef          	jal	ra,20403bf0 <crc16>
20402a80:	b51d                	j	204028a6 <core_bench_matrix+0x10e6>
	...

20402a90 <core_init_matrix>:
core_init_matrix():
20402a90:	7179                	addi	sp,sp,-48
20402a92:	d622                	sw	s0,44(sp)
20402a94:	d426                	sw	s1,40(sp)
20402a96:	d24a                	sw	s2,36(sp)
20402a98:	d04e                	sw	s3,32(sp)
20402a9a:	ce52                	sw	s4,28(sp)
20402a9c:	cc56                	sw	s5,24(sp)
20402a9e:	ca5a                	sw	s6,20(sp)
20402aa0:	c85e                	sw	s7,16(sp)
20402aa2:	c662                	sw	s8,12(sp)
20402aa4:	c466                	sw	s9,8(sp)
20402aa6:	872a                	mv	a4,a0
20402aa8:	e211                	bnez	a2,20402aac <core_init_matrix+0x1c>
20402aaa:	4605                	li	a2,1
20402aac:	4501                	li	a0,0
20402aae:	00e04463          	bgtz	a4,20402ab6 <core_init_matrix+0x26>
20402ab2:	ac09                	j	20402cc4 <core_init_matrix+0x234>
20402ab4:	8572                	mv	a0,t3
20402ab6:	00150e13          	addi	t3,a0,1
20402aba:	03ce07b3          	mul	a5,t3,t3
20402abe:	078e                	slli	a5,a5,0x3
20402ac0:	fee7cae3          	blt	a5,a4,20402ab4 <core_init_matrix+0x24>
20402ac4:	02a504b3          	mul	s1,a0,a0
20402ac8:	fff58a13          	addi	s4,a1,-1
20402acc:	ffca7a13          	andi	s4,s4,-4
20402ad0:	0a11                	addi	s4,s4,4
20402ad2:	0486                	slli	s1,s1,0x1
20402ad4:	009a0933          	add	s2,s4,s1
20402ad8:	1aa05f63          	blez	a0,20402c96 <core_init_matrix+0x206>
20402adc:	6ec1                	lui	t4,0x10
20402ade:	4401                	li	s0,0
20402ae0:	4f85                	li	t6,1
20402ae2:	00151993          	slli	s3,a0,0x1
20402ae6:	82ca                	mv	t0,s2
20402ae8:	1efd                	addi	t4,t4,-1
20402aea:	412a0f33          	sub	t5,s4,s2
20402aee:	0001                	nop
20402af0:	41fe07b3          	sub	a5,t3,t6
20402af4:	8b8d                	andi	a5,a5,3
20402af6:	8596                	mv	a1,t0
20402af8:	887e                	mv	a6,t6
20402afa:	cfc5                	beqz	a5,20402bb2 <core_init_matrix+0x122>
20402afc:	4705                	li	a4,1
20402afe:	06e78d63          	beq	a5,a4,20402b78 <core_init_matrix+0xe8>
20402b02:	4709                	li	a4,2
20402b04:	02e78f63          	beq	a5,a4,20402b42 <core_init_matrix+0xb2>
20402b08:	03f60633          	mul	a2,a2,t6
20402b0c:	010f9793          	slli	a5,t6,0x10
20402b10:	87c1                	srai	a5,a5,0x10
20402b12:	005f08b3          	add	a7,t5,t0
20402b16:	001f8813          	addi	a6,t6,1
20402b1a:	00228593          	addi	a1,t0,2
20402b1e:	41f65713          	srai	a4,a2,0x1f
20402b22:	8341                	srli	a4,a4,0x10
20402b24:	963a                	add	a2,a2,a4
20402b26:	01d67633          	and	a2,a2,t4
20402b2a:	8e19                	sub	a2,a2,a4
20402b2c:	00c78733          	add	a4,a5,a2
20402b30:	0742                	slli	a4,a4,0x10
20402b32:	8741                	srai	a4,a4,0x10
20402b34:	97ba                	add	a5,a5,a4
20402b36:	00e29023          	sh	a4,0(t0)
20402b3a:	0ff7f793          	andi	a5,a5,255
20402b3e:	00f89023          	sh	a5,0(a7)
20402b42:	03060633          	mul	a2,a2,a6
20402b46:	01081793          	slli	a5,a6,0x10
20402b4a:	87c1                	srai	a5,a5,0x10
20402b4c:	00bf08b3          	add	a7,t5,a1
20402b50:	0805                	addi	a6,a6,1
20402b52:	0589                	addi	a1,a1,2
20402b54:	41f65713          	srai	a4,a2,0x1f
20402b58:	8341                	srli	a4,a4,0x10
20402b5a:	963a                	add	a2,a2,a4
20402b5c:	01d67633          	and	a2,a2,t4
20402b60:	8e19                	sub	a2,a2,a4
20402b62:	00c78733          	add	a4,a5,a2
20402b66:	0742                	slli	a4,a4,0x10
20402b68:	8741                	srai	a4,a4,0x10
20402b6a:	97ba                	add	a5,a5,a4
20402b6c:	fee59f23          	sh	a4,-2(a1)
20402b70:	0ff7f793          	andi	a5,a5,255
20402b74:	00f89023          	sh	a5,0(a7)
20402b78:	03060633          	mul	a2,a2,a6
20402b7c:	01081793          	slli	a5,a6,0x10
20402b80:	87c1                	srai	a5,a5,0x10
20402b82:	00bf08b3          	add	a7,t5,a1
20402b86:	0805                	addi	a6,a6,1
20402b88:	0589                	addi	a1,a1,2
20402b8a:	41f65713          	srai	a4,a2,0x1f
20402b8e:	8341                	srli	a4,a4,0x10
20402b90:	963a                	add	a2,a2,a4
20402b92:	01d67633          	and	a2,a2,t4
20402b96:	8e19                	sub	a2,a2,a4
20402b98:	00c78733          	add	a4,a5,a2
20402b9c:	0742                	slli	a4,a4,0x10
20402b9e:	8741                	srai	a4,a4,0x10
20402ba0:	97ba                	add	a5,a5,a4
20402ba2:	fee59f23          	sh	a4,-2(a1)
20402ba6:	0ff7f793          	andi	a5,a5,255
20402baa:	00f89023          	sh	a5,0(a7)
20402bae:	0dc80e63          	beq	a6,t3,20402c8a <core_init_matrix+0x1fa>
20402bb2:	03060633          	mul	a2,a2,a6
20402bb6:	00180713          	addi	a4,a6,1
20402bba:	01071b93          	slli	s7,a4,0x10
20402bbe:	01081893          	slli	a7,a6,0x10
20402bc2:	4108d893          	srai	a7,a7,0x10
20402bc6:	00280793          	addi	a5,a6,2
20402bca:	01079313          	slli	t1,a5,0x10
20402bce:	410bdb93          	srai	s7,s7,0x10
20402bd2:	00bf03b3          	add	t2,t5,a1
20402bd6:	00380b13          	addi	s6,a6,3
20402bda:	41f65c93          	srai	s9,a2,0x1f
20402bde:	010cdc93          	srli	s9,s9,0x10
20402be2:	9666                	add	a2,a2,s9
20402be4:	01d67633          	and	a2,a2,t4
20402be8:	41960633          	sub	a2,a2,s9
20402bec:	02e60733          	mul	a4,a2,a4
20402bf0:	9646                	add	a2,a2,a7
20402bf2:	0642                	slli	a2,a2,0x10
20402bf4:	8641                	srai	a2,a2,0x10
20402bf6:	00c59023          	sh	a2,0(a1)
20402bfa:	98b2                	add	a7,a7,a2
20402bfc:	0ff8f893          	andi	a7,a7,255
20402c00:	01139023          	sh	a7,0(t2)
20402c04:	010b1893          	slli	a7,s6,0x10
20402c08:	41035313          	srai	t1,t1,0x10
20402c0c:	41f75613          	srai	a2,a4,0x1f
20402c10:	8241                	srli	a2,a2,0x10
20402c12:	9732                	add	a4,a4,a2
20402c14:	01d77733          	and	a4,a4,t4
20402c18:	8f11                	sub	a4,a4,a2
20402c1a:	02f707b3          	mul	a5,a4,a5
20402c1e:	975e                	add	a4,a4,s7
20402c20:	0742                	slli	a4,a4,0x10
20402c22:	8741                	srai	a4,a4,0x10
20402c24:	00e59123          	sh	a4,2(a1)
20402c28:	9bba                	add	s7,s7,a4
20402c2a:	0ffbfb93          	andi	s7,s7,255
20402c2e:	4108d893          	srai	a7,a7,0x10
20402c32:	01739123          	sh	s7,2(t2)
20402c36:	0811                	addi	a6,a6,4
20402c38:	41f7d713          	srai	a4,a5,0x1f
20402c3c:	8341                	srli	a4,a4,0x10
20402c3e:	97ba                	add	a5,a5,a4
20402c40:	01d7f7b3          	and	a5,a5,t4
20402c44:	8f99                	sub	a5,a5,a4
20402c46:	03678b33          	mul	s6,a5,s6
20402c4a:	979a                	add	a5,a5,t1
20402c4c:	07c2                	slli	a5,a5,0x10
20402c4e:	87c1                	srai	a5,a5,0x10
20402c50:	00f59223          	sh	a5,4(a1)
20402c54:	933e                	add	t1,t1,a5
20402c56:	0ff37313          	andi	t1,t1,255
20402c5a:	00639223          	sh	t1,4(t2)
20402c5e:	05a1                	addi	a1,a1,8
20402c60:	41fb5613          	srai	a2,s6,0x1f
20402c64:	8241                	srli	a2,a2,0x10
20402c66:	9b32                	add	s6,s6,a2
20402c68:	01db7b33          	and	s6,s6,t4
20402c6c:	40cb0633          	sub	a2,s6,a2
20402c70:	00c887b3          	add	a5,a7,a2
20402c74:	07c2                	slli	a5,a5,0x10
20402c76:	87c1                	srai	a5,a5,0x10
20402c78:	98be                	add	a7,a7,a5
20402c7a:	fef59f23          	sh	a5,-2(a1)
20402c7e:	0ff8f893          	andi	a7,a7,255
20402c82:	01139323          	sh	a7,6(t2)
20402c86:	f3c816e3          	bne	a6,t3,20402bb2 <core_init_matrix+0x122>
20402c8a:	0405                	addi	s0,s0,1
20402c8c:	9faa                	add	t6,t6,a0
20402c8e:	9e2a                	add	t3,t3,a0
20402c90:	92ce                	add	t0,t0,s3
20402c92:	e4a41fe3          	bne	s0,a0,20402af0 <core_init_matrix+0x60>
20402c96:	009907b3          	add	a5,s2,s1
20402c9a:	17fd                	addi	a5,a5,-1
20402c9c:	5432                	lw	s0,44(sp)
20402c9e:	9bf1                	andi	a5,a5,-4
20402ca0:	0791                	addi	a5,a5,4
20402ca2:	0146a223          	sw	s4,4(a3)
20402ca6:	0126a423          	sw	s2,8(a3)
20402caa:	c6dc                	sw	a5,12(a3)
20402cac:	c288                	sw	a0,0(a3)
20402cae:	54a2                	lw	s1,40(sp)
20402cb0:	5912                	lw	s2,36(sp)
20402cb2:	5982                	lw	s3,32(sp)
20402cb4:	4a72                	lw	s4,28(sp)
20402cb6:	4ae2                	lw	s5,24(sp)
20402cb8:	4b52                	lw	s6,20(sp)
20402cba:	4bc2                	lw	s7,16(sp)
20402cbc:	4c32                	lw	s8,12(sp)
20402cbe:	4ca2                	lw	s9,8(sp)
20402cc0:	6145                	addi	sp,sp,48
20402cc2:	8082                	ret
20402cc4:	fff58913          	addi	s2,a1,-1
20402cc8:	ffc97913          	andi	s2,s2,-4
20402ccc:	00490a13          	addi	s4,s2,4
20402cd0:	557d                	li	a0,-1
20402cd2:	4489                	li	s1,2
20402cd4:	0919                	addi	s2,s2,6
20402cd6:	b7c1                	j	20402c96 <core_init_matrix+0x206>
	...

20402ce0 <core_bench_state>:
core_bench_state():
20402ce0:	7175                	addi	sp,sp,-144
20402ce2:	c522                	sw	s0,136(sp)
20402ce4:	c706                	sw	ra,140(sp)
20402ce6:	c326                	sw	s1,132(sp)
20402ce8:	c14a                	sw	s2,128(sp)
20402cea:	dece                	sw	s3,124(sp)
20402cec:	dcd2                	sw	s4,120(sp)
20402cee:	dad6                	sw	s5,116(sp)
20402cf0:	d8da                	sw	s6,112(sp)
20402cf2:	d6de                	sw	s7,108(sp)
20402cf4:	d4e2                	sw	s8,104(sp)
20402cf6:	d2e6                	sw	s9,100(sp)
20402cf8:	d0ea                	sw	s10,96(sp)
20402cfa:	ceee                	sw	s11,92(sp)
20402cfc:	0005c883          	lbu	a7,0(a1)
20402d00:	d802                	sw	zero,48(sp)
20402d02:	c802                	sw	zero,16(sp)
20402d04:	da02                	sw	zero,52(sp)
20402d06:	ca02                	sw	zero,20(sp)
20402d08:	dc02                	sw	zero,56(sp)
20402d0a:	cc02                	sw	zero,24(sp)
20402d0c:	de02                	sw	zero,60(sp)
20402d0e:	ce02                	sw	zero,28(sp)
20402d10:	c082                	sw	zero,64(sp)
20402d12:	d002                	sw	zero,32(sp)
20402d14:	c282                	sw	zero,68(sp)
20402d16:	d202                	sw	zero,36(sp)
20402d18:	c482                	sw	zero,72(sp)
20402d1a:	d402                	sw	zero,40(sp)
20402d1c:	c682                	sw	zero,76(sp)
20402d1e:	d602                	sw	zero,44(sp)
20402d20:	c42a                	sw	a0,8(sp)
20402d22:	c636                	sw	a3,12(sp)
20402d24:	8eae                	mv	t4,a1
20402d26:	4401                	li	s0,0
20402d28:	85be                	mv	a1,a5
20402d2a:	0a088e63          	beqz	a7,20402de6 <core_bench_state+0x106>
20402d2e:	87c6                	mv	a5,a7
20402d30:	8576                	mv	a0,t4
20402d32:	4d01                	li	s10,0
20402d34:	4b81                	li	s7,0
20402d36:	4901                	li	s2,0
20402d38:	4281                	li	t0,0
20402d3a:	4d81                	li	s11,0
20402d3c:	4c01                	li	s8,0
20402d3e:	4f01                	li	t5,0
20402d40:	4b01                	li	s6,0
20402d42:	4381                	li	t2,0
20402d44:	4a81                	li	s5,0
20402d46:	4a01                	li	s4,0
20402d48:	4081                	li	ra,0
20402d4a:	4481                	li	s1,0
20402d4c:	4e25                	li	t3,9
20402d4e:	02e00993          	li	s3,46
20402d52:	04500c93          	li	s9,69
20402d56:	02c00313          	li	t1,44
20402d5a:	0001                	nop
20402d5c:	54678263          	beq	a5,t1,204032a0 <core_bench_state+0x5c0>
20402d60:	fd078f13          	addi	t5,a5,-48
20402d64:	0fff7f13          	andi	t5,t5,255
20402d68:	00154683          	lbu	a3,1(a0)
20402d6c:	00150813          	addi	a6,a0,1
20402d70:	0405                	addi	s0,s0,1
20402d72:	09ee6f63          	bltu	t3,t5,20402e10 <core_bench_state+0x130>
20402d76:	5a068d63          	beqz	a3,20403330 <core_bench_state+0x650>
20402d7a:	00250f93          	addi	t6,a0,2
20402d7e:	66668f63          	beq	a3,t1,204033fc <core_bench_state+0x71c>
20402d82:	87b6                	mv	a5,a3
20402d84:	00254683          	lbu	a3,2(a0)
20402d88:	8542                	mv	a0,a6
20402d8a:	0b378563          	beq	a5,s3,20402e34 <core_bench_state+0x154>
20402d8e:	fd078793          	addi	a5,a5,-48
20402d92:	0ff7f793          	andi	a5,a5,255
20402d96:	16fe7963          	bgeu	t3,a5,20402f08 <core_bench_state+0x228>
20402d9a:	87b6                	mv	a5,a3
20402d9c:	857e                	mv	a0,t6
20402d9e:	0a85                	addi	s5,s5,1
20402da0:	4d85                	li	s11,1
20402da2:	4f05                	li	t5,1
20402da4:	4685                	li	a3,1
20402da6:	0001                	nop
20402da8:	05010813          	addi	a6,sp,80
20402dac:	068a                	slli	a3,a3,0x2
20402dae:	96c2                	add	a3,a3,a6
20402db0:	fc06a803          	lw	a6,-64(a3)
20402db4:	0805                	addi	a6,a6,1
20402db6:	fd06a023          	sw	a6,-64(a3)
20402dba:	f3cd                	bnez	a5,20402d5c <core_bench_state+0x7c>
20402dbc:	4c0f0e63          	beqz	t5,20403298 <core_bench_state+0x5b8>
20402dc0:	d822                	sw	s0,48(sp)
20402dc2:	000c0363          	beqz	s8,20402dc8 <core_bench_state+0xe8>
20402dc6:	dc1e                	sw	t2,56(sp)
20402dc8:	000d8363          	beqz	s11,20402dce <core_bench_state+0xee>
20402dcc:	c0d6                	sw	s5,64(sp)
20402dce:	00028363          	beqz	t0,20402dd4 <core_bench_state+0xf4>
20402dd2:	c2d2                	sw	s4,68(sp)
20402dd4:	00090363          	beqz	s2,20402dda <core_bench_state+0xfa>
20402dd8:	de06                	sw	ra,60(sp)
20402dda:	000b8363          	beqz	s7,20402de0 <core_bench_state+0x100>
20402dde:	c4a6                	sw	s1,72(sp)
20402de0:	000d0363          	beqz	s10,20402de6 <core_bench_state+0x106>
20402de4:	da5a                	sw	s6,52(sp)
20402de6:	47a2                	lw	a5,8(sp)
20402de8:	00fe8533          	add	a0,t4,a5
20402dec:	1aaef063          	bgeu	t4,a0,20402f8c <core_bench_state+0x2ac>
20402df0:	87f6                	mv	a5,t4
20402df2:	02c00693          	li	a3,44
20402df6:	0001                	nop
20402df8:	00d88663          	beq	a7,a3,20402e04 <core_bench_state+0x124>
20402dfc:	00c8c8b3          	xor	a7,a7,a2
20402e00:	01178023          	sb	a7,0(a5)
20402e04:	97ba                	add	a5,a5,a4
20402e06:	18a7f163          	bgeu	a5,a0,20402f88 <core_bench_state+0x2a8>
20402e0a:	0007c883          	lbu	a7,0(a5)
20402e0e:	b7ed                	j	20402df8 <core_bench_state+0x118>
20402e10:	02b00f13          	li	t5,43
20402e14:	11e78e63          	beq	a5,t5,20402f30 <core_bench_state+0x250>
20402e18:	02d00f13          	li	t5,45
20402e1c:	43e78463          	beq	a5,t5,20403244 <core_bench_state+0x564>
20402e20:	43378c63          	beq	a5,s3,20403258 <core_bench_state+0x578>
20402e24:	87b6                	mv	a5,a3
20402e26:	8542                	mv	a0,a6
20402e28:	0b05                	addi	s6,s6,1
20402e2a:	4d05                	li	s10,1
20402e2c:	4f05                	li	t5,1
20402e2e:	4685                	li	a3,1
20402e30:	bfa5                	j	20402da8 <core_bench_state+0xc8>
20402e32:	0001                	nop
20402e34:	0a85                	addi	s5,s5,1
20402e36:	5c068963          	beqz	a3,20403408 <core_bench_state+0x728>
20402e3a:	001f8f13          	addi	t5,t6,1
20402e3e:	5e668d63          	beq	a3,t1,20403438 <core_bench_state+0x758>
20402e42:	00254803          	lbu	a6,2(a0)
20402e46:	4d85                	li	s11,1
20402e48:	0df6f793          	andi	a5,a3,223
20402e4c:	03978063          	beq	a5,s9,20402e6c <core_bench_state+0x18c>
20402e50:	fd068693          	addi	a3,a3,-48
20402e54:	0ff6f693          	andi	a3,a3,255
20402e58:	0cde7263          	bgeu	t3,a3,20402f1c <core_bench_state+0x23c>
20402e5c:	857a                	mv	a0,t5
20402e5e:	87c2                	mv	a5,a6
20402e60:	0a05                	addi	s4,s4,1
20402e62:	4285                	li	t0,1
20402e64:	4f05                	li	t5,1
20402e66:	4685                	li	a3,1
20402e68:	b781                	j	20402da8 <core_bench_state+0xc8>
20402e6a:	0001                	nop
20402e6c:	0a05                	addi	s4,s4,1
20402e6e:	46080363          	beqz	a6,204032d4 <core_bench_state+0x5f4>
20402e72:	001f0513          	addi	a0,t5,1 # ffff8001 <metal_segment_heap_target_end+0x7fff4781>
20402e76:	4a680163          	beq	a6,t1,20403318 <core_bench_state+0x638>
20402e7a:	fd580813          	addi	a6,a6,-43
20402e7e:	0fd87813          	andi	a6,a6,253
20402e82:	002fc783          	lbu	a5,2(t6)
20402e86:	0085                	addi	ra,ra,1
20402e88:	00080863          	beqz	a6,20402e98 <core_bench_state+0x1b8>
20402e8c:	4905                	li	s2,1
20402e8e:	4285                	li	t0,1
20402e90:	4f05                	li	t5,1
20402e92:	4685                	li	a3,1
20402e94:	bf11                	j	20402da8 <core_bench_state+0xc8>
20402e96:	0001                	nop
20402e98:	42078863          	beqz	a5,204032c8 <core_bench_state+0x5e8>
20402e9c:	002f0813          	addi	a6,t5,2
20402ea0:	46678263          	beq	a5,t1,20403304 <core_bench_state+0x624>
20402ea4:	fd078793          	addi	a5,a5,-48
20402ea8:	0ff7f793          	andi	a5,a5,255
20402eac:	002f4683          	lbu	a3,2(t5)
20402eb0:	0485                	addi	s1,s1,1
20402eb2:	02fe6963          	bltu	t3,a5,20402ee4 <core_bench_state+0x204>
20402eb6:	4a068763          	beqz	a3,20403364 <core_bench_state+0x684>
20402eba:	003f0513          	addi	a0,t5,3
20402ebe:	4c668b63          	beq	a3,t1,20403394 <core_bench_state+0x6b4>
20402ec2:	003f4783          	lbu	a5,3(t5)
20402ec6:	fd068693          	addi	a3,a3,-48
20402eca:	0ff6f693          	andi	a3,a3,255
20402ece:	02de7363          	bgeu	t3,a3,20402ef4 <core_bench_state+0x214>
20402ed2:	0b05                	addi	s6,s6,1
20402ed4:	4d05                	li	s10,1
20402ed6:	4b85                	li	s7,1
20402ed8:	4905                	li	s2,1
20402eda:	4285                	li	t0,1
20402edc:	4f05                	li	t5,1
20402ede:	4685                	li	a3,1
20402ee0:	b5e1                	j	20402da8 <core_bench_state+0xc8>
20402ee2:	0001                	nop
20402ee4:	87b6                	mv	a5,a3
20402ee6:	8542                	mv	a0,a6
20402ee8:	4b85                	li	s7,1
20402eea:	4905                	li	s2,1
20402eec:	4285                	li	t0,1
20402eee:	4f05                	li	t5,1
20402ef0:	4685                	li	a3,1
20402ef2:	bd5d                	j	20402da8 <core_bench_state+0xc8>
20402ef4:	48078463          	beqz	a5,2040337c <core_bench_state+0x69c>
20402ef8:	86be                	mv	a3,a5
20402efa:	4a678d63          	beq	a5,t1,204033b4 <core_bench_state+0x6d4>
20402efe:	00154783          	lbu	a5,1(a0)
20402f02:	0505                	addi	a0,a0,1
20402f04:	b7c9                	j	20402ec6 <core_bench_state+0x1e6>
20402f06:	0001                	nop
20402f08:	52068263          	beqz	a3,2040342c <core_bench_state+0x74c>
20402f0c:	857e                	mv	a0,t6
20402f0e:	87b6                	mv	a5,a3
20402f10:	54668a63          	beq	a3,t1,20403464 <core_bench_state+0x784>
20402f14:	001fc683          	lbu	a3,1(t6)
20402f18:	0f85                	addi	t6,t6,1
20402f1a:	bd85                	j	20402d8a <core_bench_state+0xaa>
20402f1c:	54080f63          	beqz	a6,2040347a <core_bench_state+0x79a>
20402f20:	8ffa                	mv	t6,t5
20402f22:	86c2                	mv	a3,a6
20402f24:	56680663          	beq	a6,t1,20403490 <core_bench_state+0x7b0>
20402f28:	001f4803          	lbu	a6,1(t5)
20402f2c:	0f05                	addi	t5,t5,1
20402f2e:	bf29                	j	20402e48 <core_bench_state+0x168>
20402f30:	58068363          	beqz	a3,204034b6 <core_bench_state+0x7d6>
20402f34:	00250f13          	addi	t5,a0,2
20402f38:	5a668a63          	beq	a3,t1,204034ec <core_bench_state+0x80c>
20402f3c:	00254783          	lbu	a5,2(a0)
20402f40:	857a                	mv	a0,t5
20402f42:	fd068f13          	addi	t5,a3,-48
20402f46:	0fff7f13          	andi	t5,t5,255
20402f4a:	0385                	addi	t2,t2,1
20402f4c:	01ee7863          	bgeu	t3,t5,20402f5c <core_bench_state+0x27c>
20402f50:	03368063          	beq	a3,s3,20402f70 <core_bench_state+0x290>
20402f54:	4c05                	li	s8,1
20402f56:	4f05                	li	t5,1
20402f58:	4685                	li	a3,1
20402f5a:	b5b9                	j	20402da8 <core_bench_state+0xc8>
20402f5c:	40078c63          	beqz	a5,20403374 <core_bench_state+0x694>
20402f60:	00150f93          	addi	t6,a0,1
20402f64:	44678063          	beq	a5,t1,204033a4 <core_bench_state+0x6c4>
20402f68:	00284683          	lbu	a3,2(a6)
20402f6c:	4c05                	li	s8,1
20402f6e:	bd31                	j	20402d8a <core_bench_state+0xaa>
20402f70:	52078f63          	beqz	a5,204034ae <core_bench_state+0x7ce>
20402f74:	00150f13          	addi	t5,a0,1
20402f78:	56678263          	beq	a5,t1,204034dc <core_bench_state+0x7fc>
20402f7c:	8faa                	mv	t6,a0
20402f7e:	86be                	mv	a3,a5
20402f80:	00284803          	lbu	a6,2(a6)
20402f84:	4c05                	li	s8,1
20402f86:	b5c9                	j	20402e48 <core_bench_state+0x168>
20402f88:	000ec883          	lbu	a7,0(t4) # 10000 <__stack_size+0xf000>
20402f8c:	0a088a63          	beqz	a7,20403040 <core_bench_state+0x360>
20402f90:	5bd2                	lw	s7,52(sp)
20402f92:	54e2                	lw	s1,56(sp)
20402f94:	4b06                	lw	s6,64(sp)
20402f96:	4a96                	lw	s5,68(sp)
20402f98:	5972                	lw	s2,60(sp)
20402f9a:	49a6                	lw	s3,72(sp)
20402f9c:	4601                	li	a2,0
20402f9e:	c43a                	sw	a4,8(sp)
20402fa0:	86c6                	mv	a3,a7
20402fa2:	83a2                	mv	t2,s0
20402fa4:	8876                	mv	a6,t4
20402fa6:	4c01                	li	s8,0
20402fa8:	4781                	li	a5,0
20402faa:	4081                	li	ra,0
20402fac:	4d81                	li	s11,0
20402fae:	4c81                	li	s9,0
20402fb0:	4f81                	li	t6,0
20402fb2:	4f25                	li	t5,9
20402fb4:	02e00a13          	li	s4,46
20402fb8:	04500d13          	li	s10,69
20402fbc:	02c00e13          	li	t3,44
20402fc0:	8732                	mv	a4,a2
20402fc2:	0001                	nop
20402fc4:	2dc68263          	beq	a3,t3,20403288 <core_bench_state+0x5a8>
20402fc8:	fd068f93          	addi	t6,a3,-48
20402fcc:	0fffff93          	andi	t6,t6,255
20402fd0:	00184603          	lbu	a2,1(a6)
20402fd4:	00180313          	addi	t1,a6,1
20402fd8:	0385                	addi	t2,t2,1
20402fda:	09ff7563          	bgeu	t5,t6,20403064 <core_bench_state+0x384>
20402fde:	02b00f93          	li	t6,43
20402fe2:	1bf68963          	beq	a3,t6,20403194 <core_bench_state+0x4b4>
20402fe6:	02d00f93          	li	t6,45
20402fea:	25f68363          	beq	a3,t6,20403230 <core_bench_state+0x550>
20402fee:	27468f63          	beq	a3,s4,2040326c <core_bench_state+0x58c>
20402ff2:	86b2                	mv	a3,a2
20402ff4:	881a                	mv	a6,t1
20402ff6:	0b85                	addi	s7,s7,1
20402ff8:	4705                	li	a4,1
20402ffa:	4f85                	li	t6,1
20402ffc:	4605                	li	a2,1
20402ffe:	0001                	nop
20403000:	05010313          	addi	t1,sp,80
20403004:	060a                	slli	a2,a2,0x2
20403006:	961a                	add	a2,a2,t1
20403008:	fc062303          	lw	t1,-64(a2)
2040300c:	0305                	addi	t1,t1,1
2040300e:	fc662023          	sw	t1,-64(a2)
20403012:	facd                	bnez	a3,20402fc4 <core_bench_state+0x2e4>
20403014:	86ba                	mv	a3,a4
20403016:	4722                	lw	a4,8(sp)
20403018:	260f8463          	beqz	t6,20403280 <core_bench_state+0x5a0>
2040301c:	d81e                	sw	t2,48(sp)
2040301e:	000c8363          	beqz	s9,20403024 <core_bench_state+0x344>
20403022:	dc26                	sw	s1,56(sp)
20403024:	000d8363          	beqz	s11,2040302a <core_bench_state+0x34a>
20403028:	c0da                	sw	s6,64(sp)
2040302a:	00008363          	beqz	ra,20403030 <core_bench_state+0x350>
2040302e:	c2d6                	sw	s5,68(sp)
20403030:	c391                	beqz	a5,20403034 <core_bench_state+0x354>
20403032:	de4a                	sw	s2,60(sp)
20403034:	000c0363          	beqz	s8,2040303a <core_bench_state+0x35a>
20403038:	c4ce                	sw	s3,72(sp)
2040303a:	841e                	mv	s0,t2
2040303c:	c291                	beqz	a3,20403040 <core_bench_state+0x360>
2040303e:	da5e                	sw	s7,52(sp)
20403040:	1aaef663          	bgeu	t4,a0,204031ec <core_bench_state+0x50c>
20403044:	46b2                	lw	a3,12(sp)
20403046:	02c00793          	li	a5,44
2040304a:	0001                	nop
2040304c:	00f88663          	beq	a7,a5,20403058 <core_bench_state+0x378>
20403050:	00d8c8b3          	xor	a7,a7,a3
20403054:	011e8023          	sb	a7,0(t4)
20403058:	9eba                	add	t4,t4,a4
2040305a:	18aef963          	bgeu	t4,a0,204031ec <core_bench_state+0x50c>
2040305e:	000ec883          	lbu	a7,0(t4)
20403062:	b7ed                	j	2040304c <core_bench_state+0x36c>
20403064:	2e060a63          	beqz	a2,20403358 <core_bench_state+0x678>
20403068:	00280293          	addi	t0,a6,2
2040306c:	31c60e63          	beq	a2,t3,20403388 <core_bench_state+0x6a8>
20403070:	86b2                	mv	a3,a2
20403072:	00284603          	lbu	a2,2(a6)
20403076:	881a                	mv	a6,t1
20403078:	03468063          	beq	a3,s4,20403098 <core_bench_state+0x3b8>
2040307c:	fd068693          	addi	a3,a3,-48
20403080:	0ff6f693          	andi	a3,a3,255
20403084:	0edf7463          	bgeu	t5,a3,2040316c <core_bench_state+0x48c>
20403088:	86b2                	mv	a3,a2
2040308a:	8816                	mv	a6,t0
2040308c:	0b05                	addi	s6,s6,1
2040308e:	4d85                	li	s11,1
20403090:	4f85                	li	t6,1
20403092:	4605                	li	a2,1
20403094:	b7b5                	j	20403000 <core_bench_state+0x320>
20403096:	0001                	nop
20403098:	0b05                	addi	s6,s6,1
2040309a:	36060d63          	beqz	a2,20403414 <core_bench_state+0x734>
2040309e:	00128f93          	addi	t6,t0,1
204030a2:	3bc60363          	beq	a2,t3,20403448 <core_bench_state+0x768>
204030a6:	00284303          	lbu	t1,2(a6)
204030aa:	4d85                	li	s11,1
204030ac:	0df67693          	andi	a3,a2,223
204030b0:	03a68063          	beq	a3,s10,204030d0 <core_bench_state+0x3f0>
204030b4:	fd060613          	addi	a2,a2,-48
204030b8:	0ff67613          	andi	a2,a2,255
204030bc:	0ccf7263          	bgeu	t5,a2,20403180 <core_bench_state+0x4a0>
204030c0:	887e                	mv	a6,t6
204030c2:	869a                	mv	a3,t1
204030c4:	0a85                	addi	s5,s5,1
204030c6:	4085                	li	ra,1
204030c8:	4f85                	li	t6,1
204030ca:	4605                	li	a2,1
204030cc:	bf15                	j	20403000 <core_bench_state+0x320>
204030ce:	0001                	nop
204030d0:	0a85                	addi	s5,s5,1
204030d2:	1c030f63          	beqz	t1,204032b0 <core_bench_state+0x5d0>
204030d6:	001f8813          	addi	a6,t6,1
204030da:	21c30363          	beq	t1,t3,204032e0 <core_bench_state+0x600>
204030de:	fd530313          	addi	t1,t1,-43
204030e2:	0fd37313          	andi	t1,t1,253
204030e6:	0022c683          	lbu	a3,2(t0)
204030ea:	0905                	addi	s2,s2,1
204030ec:	00030863          	beqz	t1,204030fc <core_bench_state+0x41c>
204030f0:	4785                	li	a5,1
204030f2:	4085                	li	ra,1
204030f4:	4f85                	li	t6,1
204030f6:	4605                	li	a2,1
204030f8:	b721                	j	20403000 <core_bench_state+0x320>
204030fa:	0001                	nop
204030fc:	1c068063          	beqz	a3,204032bc <core_bench_state+0x5dc>
20403100:	002f8313          	addi	t1,t6,2
20403104:	1fc68663          	beq	a3,t3,204032f0 <core_bench_state+0x610>
20403108:	fd068693          	addi	a3,a3,-48
2040310c:	0ff6f693          	andi	a3,a3,255
20403110:	002fc783          	lbu	a5,2(t6)
20403114:	0985                	addi	s3,s3,1
20403116:	02df6963          	bltu	t5,a3,20403148 <core_bench_state+0x468>
2040311a:	22078163          	beqz	a5,2040333c <core_bench_state+0x65c>
2040311e:	003f8813          	addi	a6,t6,3
20403122:	2bc78363          	beq	a5,t3,204033c8 <core_bench_state+0x6e8>
20403126:	003fc683          	lbu	a3,3(t6)
2040312a:	fd078793          	addi	a5,a5,-48
2040312e:	0ff7f793          	andi	a5,a5,255
20403132:	02ff7363          	bgeu	t5,a5,20403158 <core_bench_state+0x478>
20403136:	0b85                	addi	s7,s7,1
20403138:	4705                	li	a4,1
2040313a:	4c05                	li	s8,1
2040313c:	4785                	li	a5,1
2040313e:	4085                	li	ra,1
20403140:	4f85                	li	t6,1
20403142:	4605                	li	a2,1
20403144:	bd75                	j	20403000 <core_bench_state+0x320>
20403146:	0001                	nop
20403148:	86be                	mv	a3,a5
2040314a:	881a                	mv	a6,t1
2040314c:	4c05                	li	s8,1
2040314e:	4785                	li	a5,1
20403150:	4085                	li	ra,1
20403152:	4f85                	li	t6,1
20403154:	4605                	li	a2,1
20403156:	b56d                	j	20403000 <core_bench_state+0x320>
20403158:	1e068a63          	beqz	a3,2040334c <core_bench_state+0x66c>
2040315c:	87b6                	mv	a5,a3
2040315e:	27c68d63          	beq	a3,t3,204033d8 <core_bench_state+0x6f8>
20403162:	00184683          	lbu	a3,1(a6)
20403166:	0805                	addi	a6,a6,1
20403168:	b7c9                	j	2040312a <core_bench_state+0x44a>
2040316a:	0001                	nop
2040316c:	2a060a63          	beqz	a2,20403420 <core_bench_state+0x740>
20403170:	8816                	mv	a6,t0
20403172:	86b2                	mv	a3,a2
20403174:	2fc60263          	beq	a2,t3,20403458 <core_bench_state+0x778>
20403178:	0012c603          	lbu	a2,1(t0)
2040317c:	0285                	addi	t0,t0,1
2040317e:	bded                	j	20403078 <core_bench_state+0x398>
20403180:	2e030863          	beqz	t1,20403470 <core_bench_state+0x790>
20403184:	82fe                	mv	t0,t6
20403186:	861a                	mv	a2,t1
20403188:	2fc30e63          	beq	t1,t3,20403484 <core_bench_state+0x7a4>
2040318c:	001fc303          	lbu	t1,1(t6)
20403190:	0f85                	addi	t6,t6,1
20403192:	bf29                	j	204030ac <core_bench_state+0x3cc>
20403194:	30060463          	beqz	a2,2040349c <core_bench_state+0x7bc>
20403198:	00280f93          	addi	t6,a6,2
2040319c:	33c60263          	beq	a2,t3,204034c0 <core_bench_state+0x7e0>
204031a0:	00284683          	lbu	a3,2(a6)
204031a4:	887e                	mv	a6,t6
204031a6:	fd060f93          	addi	t6,a2,-48
204031aa:	0fffff93          	andi	t6,t6,255
204031ae:	0485                	addi	s1,s1,1
204031b0:	01ff7863          	bgeu	t5,t6,204031c0 <core_bench_state+0x4e0>
204031b4:	03460063          	beq	a2,s4,204031d4 <core_bench_state+0x4f4>
204031b8:	4c85                	li	s9,1
204031ba:	4f85                	li	t6,1
204031bc:	4605                	li	a2,1
204031be:	b589                	j	20403000 <core_bench_state+0x320>
204031c0:	16068463          	beqz	a3,20403328 <core_bench_state+0x648>
204031c4:	00180293          	addi	t0,a6,1
204031c8:	23c68263          	beq	a3,t3,204033ec <core_bench_state+0x70c>
204031cc:	00234603          	lbu	a2,2(t1)
204031d0:	4c85                	li	s9,1
204031d2:	b55d                	j	20403078 <core_bench_state+0x398>
204031d4:	2c068963          	beqz	a3,204034a6 <core_bench_state+0x7c6>
204031d8:	00180f93          	addi	t6,a6,1
204031dc:	2fc68863          	beq	a3,t3,204034cc <core_bench_state+0x7ec>
204031e0:	00234303          	lbu	t1,2(t1)
204031e4:	82c2                	mv	t0,a6
204031e6:	8636                	mv	a2,a3
204031e8:	4c85                	li	s9,1
204031ea:	b5c9                	j	204030ac <core_bench_state+0x3cc>
204031ec:	03010913          	addi	s2,sp,48
204031f0:	0804                	addi	s1,sp,16
204031f2:	89ca                	mv	s3,s2
204031f4:	a021                	j	204031fc <core_bench_state+0x51c>
204031f6:	0001                	nop
204031f8:	00092403          	lw	s0,0(s2)
204031fc:	4088                	lw	a0,0(s1)
204031fe:	0491                	addi	s1,s1,4
20403200:	0911                	addi	s2,s2,4
20403202:	25fd                	jal	204038f0 <crcu32>
20403204:	85aa                	mv	a1,a0
20403206:	8522                	mv	a0,s0
20403208:	25e5                	jal	204038f0 <crcu32>
2040320a:	85aa                	mv	a1,a0
2040320c:	ff3496e3          	bne	s1,s3,204031f8 <core_bench_state+0x518>
20403210:	40ba                	lw	ra,140(sp)
20403212:	442a                	lw	s0,136(sp)
20403214:	449a                	lw	s1,132(sp)
20403216:	490a                	lw	s2,128(sp)
20403218:	59f6                	lw	s3,124(sp)
2040321a:	5a66                	lw	s4,120(sp)
2040321c:	5ad6                	lw	s5,116(sp)
2040321e:	5b46                	lw	s6,112(sp)
20403220:	5bb6                	lw	s7,108(sp)
20403222:	5c26                	lw	s8,104(sp)
20403224:	5c96                	lw	s9,100(sp)
20403226:	5d06                	lw	s10,96(sp)
20403228:	4df6                	lw	s11,92(sp)
2040322a:	6149                	addi	sp,sp,144
2040322c:	8082                	ret
2040322e:	0001                	nop
20403230:	2c060963          	beqz	a2,20403502 <core_bench_state+0x822>
20403234:	00280f93          	addi	t6,a6,2
20403238:	2fc60063          	beq	a2,t3,20403518 <core_bench_state+0x838>
2040323c:	00284683          	lbu	a3,2(a6)
20403240:	887e                	mv	a6,t6
20403242:	b795                	j	204031a6 <core_bench_state+0x4c6>
20403244:	2a068a63          	beqz	a3,204034f8 <core_bench_state+0x818>
20403248:	00250f13          	addi	t5,a0,2
2040324c:	2c668063          	beq	a3,t1,2040350c <core_bench_state+0x82c>
20403250:	00254783          	lbu	a5,2(a0)
20403254:	857a                	mv	a0,t5
20403256:	b1f5                	j	20402f42 <core_bench_state+0x262>
20403258:	2c068c63          	beqz	a3,20403530 <core_bench_state+0x850>
2040325c:	00250f13          	addi	t5,a0,2
20403260:	2e668263          	beq	a3,t1,20403544 <core_bench_state+0x864>
20403264:	8fc2                	mv	t6,a6
20403266:	00254803          	lbu	a6,2(a0)
2040326a:	bef9                	j	20402e48 <core_bench_state+0x168>
2040326c:	2c060763          	beqz	a2,2040353a <core_bench_state+0x85a>
20403270:	00280f93          	addi	t6,a6,2
20403274:	2bc60863          	beq	a2,t3,20403524 <core_bench_state+0x844>
20403278:	829a                	mv	t0,t1
2040327a:	00284303          	lbu	t1,2(a6)
2040327e:	b53d                	j	204030ac <core_bench_state+0x3cc>
20403280:	83a2                	mv	t2,s0
20403282:	da0c90e3          	bnez	s9,20403022 <core_bench_state+0x342>
20403286:	bb79                	j	20403024 <core_bench_state+0x344>
20403288:	8342                	mv	t1,a6
2040328a:	4601                	li	a2,0
2040328c:	00130813          	addi	a6,t1,1
20403290:	00134683          	lbu	a3,1(t1)
20403294:	b3b5                	j	20403000 <core_bench_state+0x320>
20403296:	0001                	nop
20403298:	4401                	li	s0,0
2040329a:	b20c16e3          	bnez	s8,20402dc6 <core_bench_state+0xe6>
2040329e:	b62d                	j	20402dc8 <core_bench_state+0xe8>
204032a0:	882a                	mv	a6,a0
204032a2:	4681                	li	a3,0
204032a4:	00180513          	addi	a0,a6,1
204032a8:	00184783          	lbu	a5,1(a6)
204032ac:	bcf5                	j	20402da8 <core_bench_state+0xc8>
204032ae:	0001                	nop
204032b0:	887e                	mv	a6,t6
204032b2:	4681                	li	a3,0
204032b4:	4085                	li	ra,1
204032b6:	4f85                	li	t6,1
204032b8:	460d                	li	a2,3
204032ba:	b399                	j	20403000 <core_bench_state+0x320>
204032bc:	4785                	li	a5,1
204032be:	4085                	li	ra,1
204032c0:	4f85                	li	t6,1
204032c2:	4619                	li	a2,6
204032c4:	bb35                	j	20403000 <core_bench_state+0x320>
204032c6:	0001                	nop
204032c8:	4905                	li	s2,1
204032ca:	4285                	li	t0,1
204032cc:	4f05                	li	t5,1
204032ce:	4699                	li	a3,6
204032d0:	bce1                	j	20402da8 <core_bench_state+0xc8>
204032d2:	0001                	nop
204032d4:	857a                	mv	a0,t5
204032d6:	4781                	li	a5,0
204032d8:	4285                	li	t0,1
204032da:	4f05                	li	t5,1
204032dc:	468d                	li	a3,3
204032de:	b4e9                	j	20402da8 <core_bench_state+0xc8>
204032e0:	837e                	mv	t1,t6
204032e2:	4085                	li	ra,1
204032e4:	4f85                	li	t6,1
204032e6:	460d                	li	a2,3
204032e8:	00134683          	lbu	a3,1(t1)
204032ec:	bb11                	j	20403000 <core_bench_state+0x320>
204032ee:	0001                	nop
204032f0:	879a                	mv	a5,t1
204032f2:	8342                	mv	t1,a6
204032f4:	4085                	li	ra,1
204032f6:	883e                	mv	a6,a5
204032f8:	4f85                	li	t6,1
204032fa:	4785                	li	a5,1
204032fc:	4619                	li	a2,6
204032fe:	00134683          	lbu	a3,1(t1)
20403302:	b9fd                	j	20403000 <core_bench_state+0x320>
20403304:	87c2                	mv	a5,a6
20403306:	882a                	mv	a6,a0
20403308:	4905                	li	s2,1
2040330a:	853e                	mv	a0,a5
2040330c:	4285                	li	t0,1
2040330e:	4f05                	li	t5,1
20403310:	4699                	li	a3,6
20403312:	00184783          	lbu	a5,1(a6)
20403316:	bc49                	j	20402da8 <core_bench_state+0xc8>
20403318:	887a                	mv	a6,t5
2040331a:	4285                	li	t0,1
2040331c:	4f05                	li	t5,1
2040331e:	468d                	li	a3,3
20403320:	00184783          	lbu	a5,1(a6)
20403324:	b451                	j	20402da8 <core_bench_state+0xc8>
20403326:	0001                	nop
20403328:	4c85                	li	s9,1
2040332a:	4f85                	li	t6,1
2040332c:	4611                	li	a2,4
2040332e:	b9c9                	j	20403000 <core_bench_state+0x320>
20403330:	8542                	mv	a0,a6
20403332:	4781                	li	a5,0
20403334:	4f05                	li	t5,1
20403336:	4691                	li	a3,4
20403338:	bc85                	j	20402da8 <core_bench_state+0xc8>
2040333a:	0001                	nop
2040333c:	881a                	mv	a6,t1
2040333e:	4681                	li	a3,0
20403340:	4c05                	li	s8,1
20403342:	4785                	li	a5,1
20403344:	4085                	li	ra,1
20403346:	4f85                	li	t6,1
20403348:	461d                	li	a2,7
2040334a:	b95d                	j	20403000 <core_bench_state+0x320>
2040334c:	4c05                	li	s8,1
2040334e:	4785                	li	a5,1
20403350:	4085                	li	ra,1
20403352:	4f85                	li	t6,1
20403354:	461d                	li	a2,7
20403356:	b16d                	j	20403000 <core_bench_state+0x320>
20403358:	881a                	mv	a6,t1
2040335a:	4681                	li	a3,0
2040335c:	4f85                	li	t6,1
2040335e:	4611                	li	a2,4
20403360:	b145                	j	20403000 <core_bench_state+0x320>
20403362:	0001                	nop
20403364:	8542                	mv	a0,a6
20403366:	4781                	li	a5,0
20403368:	4b85                	li	s7,1
2040336a:	4905                	li	s2,1
2040336c:	4285                	li	t0,1
2040336e:	4f05                	li	t5,1
20403370:	469d                	li	a3,7
20403372:	bc1d                	j	20402da8 <core_bench_state+0xc8>
20403374:	4c05                	li	s8,1
20403376:	4f05                	li	t5,1
20403378:	4691                	li	a3,4
2040337a:	b43d                	j	20402da8 <core_bench_state+0xc8>
2040337c:	4b85                	li	s7,1
2040337e:	4905                	li	s2,1
20403380:	4285                	li	t0,1
20403382:	4f05                	li	t5,1
20403384:	469d                	li	a3,7
20403386:	b40d                	j	20402da8 <core_bench_state+0xc8>
20403388:	8816                	mv	a6,t0
2040338a:	4f85                	li	t6,1
2040338c:	4611                	li	a2,4
2040338e:	00134683          	lbu	a3,1(t1)
20403392:	b1bd                	j	20403000 <core_bench_state+0x320>
20403394:	4b85                	li	s7,1
20403396:	4905                	li	s2,1
20403398:	4285                	li	t0,1
2040339a:	4f05                	li	t5,1
2040339c:	469d                	li	a3,7
2040339e:	00184783          	lbu	a5,1(a6)
204033a2:	b419                	j	20402da8 <core_bench_state+0xc8>
204033a4:	882a                	mv	a6,a0
204033a6:	4c05                	li	s8,1
204033a8:	857e                	mv	a0,t6
204033aa:	4f05                	li	t5,1
204033ac:	4691                	li	a3,4
204033ae:	00184783          	lbu	a5,1(a6)
204033b2:	badd                	j	20402da8 <core_bench_state+0xc8>
204033b4:	882a                	mv	a6,a0
204033b6:	4b85                	li	s7,1
204033b8:	4905                	li	s2,1
204033ba:	4f05                	li	t5,1
204033bc:	4285                	li	t0,1
204033be:	469d                	li	a3,7
204033c0:	00180513          	addi	a0,a6,1
204033c4:	b5d5                	j	204032a8 <core_bench_state+0x5c8>
204033c6:	0001                	nop
204033c8:	4c05                	li	s8,1
204033ca:	4785                	li	a5,1
204033cc:	4085                	li	ra,1
204033ce:	4f85                	li	t6,1
204033d0:	461d                	li	a2,7
204033d2:	00134683          	lbu	a3,1(t1)
204033d6:	b12d                	j	20403000 <core_bench_state+0x320>
204033d8:	8342                	mv	t1,a6
204033da:	461d                	li	a2,7
204033dc:	4c05                	li	s8,1
204033de:	4085                	li	ra,1
204033e0:	4785                	li	a5,1
204033e2:	4f85                	li	t6,1
204033e4:	00130813          	addi	a6,t1,1
204033e8:	b565                	j	20403290 <core_bench_state+0x5b0>
204033ea:	0001                	nop
204033ec:	8342                	mv	t1,a6
204033ee:	4c85                	li	s9,1
204033f0:	8816                	mv	a6,t0
204033f2:	4f85                	li	t6,1
204033f4:	4611                	li	a2,4
204033f6:	00134683          	lbu	a3,1(t1)
204033fa:	b119                	j	20403000 <core_bench_state+0x320>
204033fc:	857e                	mv	a0,t6
204033fe:	4f05                	li	t5,1
20403400:	4691                	li	a3,4
20403402:	00184783          	lbu	a5,1(a6)
20403406:	b24d                	j	20402da8 <core_bench_state+0xc8>
20403408:	857e                	mv	a0,t6
2040340a:	4781                	li	a5,0
2040340c:	4d85                	li	s11,1
2040340e:	4f05                	li	t5,1
20403410:	4695                	li	a3,5
20403412:	ba59                	j	20402da8 <core_bench_state+0xc8>
20403414:	8816                	mv	a6,t0
20403416:	4681                	li	a3,0
20403418:	4d85                	li	s11,1
2040341a:	4f85                	li	t6,1
2040341c:	4615                	li	a2,5
2040341e:	b6cd                	j	20403000 <core_bench_state+0x320>
20403420:	8816                	mv	a6,t0
20403422:	4681                	li	a3,0
20403424:	4f85                	li	t6,1
20403426:	4611                	li	a2,4
20403428:	bee1                	j	20403000 <core_bench_state+0x320>
2040342a:	0001                	nop
2040342c:	857e                	mv	a0,t6
2040342e:	4781                	li	a5,0
20403430:	4f05                	li	t5,1
20403432:	4691                	li	a3,4
20403434:	ba95                	j	20402da8 <core_bench_state+0xc8>
20403436:	0001                	nop
20403438:	887e                	mv	a6,t6
2040343a:	857a                	mv	a0,t5
2040343c:	4d85                	li	s11,1
2040343e:	4f05                	li	t5,1
20403440:	4695                	li	a3,5
20403442:	00184783          	lbu	a5,1(a6)
20403446:	b28d                	j	20402da8 <core_bench_state+0xc8>
20403448:	8316                	mv	t1,t0
2040344a:	887e                	mv	a6,t6
2040344c:	4d85                	li	s11,1
2040344e:	4f85                	li	t6,1
20403450:	4615                	li	a2,5
20403452:	00134683          	lbu	a3,1(t1)
20403456:	b66d                	j	20403000 <core_bench_state+0x320>
20403458:	8316                	mv	t1,t0
2040345a:	4611                	li	a2,4
2040345c:	4f85                	li	t6,1
2040345e:	00130813          	addi	a6,t1,1
20403462:	b53d                	j	20403290 <core_bench_state+0x5b0>
20403464:	887e                	mv	a6,t6
20403466:	4f05                	li	t5,1
20403468:	4691                	li	a3,4
2040346a:	00180513          	addi	a0,a6,1
2040346e:	bd2d                	j	204032a8 <core_bench_state+0x5c8>
20403470:	887e                	mv	a6,t6
20403472:	4681                	li	a3,0
20403474:	4f85                	li	t6,1
20403476:	4615                	li	a2,5
20403478:	b661                	j	20403000 <core_bench_state+0x320>
2040347a:	857a                	mv	a0,t5
2040347c:	4781                	li	a5,0
2040347e:	4f05                	li	t5,1
20403480:	4695                	li	a3,5
20403482:	b21d                	j	20402da8 <core_bench_state+0xc8>
20403484:	837e                	mv	t1,t6
20403486:	4615                	li	a2,5
20403488:	4f85                	li	t6,1
2040348a:	00130813          	addi	a6,t1,1
2040348e:	b509                	j	20403290 <core_bench_state+0x5b0>
20403490:	887a                	mv	a6,t5
20403492:	4695                	li	a3,5
20403494:	4f05                	li	t5,1
20403496:	00180513          	addi	a0,a6,1
2040349a:	b539                	j	204032a8 <core_bench_state+0x5c8>
2040349c:	881a                	mv	a6,t1
2040349e:	4681                	li	a3,0
204034a0:	4f85                	li	t6,1
204034a2:	4609                	li	a2,2
204034a4:	beb1                	j	20403000 <core_bench_state+0x320>
204034a6:	4c85                	li	s9,1
204034a8:	4f85                	li	t6,1
204034aa:	4615                	li	a2,5
204034ac:	be91                	j	20403000 <core_bench_state+0x320>
204034ae:	4c05                	li	s8,1
204034b0:	4f05                	li	t5,1
204034b2:	4695                	li	a3,5
204034b4:	b8d5                	j	20402da8 <core_bench_state+0xc8>
204034b6:	8542                	mv	a0,a6
204034b8:	4781                	li	a5,0
204034ba:	4f05                	li	t5,1
204034bc:	4689                	li	a3,2
204034be:	b0ed                	j	20402da8 <core_bench_state+0xc8>
204034c0:	887e                	mv	a6,t6
204034c2:	4609                	li	a2,2
204034c4:	4f85                	li	t6,1
204034c6:	00134683          	lbu	a3,1(t1)
204034ca:	be1d                	j	20403000 <core_bench_state+0x320>
204034cc:	8342                	mv	t1,a6
204034ce:	4c85                	li	s9,1
204034d0:	887e                	mv	a6,t6
204034d2:	4615                	li	a2,5
204034d4:	4f85                	li	t6,1
204034d6:	00134683          	lbu	a3,1(t1)
204034da:	b61d                	j	20403000 <core_bench_state+0x320>
204034dc:	882a                	mv	a6,a0
204034de:	4c05                	li	s8,1
204034e0:	857a                	mv	a0,t5
204034e2:	4695                	li	a3,5
204034e4:	4f05                	li	t5,1
204034e6:	00184783          	lbu	a5,1(a6)
204034ea:	b87d                	j	20402da8 <core_bench_state+0xc8>
204034ec:	857a                	mv	a0,t5
204034ee:	4689                	li	a3,2
204034f0:	4f05                	li	t5,1
204034f2:	00184783          	lbu	a5,1(a6)
204034f6:	b84d                	j	20402da8 <core_bench_state+0xc8>
204034f8:	8542                	mv	a0,a6
204034fa:	4781                	li	a5,0
204034fc:	4f05                	li	t5,1
204034fe:	4689                	li	a3,2
20403500:	b065                	j	20402da8 <core_bench_state+0xc8>
20403502:	881a                	mv	a6,t1
20403504:	4681                	li	a3,0
20403506:	4f85                	li	t6,1
20403508:	4609                	li	a2,2
2040350a:	bcdd                	j	20403000 <core_bench_state+0x320>
2040350c:	857a                	mv	a0,t5
2040350e:	4689                	li	a3,2
20403510:	4f05                	li	t5,1
20403512:	00184783          	lbu	a5,1(a6)
20403516:	b849                	j	20402da8 <core_bench_state+0xc8>
20403518:	887e                	mv	a6,t6
2040351a:	4609                	li	a2,2
2040351c:	4f85                	li	t6,1
2040351e:	00134683          	lbu	a3,1(t1)
20403522:	bcf9                	j	20403000 <core_bench_state+0x320>
20403524:	887e                	mv	a6,t6
20403526:	4615                	li	a2,5
20403528:	4f85                	li	t6,1
2040352a:	00134683          	lbu	a3,1(t1)
2040352e:	bcc9                	j	20403000 <core_bench_state+0x320>
20403530:	8542                	mv	a0,a6
20403532:	4781                	li	a5,0
20403534:	4f05                	li	t5,1
20403536:	4695                	li	a3,5
20403538:	b885                	j	20402da8 <core_bench_state+0xc8>
2040353a:	881a                	mv	a6,t1
2040353c:	4681                	li	a3,0
2040353e:	4f85                	li	t6,1
20403540:	4615                	li	a2,5
20403542:	bc7d                	j	20403000 <core_bench_state+0x320>
20403544:	857a                	mv	a0,t5
20403546:	4695                	li	a3,5
20403548:	4f05                	li	t5,1
2040354a:	00184783          	lbu	a5,1(a6)
2040354e:	85bff06f          	j	20402da8 <core_bench_state+0xc8>
	...

20403560 <core_init_state>:
core_init_state():
20403560:	1101                	addi	sp,sp,-32
20403562:	ce22                	sw	s0,28(sp)
20403564:	cc26                	sw	s1,24(sp)
20403566:	c652                	sw	s4,12(sp)
20403568:	ca4a                	sw	s2,20(sp)
2040356a:	c84e                	sw	s3,16(sp)
2040356c:	c456                	sw	s5,8(sp)
2040356e:	4a01                	li	s4,0
20403570:	4781                	li	a5,0
20403572:	4701                	li	a4,0
20403574:	fff50693          	addi	a3,a0,-1
20403578:	4411                	li	s0,4
2040357a:	44a1                	li	s1,8
2040357c:	02c00393          	li	t2,44
20403580:	4e19                	li	t3,6
20403582:	4315                	li	t1,5
20403584:	488d                	li	a7,3
20403586:	481d                	li	a6,7
20403588:	02418293          	addi	t0,gp,36 # 80001294 <intpat>
2040358c:	01418f93          	addi	t6,gp,20 # 80001284 <floatpat>
20403590:	03418f13          	addi	t5,gp,52 # 800012a4 <scipat>
20403594:	00418e93          	addi	t4,gp,4 # 80001274 <errpat>
20403598:	00f70933          	add	s2,a4,a5
2040359c:	00190993          	addi	s3,s2,1
204035a0:	02d9dc63          	bge	s3,a3,204035d8 <core_init_state+0x78>
204035a4:	efe1                	bnez	a5,2040367c <core_init_state+0x11c>
204035a6:	0585                	addi	a1,a1,1
204035a8:	05c2                	slli	a1,a1,0x10
204035aa:	85c1                	srai	a1,a1,0x10
204035ac:	4035d793          	srai	a5,a1,0x3
204035b0:	0075f913          	andi	s2,a1,7
204035b4:	8b8d                	andi	a5,a5,3
204035b6:	0b2e6b63          	bltu	t3,s2,2040366c <core_init_state+0x10c>
204035ba:	12697363          	bgeu	s2,t1,204036e0 <core_init_state+0x180>
204035be:	11196b63          	bltu	s2,a7,204036d4 <core_init_state+0x174>
204035c2:	078a                	slli	a5,a5,0x2
204035c4:	97fe                	add	a5,a5,t6
204035c6:	0007aa03          	lw	s4,0(a5)
204035ca:	47a1                	li	a5,8
204035cc:	00f70933          	add	s2,a4,a5
204035d0:	00190993          	addi	s3,s2,1
204035d4:	fcd9c8e3          	blt	s3,a3,204035a4 <core_init_state+0x44>
204035d8:	00e607b3          	add	a5,a2,a4
204035dc:	962a                	add	a2,a2,a0
204035de:	06a75f63          	bge	a4,a0,2040365c <core_init_state+0xfc>
204035e2:	40f60733          	sub	a4,a2,a5
204035e6:	8b1d                	andi	a4,a4,7
204035e8:	c739                	beqz	a4,20403636 <core_init_state+0xd6>
204035ea:	4685                	li	a3,1
204035ec:	04d70063          	beq	a4,a3,2040362c <core_init_state+0xcc>
204035f0:	4689                	li	a3,2
204035f2:	02d70a63          	beq	a4,a3,20403626 <core_init_state+0xc6>
204035f6:	468d                	li	a3,3
204035f8:	02d70463          	beq	a4,a3,20403620 <core_init_state+0xc0>
204035fc:	4691                	li	a3,4
204035fe:	00d70e63          	beq	a4,a3,2040361a <core_init_state+0xba>
20403602:	4695                	li	a3,5
20403604:	00d70863          	beq	a4,a3,20403614 <core_init_state+0xb4>
20403608:	4699                	li	a3,6
2040360a:	0ed71163          	bne	a4,a3,204036ec <core_init_state+0x18c>
2040360e:	00078023          	sb	zero,0(a5)
20403612:	0785                	addi	a5,a5,1
20403614:	00078023          	sb	zero,0(a5)
20403618:	0785                	addi	a5,a5,1
2040361a:	00078023          	sb	zero,0(a5)
2040361e:	0785                	addi	a5,a5,1
20403620:	00078023          	sb	zero,0(a5)
20403624:	0785                	addi	a5,a5,1
20403626:	00078023          	sb	zero,0(a5)
2040362a:	0785                	addi	a5,a5,1
2040362c:	00078023          	sb	zero,0(a5)
20403630:	0785                	addi	a5,a5,1
20403632:	02c78563          	beq	a5,a2,2040365c <core_init_state+0xfc>
20403636:	00078023          	sb	zero,0(a5)
2040363a:	000780a3          	sb	zero,1(a5)
2040363e:	00078123          	sb	zero,2(a5)
20403642:	000781a3          	sb	zero,3(a5)
20403646:	00078223          	sb	zero,4(a5)
2040364a:	000782a3          	sb	zero,5(a5)
2040364e:	00078323          	sb	zero,6(a5)
20403652:	000783a3          	sb	zero,7(a5)
20403656:	07a1                	addi	a5,a5,8
20403658:	fcc79fe3          	bne	a5,a2,20403636 <core_init_state+0xd6>
2040365c:	4472                	lw	s0,28(sp)
2040365e:	44e2                	lw	s1,24(sp)
20403660:	4952                	lw	s2,20(sp)
20403662:	49c2                	lw	s3,16(sp)
20403664:	4a32                	lw	s4,12(sp)
20403666:	4aa2                	lw	s5,8(sp)
20403668:	6105                	addi	sp,sp,32
2040366a:	8082                	ret
2040366c:	07091463          	bne	s2,a6,204036d4 <core_init_state+0x174>
20403670:	078a                	slli	a5,a5,0x2
20403672:	97f6                	add	a5,a5,t4
20403674:	0007aa03          	lw	s4,0(a5)
20403678:	47a1                	li	a5,8
2040367a:	bf39                	j	20403598 <core_init_state+0x38>
2040367c:	000a4a83          	lbu	s5,0(s4)
20403680:	00e60933          	add	s2,a2,a4
20403684:	01590023          	sb	s5,0(s2)
20403688:	001a4a83          	lbu	s5,1(s4)
2040368c:	015900a3          	sb	s5,1(s2)
20403690:	002a4a83          	lbu	s5,2(s4)
20403694:	01590123          	sb	s5,2(s2)
20403698:	003a4a83          	lbu	s5,3(s4)
2040369c:	015901a3          	sb	s5,3(s2)
204036a0:	02878463          	beq	a5,s0,204036c8 <core_init_state+0x168>
204036a4:	004a4a83          	lbu	s5,4(s4)
204036a8:	01590223          	sb	s5,4(s2)
204036ac:	005a4a83          	lbu	s5,5(s4)
204036b0:	015902a3          	sb	s5,5(s2)
204036b4:	006a4a83          	lbu	s5,6(s4)
204036b8:	01590323          	sb	s5,6(s2)
204036bc:	00979663          	bne	a5,s1,204036c8 <core_init_state+0x168>
204036c0:	007a4a03          	lbu	s4,7(s4)
204036c4:	014903a3          	sb	s4,7(s2)
204036c8:	97b2                	add	a5,a5,a2
204036ca:	97ba                	add	a5,a5,a4
204036cc:	00778023          	sb	t2,0(a5)
204036d0:	874e                	mv	a4,s3
204036d2:	bdd1                	j	204035a6 <core_init_state+0x46>
204036d4:	078a                	slli	a5,a5,0x2
204036d6:	9796                	add	a5,a5,t0
204036d8:	0007aa03          	lw	s4,0(a5)
204036dc:	4791                	li	a5,4
204036de:	bd6d                	j	20403598 <core_init_state+0x38>
204036e0:	078a                	slli	a5,a5,0x2
204036e2:	97fa                	add	a5,a5,t5
204036e4:	0007aa03          	lw	s4,0(a5)
204036e8:	47a1                	li	a5,8
204036ea:	b57d                	j	20403598 <core_init_state+0x38>
204036ec:	00078023          	sb	zero,0(a5)
204036f0:	0785                	addi	a5,a5,1
204036f2:	bf31                	j	2040360e <core_init_state+0xae>
	...

20403700 <get_seed_32>:
get_seed_32():
20403700:	478d                	li	a5,3
20403702:	04f50563          	beq	a0,a5,2040374c <get_seed_32+0x4c>
20403706:	00a7dd63          	bge	a5,a0,20403720 <get_seed_32+0x20>
2040370a:	4791                	li	a5,4
2040370c:	04f50663          	beq	a0,a5,20403758 <get_seed_32+0x58>
20403710:	4795                	li	a5,5
20403712:	02f51363          	bne	a0,a5,20403738 <get_seed_32+0x38>
20403716:	800027b7          	lui	a5,0x80002
2040371a:	fd07a503          	lw	a0,-48(a5) # 80001fd0 <metal_segment_heap_target_end+0xffffe750>
2040371e:	8082                	ret
20403720:	4785                	li	a5,1
20403722:	00f50f63          	beq	a0,a5,20403740 <get_seed_32+0x40>
20403726:	4789                	li	a5,2
20403728:	00f51a63          	bne	a0,a5,2040373c <get_seed_32+0x3c>
2040372c:	800027b7          	lui	a5,0x80002
20403730:	fcc7a503          	lw	a0,-52(a5) # 80001fcc <metal_segment_heap_target_end+0xffffe74c>
20403734:	8082                	ret
20403736:	0001                	nop
20403738:	4501                	li	a0,0
2040373a:	8082                	ret
2040373c:	4501                	li	a0,0
2040373e:	8082                	ret
20403740:	800027b7          	lui	a5,0x80002
20403744:	fc87a503          	lw	a0,-56(a5) # 80001fc8 <metal_segment_heap_target_end+0xffffe748>
20403748:	8082                	ret
2040374a:	0001                	nop
2040374c:	800017b7          	lui	a5,0x80001
20403750:	a747a503          	lw	a0,-1420(a5) # 80000a74 <metal_segment_heap_target_end+0xffffd1f4>
20403754:	8082                	ret
20403756:	0001                	nop
20403758:	800017b7          	lui	a5,0x80001
2040375c:	a787a503          	lw	a0,-1416(a5) # 80000a78 <metal_segment_heap_target_end+0xffffd1f8>
20403760:	8082                	ret
	...

20403770 <crcu16>:
crcu16():
20403770:	00a5c633          	xor	a2,a1,a0
20403774:	0ff57693          	andi	a3,a0,255
20403778:	8a05                	andi	a2,a2,1
2040377a:	0016d713          	srli	a4,a3,0x1
2040377e:	0015d793          	srli	a5,a1,0x1
20403782:	c611                	beqz	a2,2040378e <crcu16+0x1e>
20403784:	7669                	lui	a2,0xffffa
20403786:	0605                	addi	a2,a2,1
20403788:	8fb1                	xor	a5,a5,a2
2040378a:	07c2                	slli	a5,a5,0x10
2040378c:	83c1                	srli	a5,a5,0x10
2040378e:	8f3d                	xor	a4,a4,a5
20403790:	00177613          	andi	a2,a4,1
20403794:	8385                	srli	a5,a5,0x1
20403796:	0026d713          	srli	a4,a3,0x2
2040379a:	c611                	beqz	a2,204037a6 <crcu16+0x36>
2040379c:	7669                	lui	a2,0xffffa
2040379e:	0605                	addi	a2,a2,1
204037a0:	8fb1                	xor	a5,a5,a2
204037a2:	07c2                	slli	a5,a5,0x10
204037a4:	83c1                	srli	a5,a5,0x10
204037a6:	8f3d                	xor	a4,a4,a5
204037a8:	8b05                	andi	a4,a4,1
204037aa:	0036d613          	srli	a2,a3,0x3
204037ae:	8385                	srli	a5,a5,0x1
204037b0:	c711                	beqz	a4,204037bc <crcu16+0x4c>
204037b2:	7769                	lui	a4,0xffffa
204037b4:	0705                	addi	a4,a4,1
204037b6:	8fb9                	xor	a5,a5,a4
204037b8:	07c2                	slli	a5,a5,0x10
204037ba:	83c1                	srli	a5,a5,0x10
204037bc:	8e3d                	xor	a2,a2,a5
204037be:	8a05                	andi	a2,a2,1
204037c0:	0046d713          	srli	a4,a3,0x4
204037c4:	8385                	srli	a5,a5,0x1
204037c6:	c611                	beqz	a2,204037d2 <crcu16+0x62>
204037c8:	7669                	lui	a2,0xffffa
204037ca:	0605                	addi	a2,a2,1
204037cc:	8fb1                	xor	a5,a5,a2
204037ce:	07c2                	slli	a5,a5,0x10
204037d0:	83c1                	srli	a5,a5,0x10
204037d2:	8f3d                	xor	a4,a4,a5
204037d4:	8b05                	andi	a4,a4,1
204037d6:	0056d613          	srli	a2,a3,0x5
204037da:	8385                	srli	a5,a5,0x1
204037dc:	c711                	beqz	a4,204037e8 <crcu16+0x78>
204037de:	7769                	lui	a4,0xffffa
204037e0:	0705                	addi	a4,a4,1
204037e2:	8fb9                	xor	a5,a5,a4
204037e4:	07c2                	slli	a5,a5,0x10
204037e6:	83c1                	srli	a5,a5,0x10
204037e8:	8e3d                	xor	a2,a2,a5
204037ea:	8a05                	andi	a2,a2,1
204037ec:	0066d713          	srli	a4,a3,0x6
204037f0:	8385                	srli	a5,a5,0x1
204037f2:	c611                	beqz	a2,204037fe <crcu16+0x8e>
204037f4:	7669                	lui	a2,0xffffa
204037f6:	0605                	addi	a2,a2,1
204037f8:	8fb1                	xor	a5,a5,a2
204037fa:	07c2                	slli	a5,a5,0x10
204037fc:	83c1                	srli	a5,a5,0x10
204037fe:	8f3d                	xor	a4,a4,a5
20403800:	8b05                	andi	a4,a4,1
20403802:	829d                	srli	a3,a3,0x7
20403804:	8385                	srli	a5,a5,0x1
20403806:	c711                	beqz	a4,20403812 <crcu16+0xa2>
20403808:	7769                	lui	a4,0xffffa
2040380a:	0705                	addi	a4,a4,1
2040380c:	8fb9                	xor	a5,a5,a4
2040380e:	07c2                	slli	a5,a5,0x10
20403810:	83c1                	srli	a5,a5,0x10
20403812:	0017f713          	andi	a4,a5,1
20403816:	8385                	srli	a5,a5,0x1
20403818:	00d70763          	beq	a4,a3,20403826 <crcu16+0xb6>
2040381c:	7769                	lui	a4,0xffffa
2040381e:	0705                	addi	a4,a4,1
20403820:	8fb9                	xor	a5,a5,a4
20403822:	07c2                	slli	a5,a5,0x10
20403824:	83c1                	srli	a5,a5,0x10
20403826:	8121                	srli	a0,a0,0x8
20403828:	00f54633          	xor	a2,a0,a5
2040382c:	0ff57713          	andi	a4,a0,255
20403830:	8a05                	andi	a2,a2,1
20403832:	00175693          	srli	a3,a4,0x1
20403836:	0017d513          	srli	a0,a5,0x1
2040383a:	c611                	beqz	a2,20403846 <crcu16+0xd6>
2040383c:	77e9                	lui	a5,0xffffa
2040383e:	0785                	addi	a5,a5,1
20403840:	8d3d                	xor	a0,a0,a5
20403842:	0542                	slli	a0,a0,0x10
20403844:	8141                	srli	a0,a0,0x10
20403846:	8ea9                	xor	a3,a3,a0
20403848:	8a85                	andi	a3,a3,1
2040384a:	00275793          	srli	a5,a4,0x2
2040384e:	8105                	srli	a0,a0,0x1
20403850:	c691                	beqz	a3,2040385c <crcu16+0xec>
20403852:	76e9                	lui	a3,0xffffa
20403854:	0685                	addi	a3,a3,1
20403856:	8d35                	xor	a0,a0,a3
20403858:	0542                	slli	a0,a0,0x10
2040385a:	8141                	srli	a0,a0,0x10
2040385c:	8fa9                	xor	a5,a5,a0
2040385e:	8b85                	andi	a5,a5,1
20403860:	00375693          	srli	a3,a4,0x3
20403864:	8105                	srli	a0,a0,0x1
20403866:	c791                	beqz	a5,20403872 <crcu16+0x102>
20403868:	77e9                	lui	a5,0xffffa
2040386a:	0785                	addi	a5,a5,1
2040386c:	8d3d                	xor	a0,a0,a5
2040386e:	0542                	slli	a0,a0,0x10
20403870:	8141                	srli	a0,a0,0x10
20403872:	8ea9                	xor	a3,a3,a0
20403874:	8a85                	andi	a3,a3,1
20403876:	00475793          	srli	a5,a4,0x4
2040387a:	8105                	srli	a0,a0,0x1
2040387c:	c691                	beqz	a3,20403888 <crcu16+0x118>
2040387e:	76e9                	lui	a3,0xffffa
20403880:	0685                	addi	a3,a3,1
20403882:	8d35                	xor	a0,a0,a3
20403884:	0542                	slli	a0,a0,0x10
20403886:	8141                	srli	a0,a0,0x10
20403888:	8fa9                	xor	a5,a5,a0
2040388a:	8b85                	andi	a5,a5,1
2040388c:	00575693          	srli	a3,a4,0x5
20403890:	8105                	srli	a0,a0,0x1
20403892:	c791                	beqz	a5,2040389e <crcu16+0x12e>
20403894:	77e9                	lui	a5,0xffffa
20403896:	0785                	addi	a5,a5,1
20403898:	8d3d                	xor	a0,a0,a5
2040389a:	0542                	slli	a0,a0,0x10
2040389c:	8141                	srli	a0,a0,0x10
2040389e:	8ea9                	xor	a3,a3,a0
204038a0:	8a85                	andi	a3,a3,1
204038a2:	00675793          	srli	a5,a4,0x6
204038a6:	8105                	srli	a0,a0,0x1
204038a8:	c691                	beqz	a3,204038b4 <crcu16+0x144>
204038aa:	76e9                	lui	a3,0xffffa
204038ac:	0685                	addi	a3,a3,1
204038ae:	8d35                	xor	a0,a0,a3
204038b0:	0542                	slli	a0,a0,0x10
204038b2:	8141                	srli	a0,a0,0x10
204038b4:	8fa9                	xor	a5,a5,a0
204038b6:	8b85                	andi	a5,a5,1
204038b8:	831d                	srli	a4,a4,0x7
204038ba:	8105                	srli	a0,a0,0x1
204038bc:	c791                	beqz	a5,204038c8 <crcu16+0x158>
204038be:	77e9                	lui	a5,0xffffa
204038c0:	0785                	addi	a5,a5,1
204038c2:	8d3d                	xor	a0,a0,a5
204038c4:	0542                	slli	a0,a0,0x10
204038c6:	8141                	srli	a0,a0,0x10
204038c8:	00157793          	andi	a5,a0,1
204038cc:	8105                	srli	a0,a0,0x1
204038ce:	00e78763          	beq	a5,a4,204038dc <crcu16+0x16c>
204038d2:	77e9                	lui	a5,0xffffa
204038d4:	0785                	addi	a5,a5,1
204038d6:	8d3d                	xor	a0,a0,a5
204038d8:	0542                	slli	a0,a0,0x10
204038da:	8141                	srli	a0,a0,0x10
204038dc:	8082                	ret
	...

204038f0 <crcu32>:
crcu32():
204038f0:	00a5c833          	xor	a6,a1,a0
204038f4:	0ff57693          	andi	a3,a0,255
204038f8:	01051713          	slli	a4,a0,0x10
204038fc:	00187813          	andi	a6,a6,1
20403900:	8341                	srli	a4,a4,0x10
20403902:	0016d613          	srli	a2,a3,0x1
20403906:	0015d793          	srli	a5,a1,0x1
2040390a:	00080763          	beqz	a6,20403918 <crcu32+0x28>
2040390e:	75e9                	lui	a1,0xffffa
20403910:	0585                	addi	a1,a1,1
20403912:	8fad                	xor	a5,a5,a1
20403914:	07c2                	slli	a5,a5,0x10
20403916:	83c1                	srli	a5,a5,0x10
20403918:	8e3d                	xor	a2,a2,a5
2040391a:	00167593          	andi	a1,a2,1
2040391e:	8385                	srli	a5,a5,0x1
20403920:	0026d613          	srli	a2,a3,0x2
20403924:	c591                	beqz	a1,20403930 <crcu32+0x40>
20403926:	75e9                	lui	a1,0xffffa
20403928:	0585                	addi	a1,a1,1
2040392a:	8fad                	xor	a5,a5,a1
2040392c:	07c2                	slli	a5,a5,0x10
2040392e:	83c1                	srli	a5,a5,0x10
20403930:	8e3d                	xor	a2,a2,a5
20403932:	8a05                	andi	a2,a2,1
20403934:	0036d593          	srli	a1,a3,0x3
20403938:	8385                	srli	a5,a5,0x1
2040393a:	c611                	beqz	a2,20403946 <crcu32+0x56>
2040393c:	7669                	lui	a2,0xffffa
2040393e:	0605                	addi	a2,a2,1
20403940:	8fb1                	xor	a5,a5,a2
20403942:	07c2                	slli	a5,a5,0x10
20403944:	83c1                	srli	a5,a5,0x10
20403946:	8dbd                	xor	a1,a1,a5
20403948:	8985                	andi	a1,a1,1
2040394a:	0046d613          	srli	a2,a3,0x4
2040394e:	8385                	srli	a5,a5,0x1
20403950:	c591                	beqz	a1,2040395c <crcu32+0x6c>
20403952:	75e9                	lui	a1,0xffffa
20403954:	0585                	addi	a1,a1,1
20403956:	8fad                	xor	a5,a5,a1
20403958:	07c2                	slli	a5,a5,0x10
2040395a:	83c1                	srli	a5,a5,0x10
2040395c:	8e3d                	xor	a2,a2,a5
2040395e:	8a05                	andi	a2,a2,1
20403960:	0056d593          	srli	a1,a3,0x5
20403964:	8385                	srli	a5,a5,0x1
20403966:	c611                	beqz	a2,20403972 <crcu32+0x82>
20403968:	7669                	lui	a2,0xffffa
2040396a:	0605                	addi	a2,a2,1
2040396c:	8fb1                	xor	a5,a5,a2
2040396e:	07c2                	slli	a5,a5,0x10
20403970:	83c1                	srli	a5,a5,0x10
20403972:	8dbd                	xor	a1,a1,a5
20403974:	8985                	andi	a1,a1,1
20403976:	0066d613          	srli	a2,a3,0x6
2040397a:	8385                	srli	a5,a5,0x1
2040397c:	c591                	beqz	a1,20403988 <crcu32+0x98>
2040397e:	75e9                	lui	a1,0xffffa
20403980:	0585                	addi	a1,a1,1
20403982:	8fad                	xor	a5,a5,a1
20403984:	07c2                	slli	a5,a5,0x10
20403986:	83c1                	srli	a5,a5,0x10
20403988:	8e3d                	xor	a2,a2,a5
2040398a:	8a05                	andi	a2,a2,1
2040398c:	829d                	srli	a3,a3,0x7
2040398e:	8385                	srli	a5,a5,0x1
20403990:	c611                	beqz	a2,2040399c <crcu32+0xac>
20403992:	7669                	lui	a2,0xffffa
20403994:	0605                	addi	a2,a2,1
20403996:	8fb1                	xor	a5,a5,a2
20403998:	07c2                	slli	a5,a5,0x10
2040399a:	83c1                	srli	a5,a5,0x10
2040399c:	0017f613          	andi	a2,a5,1
204039a0:	8385                	srli	a5,a5,0x1
204039a2:	00d60763          	beq	a2,a3,204039b0 <crcu32+0xc0>
204039a6:	76e9                	lui	a3,0xffffa
204039a8:	0685                	addi	a3,a3,1
204039aa:	8fb5                	xor	a5,a5,a3
204039ac:	07c2                	slli	a5,a5,0x10
204039ae:	83c1                	srli	a5,a5,0x10
204039b0:	8321                	srli	a4,a4,0x8
204039b2:	00e7c6b3          	xor	a3,a5,a4
204039b6:	8a85                	andi	a3,a3,1
204039b8:	0ff77713          	andi	a4,a4,255
204039bc:	00175613          	srli	a2,a4,0x1
204039c0:	8385                	srli	a5,a5,0x1
204039c2:	c691                	beqz	a3,204039ce <crcu32+0xde>
204039c4:	76e9                	lui	a3,0xffffa
204039c6:	0685                	addi	a3,a3,1
204039c8:	8fb5                	xor	a5,a5,a3
204039ca:	07c2                	slli	a5,a5,0x10
204039cc:	83c1                	srli	a5,a5,0x10
204039ce:	8e3d                	xor	a2,a2,a5
204039d0:	8a05                	andi	a2,a2,1
204039d2:	00275693          	srli	a3,a4,0x2
204039d6:	8385                	srli	a5,a5,0x1
204039d8:	c611                	beqz	a2,204039e4 <crcu32+0xf4>
204039da:	7669                	lui	a2,0xffffa
204039dc:	0605                	addi	a2,a2,1
204039de:	8fb1                	xor	a5,a5,a2
204039e0:	07c2                	slli	a5,a5,0x10
204039e2:	83c1                	srli	a5,a5,0x10
204039e4:	8ebd                	xor	a3,a3,a5
204039e6:	8a85                	andi	a3,a3,1
204039e8:	00375613          	srli	a2,a4,0x3
204039ec:	8385                	srli	a5,a5,0x1
204039ee:	c691                	beqz	a3,204039fa <crcu32+0x10a>
204039f0:	76e9                	lui	a3,0xffffa
204039f2:	0685                	addi	a3,a3,1
204039f4:	8fb5                	xor	a5,a5,a3
204039f6:	07c2                	slli	a5,a5,0x10
204039f8:	83c1                	srli	a5,a5,0x10
204039fa:	8e3d                	xor	a2,a2,a5
204039fc:	8a05                	andi	a2,a2,1
204039fe:	00475693          	srli	a3,a4,0x4
20403a02:	8385                	srli	a5,a5,0x1
20403a04:	c611                	beqz	a2,20403a10 <crcu32+0x120>
20403a06:	7669                	lui	a2,0xffffa
20403a08:	0605                	addi	a2,a2,1
20403a0a:	8fb1                	xor	a5,a5,a2
20403a0c:	07c2                	slli	a5,a5,0x10
20403a0e:	83c1                	srli	a5,a5,0x10
20403a10:	8ebd                	xor	a3,a3,a5
20403a12:	8a85                	andi	a3,a3,1
20403a14:	00575613          	srli	a2,a4,0x5
20403a18:	8385                	srli	a5,a5,0x1
20403a1a:	c691                	beqz	a3,20403a26 <crcu32+0x136>
20403a1c:	76e9                	lui	a3,0xffffa
20403a1e:	0685                	addi	a3,a3,1
20403a20:	8fb5                	xor	a5,a5,a3
20403a22:	07c2                	slli	a5,a5,0x10
20403a24:	83c1                	srli	a5,a5,0x10
20403a26:	8e3d                	xor	a2,a2,a5
20403a28:	8a05                	andi	a2,a2,1
20403a2a:	00675693          	srli	a3,a4,0x6
20403a2e:	8385                	srli	a5,a5,0x1
20403a30:	c611                	beqz	a2,20403a3c <crcu32+0x14c>
20403a32:	7669                	lui	a2,0xffffa
20403a34:	0605                	addi	a2,a2,1
20403a36:	8fb1                	xor	a5,a5,a2
20403a38:	07c2                	slli	a5,a5,0x10
20403a3a:	83c1                	srli	a5,a5,0x10
20403a3c:	8ebd                	xor	a3,a3,a5
20403a3e:	8a85                	andi	a3,a3,1
20403a40:	831d                	srli	a4,a4,0x7
20403a42:	8385                	srli	a5,a5,0x1
20403a44:	c691                	beqz	a3,20403a50 <crcu32+0x160>
20403a46:	76e9                	lui	a3,0xffffa
20403a48:	0685                	addi	a3,a3,1
20403a4a:	8fb5                	xor	a5,a5,a3
20403a4c:	07c2                	slli	a5,a5,0x10
20403a4e:	83c1                	srli	a5,a5,0x10
20403a50:	0017f693          	andi	a3,a5,1
20403a54:	8385                	srli	a5,a5,0x1
20403a56:	00e68763          	beq	a3,a4,20403a64 <crcu32+0x174>
20403a5a:	7769                	lui	a4,0xffffa
20403a5c:	0705                	addi	a4,a4,1
20403a5e:	8fb9                	xor	a5,a5,a4
20403a60:	07c2                	slli	a5,a5,0x10
20403a62:	83c1                	srli	a5,a5,0x10
20403a64:	8541                	srai	a0,a0,0x10
20403a66:	00a7c5b3          	xor	a1,a5,a0
20403a6a:	0ff57713          	andi	a4,a0,255
20403a6e:	01051693          	slli	a3,a0,0x10
20403a72:	8985                	andi	a1,a1,1
20403a74:	82c1                	srli	a3,a3,0x10
20403a76:	00175613          	srli	a2,a4,0x1
20403a7a:	0017d513          	srli	a0,a5,0x1
20403a7e:	c591                	beqz	a1,20403a8a <crcu32+0x19a>
20403a80:	77e9                	lui	a5,0xffffa
20403a82:	0785                	addi	a5,a5,1
20403a84:	8d3d                	xor	a0,a0,a5
20403a86:	0542                	slli	a0,a0,0x10
20403a88:	8141                	srli	a0,a0,0x10
20403a8a:	8e29                	xor	a2,a2,a0
20403a8c:	8a05                	andi	a2,a2,1
20403a8e:	00275793          	srli	a5,a4,0x2
20403a92:	8105                	srli	a0,a0,0x1
20403a94:	c611                	beqz	a2,20403aa0 <crcu32+0x1b0>
20403a96:	7669                	lui	a2,0xffffa
20403a98:	0605                	addi	a2,a2,1
20403a9a:	8d31                	xor	a0,a0,a2
20403a9c:	0542                	slli	a0,a0,0x10
20403a9e:	8141                	srli	a0,a0,0x10
20403aa0:	8fa9                	xor	a5,a5,a0
20403aa2:	8b85                	andi	a5,a5,1
20403aa4:	00375613          	srli	a2,a4,0x3
20403aa8:	8105                	srli	a0,a0,0x1
20403aaa:	c791                	beqz	a5,20403ab6 <crcu32+0x1c6>
20403aac:	77e9                	lui	a5,0xffffa
20403aae:	0785                	addi	a5,a5,1
20403ab0:	8d3d                	xor	a0,a0,a5
20403ab2:	0542                	slli	a0,a0,0x10
20403ab4:	8141                	srli	a0,a0,0x10
20403ab6:	8e29                	xor	a2,a2,a0
20403ab8:	8a05                	andi	a2,a2,1
20403aba:	00475793          	srli	a5,a4,0x4
20403abe:	8105                	srli	a0,a0,0x1
20403ac0:	c611                	beqz	a2,20403acc <crcu32+0x1dc>
20403ac2:	7669                	lui	a2,0xffffa
20403ac4:	0605                	addi	a2,a2,1
20403ac6:	8d31                	xor	a0,a0,a2
20403ac8:	0542                	slli	a0,a0,0x10
20403aca:	8141                	srli	a0,a0,0x10
20403acc:	8fa9                	xor	a5,a5,a0
20403ace:	8b85                	andi	a5,a5,1
20403ad0:	00575613          	srli	a2,a4,0x5
20403ad4:	8105                	srli	a0,a0,0x1
20403ad6:	c791                	beqz	a5,20403ae2 <crcu32+0x1f2>
20403ad8:	77e9                	lui	a5,0xffffa
20403ada:	0785                	addi	a5,a5,1
20403adc:	8d3d                	xor	a0,a0,a5
20403ade:	0542                	slli	a0,a0,0x10
20403ae0:	8141                	srli	a0,a0,0x10
20403ae2:	8e29                	xor	a2,a2,a0
20403ae4:	8a05                	andi	a2,a2,1
20403ae6:	00675793          	srli	a5,a4,0x6
20403aea:	8105                	srli	a0,a0,0x1
20403aec:	c611                	beqz	a2,20403af8 <crcu32+0x208>
20403aee:	7669                	lui	a2,0xffffa
20403af0:	0605                	addi	a2,a2,1
20403af2:	8d31                	xor	a0,a0,a2
20403af4:	0542                	slli	a0,a0,0x10
20403af6:	8141                	srli	a0,a0,0x10
20403af8:	8fa9                	xor	a5,a5,a0
20403afa:	8b85                	andi	a5,a5,1
20403afc:	831d                	srli	a4,a4,0x7
20403afe:	8105                	srli	a0,a0,0x1
20403b00:	c791                	beqz	a5,20403b0c <crcu32+0x21c>
20403b02:	77e9                	lui	a5,0xffffa
20403b04:	0785                	addi	a5,a5,1
20403b06:	8d3d                	xor	a0,a0,a5
20403b08:	0542                	slli	a0,a0,0x10
20403b0a:	8141                	srli	a0,a0,0x10
20403b0c:	00157793          	andi	a5,a0,1
20403b10:	8105                	srli	a0,a0,0x1
20403b12:	00e78763          	beq	a5,a4,20403b20 <crcu32+0x230>
20403b16:	77e9                	lui	a5,0xffffa
20403b18:	0785                	addi	a5,a5,1
20403b1a:	8d3d                	xor	a0,a0,a5
20403b1c:	0542                	slli	a0,a0,0x10
20403b1e:	8141                	srli	a0,a0,0x10
20403b20:	0086d793          	srli	a5,a3,0x8
20403b24:	00a7c733          	xor	a4,a5,a0
20403b28:	8b05                	andi	a4,a4,1
20403b2a:	0ff7f793          	andi	a5,a5,255
20403b2e:	0017d693          	srli	a3,a5,0x1
20403b32:	8105                	srli	a0,a0,0x1
20403b34:	c711                	beqz	a4,20403b40 <crcu32+0x250>
20403b36:	7769                	lui	a4,0xffffa
20403b38:	0705                	addi	a4,a4,1
20403b3a:	8d39                	xor	a0,a0,a4
20403b3c:	0542                	slli	a0,a0,0x10
20403b3e:	8141                	srli	a0,a0,0x10
20403b40:	8ea9                	xor	a3,a3,a0
20403b42:	8a85                	andi	a3,a3,1
20403b44:	0027d713          	srli	a4,a5,0x2
20403b48:	8105                	srli	a0,a0,0x1
20403b4a:	c691                	beqz	a3,20403b56 <crcu32+0x266>
20403b4c:	76e9                	lui	a3,0xffffa
20403b4e:	0685                	addi	a3,a3,1
20403b50:	8d35                	xor	a0,a0,a3
20403b52:	0542                	slli	a0,a0,0x10
20403b54:	8141                	srli	a0,a0,0x10
20403b56:	8f29                	xor	a4,a4,a0
20403b58:	8b05                	andi	a4,a4,1
20403b5a:	0037d693          	srli	a3,a5,0x3
20403b5e:	8105                	srli	a0,a0,0x1
20403b60:	c711                	beqz	a4,20403b6c <crcu32+0x27c>
20403b62:	7769                	lui	a4,0xffffa
20403b64:	0705                	addi	a4,a4,1
20403b66:	8d39                	xor	a0,a0,a4
20403b68:	0542                	slli	a0,a0,0x10
20403b6a:	8141                	srli	a0,a0,0x10
20403b6c:	8ea9                	xor	a3,a3,a0
20403b6e:	8a85                	andi	a3,a3,1
20403b70:	0047d713          	srli	a4,a5,0x4
20403b74:	8105                	srli	a0,a0,0x1
20403b76:	c691                	beqz	a3,20403b82 <crcu32+0x292>
20403b78:	76e9                	lui	a3,0xffffa
20403b7a:	0685                	addi	a3,a3,1
20403b7c:	8d35                	xor	a0,a0,a3
20403b7e:	0542                	slli	a0,a0,0x10
20403b80:	8141                	srli	a0,a0,0x10
20403b82:	8f29                	xor	a4,a4,a0
20403b84:	8b05                	andi	a4,a4,1
20403b86:	0057d693          	srli	a3,a5,0x5
20403b8a:	8105                	srli	a0,a0,0x1
20403b8c:	c711                	beqz	a4,20403b98 <crcu32+0x2a8>
20403b8e:	7769                	lui	a4,0xffffa
20403b90:	0705                	addi	a4,a4,1
20403b92:	8d39                	xor	a0,a0,a4
20403b94:	0542                	slli	a0,a0,0x10
20403b96:	8141                	srli	a0,a0,0x10
20403b98:	8ea9                	xor	a3,a3,a0
20403b9a:	8a85                	andi	a3,a3,1
20403b9c:	0067d713          	srli	a4,a5,0x6
20403ba0:	8105                	srli	a0,a0,0x1
20403ba2:	c691                	beqz	a3,20403bae <crcu32+0x2be>
20403ba4:	76e9                	lui	a3,0xffffa
20403ba6:	0685                	addi	a3,a3,1
20403ba8:	8d35                	xor	a0,a0,a3
20403baa:	0542                	slli	a0,a0,0x10
20403bac:	8141                	srli	a0,a0,0x10
20403bae:	8f29                	xor	a4,a4,a0
20403bb0:	8b05                	andi	a4,a4,1
20403bb2:	839d                	srli	a5,a5,0x7
20403bb4:	8105                	srli	a0,a0,0x1
20403bb6:	c711                	beqz	a4,20403bc2 <crcu32+0x2d2>
20403bb8:	7769                	lui	a4,0xffffa
20403bba:	0705                	addi	a4,a4,1
20403bbc:	8d39                	xor	a0,a0,a4
20403bbe:	0542                	slli	a0,a0,0x10
20403bc0:	8141                	srli	a0,a0,0x10
20403bc2:	00157713          	andi	a4,a0,1
20403bc6:	8105                	srli	a0,a0,0x1
20403bc8:	00f70763          	beq	a4,a5,20403bd6 <crcu32+0x2e6>
20403bcc:	77e9                	lui	a5,0xffffa
20403bce:	0785                	addi	a5,a5,1
20403bd0:	8d3d                	xor	a0,a0,a5
20403bd2:	0542                	slli	a0,a0,0x10
20403bd4:	8141                	srli	a0,a0,0x10
20403bd6:	8082                	ret
	...

20403bf0 <crc16>:
crc16():
20403bf0:	00a5c633          	xor	a2,a1,a0
20403bf4:	0ff57713          	andi	a4,a0,255
20403bf8:	01051793          	slli	a5,a0,0x10
20403bfc:	8a05                	andi	a2,a2,1
20403bfe:	83c1                	srli	a5,a5,0x10
20403c00:	00175693          	srli	a3,a4,0x1
20403c04:	0015d513          	srli	a0,a1,0x1
20403c08:	c611                	beqz	a2,20403c14 <crc16+0x24>
20403c0a:	75e9                	lui	a1,0xffffa
20403c0c:	0585                	addi	a1,a1,1
20403c0e:	8d2d                	xor	a0,a0,a1
20403c10:	0542                	slli	a0,a0,0x10
20403c12:	8141                	srli	a0,a0,0x10
20403c14:	8ea9                	xor	a3,a3,a0
20403c16:	0016f613          	andi	a2,a3,1
20403c1a:	8105                	srli	a0,a0,0x1
20403c1c:	00275693          	srli	a3,a4,0x2
20403c20:	c611                	beqz	a2,20403c2c <crc16+0x3c>
20403c22:	75e9                	lui	a1,0xffffa
20403c24:	0585                	addi	a1,a1,1
20403c26:	8d2d                	xor	a0,a0,a1
20403c28:	0542                	slli	a0,a0,0x10
20403c2a:	8141                	srli	a0,a0,0x10
20403c2c:	8ea9                	xor	a3,a3,a0
20403c2e:	8a85                	andi	a3,a3,1
20403c30:	00375613          	srli	a2,a4,0x3
20403c34:	8105                	srli	a0,a0,0x1
20403c36:	c691                	beqz	a3,20403c42 <crc16+0x52>
20403c38:	76e9                	lui	a3,0xffffa
20403c3a:	0685                	addi	a3,a3,1
20403c3c:	8d35                	xor	a0,a0,a3
20403c3e:	0542                	slli	a0,a0,0x10
20403c40:	8141                	srli	a0,a0,0x10
20403c42:	8e29                	xor	a2,a2,a0
20403c44:	8a05                	andi	a2,a2,1
20403c46:	00475693          	srli	a3,a4,0x4
20403c4a:	8105                	srli	a0,a0,0x1
20403c4c:	c611                	beqz	a2,20403c58 <crc16+0x68>
20403c4e:	7669                	lui	a2,0xffffa
20403c50:	0605                	addi	a2,a2,1
20403c52:	8d31                	xor	a0,a0,a2
20403c54:	0542                	slli	a0,a0,0x10
20403c56:	8141                	srli	a0,a0,0x10
20403c58:	8ea9                	xor	a3,a3,a0
20403c5a:	8a85                	andi	a3,a3,1
20403c5c:	00575613          	srli	a2,a4,0x5
20403c60:	8105                	srli	a0,a0,0x1
20403c62:	c691                	beqz	a3,20403c6e <crc16+0x7e>
20403c64:	76e9                	lui	a3,0xffffa
20403c66:	0685                	addi	a3,a3,1
20403c68:	8d35                	xor	a0,a0,a3
20403c6a:	0542                	slli	a0,a0,0x10
20403c6c:	8141                	srli	a0,a0,0x10
20403c6e:	8e29                	xor	a2,a2,a0
20403c70:	8a05                	andi	a2,a2,1
20403c72:	00675693          	srli	a3,a4,0x6
20403c76:	8105                	srli	a0,a0,0x1
20403c78:	c611                	beqz	a2,20403c84 <crc16+0x94>
20403c7a:	7669                	lui	a2,0xffffa
20403c7c:	0605                	addi	a2,a2,1
20403c7e:	8d31                	xor	a0,a0,a2
20403c80:	0542                	slli	a0,a0,0x10
20403c82:	8141                	srli	a0,a0,0x10
20403c84:	8ea9                	xor	a3,a3,a0
20403c86:	8a85                	andi	a3,a3,1
20403c88:	831d                	srli	a4,a4,0x7
20403c8a:	8105                	srli	a0,a0,0x1
20403c8c:	c691                	beqz	a3,20403c98 <crc16+0xa8>
20403c8e:	76e9                	lui	a3,0xffffa
20403c90:	0685                	addi	a3,a3,1
20403c92:	8d35                	xor	a0,a0,a3
20403c94:	0542                	slli	a0,a0,0x10
20403c96:	8141                	srli	a0,a0,0x10
20403c98:	00157693          	andi	a3,a0,1
20403c9c:	8105                	srli	a0,a0,0x1
20403c9e:	00e68763          	beq	a3,a4,20403cac <crc16+0xbc>
20403ca2:	7769                	lui	a4,0xffffa
20403ca4:	0705                	addi	a4,a4,1
20403ca6:	8d39                	xor	a0,a0,a4
20403ca8:	0542                	slli	a0,a0,0x10
20403caa:	8141                	srli	a0,a0,0x10
20403cac:	83a1                	srli	a5,a5,0x8
20403cae:	00a7c733          	xor	a4,a5,a0
20403cb2:	8b05                	andi	a4,a4,1
20403cb4:	0ff7f793          	andi	a5,a5,255
20403cb8:	0017d693          	srli	a3,a5,0x1
20403cbc:	8105                	srli	a0,a0,0x1
20403cbe:	c711                	beqz	a4,20403cca <crc16+0xda>
20403cc0:	7769                	lui	a4,0xffffa
20403cc2:	0705                	addi	a4,a4,1
20403cc4:	8d39                	xor	a0,a0,a4
20403cc6:	0542                	slli	a0,a0,0x10
20403cc8:	8141                	srli	a0,a0,0x10
20403cca:	8ea9                	xor	a3,a3,a0
20403ccc:	8a85                	andi	a3,a3,1
20403cce:	0027d713          	srli	a4,a5,0x2
20403cd2:	8105                	srli	a0,a0,0x1
20403cd4:	c691                	beqz	a3,20403ce0 <crc16+0xf0>
20403cd6:	76e9                	lui	a3,0xffffa
20403cd8:	0685                	addi	a3,a3,1
20403cda:	8d35                	xor	a0,a0,a3
20403cdc:	0542                	slli	a0,a0,0x10
20403cde:	8141                	srli	a0,a0,0x10
20403ce0:	8f29                	xor	a4,a4,a0
20403ce2:	8b05                	andi	a4,a4,1
20403ce4:	0037d693          	srli	a3,a5,0x3
20403ce8:	8105                	srli	a0,a0,0x1
20403cea:	c711                	beqz	a4,20403cf6 <crc16+0x106>
20403cec:	7769                	lui	a4,0xffffa
20403cee:	0705                	addi	a4,a4,1
20403cf0:	8d39                	xor	a0,a0,a4
20403cf2:	0542                	slli	a0,a0,0x10
20403cf4:	8141                	srli	a0,a0,0x10
20403cf6:	8ea9                	xor	a3,a3,a0
20403cf8:	8a85                	andi	a3,a3,1
20403cfa:	0047d713          	srli	a4,a5,0x4
20403cfe:	8105                	srli	a0,a0,0x1
20403d00:	c691                	beqz	a3,20403d0c <crc16+0x11c>
20403d02:	76e9                	lui	a3,0xffffa
20403d04:	0685                	addi	a3,a3,1
20403d06:	8d35                	xor	a0,a0,a3
20403d08:	0542                	slli	a0,a0,0x10
20403d0a:	8141                	srli	a0,a0,0x10
20403d0c:	8f29                	xor	a4,a4,a0
20403d0e:	8b05                	andi	a4,a4,1
20403d10:	0057d693          	srli	a3,a5,0x5
20403d14:	8105                	srli	a0,a0,0x1
20403d16:	c711                	beqz	a4,20403d22 <crc16+0x132>
20403d18:	7769                	lui	a4,0xffffa
20403d1a:	0705                	addi	a4,a4,1
20403d1c:	8d39                	xor	a0,a0,a4
20403d1e:	0542                	slli	a0,a0,0x10
20403d20:	8141                	srli	a0,a0,0x10
20403d22:	8ea9                	xor	a3,a3,a0
20403d24:	8a85                	andi	a3,a3,1
20403d26:	0067d713          	srli	a4,a5,0x6
20403d2a:	8105                	srli	a0,a0,0x1
20403d2c:	c691                	beqz	a3,20403d38 <crc16+0x148>
20403d2e:	76e9                	lui	a3,0xffffa
20403d30:	0685                	addi	a3,a3,1
20403d32:	8d35                	xor	a0,a0,a3
20403d34:	0542                	slli	a0,a0,0x10
20403d36:	8141                	srli	a0,a0,0x10
20403d38:	8f29                	xor	a4,a4,a0
20403d3a:	8b05                	andi	a4,a4,1
20403d3c:	839d                	srli	a5,a5,0x7
20403d3e:	8105                	srli	a0,a0,0x1
20403d40:	c711                	beqz	a4,20403d4c <crc16+0x15c>
20403d42:	7769                	lui	a4,0xffffa
20403d44:	0705                	addi	a4,a4,1
20403d46:	8d39                	xor	a0,a0,a4
20403d48:	0542                	slli	a0,a0,0x10
20403d4a:	8141                	srli	a0,a0,0x10
20403d4c:	00157713          	andi	a4,a0,1
20403d50:	8105                	srli	a0,a0,0x1
20403d52:	00f70763          	beq	a4,a5,20403d60 <crc16+0x170>
20403d56:	77e9                	lui	a5,0xffffa
20403d58:	0785                	addi	a5,a5,1
20403d5a:	8d3d                	xor	a0,a0,a5
20403d5c:	0542                	slli	a0,a0,0x10
20403d5e:	8141                	srli	a0,a0,0x10
20403d60:	8082                	ret
	...

20403d70 <check_data_types>:
check_data_types():
20403d70:	4501                	li	a0,0
20403d72:	8082                	ret
	...

20403d90 <start_time>:
start_time():
20403d90:	1141                	addi	sp,sp,-16
20403d92:	c606                	sw	ra,12(sp)
20403d94:	287d                	jal	20403e52 <clock>
20403d96:	40b2                	lw	ra,12(sp)
20403d98:	800027b7          	lui	a5,0x80002
20403d9c:	fca7aa23          	sw	a0,-44(a5) # 80001fd4 <metal_segment_heap_target_end+0xffffe754>
20403da0:	0141                	addi	sp,sp,16
20403da2:	8082                	ret
	...

20403db0 <stop_time>:
stop_time():
20403db0:	1141                	addi	sp,sp,-16
20403db2:	c606                	sw	ra,12(sp)
20403db4:	2879                	jal	20403e52 <clock>
20403db6:	40b2                	lw	ra,12(sp)
20403db8:	800027b7          	lui	a5,0x80002
20403dbc:	fca7ac23          	sw	a0,-40(a5) # 80001fd8 <metal_segment_heap_target_end+0xffffe758>
20403dc0:	0141                	addi	sp,sp,16
20403dc2:	8082                	ret
	...

20403dd0 <get_time>:
get_time():
20403dd0:	800027b7          	lui	a5,0x80002
20403dd4:	fd87a503          	lw	a0,-40(a5) # 80001fd8 <metal_segment_heap_target_end+0xffffe758>
20403dd8:	800027b7          	lui	a5,0x80002
20403ddc:	fd47a783          	lw	a5,-44(a5) # 80001fd4 <metal_segment_heap_target_end+0xffffe754>
20403de0:	8d1d                	sub	a0,a0,a5
20403de2:	8082                	ret
	...

20403e00 <time_in_secs>:
time_in_secs():
20403e00:	000f47b7          	lui	a5,0xf4
20403e04:	24078793          	addi	a5,a5,576 # f4240 <__stack_size+0xf3240>
20403e08:	02f54533          	div	a0,a0,a5
20403e0c:	8082                	ret
	...

20403e20 <portable_init>:
portable_init():
20403e20:	4785                	li	a5,1
20403e22:	00f50023          	sb	a5,0(a0)
20403e26:	8082                	ret
	...

20403e40 <portable_fini>:
portable_fini():
20403e40:	00050023          	sb	zero,0(a0)
20403e44:	8082                	ret
	...

20403e52 <clock>:
clock():
20403e52:	80c18793          	addi	a5,gp,-2036 # 80000a7c <_impure_ptr>
20403e56:	4388                	lw	a0,0(a5)
20403e58:	1101                	addi	sp,sp,-32
20403e5a:	858a                	mv	a1,sp
20403e5c:	ce06                	sw	ra,28(sp)
20403e5e:	2a15                	jal	20403f92 <_times_r>
20403e60:	57fd                	li	a5,-1
20403e62:	00f50963          	beq	a0,a5,20403e74 <clock+0x22>
20403e66:	4792                	lw	a5,4(sp)
20403e68:	4502                	lw	a0,0(sp)
20403e6a:	953e                	add	a0,a0,a5
20403e6c:	47a2                	lw	a5,8(sp)
20403e6e:	953e                	add	a0,a0,a5
20403e70:	47b2                	lw	a5,12(sp)
20403e72:	953e                	add	a0,a0,a5
20403e74:	40f2                	lw	ra,28(sp)
20403e76:	6105                	addi	sp,sp,32
20403e78:	8082                	ret

20403e7a <iprintf>:
printf():
20403e7a:	7139                	addi	sp,sp,-64
20403e7c:	da3e                	sw	a5,52(sp)
20403e7e:	d22e                	sw	a1,36(sp)
20403e80:	d432                	sw	a2,40(sp)
20403e82:	d636                	sw	a3,44(sp)
20403e84:	d83a                	sw	a4,48(sp)
20403e86:	dc42                	sw	a6,56(sp)
20403e88:	de46                	sw	a7,60(sp)
20403e8a:	80c18793          	addi	a5,gp,-2036 # 80000a7c <_impure_ptr>
20403e8e:	cc22                	sw	s0,24(sp)
20403e90:	4380                	lw	s0,0(a5)
20403e92:	ca26                	sw	s1,20(sp)
20403e94:	ce06                	sw	ra,28(sp)
20403e96:	84aa                	mv	s1,a0
20403e98:	c409                	beqz	s0,20403ea2 <iprintf+0x28>
20403e9a:	4c1c                	lw	a5,24(s0)
20403e9c:	e399                	bnez	a5,20403ea2 <iprintf+0x28>
20403e9e:	8522                	mv	a0,s0
20403ea0:	2311                	jal	204043a4 <__sinit>
20403ea2:	440c                	lw	a1,8(s0)
20403ea4:	1054                	addi	a3,sp,36
20403ea6:	8626                	mv	a2,s1
20403ea8:	8522                	mv	a0,s0
20403eaa:	c636                	sw	a3,12(sp)
20403eac:	15f000ef          	jal	ra,2040480a <_vfiprintf_r>
20403eb0:	40f2                	lw	ra,28(sp)
20403eb2:	4462                	lw	s0,24(sp)
20403eb4:	44d2                	lw	s1,20(sp)
20403eb6:	6121                	addi	sp,sp,64
20403eb8:	8082                	ret

20403eba <_puts_r>:
_puts_r():
20403eba:	1101                	addi	sp,sp,-32
20403ebc:	ca26                	sw	s1,20(sp)
20403ebe:	c84a                	sw	s2,16(sp)
20403ec0:	ce06                	sw	ra,28(sp)
20403ec2:	cc22                	sw	s0,24(sp)
20403ec4:	c64e                	sw	s3,12(sp)
20403ec6:	c452                	sw	s4,8(sp)
20403ec8:	84aa                	mv	s1,a0
20403eca:	892e                	mv	s2,a1
20403ecc:	c501                	beqz	a0,20403ed4 <_puts_r+0x1a>
20403ece:	4d1c                	lw	a5,24(a0)
20403ed0:	e391                	bnez	a5,20403ed4 <_puts_r+0x1a>
20403ed2:	29c9                	jal	204043a4 <__sinit>
20403ed4:	4c9c                	lw	a5,24(s1)
20403ed6:	4480                	lw	s0,8(s1)
20403ed8:	e399                	bnez	a5,20403ede <_puts_r+0x24>
20403eda:	8526                	mv	a0,s1
20403edc:	21e1                	jal	204043a4 <__sinit>
20403ede:	11418793          	addi	a5,gp,276 # 80001384 <__sf_fake_stdin>
20403ee2:	02f41c63          	bne	s0,a5,20403f1a <_puts_r+0x60>
20403ee6:	40c0                	lw	s0,4(s1)
20403ee8:	00c45783          	lhu	a5,12(s0) # fffff00c <metal_segment_heap_target_end+0x7fffb78c>
20403eec:	8ba1                	andi	a5,a5,8
20403eee:	c3b1                	beqz	a5,20403f32 <_puts_r+0x78>
20403ef0:	481c                	lw	a5,16(s0)
20403ef2:	c3a1                	beqz	a5,20403f32 <_puts_r+0x78>
20403ef4:	59fd                	li	s3,-1
20403ef6:	4a29                	li	s4,10
20403ef8:	441c                	lw	a5,8(s0)
20403efa:	00094583          	lbu	a1,0(s2)
20403efe:	17fd                	addi	a5,a5,-1
20403f00:	e5b1                	bnez	a1,20403f4c <_puts_r+0x92>
20403f02:	c41c                	sw	a5,8(s0)
20403f04:	0607da63          	bgez	a5,20403f78 <_puts_r+0xbe>
20403f08:	8622                	mv	a2,s0
20403f0a:	45a9                	li	a1,10
20403f0c:	8526                	mv	a0,s1
20403f0e:	2069                	jal	20403f98 <__swbuf_r>
20403f10:	57fd                	li	a5,-1
20403f12:	02f50463          	beq	a0,a5,20403f3a <_puts_r+0x80>
20403f16:	4529                	li	a0,10
20403f18:	a015                	j	20403f3c <_puts_r+0x82>
20403f1a:	13418793          	addi	a5,gp,308 # 800013a4 <__sf_fake_stdout>
20403f1e:	00f41463          	bne	s0,a5,20403f26 <_puts_r+0x6c>
20403f22:	4480                	lw	s0,8(s1)
20403f24:	b7d1                	j	20403ee8 <_puts_r+0x2e>
20403f26:	0f418793          	addi	a5,gp,244 # 80001364 <__sf_fake_stderr>
20403f2a:	faf41fe3          	bne	s0,a5,20403ee8 <_puts_r+0x2e>
20403f2e:	44c0                	lw	s0,12(s1)
20403f30:	bf65                	j	20403ee8 <_puts_r+0x2e>
20403f32:	85a2                	mv	a1,s0
20403f34:	8526                	mv	a0,s1
20403f36:	2a19                	jal	2040404c <__swsetup_r>
20403f38:	dd55                	beqz	a0,20403ef4 <_puts_r+0x3a>
20403f3a:	557d                	li	a0,-1
20403f3c:	40f2                	lw	ra,28(sp)
20403f3e:	4462                	lw	s0,24(sp)
20403f40:	44d2                	lw	s1,20(sp)
20403f42:	4942                	lw	s2,16(sp)
20403f44:	49b2                	lw	s3,12(sp)
20403f46:	4a22                	lw	s4,8(sp)
20403f48:	6105                	addi	sp,sp,32
20403f4a:	8082                	ret
20403f4c:	c41c                	sw	a5,8(s0)
20403f4e:	0905                	addi	s2,s2,1
20403f50:	0007d763          	bgez	a5,20403f5e <_puts_r+0xa4>
20403f54:	4c18                	lw	a4,24(s0)
20403f56:	00e7cb63          	blt	a5,a4,20403f6c <_puts_r+0xb2>
20403f5a:	01458963          	beq	a1,s4,20403f6c <_puts_r+0xb2>
20403f5e:	401c                	lw	a5,0(s0)
20403f60:	00178713          	addi	a4,a5,1
20403f64:	c018                	sw	a4,0(s0)
20403f66:	00b78023          	sb	a1,0(a5)
20403f6a:	b779                	j	20403ef8 <_puts_r+0x3e>
20403f6c:	8622                	mv	a2,s0
20403f6e:	8526                	mv	a0,s1
20403f70:	2025                	jal	20403f98 <__swbuf_r>
20403f72:	f93513e3          	bne	a0,s3,20403ef8 <_puts_r+0x3e>
20403f76:	b7d1                	j	20403f3a <_puts_r+0x80>
20403f78:	401c                	lw	a5,0(s0)
20403f7a:	00178713          	addi	a4,a5,1
20403f7e:	c018                	sw	a4,0(s0)
20403f80:	4729                	li	a4,10
20403f82:	00e78023          	sb	a4,0(a5)
20403f86:	bf41                	j	20403f16 <_puts_r+0x5c>

20403f88 <puts>:
puts():
20403f88:	80c18793          	addi	a5,gp,-2036 # 80000a7c <_impure_ptr>
20403f8c:	85aa                	mv	a1,a0
20403f8e:	4388                	lw	a0,0(a5)
20403f90:	b72d                	j	20403eba <_puts_r>

20403f92 <_times_r>:
_times_r():
20403f92:	852e                	mv	a0,a1
20403f94:	1820106f          	j	20405116 <_times>

20403f98 <__swbuf_r>:
__swbuf_r():
20403f98:	1101                	addi	sp,sp,-32
20403f9a:	cc22                	sw	s0,24(sp)
20403f9c:	ca26                	sw	s1,20(sp)
20403f9e:	c84a                	sw	s2,16(sp)
20403fa0:	ce06                	sw	ra,28(sp)
20403fa2:	c64e                	sw	s3,12(sp)
20403fa4:	84aa                	mv	s1,a0
20403fa6:	892e                	mv	s2,a1
20403fa8:	8432                	mv	s0,a2
20403faa:	c501                	beqz	a0,20403fb2 <__swbuf_r+0x1a>
20403fac:	4d1c                	lw	a5,24(a0)
20403fae:	e391                	bnez	a5,20403fb2 <__swbuf_r+0x1a>
20403fb0:	2ed5                	jal	204043a4 <__sinit>
20403fb2:	11418793          	addi	a5,gp,276 # 80001384 <__sf_fake_stdin>
20403fb6:	06f41963          	bne	s0,a5,20404028 <__swbuf_r+0x90>
20403fba:	40c0                	lw	s0,4(s1)
20403fbc:	4c1c                	lw	a5,24(s0)
20403fbe:	c41c                	sw	a5,8(s0)
20403fc0:	00c45783          	lhu	a5,12(s0)
20403fc4:	8ba1                	andi	a5,a5,8
20403fc6:	cfad                	beqz	a5,20404040 <__swbuf_r+0xa8>
20403fc8:	481c                	lw	a5,16(s0)
20403fca:	cbbd                	beqz	a5,20404040 <__swbuf_r+0xa8>
20403fcc:	481c                	lw	a5,16(s0)
20403fce:	4008                	lw	a0,0(s0)
20403fd0:	0ff97993          	andi	s3,s2,255
20403fd4:	0ff97913          	andi	s2,s2,255
20403fd8:	8d1d                	sub	a0,a0,a5
20403fda:	485c                	lw	a5,20(s0)
20403fdc:	00f54663          	blt	a0,a5,20403fe8 <__swbuf_r+0x50>
20403fe0:	85a2                	mv	a1,s0
20403fe2:	8526                	mv	a0,s1
20403fe4:	2c4d                	jal	20404296 <_fflush_r>
20403fe6:	e12d                	bnez	a0,20404048 <__swbuf_r+0xb0>
20403fe8:	441c                	lw	a5,8(s0)
20403fea:	0505                	addi	a0,a0,1
20403fec:	17fd                	addi	a5,a5,-1
20403fee:	c41c                	sw	a5,8(s0)
20403ff0:	401c                	lw	a5,0(s0)
20403ff2:	00178713          	addi	a4,a5,1
20403ff6:	c018                	sw	a4,0(s0)
20403ff8:	01378023          	sb	s3,0(a5)
20403ffc:	485c                	lw	a5,20(s0)
20403ffe:	00a78963          	beq	a5,a0,20404010 <__swbuf_r+0x78>
20404002:	00c45783          	lhu	a5,12(s0)
20404006:	8b85                	andi	a5,a5,1
20404008:	cb81                	beqz	a5,20404018 <__swbuf_r+0x80>
2040400a:	47a9                	li	a5,10
2040400c:	00f91663          	bne	s2,a5,20404018 <__swbuf_r+0x80>
20404010:	85a2                	mv	a1,s0
20404012:	8526                	mv	a0,s1
20404014:	2449                	jal	20404296 <_fflush_r>
20404016:	e90d                	bnez	a0,20404048 <__swbuf_r+0xb0>
20404018:	40f2                	lw	ra,28(sp)
2040401a:	4462                	lw	s0,24(sp)
2040401c:	854a                	mv	a0,s2
2040401e:	44d2                	lw	s1,20(sp)
20404020:	4942                	lw	s2,16(sp)
20404022:	49b2                	lw	s3,12(sp)
20404024:	6105                	addi	sp,sp,32
20404026:	8082                	ret
20404028:	13418793          	addi	a5,gp,308 # 800013a4 <__sf_fake_stdout>
2040402c:	00f41463          	bne	s0,a5,20404034 <__swbuf_r+0x9c>
20404030:	4480                	lw	s0,8(s1)
20404032:	b769                	j	20403fbc <__swbuf_r+0x24>
20404034:	0f418793          	addi	a5,gp,244 # 80001364 <__sf_fake_stderr>
20404038:	f8f412e3          	bne	s0,a5,20403fbc <__swbuf_r+0x24>
2040403c:	44c0                	lw	s0,12(s1)
2040403e:	bfbd                	j	20403fbc <__swbuf_r+0x24>
20404040:	85a2                	mv	a1,s0
20404042:	8526                	mv	a0,s1
20404044:	2021                	jal	2040404c <__swsetup_r>
20404046:	d159                	beqz	a0,20403fcc <__swbuf_r+0x34>
20404048:	597d                	li	s2,-1
2040404a:	b7f9                	j	20404018 <__swbuf_r+0x80>

2040404c <__swsetup_r>:
__swsetup_r():
2040404c:	1141                	addi	sp,sp,-16
2040404e:	80c18793          	addi	a5,gp,-2036 # 80000a7c <_impure_ptr>
20404052:	c226                	sw	s1,4(sp)
20404054:	4384                	lw	s1,0(a5)
20404056:	c422                	sw	s0,8(sp)
20404058:	c04a                	sw	s2,0(sp)
2040405a:	c606                	sw	ra,12(sp)
2040405c:	892a                	mv	s2,a0
2040405e:	842e                	mv	s0,a1
20404060:	c489                	beqz	s1,2040406a <__swsetup_r+0x1e>
20404062:	4c9c                	lw	a5,24(s1)
20404064:	e399                	bnez	a5,2040406a <__swsetup_r+0x1e>
20404066:	8526                	mv	a0,s1
20404068:	2e35                	jal	204043a4 <__sinit>
2040406a:	11418793          	addi	a5,gp,276 # 80001384 <__sf_fake_stdin>
2040406e:	02f41c63          	bne	s0,a5,204040a6 <__swsetup_r+0x5a>
20404072:	40c0                	lw	s0,4(s1)
20404074:	00c41703          	lh	a4,12(s0)
20404078:	01071793          	slli	a5,a4,0x10
2040407c:	83c1                	srli	a5,a5,0x10
2040407e:	0087f693          	andi	a3,a5,8
20404082:	eab5                	bnez	a3,204040f6 <__swsetup_r+0xaa>
20404084:	0107f693          	andi	a3,a5,16
20404088:	ea9d                	bnez	a3,204040be <__swsetup_r+0x72>
2040408a:	47a5                	li	a5,9
2040408c:	00f92023          	sw	a5,0(s2)
20404090:	04076713          	ori	a4,a4,64
20404094:	00e41623          	sh	a4,12(s0)
20404098:	557d                	li	a0,-1
2040409a:	40b2                	lw	ra,12(sp)
2040409c:	4422                	lw	s0,8(sp)
2040409e:	4492                	lw	s1,4(sp)
204040a0:	4902                	lw	s2,0(sp)
204040a2:	0141                	addi	sp,sp,16
204040a4:	8082                	ret
204040a6:	13418793          	addi	a5,gp,308 # 800013a4 <__sf_fake_stdout>
204040aa:	00f41463          	bne	s0,a5,204040b2 <__swsetup_r+0x66>
204040ae:	4480                	lw	s0,8(s1)
204040b0:	b7d1                	j	20404074 <__swsetup_r+0x28>
204040b2:	0f418793          	addi	a5,gp,244 # 80001364 <__sf_fake_stderr>
204040b6:	faf41fe3          	bne	s0,a5,20404074 <__swsetup_r+0x28>
204040ba:	44c0                	lw	s0,12(s1)
204040bc:	bf65                	j	20404074 <__swsetup_r+0x28>
204040be:	8b91                	andi	a5,a5,4
204040c0:	c78d                	beqz	a5,204040ea <__swsetup_r+0x9e>
204040c2:	584c                	lw	a1,52(s0)
204040c4:	c989                	beqz	a1,204040d6 <__swsetup_r+0x8a>
204040c6:	04440793          	addi	a5,s0,68
204040ca:	00f58463          	beq	a1,a5,204040d2 <__swsetup_r+0x86>
204040ce:	854a                	mv	a0,s2
204040d0:	2391                	jal	20404614 <_free_r>
204040d2:	02042a23          	sw	zero,52(s0)
204040d6:	00c45783          	lhu	a5,12(s0)
204040da:	00042223          	sw	zero,4(s0)
204040de:	fdb7f793          	andi	a5,a5,-37
204040e2:	00f41623          	sh	a5,12(s0)
204040e6:	481c                	lw	a5,16(s0)
204040e8:	c01c                	sw	a5,0(s0)
204040ea:	00c45783          	lhu	a5,12(s0)
204040ee:	0087e793          	ori	a5,a5,8
204040f2:	00f41623          	sh	a5,12(s0)
204040f6:	481c                	lw	a5,16(s0)
204040f8:	ef81                	bnez	a5,20404110 <__swsetup_r+0xc4>
204040fa:	00c45783          	lhu	a5,12(s0)
204040fe:	20000713          	li	a4,512
20404102:	2807f793          	andi	a5,a5,640
20404106:	00e78563          	beq	a5,a4,20404110 <__swsetup_r+0xc4>
2040410a:	85a2                	mv	a1,s0
2040410c:	854a                	mv	a0,s2
2040410e:	29a9                	jal	20404568 <__smakebuf_r>
20404110:	00c45783          	lhu	a5,12(s0)
20404114:	0017f713          	andi	a4,a5,1
20404118:	c705                	beqz	a4,20404140 <__swsetup_r+0xf4>
2040411a:	485c                	lw	a5,20(s0)
2040411c:	00042423          	sw	zero,8(s0)
20404120:	40f007b3          	neg	a5,a5
20404124:	cc1c                	sw	a5,24(s0)
20404126:	481c                	lw	a5,16(s0)
20404128:	4501                	li	a0,0
2040412a:	fba5                	bnez	a5,2040409a <__swsetup_r+0x4e>
2040412c:	00c41783          	lh	a5,12(s0)
20404130:	0807f713          	andi	a4,a5,128
20404134:	d33d                	beqz	a4,2040409a <__swsetup_r+0x4e>
20404136:	0407e793          	ori	a5,a5,64
2040413a:	00f41623          	sh	a5,12(s0)
2040413e:	bfa9                	j	20404098 <__swsetup_r+0x4c>
20404140:	8b89                	andi	a5,a5,2
20404142:	4701                	li	a4,0
20404144:	e391                	bnez	a5,20404148 <__swsetup_r+0xfc>
20404146:	4858                	lw	a4,20(s0)
20404148:	c418                	sw	a4,8(s0)
2040414a:	bff1                	j	20404126 <__swsetup_r+0xda>

2040414c <__sflush_r>:
__sflush_r():
2040414c:	00c5d783          	lhu	a5,12(a1) # ffffa00c <metal_segment_heap_target_end+0x7fff678c>
20404150:	1101                	addi	sp,sp,-32
20404152:	cc22                	sw	s0,24(sp)
20404154:	ca26                	sw	s1,20(sp)
20404156:	ce06                	sw	ra,28(sp)
20404158:	c84a                	sw	s2,16(sp)
2040415a:	c64e                	sw	s3,12(sp)
2040415c:	0087f713          	andi	a4,a5,8
20404160:	84aa                	mv	s1,a0
20404162:	842e                	mv	s0,a1
20404164:	e765                	bnez	a4,2040424c <__sflush_r+0x100>
20404166:	41d8                	lw	a4,4(a1)
20404168:	00e04763          	bgtz	a4,20404176 <__sflush_r+0x2a>
2040416c:	41b8                	lw	a4,64(a1)
2040416e:	00e04463          	bgtz	a4,20404176 <__sflush_r+0x2a>
20404172:	4501                	li	a0,0
20404174:	a0c1                	j	20404234 <__sflush_r+0xe8>
20404176:	5458                	lw	a4,44(s0)
20404178:	df6d                	beqz	a4,20404172 <__sflush_r+0x26>
2040417a:	0004a903          	lw	s2,0(s1)
2040417e:	01379693          	slli	a3,a5,0x13
20404182:	0004a023          	sw	zero,0(s1)
20404186:	0606de63          	bgez	a3,20404202 <__sflush_r+0xb6>
2040418a:	4868                	lw	a0,84(s0)
2040418c:	00c45783          	lhu	a5,12(s0)
20404190:	8b91                	andi	a5,a5,4
20404192:	c799                	beqz	a5,204041a0 <__sflush_r+0x54>
20404194:	405c                	lw	a5,4(s0)
20404196:	8d1d                	sub	a0,a0,a5
20404198:	585c                	lw	a5,52(s0)
2040419a:	c399                	beqz	a5,204041a0 <__sflush_r+0x54>
2040419c:	403c                	lw	a5,64(s0)
2040419e:	8d1d                	sub	a0,a0,a5
204041a0:	545c                	lw	a5,44(s0)
204041a2:	500c                	lw	a1,32(s0)
204041a4:	862a                	mv	a2,a0
204041a6:	4681                	li	a3,0
204041a8:	8526                	mv	a0,s1
204041aa:	9782                	jalr	a5
204041ac:	57fd                	li	a5,-1
204041ae:	00c45703          	lhu	a4,12(s0)
204041b2:	00f51d63          	bne	a0,a5,204041cc <__sflush_r+0x80>
204041b6:	4094                	lw	a3,0(s1)
204041b8:	47f5                	li	a5,29
204041ba:	08d7e463          	bltu	a5,a3,20404242 <__sflush_r+0xf6>
204041be:	204007b7          	lui	a5,0x20400
204041c2:	0785                	addi	a5,a5,1
204041c4:	00d7d7b3          	srl	a5,a5,a3
204041c8:	8b85                	andi	a5,a5,1
204041ca:	cfa5                	beqz	a5,20404242 <__sflush_r+0xf6>
204041cc:	481c                	lw	a5,16(s0)
204041ce:	00042223          	sw	zero,4(s0)
204041d2:	c01c                	sw	a5,0(s0)
204041d4:	01371793          	slli	a5,a4,0x13
204041d8:	0007d863          	bgez	a5,204041e8 <__sflush_r+0x9c>
204041dc:	57fd                	li	a5,-1
204041de:	00f51463          	bne	a0,a5,204041e6 <__sflush_r+0x9a>
204041e2:	409c                	lw	a5,0(s1)
204041e4:	e391                	bnez	a5,204041e8 <__sflush_r+0x9c>
204041e6:	c868                	sw	a0,84(s0)
204041e8:	584c                	lw	a1,52(s0)
204041ea:	0124a023          	sw	s2,0(s1)
204041ee:	d1d1                	beqz	a1,20404172 <__sflush_r+0x26>
204041f0:	04440793          	addi	a5,s0,68
204041f4:	00f58463          	beq	a1,a5,204041fc <__sflush_r+0xb0>
204041f8:	8526                	mv	a0,s1
204041fa:	2929                	jal	20404614 <_free_r>
204041fc:	02042a23          	sw	zero,52(s0)
20404200:	bf8d                	j	20404172 <__sflush_r+0x26>
20404202:	500c                	lw	a1,32(s0)
20404204:	4685                	li	a3,1
20404206:	4601                	li	a2,0
20404208:	8526                	mv	a0,s1
2040420a:	9702                	jalr	a4
2040420c:	57fd                	li	a5,-1
2040420e:	f6f51fe3          	bne	a0,a5,2040418c <__sflush_r+0x40>
20404212:	409c                	lw	a5,0(s1)
20404214:	dfa5                	beqz	a5,2040418c <__sflush_r+0x40>
20404216:	4775                	li	a4,29
20404218:	00e78563          	beq	a5,a4,20404222 <__sflush_r+0xd6>
2040421c:	4759                	li	a4,22
2040421e:	00e79563          	bne	a5,a4,20404228 <__sflush_r+0xdc>
20404222:	0124a023          	sw	s2,0(s1)
20404226:	b7b1                	j	20404172 <__sflush_r+0x26>
20404228:	00c45783          	lhu	a5,12(s0)
2040422c:	0407e793          	ori	a5,a5,64
20404230:	00f41623          	sh	a5,12(s0)
20404234:	40f2                	lw	ra,28(sp)
20404236:	4462                	lw	s0,24(sp)
20404238:	44d2                	lw	s1,20(sp)
2040423a:	4942                	lw	s2,16(sp)
2040423c:	49b2                	lw	s3,12(sp)
2040423e:	6105                	addi	sp,sp,32
20404240:	8082                	ret
20404242:	04076713          	ori	a4,a4,64
20404246:	00e41623          	sh	a4,12(s0)
2040424a:	b7ed                	j	20404234 <__sflush_r+0xe8>
2040424c:	0105a983          	lw	s3,16(a1)
20404250:	f20981e3          	beqz	s3,20404172 <__sflush_r+0x26>
20404254:	0005a903          	lw	s2,0(a1)
20404258:	8b8d                	andi	a5,a5,3
2040425a:	0135a023          	sw	s3,0(a1)
2040425e:	41390933          	sub	s2,s2,s3
20404262:	4701                	li	a4,0
20404264:	e391                	bnez	a5,20404268 <__sflush_r+0x11c>
20404266:	49d8                	lw	a4,20(a1)
20404268:	c418                	sw	a4,8(s0)
2040426a:	f12054e3          	blez	s2,20404172 <__sflush_r+0x26>
2040426e:	541c                	lw	a5,40(s0)
20404270:	500c                	lw	a1,32(s0)
20404272:	86ca                	mv	a3,s2
20404274:	864e                	mv	a2,s3
20404276:	8526                	mv	a0,s1
20404278:	9782                	jalr	a5
2040427a:	00a04a63          	bgtz	a0,2040428e <__sflush_r+0x142>
2040427e:	00c45783          	lhu	a5,12(s0)
20404282:	557d                	li	a0,-1
20404284:	0407e793          	ori	a5,a5,64
20404288:	00f41623          	sh	a5,12(s0)
2040428c:	b765                	j	20404234 <__sflush_r+0xe8>
2040428e:	99aa                	add	s3,s3,a0
20404290:	40a90933          	sub	s2,s2,a0
20404294:	bfd9                	j	2040426a <__sflush_r+0x11e>

20404296 <_fflush_r>:
_fflush_r():
20404296:	499c                	lw	a5,16(a1)
20404298:	cba9                	beqz	a5,204042ea <_fflush_r+0x54>
2040429a:	1101                	addi	sp,sp,-32
2040429c:	cc22                	sw	s0,24(sp)
2040429e:	ce06                	sw	ra,28(sp)
204042a0:	842a                	mv	s0,a0
204042a2:	c511                	beqz	a0,204042ae <_fflush_r+0x18>
204042a4:	4d1c                	lw	a5,24(a0)
204042a6:	e781                	bnez	a5,204042ae <_fflush_r+0x18>
204042a8:	c62e                	sw	a1,12(sp)
204042aa:	28ed                	jal	204043a4 <__sinit>
204042ac:	45b2                	lw	a1,12(sp)
204042ae:	11418793          	addi	a5,gp,276 # 80001384 <__sf_fake_stdin>
204042b2:	00f59b63          	bne	a1,a5,204042c8 <_fflush_r+0x32>
204042b6:	404c                	lw	a1,4(s0)
204042b8:	00c59783          	lh	a5,12(a1)
204042bc:	c395                	beqz	a5,204042e0 <_fflush_r+0x4a>
204042be:	8522                	mv	a0,s0
204042c0:	4462                	lw	s0,24(sp)
204042c2:	40f2                	lw	ra,28(sp)
204042c4:	6105                	addi	sp,sp,32
204042c6:	b559                	j	2040414c <__sflush_r>
204042c8:	13418793          	addi	a5,gp,308 # 800013a4 <__sf_fake_stdout>
204042cc:	00f59463          	bne	a1,a5,204042d4 <_fflush_r+0x3e>
204042d0:	440c                	lw	a1,8(s0)
204042d2:	b7dd                	j	204042b8 <_fflush_r+0x22>
204042d4:	0f418793          	addi	a5,gp,244 # 80001364 <__sf_fake_stderr>
204042d8:	fef590e3          	bne	a1,a5,204042b8 <_fflush_r+0x22>
204042dc:	444c                	lw	a1,12(s0)
204042de:	bfe9                	j	204042b8 <_fflush_r+0x22>
204042e0:	40f2                	lw	ra,28(sp)
204042e2:	4462                	lw	s0,24(sp)
204042e4:	4501                	li	a0,0
204042e6:	6105                	addi	sp,sp,32
204042e8:	8082                	ret
204042ea:	4501                	li	a0,0
204042ec:	8082                	ret

204042ee <std>:
std():
204042ee:	1141                	addi	sp,sp,-16
204042f0:	c422                	sw	s0,8(sp)
204042f2:	c606                	sw	ra,12(sp)
204042f4:	842a                	mv	s0,a0
204042f6:	00b51623          	sh	a1,12(a0)
204042fa:	00c51723          	sh	a2,14(a0)
204042fe:	00052023          	sw	zero,0(a0)
20404302:	00052223          	sw	zero,4(a0)
20404306:	00052423          	sw	zero,8(a0)
2040430a:	06052223          	sw	zero,100(a0)
2040430e:	00052823          	sw	zero,16(a0)
20404312:	00052a23          	sw	zero,20(a0)
20404316:	00052c23          	sw	zero,24(a0)
2040431a:	4621                	li	a2,8
2040431c:	4581                	li	a1,0
2040431e:	05c50513          	addi	a0,a0,92
20404322:	24cd                	jal	20404604 <memset>
20404324:	00000797          	auipc	a5,0x0
20404328:	7a478793          	addi	a5,a5,1956 # 20404ac8 <__sread>
2040432c:	d05c                	sw	a5,36(s0)
2040432e:	00000797          	auipc	a5,0x0
20404332:	7ca78793          	addi	a5,a5,1994 # 20404af8 <__swrite>
20404336:	d41c                	sw	a5,40(s0)
20404338:	00001797          	auipc	a5,0x1
2040433c:	80e78793          	addi	a5,a5,-2034 # 20404b46 <__sseek>
20404340:	d45c                	sw	a5,44(s0)
20404342:	00001797          	auipc	a5,0x1
20404346:	83a78793          	addi	a5,a5,-1990 # 20404b7c <__sclose>
2040434a:	d000                	sw	s0,32(s0)
2040434c:	d81c                	sw	a5,48(s0)
2040434e:	40b2                	lw	ra,12(sp)
20404350:	4422                	lw	s0,8(sp)
20404352:	0141                	addi	sp,sp,16
20404354:	8082                	ret

20404356 <_cleanup_r>:
_cleanup_r():
20404356:	00000597          	auipc	a1,0x0
2040435a:	f4058593          	addi	a1,a1,-192 # 20404296 <_fflush_r>
2040435e:	a299                	j	204044a4 <_fwalk_reent>

20404360 <__sfmoreglue>:
__sfmoreglue():
20404360:	1141                	addi	sp,sp,-16
20404362:	c226                	sw	s1,4(sp)
20404364:	06800613          	li	a2,104
20404368:	fff58493          	addi	s1,a1,-1
2040436c:	02c484b3          	mul	s1,s1,a2
20404370:	c04a                	sw	s2,0(sp)
20404372:	892e                	mv	s2,a1
20404374:	c422                	sw	s0,8(sp)
20404376:	c606                	sw	ra,12(sp)
20404378:	07448593          	addi	a1,s1,116
2040437c:	2691                	jal	204046c0 <_malloc_r>
2040437e:	842a                	mv	s0,a0
20404380:	c919                	beqz	a0,20404396 <__sfmoreglue+0x36>
20404382:	00052023          	sw	zero,0(a0)
20404386:	01252223          	sw	s2,4(a0)
2040438a:	0531                	addi	a0,a0,12
2040438c:	c408                	sw	a0,8(s0)
2040438e:	06848613          	addi	a2,s1,104
20404392:	4581                	li	a1,0
20404394:	2c85                	jal	20404604 <memset>
20404396:	8522                	mv	a0,s0
20404398:	40b2                	lw	ra,12(sp)
2040439a:	4422                	lw	s0,8(sp)
2040439c:	4492                	lw	s1,4(sp)
2040439e:	4902                	lw	s2,0(sp)
204043a0:	0141                	addi	sp,sp,16
204043a2:	8082                	ret

204043a4 <__sinit>:
__sinit():
204043a4:	4d1c                	lw	a5,24(a0)
204043a6:	e3ad                	bnez	a5,20404408 <__sinit+0x64>
204043a8:	1141                	addi	sp,sp,-16
204043aa:	c606                	sw	ra,12(sp)
204043ac:	c422                	sw	s0,8(sp)
204043ae:	00000797          	auipc	a5,0x0
204043b2:	fa878793          	addi	a5,a5,-88 # 20404356 <_cleanup_r>
204043b6:	d51c                	sw	a5,40(a0)
204043b8:	81018793          	addi	a5,gp,-2032 # 80000a80 <_global_impure_ptr>
204043bc:	439c                	lw	a5,0(a5)
204043be:	04052423          	sw	zero,72(a0)
204043c2:	04052623          	sw	zero,76(a0)
204043c6:	04052823          	sw	zero,80(a0)
204043ca:	00f51463          	bne	a0,a5,204043d2 <__sinit+0x2e>
204043ce:	4785                	li	a5,1
204043d0:	cd1c                	sw	a5,24(a0)
204043d2:	842a                	mv	s0,a0
204043d4:	281d                	jal	2040440a <__sfp>
204043d6:	c048                	sw	a0,4(s0)
204043d8:	8522                	mv	a0,s0
204043da:	2805                	jal	2040440a <__sfp>
204043dc:	c408                	sw	a0,8(s0)
204043de:	8522                	mv	a0,s0
204043e0:	202d                	jal	2040440a <__sfp>
204043e2:	c448                	sw	a0,12(s0)
204043e4:	4048                	lw	a0,4(s0)
204043e6:	4601                	li	a2,0
204043e8:	4591                	li	a1,4
204043ea:	3711                	jal	204042ee <std>
204043ec:	4408                	lw	a0,8(s0)
204043ee:	4605                	li	a2,1
204043f0:	45a5                	li	a1,9
204043f2:	3df5                	jal	204042ee <std>
204043f4:	4448                	lw	a0,12(s0)
204043f6:	4609                	li	a2,2
204043f8:	45c9                	li	a1,18
204043fa:	3dd5                	jal	204042ee <std>
204043fc:	4785                	li	a5,1
204043fe:	cc1c                	sw	a5,24(s0)
20404400:	40b2                	lw	ra,12(sp)
20404402:	4422                	lw	s0,8(sp)
20404404:	0141                	addi	sp,sp,16
20404406:	8082                	ret
20404408:	8082                	ret

2040440a <__sfp>:
__sfp():
2040440a:	1141                	addi	sp,sp,-16
2040440c:	81018793          	addi	a5,gp,-2032 # 80000a80 <_global_impure_ptr>
20404410:	c226                	sw	s1,4(sp)
20404412:	4384                	lw	s1,0(a5)
20404414:	c04a                	sw	s2,0(sp)
20404416:	c606                	sw	ra,12(sp)
20404418:	4c9c                	lw	a5,24(s1)
2040441a:	c422                	sw	s0,8(sp)
2040441c:	892a                	mv	s2,a0
2040441e:	e399                	bnez	a5,20404424 <__sfp+0x1a>
20404420:	8526                	mv	a0,s1
20404422:	3749                	jal	204043a4 <__sinit>
20404424:	04848493          	addi	s1,s1,72
20404428:	4480                	lw	s0,8(s1)
2040442a:	40dc                	lw	a5,4(s1)
2040442c:	17fd                	addi	a5,a5,-1
2040442e:	0007d663          	bgez	a5,2040443a <__sfp+0x30>
20404432:	409c                	lw	a5,0(s1)
20404434:	cfb1                	beqz	a5,20404490 <__sfp+0x86>
20404436:	4084                	lw	s1,0(s1)
20404438:	bfc5                	j	20404428 <__sfp+0x1e>
2040443a:	00c41703          	lh	a4,12(s0)
2040443e:	e731                	bnez	a4,2040448a <__sfp+0x80>
20404440:	77c1                	lui	a5,0xffff0
20404442:	0785                	addi	a5,a5,1
20404444:	06042223          	sw	zero,100(s0)
20404448:	00042023          	sw	zero,0(s0)
2040444c:	00042223          	sw	zero,4(s0)
20404450:	00042423          	sw	zero,8(s0)
20404454:	c45c                	sw	a5,12(s0)
20404456:	00042823          	sw	zero,16(s0)
2040445a:	00042a23          	sw	zero,20(s0)
2040445e:	00042c23          	sw	zero,24(s0)
20404462:	4621                	li	a2,8
20404464:	4581                	li	a1,0
20404466:	05c40513          	addi	a0,s0,92
2040446a:	2a69                	jal	20404604 <memset>
2040446c:	02042a23          	sw	zero,52(s0)
20404470:	02042c23          	sw	zero,56(s0)
20404474:	04042423          	sw	zero,72(s0)
20404478:	04042623          	sw	zero,76(s0)
2040447c:	8522                	mv	a0,s0
2040447e:	40b2                	lw	ra,12(sp)
20404480:	4422                	lw	s0,8(sp)
20404482:	4492                	lw	s1,4(sp)
20404484:	4902                	lw	s2,0(sp)
20404486:	0141                	addi	sp,sp,16
20404488:	8082                	ret
2040448a:	06840413          	addi	s0,s0,104
2040448e:	bf79                	j	2040442c <__sfp+0x22>
20404490:	4591                	li	a1,4
20404492:	854a                	mv	a0,s2
20404494:	35f1                	jal	20404360 <__sfmoreglue>
20404496:	c088                	sw	a0,0(s1)
20404498:	842a                	mv	s0,a0
2040449a:	fd51                	bnez	a0,20404436 <__sfp+0x2c>
2040449c:	47b1                	li	a5,12
2040449e:	00f92023          	sw	a5,0(s2)
204044a2:	bfe9                	j	2040447c <__sfp+0x72>

204044a4 <_fwalk_reent>:
_fwalk_reent():
204044a4:	7179                	addi	sp,sp,-48
204044a6:	d422                	sw	s0,40(sp)
204044a8:	d04a                	sw	s2,32(sp)
204044aa:	cc52                	sw	s4,24(sp)
204044ac:	ca56                	sw	s5,20(sp)
204044ae:	c85a                	sw	s6,16(sp)
204044b0:	c65e                	sw	s7,12(sp)
204044b2:	d606                	sw	ra,44(sp)
204044b4:	d226                	sw	s1,36(sp)
204044b6:	ce4e                	sw	s3,28(sp)
204044b8:	8a2a                	mv	s4,a0
204044ba:	8aae                	mv	s5,a1
204044bc:	04850413          	addi	s0,a0,72
204044c0:	4901                	li	s2,0
204044c2:	4b05                	li	s6,1
204044c4:	5bfd                	li	s7,-1
204044c6:	ec09                	bnez	s0,204044e0 <_fwalk_reent+0x3c>
204044c8:	50b2                	lw	ra,44(sp)
204044ca:	5422                	lw	s0,40(sp)
204044cc:	854a                	mv	a0,s2
204044ce:	5492                	lw	s1,36(sp)
204044d0:	5902                	lw	s2,32(sp)
204044d2:	49f2                	lw	s3,28(sp)
204044d4:	4a62                	lw	s4,24(sp)
204044d6:	4ad2                	lw	s5,20(sp)
204044d8:	4b42                	lw	s6,16(sp)
204044da:	4bb2                	lw	s7,12(sp)
204044dc:	6145                	addi	sp,sp,48
204044de:	8082                	ret
204044e0:	4404                	lw	s1,8(s0)
204044e2:	00442983          	lw	s3,4(s0)
204044e6:	19fd                	addi	s3,s3,-1
204044e8:	0009d463          	bgez	s3,204044f0 <_fwalk_reent+0x4c>
204044ec:	4000                	lw	s0,0(s0)
204044ee:	bfe1                	j	204044c6 <_fwalk_reent+0x22>
204044f0:	00c4d783          	lhu	a5,12(s1)
204044f4:	00fb7b63          	bgeu	s6,a5,2040450a <_fwalk_reent+0x66>
204044f8:	00e49783          	lh	a5,14(s1)
204044fc:	01778763          	beq	a5,s7,2040450a <_fwalk_reent+0x66>
20404500:	85a6                	mv	a1,s1
20404502:	8552                	mv	a0,s4
20404504:	9a82                	jalr	s5
20404506:	00a96933          	or	s2,s2,a0
2040450a:	06848493          	addi	s1,s1,104
2040450e:	bfe1                	j	204044e6 <_fwalk_reent+0x42>

20404510 <__swhatbuf_r>:
__swhatbuf_r():
20404510:	7119                	addi	sp,sp,-128
20404512:	daa6                	sw	s1,116(sp)
20404514:	84ae                	mv	s1,a1
20404516:	00e59583          	lh	a1,14(a1)
2040451a:	dca2                	sw	s0,120(sp)
2040451c:	de86                	sw	ra,124(sp)
2040451e:	8432                	mv	s0,a2
20404520:	0005dc63          	bgez	a1,20404538 <__swhatbuf_r+0x28>
20404524:	00c4d783          	lhu	a5,12(s1)
20404528:	0006a023          	sw	zero,0(a3) # ffffa000 <metal_segment_heap_target_end+0x7fff6780>
2040452c:	0807f793          	andi	a5,a5,128
20404530:	e39d                	bnez	a5,20404556 <__swhatbuf_r+0x46>
20404532:	40000793          	li	a5,1024
20404536:	a015                	j	2040455a <__swhatbuf_r+0x4a>
20404538:	0830                	addi	a2,sp,24
2040453a:	c636                	sw	a3,12(sp)
2040453c:	256d                	jal	20404be6 <_fstat_r>
2040453e:	46b2                	lw	a3,12(sp)
20404540:	fe0542e3          	bltz	a0,20404524 <__swhatbuf_r+0x14>
20404544:	4772                	lw	a4,28(sp)
20404546:	67bd                	lui	a5,0xf
20404548:	8ff9                	and	a5,a5,a4
2040454a:	7779                	lui	a4,0xffffe
2040454c:	97ba                	add	a5,a5,a4
2040454e:	0017b793          	seqz	a5,a5
20404552:	c29c                	sw	a5,0(a3)
20404554:	bff9                	j	20404532 <__swhatbuf_r+0x22>
20404556:	04000793          	li	a5,64
2040455a:	c01c                	sw	a5,0(s0)
2040455c:	50f6                	lw	ra,124(sp)
2040455e:	5466                	lw	s0,120(sp)
20404560:	54d6                	lw	s1,116(sp)
20404562:	4501                	li	a0,0
20404564:	6109                	addi	sp,sp,128
20404566:	8082                	ret

20404568 <__smakebuf_r>:
__smakebuf_r():
20404568:	00c5d783          	lhu	a5,12(a1)
2040456c:	1101                	addi	sp,sp,-32
2040456e:	cc22                	sw	s0,24(sp)
20404570:	ce06                	sw	ra,28(sp)
20404572:	ca26                	sw	s1,20(sp)
20404574:	c84a                	sw	s2,16(sp)
20404576:	8b89                	andi	a5,a5,2
20404578:	842e                	mv	s0,a1
2040457a:	cf89                	beqz	a5,20404594 <__smakebuf_r+0x2c>
2040457c:	04740793          	addi	a5,s0,71
20404580:	c01c                	sw	a5,0(s0)
20404582:	c81c                	sw	a5,16(s0)
20404584:	4785                	li	a5,1
20404586:	c85c                	sw	a5,20(s0)
20404588:	40f2                	lw	ra,28(sp)
2040458a:	4462                	lw	s0,24(sp)
2040458c:	44d2                	lw	s1,20(sp)
2040458e:	4942                	lw	s2,16(sp)
20404590:	6105                	addi	sp,sp,32
20404592:	8082                	ret
20404594:	0074                	addi	a3,sp,12
20404596:	0030                	addi	a2,sp,8
20404598:	84aa                	mv	s1,a0
2040459a:	3f9d                	jal	20404510 <__swhatbuf_r>
2040459c:	45a2                	lw	a1,8(sp)
2040459e:	892a                	mv	s2,a0
204045a0:	8526                	mv	a0,s1
204045a2:	2a39                	jal	204046c0 <_malloc_r>
204045a4:	ed01                	bnez	a0,204045bc <__smakebuf_r+0x54>
204045a6:	00c41783          	lh	a5,12(s0)
204045aa:	2007f713          	andi	a4,a5,512
204045ae:	ff69                	bnez	a4,20404588 <__smakebuf_r+0x20>
204045b0:	9bf1                	andi	a5,a5,-4
204045b2:	0027e793          	ori	a5,a5,2
204045b6:	00f41623          	sh	a5,12(s0)
204045ba:	b7c9                	j	2040457c <__smakebuf_r+0x14>
204045bc:	00000797          	auipc	a5,0x0
204045c0:	d9a78793          	addi	a5,a5,-614 # 20404356 <_cleanup_r>
204045c4:	d49c                	sw	a5,40(s1)
204045c6:	00c45783          	lhu	a5,12(s0)
204045ca:	c008                	sw	a0,0(s0)
204045cc:	c808                	sw	a0,16(s0)
204045ce:	0807e793          	ori	a5,a5,128
204045d2:	00f41623          	sh	a5,12(s0)
204045d6:	47a2                	lw	a5,8(sp)
204045d8:	c85c                	sw	a5,20(s0)
204045da:	47b2                	lw	a5,12(sp)
204045dc:	cf89                	beqz	a5,204045f6 <__smakebuf_r+0x8e>
204045de:	00e41583          	lh	a1,14(s0)
204045e2:	8526                	mv	a0,s1
204045e4:	2d15                	jal	20404c18 <_isatty_r>
204045e6:	c901                	beqz	a0,204045f6 <__smakebuf_r+0x8e>
204045e8:	00c45783          	lhu	a5,12(s0)
204045ec:	9bf1                	andi	a5,a5,-4
204045ee:	0017e793          	ori	a5,a5,1
204045f2:	00f41623          	sh	a5,12(s0)
204045f6:	00c45783          	lhu	a5,12(s0)
204045fa:	00f96933          	or	s2,s2,a5
204045fe:	01241623          	sh	s2,12(s0)
20404602:	b759                	j	20404588 <__smakebuf_r+0x20>

20404604 <memset>:
memset():
20404604:	832a                	mv	t1,a0
20404606:	c611                	beqz	a2,20404612 <memset+0xe>
20404608:	00b30023          	sb	a1,0(t1)
2040460c:	167d                	addi	a2,a2,-1
2040460e:	0305                	addi	t1,t1,1
20404610:	fe65                	bnez	a2,20404608 <memset+0x4>
20404612:	8082                	ret

20404614 <_free_r>:
_free_r():
20404614:	c5cd                	beqz	a1,204046be <_free_r+0xaa>
20404616:	ffc5a783          	lw	a5,-4(a1)
2040461a:	1141                	addi	sp,sp,-16
2040461c:	c422                	sw	s0,8(sp)
2040461e:	c606                	sw	ra,12(sp)
20404620:	c226                	sw	s1,4(sp)
20404622:	ffc58413          	addi	s0,a1,-4
20404626:	0007d363          	bgez	a5,2040462c <_free_r+0x18>
2040462a:	943e                	add	s0,s0,a5
2040462c:	84aa                	mv	s1,a0
2040462e:	25a5                	jal	20404c96 <__malloc_lock>
20404630:	5fbfe797          	auipc	a5,0x5fbfe
20404634:	9ac78793          	addi	a5,a5,-1620 # 80001fdc <__malloc_free_list>
20404638:	439c                	lw	a5,0(a5)
2040463a:	ef89                	bnez	a5,20404654 <_free_r+0x40>
2040463c:	00042223          	sw	zero,4(s0)
20404640:	5fbfe797          	auipc	a5,0x5fbfe
20404644:	9887ae23          	sw	s0,-1636(a5) # 80001fdc <__malloc_free_list>
20404648:	4422                	lw	s0,8(sp)
2040464a:	40b2                	lw	ra,12(sp)
2040464c:	8526                	mv	a0,s1
2040464e:	4492                	lw	s1,4(sp)
20404650:	0141                	addi	sp,sp,16
20404652:	a599                	j	20404c98 <__malloc_unlock>
20404654:	00f47e63          	bgeu	s0,a5,20404670 <_free_r+0x5c>
20404658:	4014                	lw	a3,0(s0)
2040465a:	00d40733          	add	a4,s0,a3
2040465e:	00e79663          	bne	a5,a4,2040466a <_free_r+0x56>
20404662:	4398                	lw	a4,0(a5)
20404664:	43dc                	lw	a5,4(a5)
20404666:	9736                	add	a4,a4,a3
20404668:	c018                	sw	a4,0(s0)
2040466a:	c05c                	sw	a5,4(s0)
2040466c:	bfd1                	j	20404640 <_free_r+0x2c>
2040466e:	87ba                	mv	a5,a4
20404670:	43d8                	lw	a4,4(a5)
20404672:	c319                	beqz	a4,20404678 <_free_r+0x64>
20404674:	fee47de3          	bgeu	s0,a4,2040466e <_free_r+0x5a>
20404678:	4394                	lw	a3,0(a5)
2040467a:	00d78633          	add	a2,a5,a3
2040467e:	00861f63          	bne	a2,s0,2040469c <_free_r+0x88>
20404682:	4010                	lw	a2,0(s0)
20404684:	96b2                	add	a3,a3,a2
20404686:	c394                	sw	a3,0(a5)
20404688:	00d78633          	add	a2,a5,a3
2040468c:	fac71ee3          	bne	a4,a2,20404648 <_free_r+0x34>
20404690:	4310                	lw	a2,0(a4)
20404692:	4358                	lw	a4,4(a4)
20404694:	96b2                	add	a3,a3,a2
20404696:	c394                	sw	a3,0(a5)
20404698:	c3d8                	sw	a4,4(a5)
2040469a:	b77d                	j	20404648 <_free_r+0x34>
2040469c:	00c47563          	bgeu	s0,a2,204046a6 <_free_r+0x92>
204046a0:	47b1                	li	a5,12
204046a2:	c09c                	sw	a5,0(s1)
204046a4:	b755                	j	20404648 <_free_r+0x34>
204046a6:	4010                	lw	a2,0(s0)
204046a8:	00c406b3          	add	a3,s0,a2
204046ac:	00d71663          	bne	a4,a3,204046b8 <_free_r+0xa4>
204046b0:	4314                	lw	a3,0(a4)
204046b2:	4358                	lw	a4,4(a4)
204046b4:	96b2                	add	a3,a3,a2
204046b6:	c014                	sw	a3,0(s0)
204046b8:	c058                	sw	a4,4(s0)
204046ba:	c3c0                	sw	s0,4(a5)
204046bc:	b771                	j	20404648 <_free_r+0x34>
204046be:	8082                	ret

204046c0 <_malloc_r>:
_malloc_r():
204046c0:	1101                	addi	sp,sp,-32
204046c2:	ca26                	sw	s1,20(sp)
204046c4:	00358493          	addi	s1,a1,3
204046c8:	98f1                	andi	s1,s1,-4
204046ca:	ce06                	sw	ra,28(sp)
204046cc:	cc22                	sw	s0,24(sp)
204046ce:	c84a                	sw	s2,16(sp)
204046d0:	c64e                	sw	s3,12(sp)
204046d2:	04a1                	addi	s1,s1,8
204046d4:	47b1                	li	a5,12
204046d6:	04f4f763          	bgeu	s1,a5,20404724 <_malloc_r+0x64>
204046da:	44b1                	li	s1,12
204046dc:	04b4e663          	bltu	s1,a1,20404728 <_malloc_r+0x68>
204046e0:	892a                	mv	s2,a0
204046e2:	2b55                	jal	20404c96 <__malloc_lock>
204046e4:	5fbfe797          	auipc	a5,0x5fbfe
204046e8:	8f878793          	addi	a5,a5,-1800 # 80001fdc <__malloc_free_list>
204046ec:	4398                	lw	a4,0(a5)
204046ee:	843a                	mv	s0,a4
204046f0:	e431                	bnez	s0,2040473c <_malloc_r+0x7c>
204046f2:	5fbfe797          	auipc	a5,0x5fbfe
204046f6:	8ee78793          	addi	a5,a5,-1810 # 80001fe0 <__malloc_sbrk_start>
204046fa:	439c                	lw	a5,0(a5)
204046fc:	eb81                	bnez	a5,2040470c <_malloc_r+0x4c>
204046fe:	4581                	li	a1,0
20404700:	854a                	mv	a0,s2
20404702:	2e59                	jal	20404a98 <_sbrk_r>
20404704:	5fbfe797          	auipc	a5,0x5fbfe
20404708:	8ca7ae23          	sw	a0,-1828(a5) # 80001fe0 <__malloc_sbrk_start>
2040470c:	85a6                	mv	a1,s1
2040470e:	854a                	mv	a0,s2
20404710:	2661                	jal	20404a98 <_sbrk_r>
20404712:	59fd                	li	s3,-1
20404714:	07351963          	bne	a0,s3,20404786 <_malloc_r+0xc6>
20404718:	47b1                	li	a5,12
2040471a:	00f92023          	sw	a5,0(s2)
2040471e:	854a                	mv	a0,s2
20404720:	2ba5                	jal	20404c98 <__malloc_unlock>
20404722:	a029                	j	2040472c <_malloc_r+0x6c>
20404724:	fa04dce3          	bgez	s1,204046dc <_malloc_r+0x1c>
20404728:	47b1                	li	a5,12
2040472a:	c11c                	sw	a5,0(a0)
2040472c:	4501                	li	a0,0
2040472e:	40f2                	lw	ra,28(sp)
20404730:	4462                	lw	s0,24(sp)
20404732:	44d2                	lw	s1,20(sp)
20404734:	4942                	lw	s2,16(sp)
20404736:	49b2                	lw	s3,12(sp)
20404738:	6105                	addi	sp,sp,32
2040473a:	8082                	ret
2040473c:	401c                	lw	a5,0(s0)
2040473e:	8f85                	sub	a5,a5,s1
20404740:	0407c063          	bltz	a5,20404780 <_malloc_r+0xc0>
20404744:	46ad                	li	a3,11
20404746:	00f6f663          	bgeu	a3,a5,20404752 <_malloc_r+0x92>
2040474a:	c01c                	sw	a5,0(s0)
2040474c:	943e                	add	s0,s0,a5
2040474e:	c004                	sw	s1,0(s0)
20404750:	a801                	j	20404760 <_malloc_r+0xa0>
20404752:	405c                	lw	a5,4(s0)
20404754:	02871463          	bne	a4,s0,2040477c <_malloc_r+0xbc>
20404758:	5fbfe717          	auipc	a4,0x5fbfe
2040475c:	88f72223          	sw	a5,-1916(a4) # 80001fdc <__malloc_free_list>
20404760:	854a                	mv	a0,s2
20404762:	2b1d                	jal	20404c98 <__malloc_unlock>
20404764:	00b40513          	addi	a0,s0,11
20404768:	00440793          	addi	a5,s0,4
2040476c:	9961                	andi	a0,a0,-8
2040476e:	40f50733          	sub	a4,a0,a5
20404772:	df55                	beqz	a4,2040472e <_malloc_r+0x6e>
20404774:	943a                	add	s0,s0,a4
20404776:	8f89                	sub	a5,a5,a0
20404778:	c01c                	sw	a5,0(s0)
2040477a:	bf55                	j	2040472e <_malloc_r+0x6e>
2040477c:	c35c                	sw	a5,4(a4)
2040477e:	b7cd                	j	20404760 <_malloc_r+0xa0>
20404780:	8722                	mv	a4,s0
20404782:	4040                	lw	s0,4(s0)
20404784:	b7b5                	j	204046f0 <_malloc_r+0x30>
20404786:	00350413          	addi	s0,a0,3
2040478a:	9871                	andi	s0,s0,-4
2040478c:	fc8501e3          	beq	a0,s0,2040474e <_malloc_r+0x8e>
20404790:	40a405b3          	sub	a1,s0,a0
20404794:	854a                	mv	a0,s2
20404796:	2609                	jal	20404a98 <_sbrk_r>
20404798:	fb351be3          	bne	a0,s3,2040474e <_malloc_r+0x8e>
2040479c:	bfb5                	j	20404718 <_malloc_r+0x58>

2040479e <__sfputc_r>:
__sfputc_r():
2040479e:	461c                	lw	a5,8(a2)
204047a0:	17fd                	addi	a5,a5,-1
204047a2:	c61c                	sw	a5,8(a2)
204047a4:	0007da63          	bgez	a5,204047b8 <__sfputc_r+0x1a>
204047a8:	4e18                	lw	a4,24(a2)
204047aa:	00e7c563          	blt	a5,a4,204047b4 <__sfputc_r+0x16>
204047ae:	47a9                	li	a5,10
204047b0:	00f59463          	bne	a1,a5,204047b8 <__sfputc_r+0x1a>
204047b4:	fe4ff06f          	j	20403f98 <__swbuf_r>
204047b8:	421c                	lw	a5,0(a2)
204047ba:	852e                	mv	a0,a1
204047bc:	00178713          	addi	a4,a5,1
204047c0:	c218                	sw	a4,0(a2)
204047c2:	00b78023          	sb	a1,0(a5)
204047c6:	8082                	ret

204047c8 <__sfputs_r>:
__sfputs_r():
204047c8:	1101                	addi	sp,sp,-32
204047ca:	cc22                	sw	s0,24(sp)
204047cc:	ca26                	sw	s1,20(sp)
204047ce:	c84a                	sw	s2,16(sp)
204047d0:	c64e                	sw	s3,12(sp)
204047d2:	c452                	sw	s4,8(sp)
204047d4:	ce06                	sw	ra,28(sp)
204047d6:	892a                	mv	s2,a0
204047d8:	89ae                	mv	s3,a1
204047da:	8432                	mv	s0,a2
204047dc:	00d604b3          	add	s1,a2,a3
204047e0:	5a7d                	li	s4,-1
204047e2:	00941463          	bne	s0,s1,204047ea <__sfputs_r+0x22>
204047e6:	4501                	li	a0,0
204047e8:	a809                	j	204047fa <__sfputs_r+0x32>
204047ea:	00044583          	lbu	a1,0(s0)
204047ee:	864e                	mv	a2,s3
204047f0:	854a                	mv	a0,s2
204047f2:	3775                	jal	2040479e <__sfputc_r>
204047f4:	0405                	addi	s0,s0,1
204047f6:	ff4516e3          	bne	a0,s4,204047e2 <__sfputs_r+0x1a>
204047fa:	40f2                	lw	ra,28(sp)
204047fc:	4462                	lw	s0,24(sp)
204047fe:	44d2                	lw	s1,20(sp)
20404800:	4942                	lw	s2,16(sp)
20404802:	49b2                	lw	s3,12(sp)
20404804:	4a22                	lw	s4,8(sp)
20404806:	6105                	addi	sp,sp,32
20404808:	8082                	ret

2040480a <_vfiprintf_r>:
_vfiprintf_r():
2040480a:	7135                	addi	sp,sp,-160
2040480c:	cd22                	sw	s0,152(sp)
2040480e:	cb26                	sw	s1,148(sp)
20404810:	c94a                	sw	s2,144(sp)
20404812:	c74e                	sw	s3,140(sp)
20404814:	cf06                	sw	ra,156(sp)
20404816:	c552                	sw	s4,136(sp)
20404818:	c356                	sw	s5,132(sp)
2040481a:	c15a                	sw	s6,128(sp)
2040481c:	dede                	sw	s7,124(sp)
2040481e:	dce2                	sw	s8,120(sp)
20404820:	dae6                	sw	s9,116(sp)
20404822:	89aa                	mv	s3,a0
20404824:	84ae                	mv	s1,a1
20404826:	8932                	mv	s2,a2
20404828:	8436                	mv	s0,a3
2040482a:	c509                	beqz	a0,20404834 <_vfiprintf_r+0x2a>
2040482c:	4d1c                	lw	a5,24(a0)
2040482e:	e399                	bnez	a5,20404834 <_vfiprintf_r+0x2a>
20404830:	b75ff0ef          	jal	ra,204043a4 <__sinit>
20404834:	11418793          	addi	a5,gp,276 # 80001384 <__sf_fake_stdin>
20404838:	0cf49b63          	bne	s1,a5,2040490e <_vfiprintf_r+0x104>
2040483c:	0049a483          	lw	s1,4(s3)
20404840:	00c4d783          	lhu	a5,12(s1)
20404844:	8ba1                	andi	a5,a5,8
20404846:	c3f5                	beqz	a5,2040492a <_vfiprintf_r+0x120>
20404848:	489c                	lw	a5,16(s1)
2040484a:	c3e5                	beqz	a5,2040492a <_vfiprintf_r+0x120>
2040484c:	02000793          	li	a5,32
20404850:	02f104a3          	sb	a5,41(sp)
20404854:	03000793          	li	a5,48
20404858:	d202                	sw	zero,36(sp)
2040485a:	02f10523          	sb	a5,42(sp)
2040485e:	c622                	sw	s0,12(sp)
20404860:	02500b93          	li	s7,37
20404864:	5fbfda97          	auipc	s5,0x5fbfd
20404868:	b60a8a93          	addi	s5,s5,-1184 # 800013c4 <__sf_fake_stdout+0x20>
2040486c:	4c05                	li	s8,1
2040486e:	4b29                	li	s6,10
20404870:	844a                	mv	s0,s2
20404872:	00044783          	lbu	a5,0(s0)
20404876:	c399                	beqz	a5,2040487c <_vfiprintf_r+0x72>
20404878:	0d779c63          	bne	a5,s7,20404950 <_vfiprintf_r+0x146>
2040487c:	41240cb3          	sub	s9,s0,s2
20404880:	000c8d63          	beqz	s9,2040489a <_vfiprintf_r+0x90>
20404884:	86e6                	mv	a3,s9
20404886:	864a                	mv	a2,s2
20404888:	85a6                	mv	a1,s1
2040488a:	854e                	mv	a0,s3
2040488c:	3f35                	jal	204047c8 <__sfputs_r>
2040488e:	57fd                	li	a5,-1
20404890:	1ef50263          	beq	a0,a5,20404a74 <_vfiprintf_r+0x26a>
20404894:	5692                	lw	a3,36(sp)
20404896:	96e6                	add	a3,a3,s9
20404898:	d236                	sw	a3,36(sp)
2040489a:	00044783          	lbu	a5,0(s0)
2040489e:	1c078b63          	beqz	a5,20404a74 <_vfiprintf_r+0x26a>
204048a2:	57fd                	li	a5,-1
204048a4:	00140913          	addi	s2,s0,1
204048a8:	c802                	sw	zero,16(sp)
204048aa:	ce02                	sw	zero,28(sp)
204048ac:	ca3e                	sw	a5,20(sp)
204048ae:	cc02                	sw	zero,24(sp)
204048b0:	040109a3          	sb	zero,83(sp)
204048b4:	d482                	sw	zero,104(sp)
204048b6:	00094583          	lbu	a1,0(s2)
204048ba:	4615                	li	a2,5
204048bc:	8556                	mv	a0,s5
204048be:	2e7d                	jal	20404c7c <memchr>
204048c0:	00190413          	addi	s0,s2,1
204048c4:	47c2                	lw	a5,16(sp)
204048c6:	e559                	bnez	a0,20404954 <_vfiprintf_r+0x14a>
204048c8:	0107f713          	andi	a4,a5,16
204048cc:	c709                	beqz	a4,204048d6 <_vfiprintf_r+0xcc>
204048ce:	02000713          	li	a4,32
204048d2:	04e109a3          	sb	a4,83(sp)
204048d6:	0087f713          	andi	a4,a5,8
204048da:	c709                	beqz	a4,204048e4 <_vfiprintf_r+0xda>
204048dc:	02b00713          	li	a4,43
204048e0:	04e109a3          	sb	a4,83(sp)
204048e4:	00094683          	lbu	a3,0(s2)
204048e8:	02a00713          	li	a4,42
204048ec:	06e68c63          	beq	a3,a4,20404964 <_vfiprintf_r+0x15a>
204048f0:	47f2                	lw	a5,28(sp)
204048f2:	844a                	mv	s0,s2
204048f4:	4681                	li	a3,0
204048f6:	4625                	li	a2,9
204048f8:	00044703          	lbu	a4,0(s0)
204048fc:	00140593          	addi	a1,s0,1
20404900:	fd070713          	addi	a4,a4,-48
20404904:	0ae67563          	bgeu	a2,a4,204049ae <_vfiprintf_r+0x1a4>
20404908:	c6b5                	beqz	a3,20404974 <_vfiprintf_r+0x16a>
2040490a:	ce3e                	sw	a5,28(sp)
2040490c:	a0a5                	j	20404974 <_vfiprintf_r+0x16a>
2040490e:	13418793          	addi	a5,gp,308 # 800013a4 <__sf_fake_stdout>
20404912:	00f49563          	bne	s1,a5,2040491c <_vfiprintf_r+0x112>
20404916:	0089a483          	lw	s1,8(s3)
2040491a:	b71d                	j	20404840 <_vfiprintf_r+0x36>
2040491c:	0f418793          	addi	a5,gp,244 # 80001364 <__sf_fake_stderr>
20404920:	f2f490e3          	bne	s1,a5,20404840 <_vfiprintf_r+0x36>
20404924:	00c9a483          	lw	s1,12(s3)
20404928:	bf21                	j	20404840 <_vfiprintf_r+0x36>
2040492a:	85a6                	mv	a1,s1
2040492c:	854e                	mv	a0,s3
2040492e:	f1eff0ef          	jal	ra,2040404c <__swsetup_r>
20404932:	dd09                	beqz	a0,2040484c <_vfiprintf_r+0x42>
20404934:	557d                	li	a0,-1
20404936:	40fa                	lw	ra,156(sp)
20404938:	446a                	lw	s0,152(sp)
2040493a:	44da                	lw	s1,148(sp)
2040493c:	494a                	lw	s2,144(sp)
2040493e:	49ba                	lw	s3,140(sp)
20404940:	4a2a                	lw	s4,136(sp)
20404942:	4a9a                	lw	s5,132(sp)
20404944:	4b0a                	lw	s6,128(sp)
20404946:	5bf6                	lw	s7,124(sp)
20404948:	5c66                	lw	s8,120(sp)
2040494a:	5cd6                	lw	s9,116(sp)
2040494c:	610d                	addi	sp,sp,160
2040494e:	8082                	ret
20404950:	0405                	addi	s0,s0,1
20404952:	b705                	j	20404872 <_vfiprintf_r+0x68>
20404954:	41550533          	sub	a0,a0,s5
20404958:	00ac1533          	sll	a0,s8,a0
2040495c:	8fc9                	or	a5,a5,a0
2040495e:	c83e                	sw	a5,16(sp)
20404960:	8922                	mv	s2,s0
20404962:	bf91                	j	204048b6 <_vfiprintf_r+0xac>
20404964:	4732                	lw	a4,12(sp)
20404966:	00470693          	addi	a3,a4,4
2040496a:	4318                	lw	a4,0(a4)
2040496c:	c636                	sw	a3,12(sp)
2040496e:	02074963          	bltz	a4,204049a0 <_vfiprintf_r+0x196>
20404972:	ce3a                	sw	a4,28(sp)
20404974:	00044703          	lbu	a4,0(s0)
20404978:	02e00793          	li	a5,46
2040497c:	04f71f63          	bne	a4,a5,204049da <_vfiprintf_r+0x1d0>
20404980:	00144703          	lbu	a4,1(s0)
20404984:	02a00793          	li	a5,42
20404988:	02f71b63          	bne	a4,a5,204049be <_vfiprintf_r+0x1b4>
2040498c:	47b2                	lw	a5,12(sp)
2040498e:	0409                	addi	s0,s0,2
20404990:	00478713          	addi	a4,a5,4
20404994:	439c                	lw	a5,0(a5)
20404996:	c63a                	sw	a4,12(sp)
20404998:	0207c163          	bltz	a5,204049ba <_vfiprintf_r+0x1b0>
2040499c:	ca3e                	sw	a5,20(sp)
2040499e:	a835                	j	204049da <_vfiprintf_r+0x1d0>
204049a0:	40e00733          	neg	a4,a4
204049a4:	0027e793          	ori	a5,a5,2
204049a8:	ce3a                	sw	a4,28(sp)
204049aa:	c83e                	sw	a5,16(sp)
204049ac:	b7e1                	j	20404974 <_vfiprintf_r+0x16a>
204049ae:	036787b3          	mul	a5,a5,s6
204049b2:	4685                	li	a3,1
204049b4:	842e                	mv	s0,a1
204049b6:	97ba                	add	a5,a5,a4
204049b8:	b781                	j	204048f8 <_vfiprintf_r+0xee>
204049ba:	57fd                	li	a5,-1
204049bc:	b7c5                	j	2040499c <_vfiprintf_r+0x192>
204049be:	0405                	addi	s0,s0,1
204049c0:	ca02                	sw	zero,20(sp)
204049c2:	4681                	li	a3,0
204049c4:	4781                	li	a5,0
204049c6:	4625                	li	a2,9
204049c8:	00044703          	lbu	a4,0(s0)
204049cc:	00140593          	addi	a1,s0,1
204049d0:	fd070713          	addi	a4,a4,-48
204049d4:	06e67663          	bgeu	a2,a4,20404a40 <_vfiprintf_r+0x236>
204049d8:	f2f1                	bnez	a3,2040499c <_vfiprintf_r+0x192>
204049da:	00044583          	lbu	a1,0(s0)
204049de:	460d                	li	a2,3
204049e0:	5fbfd517          	auipc	a0,0x5fbfd
204049e4:	9ec50513          	addi	a0,a0,-1556 # 800013cc <__sf_fake_stdout+0x28>
204049e8:	2c51                	jal	20404c7c <memchr>
204049ea:	cd11                	beqz	a0,20404a06 <_vfiprintf_r+0x1fc>
204049ec:	5fbfd797          	auipc	a5,0x5fbfd
204049f0:	9e078793          	addi	a5,a5,-1568 # 800013cc <__sf_fake_stdout+0x28>
204049f4:	8d1d                	sub	a0,a0,a5
204049f6:	04000793          	li	a5,64
204049fa:	00a797b3          	sll	a5,a5,a0
204049fe:	4542                	lw	a0,16(sp)
20404a00:	0405                	addi	s0,s0,1
20404a02:	8d5d                	or	a0,a0,a5
20404a04:	c82a                	sw	a0,16(sp)
20404a06:	00044583          	lbu	a1,0(s0)
20404a0a:	4619                	li	a2,6
20404a0c:	5fbfd517          	auipc	a0,0x5fbfd
20404a10:	9c450513          	addi	a0,a0,-1596 # 800013d0 <__sf_fake_stdout+0x2c>
20404a14:	00140913          	addi	s2,s0,1
20404a18:	02b10423          	sb	a1,40(sp)
20404a1c:	2485                	jal	20404c7c <memchr>
20404a1e:	c13d                	beqz	a0,20404a84 <_vfiprintf_r+0x27a>
20404a20:	dfbfb797          	auipc	a5,0xdfbfb
20404a24:	5e078793          	addi	a5,a5,1504 # 0 <__metal_boot_hart>
20404a28:	e795                	bnez	a5,20404a54 <_vfiprintf_r+0x24a>
20404a2a:	4742                	lw	a4,16(sp)
20404a2c:	47b2                	lw	a5,12(sp)
20404a2e:	10077713          	andi	a4,a4,256
20404a32:	cf09                	beqz	a4,20404a4c <_vfiprintf_r+0x242>
20404a34:	0791                	addi	a5,a5,4
20404a36:	c63e                	sw	a5,12(sp)
20404a38:	5792                	lw	a5,36(sp)
20404a3a:	97d2                	add	a5,a5,s4
20404a3c:	d23e                	sw	a5,36(sp)
20404a3e:	bd0d                	j	20404870 <_vfiprintf_r+0x66>
20404a40:	036787b3          	mul	a5,a5,s6
20404a44:	4685                	li	a3,1
20404a46:	842e                	mv	s0,a1
20404a48:	97ba                	add	a5,a5,a4
20404a4a:	bfbd                	j	204049c8 <_vfiprintf_r+0x1be>
20404a4c:	079d                	addi	a5,a5,7
20404a4e:	9be1                	andi	a5,a5,-8
20404a50:	07a1                	addi	a5,a5,8
20404a52:	b7d5                	j	20404a36 <_vfiprintf_r+0x22c>
20404a54:	0078                	addi	a4,sp,12
20404a56:	00000697          	auipc	a3,0x0
20404a5a:	d7268693          	addi	a3,a3,-654 # 204047c8 <__sfputs_r>
20404a5e:	8626                	mv	a2,s1
20404a60:	080c                	addi	a1,sp,16
20404a62:	854e                	mv	a0,s3
20404a64:	00000097          	auipc	ra,0x0
20404a68:	000000e7          	jalr	zero # 0 <__metal_boot_hart>
20404a6c:	57fd                	li	a5,-1
20404a6e:	8a2a                	mv	s4,a0
20404a70:	fcf514e3          	bne	a0,a5,20404a38 <_vfiprintf_r+0x22e>
20404a74:	00c4d783          	lhu	a5,12(s1)
20404a78:	0407f793          	andi	a5,a5,64
20404a7c:	ea079ce3          	bnez	a5,20404934 <_vfiprintf_r+0x12a>
20404a80:	5512                	lw	a0,36(sp)
20404a82:	bd55                	j	20404936 <_vfiprintf_r+0x12c>
20404a84:	0078                	addi	a4,sp,12
20404a86:	00000697          	auipc	a3,0x0
20404a8a:	d4268693          	addi	a3,a3,-702 # 204047c8 <__sfputs_r>
20404a8e:	8626                	mv	a2,s1
20404a90:	080c                	addi	a1,sp,16
20404a92:	854e                	mv	a0,s3
20404a94:	2e09                	jal	20404da6 <_printf_i>
20404a96:	bfd9                	j	20404a6c <_vfiprintf_r+0x262>

20404a98 <_sbrk_r>:
_sbrk_r():
20404a98:	1141                	addi	sp,sp,-16
20404a9a:	c422                	sw	s0,8(sp)
20404a9c:	842a                	mv	s0,a0
20404a9e:	852e                	mv	a0,a1
20404aa0:	5fbfd797          	auipc	a5,0x5fbfd
20404aa4:	5c07ae23          	sw	zero,1500(a5) # 8000207c <errno>
20404aa8:	c606                	sw	ra,12(sp)
20404aaa:	252d                	jal	204050d4 <_sbrk>
20404aac:	57fd                	li	a5,-1
20404aae:	00f51963          	bne	a0,a5,20404ac0 <_sbrk_r+0x28>
20404ab2:	5fbfd797          	auipc	a5,0x5fbfd
20404ab6:	5ca78793          	addi	a5,a5,1482 # 8000207c <errno>
20404aba:	439c                	lw	a5,0(a5)
20404abc:	c391                	beqz	a5,20404ac0 <_sbrk_r+0x28>
20404abe:	c01c                	sw	a5,0(s0)
20404ac0:	40b2                	lw	ra,12(sp)
20404ac2:	4422                	lw	s0,8(sp)
20404ac4:	0141                	addi	sp,sp,16
20404ac6:	8082                	ret

20404ac8 <__sread>:
__sread():
20404ac8:	1141                	addi	sp,sp,-16
20404aca:	c422                	sw	s0,8(sp)
20404acc:	842e                	mv	s0,a1
20404ace:	00e59583          	lh	a1,14(a1)
20404ad2:	c606                	sw	ra,12(sp)
20404ad4:	2b95                	jal	20405048 <_read_r>
20404ad6:	00054963          	bltz	a0,20404ae8 <__sread+0x20>
20404ada:	487c                	lw	a5,84(s0)
20404adc:	97aa                	add	a5,a5,a0
20404ade:	c87c                	sw	a5,84(s0)
20404ae0:	40b2                	lw	ra,12(sp)
20404ae2:	4422                	lw	s0,8(sp)
20404ae4:	0141                	addi	sp,sp,16
20404ae6:	8082                	ret
20404ae8:	00c45783          	lhu	a5,12(s0)
20404aec:	777d                	lui	a4,0xfffff
20404aee:	177d                	addi	a4,a4,-1
20404af0:	8ff9                	and	a5,a5,a4
20404af2:	00f41623          	sh	a5,12(s0)
20404af6:	b7ed                	j	20404ae0 <__sread+0x18>

20404af8 <__swrite>:
__swrite():
20404af8:	00c5d783          	lhu	a5,12(a1)
20404afc:	1101                	addi	sp,sp,-32
20404afe:	cc22                	sw	s0,24(sp)
20404b00:	ca26                	sw	s1,20(sp)
20404b02:	c84a                	sw	s2,16(sp)
20404b04:	c64e                	sw	s3,12(sp)
20404b06:	ce06                	sw	ra,28(sp)
20404b08:	1007f793          	andi	a5,a5,256
20404b0c:	84aa                	mv	s1,a0
20404b0e:	842e                	mv	s0,a1
20404b10:	8932                	mv	s2,a2
20404b12:	89b6                	mv	s3,a3
20404b14:	c791                	beqz	a5,20404b20 <__swrite+0x28>
20404b16:	00e59583          	lh	a1,14(a1)
20404b1a:	4689                	li	a3,2
20404b1c:	4601                	li	a2,0
20404b1e:	222d                	jal	20404c48 <_lseek_r>
20404b20:	00c45783          	lhu	a5,12(s0)
20404b24:	777d                	lui	a4,0xfffff
20404b26:	177d                	addi	a4,a4,-1
20404b28:	8ff9                	and	a5,a5,a4
20404b2a:	00f41623          	sh	a5,12(s0)
20404b2e:	00e41583          	lh	a1,14(s0)
20404b32:	4462                	lw	s0,24(sp)
20404b34:	40f2                	lw	ra,28(sp)
20404b36:	86ce                	mv	a3,s3
20404b38:	864a                	mv	a2,s2
20404b3a:	49b2                	lw	s3,12(sp)
20404b3c:	4942                	lw	s2,16(sp)
20404b3e:	8526                	mv	a0,s1
20404b40:	44d2                	lw	s1,20(sp)
20404b42:	6105                	addi	sp,sp,32
20404b44:	a83d                	j	20404b82 <_write_r>

20404b46 <__sseek>:
__sseek():
20404b46:	1141                	addi	sp,sp,-16
20404b48:	c422                	sw	s0,8(sp)
20404b4a:	842e                	mv	s0,a1
20404b4c:	00e59583          	lh	a1,14(a1)
20404b50:	c606                	sw	ra,12(sp)
20404b52:	28dd                	jal	20404c48 <_lseek_r>
20404b54:	57fd                	li	a5,-1
20404b56:	00c45703          	lhu	a4,12(s0)
20404b5a:	00f51b63          	bne	a0,a5,20404b70 <__sseek+0x2a>
20404b5e:	77fd                	lui	a5,0xfffff
20404b60:	17fd                	addi	a5,a5,-1
20404b62:	8ff9                	and	a5,a5,a4
20404b64:	00f41623          	sh	a5,12(s0)
20404b68:	40b2                	lw	ra,12(sp)
20404b6a:	4422                	lw	s0,8(sp)
20404b6c:	0141                	addi	sp,sp,16
20404b6e:	8082                	ret
20404b70:	6785                	lui	a5,0x1
20404b72:	8fd9                	or	a5,a5,a4
20404b74:	00f41623          	sh	a5,12(s0)
20404b78:	c868                	sw	a0,84(s0)
20404b7a:	b7fd                	j	20404b68 <__sseek+0x22>

20404b7c <__sclose>:
__sclose():
20404b7c:	00e59583          	lh	a1,14(a1)
20404b80:	a81d                	j	20404bb6 <_close_r>

20404b82 <_write_r>:
_write_r():
20404b82:	1141                	addi	sp,sp,-16
20404b84:	c422                	sw	s0,8(sp)
20404b86:	842a                	mv	s0,a0
20404b88:	852e                	mv	a0,a1
20404b8a:	85b2                	mv	a1,a2
20404b8c:	8636                	mv	a2,a3
20404b8e:	5fbfd797          	auipc	a5,0x5fbfd
20404b92:	4e07a723          	sw	zero,1262(a5) # 8000207c <errno>
20404b96:	c606                	sw	ra,12(sp)
20404b98:	2529                	jal	204051a2 <_write>
20404b9a:	57fd                	li	a5,-1
20404b9c:	00f51963          	bne	a0,a5,20404bae <_write_r+0x2c>
20404ba0:	5fbfd797          	auipc	a5,0x5fbfd
20404ba4:	4dc78793          	addi	a5,a5,1244 # 8000207c <errno>
20404ba8:	439c                	lw	a5,0(a5)
20404baa:	c391                	beqz	a5,20404bae <_write_r+0x2c>
20404bac:	c01c                	sw	a5,0(s0)
20404bae:	40b2                	lw	ra,12(sp)
20404bb0:	4422                	lw	s0,8(sp)
20404bb2:	0141                	addi	sp,sp,16
20404bb4:	8082                	ret

20404bb6 <_close_r>:
_close_r():
20404bb6:	1141                	addi	sp,sp,-16
20404bb8:	c422                	sw	s0,8(sp)
20404bba:	842a                	mv	s0,a0
20404bbc:	852e                	mv	a0,a1
20404bbe:	5fbfd797          	auipc	a5,0x5fbfd
20404bc2:	4a07af23          	sw	zero,1214(a5) # 8000207c <errno>
20404bc6:	c606                	sw	ra,12(sp)
20404bc8:	2955                	jal	2040507c <_close>
20404bca:	57fd                	li	a5,-1
20404bcc:	00f51963          	bne	a0,a5,20404bde <_close_r+0x28>
20404bd0:	5fbfd797          	auipc	a5,0x5fbfd
20404bd4:	4ac78793          	addi	a5,a5,1196 # 8000207c <errno>
20404bd8:	439c                	lw	a5,0(a5)
20404bda:	c391                	beqz	a5,20404bde <_close_r+0x28>
20404bdc:	c01c                	sw	a5,0(s0)
20404bde:	40b2                	lw	ra,12(sp)
20404be0:	4422                	lw	s0,8(sp)
20404be2:	0141                	addi	sp,sp,16
20404be4:	8082                	ret

20404be6 <_fstat_r>:
_fstat_r():
20404be6:	1141                	addi	sp,sp,-16
20404be8:	c422                	sw	s0,8(sp)
20404bea:	842a                	mv	s0,a0
20404bec:	852e                	mv	a0,a1
20404bee:	85b2                	mv	a1,a2
20404bf0:	5fbfd797          	auipc	a5,0x5fbfd
20404bf4:	4807a623          	sw	zero,1164(a5) # 8000207c <errno>
20404bf8:	c606                	sw	ra,12(sp)
20404bfa:	2959                	jal	20405090 <_fstat>
20404bfc:	57fd                	li	a5,-1
20404bfe:	00f51963          	bne	a0,a5,20404c10 <_fstat_r+0x2a>
20404c02:	5fbfd797          	auipc	a5,0x5fbfd
20404c06:	47a78793          	addi	a5,a5,1146 # 8000207c <errno>
20404c0a:	439c                	lw	a5,0(a5)
20404c0c:	c391                	beqz	a5,20404c10 <_fstat_r+0x2a>
20404c0e:	c01c                	sw	a5,0(s0)
20404c10:	40b2                	lw	ra,12(sp)
20404c12:	4422                	lw	s0,8(sp)
20404c14:	0141                	addi	sp,sp,16
20404c16:	8082                	ret

20404c18 <_isatty_r>:
_isatty_r():
20404c18:	1141                	addi	sp,sp,-16
20404c1a:	c422                	sw	s0,8(sp)
20404c1c:	842a                	mv	s0,a0
20404c1e:	852e                	mv	a0,a1
20404c20:	5fbfd797          	auipc	a5,0x5fbfd
20404c24:	4407ae23          	sw	zero,1116(a5) # 8000207c <errno>
20404c28:	c606                	sw	ra,12(sp)
20404c2a:	29ad                	jal	204050a4 <_isatty>
20404c2c:	57fd                	li	a5,-1
20404c2e:	00f51963          	bne	a0,a5,20404c40 <_isatty_r+0x28>
20404c32:	5fbfd797          	auipc	a5,0x5fbfd
20404c36:	44a78793          	addi	a5,a5,1098 # 8000207c <errno>
20404c3a:	439c                	lw	a5,0(a5)
20404c3c:	c391                	beqz	a5,20404c40 <_isatty_r+0x28>
20404c3e:	c01c                	sw	a5,0(s0)
20404c40:	40b2                	lw	ra,12(sp)
20404c42:	4422                	lw	s0,8(sp)
20404c44:	0141                	addi	sp,sp,16
20404c46:	8082                	ret

20404c48 <_lseek_r>:
_lseek_r():
20404c48:	1141                	addi	sp,sp,-16
20404c4a:	c422                	sw	s0,8(sp)
20404c4c:	842a                	mv	s0,a0
20404c4e:	852e                	mv	a0,a1
20404c50:	85b2                	mv	a1,a2
20404c52:	8636                	mv	a2,a3
20404c54:	5fbfd797          	auipc	a5,0x5fbfd
20404c58:	4207a423          	sw	zero,1064(a5) # 8000207c <errno>
20404c5c:	c606                	sw	ra,12(sp)
20404c5e:	21b9                	jal	204050ac <_lseek>
20404c60:	57fd                	li	a5,-1
20404c62:	00f51963          	bne	a0,a5,20404c74 <_lseek_r+0x2c>
20404c66:	5fbfd797          	auipc	a5,0x5fbfd
20404c6a:	41678793          	addi	a5,a5,1046 # 8000207c <errno>
20404c6e:	439c                	lw	a5,0(a5)
20404c70:	c391                	beqz	a5,20404c74 <_lseek_r+0x2c>
20404c72:	c01c                	sw	a5,0(s0)
20404c74:	40b2                	lw	ra,12(sp)
20404c76:	4422                	lw	s0,8(sp)
20404c78:	0141                	addi	sp,sp,16
20404c7a:	8082                	ret

20404c7c <memchr>:
memchr():
20404c7c:	0ff5f593          	andi	a1,a1,255
20404c80:	962a                	add	a2,a2,a0
20404c82:	00c51463          	bne	a0,a2,20404c8a <memchr+0xe>
20404c86:	4501                	li	a0,0
20404c88:	8082                	ret
20404c8a:	00054783          	lbu	a5,0(a0)
20404c8e:	feb78de3          	beq	a5,a1,20404c88 <memchr+0xc>
20404c92:	0505                	addi	a0,a0,1
20404c94:	b7fd                	j	20404c82 <memchr+0x6>

20404c96 <__malloc_lock>:
__malloc_lock():
20404c96:	8082                	ret

20404c98 <__malloc_unlock>:
__malloc_unlock():
20404c98:	8082                	ret

20404c9a <_printf_common>:
_printf_common():
20404c9a:	7179                	addi	sp,sp,-48
20404c9c:	ca56                	sw	s5,20(sp)
20404c9e:	499c                	lw	a5,16(a1)
20404ca0:	8aba                	mv	s5,a4
20404ca2:	4598                	lw	a4,8(a1)
20404ca4:	d422                	sw	s0,40(sp)
20404ca6:	d226                	sw	s1,36(sp)
20404ca8:	ce4e                	sw	s3,28(sp)
20404caa:	cc52                	sw	s4,24(sp)
20404cac:	d606                	sw	ra,44(sp)
20404cae:	d04a                	sw	s2,32(sp)
20404cb0:	c85a                	sw	s6,16(sp)
20404cb2:	c65e                	sw	s7,12(sp)
20404cb4:	89aa                	mv	s3,a0
20404cb6:	842e                	mv	s0,a1
20404cb8:	84b2                	mv	s1,a2
20404cba:	8a36                	mv	s4,a3
20404cbc:	00e7d363          	bge	a5,a4,20404cc2 <_printf_common+0x28>
20404cc0:	87ba                	mv	a5,a4
20404cc2:	c09c                	sw	a5,0(s1)
20404cc4:	04344703          	lbu	a4,67(s0)
20404cc8:	c319                	beqz	a4,20404cce <_printf_common+0x34>
20404cca:	0785                	addi	a5,a5,1
20404ccc:	c09c                	sw	a5,0(s1)
20404cce:	401c                	lw	a5,0(s0)
20404cd0:	0207f793          	andi	a5,a5,32
20404cd4:	c781                	beqz	a5,20404cdc <_printf_common+0x42>
20404cd6:	409c                	lw	a5,0(s1)
20404cd8:	0789                	addi	a5,a5,2
20404cda:	c09c                	sw	a5,0(s1)
20404cdc:	00042903          	lw	s2,0(s0)
20404ce0:	00697913          	andi	s2,s2,6
20404ce4:	00091a63          	bnez	s2,20404cf8 <_printf_common+0x5e>
20404ce8:	01940b13          	addi	s6,s0,25
20404cec:	5bfd                	li	s7,-1
20404cee:	445c                	lw	a5,12(s0)
20404cf0:	4098                	lw	a4,0(s1)
20404cf2:	8f99                	sub	a5,a5,a4
20404cf4:	04f94c63          	blt	s2,a5,20404d4c <_printf_common+0xb2>
20404cf8:	401c                	lw	a5,0(s0)
20404cfa:	04344683          	lbu	a3,67(s0)
20404cfe:	0207f793          	andi	a5,a5,32
20404d02:	00d036b3          	snez	a3,a3
20404d06:	eba5                	bnez	a5,20404d76 <_printf_common+0xdc>
20404d08:	04340613          	addi	a2,s0,67
20404d0c:	85d2                	mv	a1,s4
20404d0e:	854e                	mv	a0,s3
20404d10:	9a82                	jalr	s5
20404d12:	57fd                	li	a5,-1
20404d14:	04f50363          	beq	a0,a5,20404d5a <_printf_common+0xc0>
20404d18:	401c                	lw	a5,0(s0)
20404d1a:	4611                	li	a2,4
20404d1c:	4098                	lw	a4,0(s1)
20404d1e:	8b99                	andi	a5,a5,6
20404d20:	4454                	lw	a3,12(s0)
20404d22:	4481                	li	s1,0
20404d24:	00c79763          	bne	a5,a2,20404d32 <_printf_common+0x98>
20404d28:	40e684b3          	sub	s1,a3,a4
20404d2c:	0004d363          	bgez	s1,20404d32 <_printf_common+0x98>
20404d30:	4481                	li	s1,0
20404d32:	441c                	lw	a5,8(s0)
20404d34:	4818                	lw	a4,16(s0)
20404d36:	00f75463          	bge	a4,a5,20404d3e <_printf_common+0xa4>
20404d3a:	8f99                	sub	a5,a5,a4
20404d3c:	94be                	add	s1,s1,a5
20404d3e:	4901                	li	s2,0
20404d40:	0469                	addi	s0,s0,26
20404d42:	5b7d                	li	s6,-1
20404d44:	05249863          	bne	s1,s2,20404d94 <_printf_common+0xfa>
20404d48:	4501                	li	a0,0
20404d4a:	a809                	j	20404d5c <_printf_common+0xc2>
20404d4c:	4685                	li	a3,1
20404d4e:	865a                	mv	a2,s6
20404d50:	85d2                	mv	a1,s4
20404d52:	854e                	mv	a0,s3
20404d54:	9a82                	jalr	s5
20404d56:	01751e63          	bne	a0,s7,20404d72 <_printf_common+0xd8>
20404d5a:	557d                	li	a0,-1
20404d5c:	50b2                	lw	ra,44(sp)
20404d5e:	5422                	lw	s0,40(sp)
20404d60:	5492                	lw	s1,36(sp)
20404d62:	5902                	lw	s2,32(sp)
20404d64:	49f2                	lw	s3,28(sp)
20404d66:	4a62                	lw	s4,24(sp)
20404d68:	4ad2                	lw	s5,20(sp)
20404d6a:	4b42                	lw	s6,16(sp)
20404d6c:	4bb2                	lw	s7,12(sp)
20404d6e:	6145                	addi	sp,sp,48
20404d70:	8082                	ret
20404d72:	0905                	addi	s2,s2,1
20404d74:	bfad                	j	20404cee <_printf_common+0x54>
20404d76:	00d40733          	add	a4,s0,a3
20404d7a:	03000613          	li	a2,48
20404d7e:	04c701a3          	sb	a2,67(a4) # fffff043 <metal_segment_heap_target_end+0x7fffb7c3>
20404d82:	04544703          	lbu	a4,69(s0)
20404d86:	00168793          	addi	a5,a3,1
20404d8a:	97a2                	add	a5,a5,s0
20404d8c:	0689                	addi	a3,a3,2
20404d8e:	04e781a3          	sb	a4,67(a5)
20404d92:	bf9d                	j	20404d08 <_printf_common+0x6e>
20404d94:	4685                	li	a3,1
20404d96:	8622                	mv	a2,s0
20404d98:	85d2                	mv	a1,s4
20404d9a:	854e                	mv	a0,s3
20404d9c:	9a82                	jalr	s5
20404d9e:	fb650ee3          	beq	a0,s6,20404d5a <_printf_common+0xc0>
20404da2:	0905                	addi	s2,s2,1
20404da4:	b745                	j	20404d44 <_printf_common+0xaa>

20404da6 <_printf_i>:
_printf_i():
20404da6:	7179                	addi	sp,sp,-48
20404da8:	d422                	sw	s0,40(sp)
20404daa:	d226                	sw	s1,36(sp)
20404dac:	d04a                	sw	s2,32(sp)
20404dae:	ce4e                	sw	s3,28(sp)
20404db0:	d606                	sw	ra,44(sp)
20404db2:	cc52                	sw	s4,24(sp)
20404db4:	ca56                	sw	s5,20(sp)
20404db6:	c85a                	sw	s6,16(sp)
20404db8:	89b6                	mv	s3,a3
20404dba:	0185c683          	lbu	a3,24(a1)
20404dbe:	06e00793          	li	a5,110
20404dc2:	8932                	mv	s2,a2
20404dc4:	84aa                	mv	s1,a0
20404dc6:	842e                	mv	s0,a1
20404dc8:	04358613          	addi	a2,a1,67
20404dcc:	1ef68063          	beq	a3,a5,20404fac <_printf_i+0x206>
20404dd0:	06d7e263          	bltu	a5,a3,20404e34 <_printf_i+0x8e>
20404dd4:	06300793          	li	a5,99
20404dd8:	0af68263          	beq	a3,a5,20404e7c <_printf_i+0xd6>
20404ddc:	00d7ed63          	bltu	a5,a3,20404df6 <_printf_i+0x50>
20404de0:	1e068a63          	beqz	a3,20404fd4 <_printf_i+0x22e>
20404de4:	05800793          	li	a5,88
20404de8:	16f68663          	beq	a3,a5,20404f54 <_printf_i+0x1ae>
20404dec:	04240a93          	addi	s5,s0,66
20404df0:	04d40123          	sb	a3,66(s0)
20404df4:	a869                	j	20404e8e <_printf_i+0xe8>
20404df6:	06400793          	li	a5,100
20404dfa:	00f68663          	beq	a3,a5,20404e06 <_printf_i+0x60>
20404dfe:	06900793          	li	a5,105
20404e02:	fef695e3          	bne	a3,a5,20404dec <_printf_i+0x46>
20404e06:	401c                	lw	a5,0(s0)
20404e08:	4308                	lw	a0,0(a4)
20404e0a:	0807f693          	andi	a3,a5,128
20404e0e:	00450593          	addi	a1,a0,4
20404e12:	c2c1                	beqz	a3,20404e92 <_printf_i+0xec>
20404e14:	411c                	lw	a5,0(a0)
20404e16:	c30c                	sw	a1,0(a4)
20404e18:	0007d863          	bgez	a5,20404e28 <_printf_i+0x82>
20404e1c:	02d00713          	li	a4,45
20404e20:	40f007b3          	neg	a5,a5
20404e24:	04e401a3          	sb	a4,67(s0)
20404e28:	5fbfc697          	auipc	a3,0x5fbfc
20404e2c:	5b068693          	addi	a3,a3,1456 # 800013d8 <__sf_fake_stdout+0x34>
20404e30:	4729                	li	a4,10
20404e32:	a065                	j	20404eda <_printf_i+0x134>
20404e34:	07300793          	li	a5,115
20404e38:	1af68263          	beq	a3,a5,20404fdc <_printf_i+0x236>
20404e3c:	00d7ef63          	bltu	a5,a3,20404e5a <_printf_i+0xb4>
20404e40:	06f00793          	li	a5,111
20404e44:	04f68f63          	beq	a3,a5,20404ea2 <_printf_i+0xfc>
20404e48:	07000793          	li	a5,112
20404e4c:	faf690e3          	bne	a3,a5,20404dec <_printf_i+0x46>
20404e50:	419c                	lw	a5,0(a1)
20404e52:	0207e793          	ori	a5,a5,32
20404e56:	c19c                	sw	a5,0(a1)
20404e58:	a809                	j	20404e6a <_printf_i+0xc4>
20404e5a:	07500793          	li	a5,117
20404e5e:	04f68263          	beq	a3,a5,20404ea2 <_printf_i+0xfc>
20404e62:	07800793          	li	a5,120
20404e66:	f8f693e3          	bne	a3,a5,20404dec <_printf_i+0x46>
20404e6a:	07800793          	li	a5,120
20404e6e:	04f402a3          	sb	a5,69(s0)
20404e72:	5fbfc697          	auipc	a3,0x5fbfc
20404e76:	57a68693          	addi	a3,a3,1402 # 800013ec <__sf_fake_stdout+0x48>
20404e7a:	a0dd                	j	20404f60 <_printf_i+0x1ba>
20404e7c:	431c                	lw	a5,0(a4)
20404e7e:	04258a93          	addi	s5,a1,66
20404e82:	00478693          	addi	a3,a5,4
20404e86:	439c                	lw	a5,0(a5)
20404e88:	c314                	sw	a3,0(a4)
20404e8a:	04f58123          	sb	a5,66(a1)
20404e8e:	4785                	li	a5,1
20404e90:	a2ad                	j	20404ffa <_printf_i+0x254>
20404e92:	0407f693          	andi	a3,a5,64
20404e96:	411c                	lw	a5,0(a0)
20404e98:	c30c                	sw	a1,0(a4)
20404e9a:	debd                	beqz	a3,20404e18 <_printf_i+0x72>
20404e9c:	07c2                	slli	a5,a5,0x10
20404e9e:	87c1                	srai	a5,a5,0x10
20404ea0:	bfa5                	j	20404e18 <_printf_i+0x72>
20404ea2:	400c                	lw	a1,0(s0)
20404ea4:	431c                	lw	a5,0(a4)
20404ea6:	0805f813          	andi	a6,a1,128
20404eaa:	00478513          	addi	a0,a5,4
20404eae:	00080563          	beqz	a6,20404eb8 <_printf_i+0x112>
20404eb2:	c308                	sw	a0,0(a4)
20404eb4:	439c                	lw	a5,0(a5)
20404eb6:	a039                	j	20404ec4 <_printf_i+0x11e>
20404eb8:	0405f593          	andi	a1,a1,64
20404ebc:	c308                	sw	a0,0(a4)
20404ebe:	d9fd                	beqz	a1,20404eb4 <_printf_i+0x10e>
20404ec0:	0007d783          	lhu	a5,0(a5)
20404ec4:	06f00713          	li	a4,111
20404ec8:	0ce68a63          	beq	a3,a4,20404f9c <_printf_i+0x1f6>
20404ecc:	5fbfc697          	auipc	a3,0x5fbfc
20404ed0:	50c68693          	addi	a3,a3,1292 # 800013d8 <__sf_fake_stdout+0x34>
20404ed4:	4729                	li	a4,10
20404ed6:	040401a3          	sb	zero,67(s0)
20404eda:	404c                	lw	a1,4(s0)
20404edc:	c40c                	sw	a1,8(s0)
20404ede:	0005c563          	bltz	a1,20404ee8 <_printf_i+0x142>
20404ee2:	4008                	lw	a0,0(s0)
20404ee4:	996d                	andi	a0,a0,-5
20404ee6:	c008                	sw	a0,0(s0)
20404ee8:	e399                	bnez	a5,20404eee <_printf_i+0x148>
20404eea:	8ab2                	mv	s5,a2
20404eec:	cd91                	beqz	a1,20404f08 <_printf_i+0x162>
20404eee:	8ab2                	mv	s5,a2
20404ef0:	02e7f5b3          	remu	a1,a5,a4
20404ef4:	1afd                	addi	s5,s5,-1
20404ef6:	95b6                	add	a1,a1,a3
20404ef8:	0005c583          	lbu	a1,0(a1)
20404efc:	00ba8023          	sb	a1,0(s5)
20404f00:	02e7d5b3          	divu	a1,a5,a4
20404f04:	0ae7f263          	bgeu	a5,a4,20404fa8 <_printf_i+0x202>
20404f08:	47a1                	li	a5,8
20404f0a:	00f71e63          	bne	a4,a5,20404f26 <_printf_i+0x180>
20404f0e:	401c                	lw	a5,0(s0)
20404f10:	8b85                	andi	a5,a5,1
20404f12:	cb91                	beqz	a5,20404f26 <_printf_i+0x180>
20404f14:	4058                	lw	a4,4(s0)
20404f16:	481c                	lw	a5,16(s0)
20404f18:	00e7c763          	blt	a5,a4,20404f26 <_printf_i+0x180>
20404f1c:	03000793          	li	a5,48
20404f20:	fefa8fa3          	sb	a5,-1(s5)
20404f24:	1afd                	addi	s5,s5,-1
20404f26:	41560633          	sub	a2,a2,s5
20404f2a:	c810                	sw	a2,16(s0)
20404f2c:	874e                	mv	a4,s3
20404f2e:	86ca                	mv	a3,s2
20404f30:	0070                	addi	a2,sp,12
20404f32:	85a2                	mv	a1,s0
20404f34:	8526                	mv	a0,s1
20404f36:	3395                	jal	20404c9a <_printf_common>
20404f38:	5a7d                	li	s4,-1
20404f3a:	0d451463          	bne	a0,s4,20405002 <_printf_i+0x25c>
20404f3e:	557d                	li	a0,-1
20404f40:	50b2                	lw	ra,44(sp)
20404f42:	5422                	lw	s0,40(sp)
20404f44:	5492                	lw	s1,36(sp)
20404f46:	5902                	lw	s2,32(sp)
20404f48:	49f2                	lw	s3,28(sp)
20404f4a:	4a62                	lw	s4,24(sp)
20404f4c:	4ad2                	lw	s5,20(sp)
20404f4e:	4b42                	lw	s6,16(sp)
20404f50:	6145                	addi	sp,sp,48
20404f52:	8082                	ret
20404f54:	04d582a3          	sb	a3,69(a1)
20404f58:	5fbfc697          	auipc	a3,0x5fbfc
20404f5c:	48068693          	addi	a3,a3,1152 # 800013d8 <__sf_fake_stdout+0x34>
20404f60:	400c                	lw	a1,0(s0)
20404f62:	4308                	lw	a0,0(a4)
20404f64:	0805f813          	andi	a6,a1,128
20404f68:	411c                	lw	a5,0(a0)
20404f6a:	0511                	addi	a0,a0,4
20404f6c:	02080063          	beqz	a6,20404f8c <_printf_i+0x1e6>
20404f70:	c308                	sw	a0,0(a4)
20404f72:	0015f713          	andi	a4,a1,1
20404f76:	c701                	beqz	a4,20404f7e <_printf_i+0x1d8>
20404f78:	0205e593          	ori	a1,a1,32
20404f7c:	c00c                	sw	a1,0(s0)
20404f7e:	4741                	li	a4,16
20404f80:	fbb9                	bnez	a5,20404ed6 <_printf_i+0x130>
20404f82:	400c                	lw	a1,0(s0)
20404f84:	fdf5f593          	andi	a1,a1,-33
20404f88:	c00c                	sw	a1,0(s0)
20404f8a:	b7b1                	j	20404ed6 <_printf_i+0x130>
20404f8c:	0405f813          	andi	a6,a1,64
20404f90:	c308                	sw	a0,0(a4)
20404f92:	fe0800e3          	beqz	a6,20404f72 <_printf_i+0x1cc>
20404f96:	07c2                	slli	a5,a5,0x10
20404f98:	83c1                	srli	a5,a5,0x10
20404f9a:	bfe1                	j	20404f72 <_printf_i+0x1cc>
20404f9c:	5fbfc697          	auipc	a3,0x5fbfc
20404fa0:	43c68693          	addi	a3,a3,1084 # 800013d8 <__sf_fake_stdout+0x34>
20404fa4:	4721                	li	a4,8
20404fa6:	bf05                	j	20404ed6 <_printf_i+0x130>
20404fa8:	87ae                	mv	a5,a1
20404faa:	b799                	j	20404ef0 <_printf_i+0x14a>
20404fac:	4194                	lw	a3,0(a1)
20404fae:	431c                	lw	a5,0(a4)
20404fb0:	49cc                	lw	a1,20(a1)
20404fb2:	0806f813          	andi	a6,a3,128
20404fb6:	00478513          	addi	a0,a5,4
20404fba:	00080663          	beqz	a6,20404fc6 <_printf_i+0x220>
20404fbe:	c308                	sw	a0,0(a4)
20404fc0:	439c                	lw	a5,0(a5)
20404fc2:	c38c                	sw	a1,0(a5)
20404fc4:	a801                	j	20404fd4 <_printf_i+0x22e>
20404fc6:	c308                	sw	a0,0(a4)
20404fc8:	0406f693          	andi	a3,a3,64
20404fcc:	439c                	lw	a5,0(a5)
20404fce:	daf5                	beqz	a3,20404fc2 <_printf_i+0x21c>
20404fd0:	00b79023          	sh	a1,0(a5)
20404fd4:	00042823          	sw	zero,16(s0)
20404fd8:	8ab2                	mv	s5,a2
20404fda:	bf89                	j	20404f2c <_printf_i+0x186>
20404fdc:	431c                	lw	a5,0(a4)
20404fde:	41d0                	lw	a2,4(a1)
20404fe0:	4581                	li	a1,0
20404fe2:	00478693          	addi	a3,a5,4
20404fe6:	c314                	sw	a3,0(a4)
20404fe8:	0007aa83          	lw	s5,0(a5)
20404fec:	8556                	mv	a0,s5
20404fee:	3179                	jal	20404c7c <memchr>
20404ff0:	c501                	beqz	a0,20404ff8 <_printf_i+0x252>
20404ff2:	41550533          	sub	a0,a0,s5
20404ff6:	c048                	sw	a0,4(s0)
20404ff8:	405c                	lw	a5,4(s0)
20404ffa:	c81c                	sw	a5,16(s0)
20404ffc:	040401a3          	sb	zero,67(s0)
20405000:	b735                	j	20404f2c <_printf_i+0x186>
20405002:	4814                	lw	a3,16(s0)
20405004:	8656                	mv	a2,s5
20405006:	85ca                	mv	a1,s2
20405008:	8526                	mv	a0,s1
2040500a:	9982                	jalr	s3
2040500c:	f34509e3          	beq	a0,s4,20404f3e <_printf_i+0x198>
20405010:	401c                	lw	a5,0(s0)
20405012:	8b89                	andi	a5,a5,2
20405014:	e78d                	bnez	a5,2040503e <_printf_i+0x298>
20405016:	47b2                	lw	a5,12(sp)
20405018:	4448                	lw	a0,12(s0)
2040501a:	f2f553e3          	bge	a0,a5,20404f40 <_printf_i+0x19a>
2040501e:	853e                	mv	a0,a5
20405020:	b705                	j	20404f40 <_printf_i+0x19a>
20405022:	4685                	li	a3,1
20405024:	8656                	mv	a2,s5
20405026:	85ca                	mv	a1,s2
20405028:	8526                	mv	a0,s1
2040502a:	9982                	jalr	s3
2040502c:	f16509e3          	beq	a0,s6,20404f3e <_printf_i+0x198>
20405030:	0a05                	addi	s4,s4,1
20405032:	445c                	lw	a5,12(s0)
20405034:	4732                	lw	a4,12(sp)
20405036:	8f99                	sub	a5,a5,a4
20405038:	fefa45e3          	blt	s4,a5,20405022 <_printf_i+0x27c>
2040503c:	bfe9                	j	20405016 <_printf_i+0x270>
2040503e:	4a01                	li	s4,0
20405040:	01940a93          	addi	s5,s0,25
20405044:	5b7d                	li	s6,-1
20405046:	b7f5                	j	20405032 <_printf_i+0x28c>

20405048 <_read_r>:
_read_r():
20405048:	1141                	addi	sp,sp,-16
2040504a:	c422                	sw	s0,8(sp)
2040504c:	842a                	mv	s0,a0
2040504e:	852e                	mv	a0,a1
20405050:	85b2                	mv	a1,a2
20405052:	8636                	mv	a2,a3
20405054:	5fbfd797          	auipc	a5,0x5fbfd
20405058:	0207a423          	sw	zero,40(a5) # 8000207c <errno>
2040505c:	c606                	sw	ra,12(sp)
2040505e:	208d                	jal	204050c0 <_read>
20405060:	57fd                	li	a5,-1
20405062:	00f51963          	bne	a0,a5,20405074 <_read_r+0x2c>
20405066:	5fbfd797          	auipc	a5,0x5fbfd
2040506a:	01678793          	addi	a5,a5,22 # 8000207c <errno>
2040506e:	439c                	lw	a5,0(a5)
20405070:	c391                	beqz	a5,20405074 <_read_r+0x2c>
20405072:	c01c                	sw	a5,0(s0)
20405074:	40b2                	lw	ra,12(sp)
20405076:	4422                	lw	s0,8(sp)
20405078:	0141                	addi	sp,sp,16
2040507a:	8082                	ret

2040507c <_close>:
_close():
2040507c:	1141                	addi	sp,sp,-16
2040507e:	c606                	sw	ra,12(sp)
20405080:	22a5                	jal	204051e8 <__errno>
20405082:	40b2                	lw	ra,12(sp)
20405084:	05800793          	li	a5,88
20405088:	c11c                	sw	a5,0(a0)
2040508a:	557d                	li	a0,-1
2040508c:	0141                	addi	sp,sp,16
2040508e:	8082                	ret

20405090 <_fstat>:
_fstat():
20405090:	1141                	addi	sp,sp,-16
20405092:	c606                	sw	ra,12(sp)
20405094:	2a91                	jal	204051e8 <__errno>
20405096:	40b2                	lw	ra,12(sp)
20405098:	fa800793          	li	a5,-88
2040509c:	c11c                	sw	a5,0(a0)
2040509e:	557d                	li	a0,-1
204050a0:	0141                	addi	sp,sp,16
204050a2:	8082                	ret

204050a4 <_isatty>:
_isatty():
204050a4:	157d                	addi	a0,a0,-1
204050a6:	00153513          	seqz	a0,a0
204050aa:	8082                	ret

204050ac <_lseek>:
_lseek():
204050ac:	1141                	addi	sp,sp,-16
204050ae:	c606                	sw	ra,12(sp)
204050b0:	2a25                	jal	204051e8 <__errno>
204050b2:	40b2                	lw	ra,12(sp)
204050b4:	05800793          	li	a5,88
204050b8:	c11c                	sw	a5,0(a0)
204050ba:	557d                	li	a0,-1
204050bc:	0141                	addi	sp,sp,16
204050be:	8082                	ret

204050c0 <_read>:
_read():
204050c0:	1141                	addi	sp,sp,-16
204050c2:	c606                	sw	ra,12(sp)
204050c4:	2215                	jal	204051e8 <__errno>
204050c6:	40b2                	lw	ra,12(sp)
204050c8:	05800793          	li	a5,88
204050cc:	c11c                	sw	a5,0(a0)
204050ce:	557d                	li	a0,-1
204050d0:	0141                	addi	sp,sp,16
204050d2:	8082                	ret

204050d4 <_sbrk>:
_sbrk():
204050d4:	1141                	addi	sp,sp,-16
204050d6:	800037b7          	lui	a5,0x80003
204050da:	80004737          	lui	a4,0x80004
204050de:	c606                	sw	ra,12(sp)
204050e0:	c422                	sw	s0,8(sp)
204050e2:	08078793          	addi	a5,a5,128 # 80003080 <metal_segment_heap_target_end+0xfffff800>
204050e6:	88070713          	addi	a4,a4,-1920 # 80003880 <metal_segment_heap_target_end+0x0>
204050ea:	02e78463          	beq	a5,a4,20405112 <_sbrk+0x3e>
204050ee:	81418793          	addi	a5,gp,-2028 # 80000a84 <__brk>
204050f2:	4380                	lw	s0,0(a5)
204050f4:	00a406b3          	add	a3,s0,a0
204050f8:	00e6fc63          	bgeu	a3,a4,20405110 <_sbrk+0x3c>
204050fc:	85aa                	mv	a1,a0
204050fe:	8522                	mv	a0,s0
20405100:	c394                	sw	a3,0(a5)
20405102:	f99fa0ef          	jal	ra,2040009a <metal_mem_scrub>
20405106:	8522                	mv	a0,s0
20405108:	40b2                	lw	ra,12(sp)
2040510a:	4422                	lw	s0,8(sp)
2040510c:	0141                	addi	sp,sp,16
2040510e:	8082                	ret
20405110:	c398                	sw	a4,0(a5)
20405112:	547d                	li	s0,-1
20405114:	bfcd                	j	20405106 <_sbrk+0x32>

20405116 <_times>:
times():
20405116:	7179                	addi	sp,sp,-48
20405118:	d606                	sw	ra,44(sp)
2040511a:	d422                	sw	s0,40(sp)
2040511c:	d226                	sw	s1,36(sp)
2040511e:	d04a                	sw	s2,32(sp)
20405120:	ce52                	sw	s4,28(sp)
20405122:	cc56                	sw	s5,24(sp)
20405124:	ca5a                	sw	s6,20(sp)
20405126:	c85e                	sw	s7,16(sp)
20405128:	892a                	mv	s2,a0
2040512a:	1a9000ef          	jal	ra,20405ad2 <metal_cpu_get_current_hartid>
2040512e:	002c                	addi	a1,sp,8
20405130:	842a                	mv	s0,a0
20405132:	25b000ef          	jal	ra,20405b8c <metal_timer_get_timebase_frequency>
20405136:	858a                	mv	a1,sp
20405138:	8522                	mv	a0,s0
2040513a:	233000ef          	jal	ra,20405b6c <metal_timer_get_cyclecount>
2040513e:	4a22                	lw	s4,8(sp)
20405140:	4ab2                	lw	s5,12(sp)
20405142:	4b02                	lw	s6,0(sp)
20405144:	4b92                	lw	s7,4(sp)
20405146:	8652                	mv	a2,s4
20405148:	86d6                	mv	a3,s5
2040514a:	00092223          	sw	zero,4(s2)
2040514e:	00092423          	sw	zero,8(s2)
20405152:	00092623          	sw	zero,12(s2)
20405156:	855a                	mv	a0,s6
20405158:	85de                	mv	a1,s7
2040515a:	000f4437          	lui	s0,0xf4
2040515e:	2519                	jal	20405764 <__umoddi3>
20405160:	24040413          	addi	s0,s0,576 # f4240 <__stack_size+0xf3240>
20405164:	028537b3          	mulhu	a5,a0,s0
20405168:	8652                	mv	a2,s4
2040516a:	86d6                	mv	a3,s5
2040516c:	028585b3          	mul	a1,a1,s0
20405170:	02850533          	mul	a0,a0,s0
20405174:	95be                	add	a1,a1,a5
20405176:	2c61                	jal	2040540e <__udivdi3>
20405178:	84aa                	mv	s1,a0
2040517a:	8652                	mv	a2,s4
2040517c:	86d6                	mv	a3,s5
2040517e:	855a                	mv	a0,s6
20405180:	85de                	mv	a1,s7
20405182:	2471                	jal	2040540e <__udivdi3>
20405184:	02850533          	mul	a0,a0,s0
20405188:	50b2                	lw	ra,44(sp)
2040518a:	5422                	lw	s0,40(sp)
2040518c:	4a72                	lw	s4,28(sp)
2040518e:	4ae2                	lw	s5,24(sp)
20405190:	4b52                	lw	s6,20(sp)
20405192:	4bc2                	lw	s7,16(sp)
20405194:	9526                	add	a0,a0,s1
20405196:	00a92023          	sw	a0,0(s2)
2040519a:	5492                	lw	s1,36(sp)
2040519c:	5902                	lw	s2,32(sp)
2040519e:	6145                	addi	sp,sp,48
204051a0:	8082                	ret

204051a2 <_write>:
write():
204051a2:	1141                	addi	sp,sp,-16
204051a4:	c606                	sw	ra,12(sp)
204051a6:	c422                	sw	s0,8(sp)
204051a8:	c226                	sw	s1,4(sp)
204051aa:	4785                	li	a5,1
204051ac:	00f51963          	bne	a0,a5,204051be <_write+0x1c>
204051b0:	842e                	mv	s0,a1
204051b2:	00c584b3          	add	s1,a1,a2
204051b6:	00941e63          	bne	s0,s1,204051d2 <_write+0x30>
204051ba:	4501                	li	a0,0
204051bc:	a031                	j	204051c8 <_write+0x26>
204051be:	202d                	jal	204051e8 <__errno>
204051c0:	05800793          	li	a5,88
204051c4:	c11c                	sw	a5,0(a0)
204051c6:	557d                	li	a0,-1
204051c8:	40b2                	lw	ra,12(sp)
204051ca:	4422                	lw	s0,8(sp)
204051cc:	4492                	lw	s1,4(sp)
204051ce:	0141                	addi	sp,sp,16
204051d0:	8082                	ret
204051d2:	00044503          	lbu	a0,0(s0)
204051d6:	0405                	addi	s0,s0,1
204051d8:	1d5000ef          	jal	ra,20405bac <metal_tty_putc>
204051dc:	bfe9                	j	204051b6 <_write+0x14>

204051de <atexit>:
atexit():
204051de:	85aa                	mv	a1,a0
204051e0:	4681                	li	a3,0
204051e2:	4601                	li	a2,0
204051e4:	4501                	li	a0,0
204051e6:	a8d1                	j	204052ba <__register_exitproc>

204051e8 <__errno>:
__errno():
204051e8:	80c18793          	addi	a5,gp,-2036 # 80000a7c <_impure_ptr>
204051ec:	4388                	lw	a0,0(a5)
204051ee:	8082                	ret

204051f0 <exit>:
exit():
204051f0:	1141                	addi	sp,sp,-16
204051f2:	c422                	sw	s0,8(sp)
204051f4:	c606                	sw	ra,12(sp)
204051f6:	00000797          	auipc	a5,0x0
204051fa:	15078793          	addi	a5,a5,336 # 20405346 <__call_exitprocs>
204051fe:	842a                	mv	s0,a0
20405200:	c399                	beqz	a5,20405206 <exit+0x16>
20405202:	4581                	li	a1,0
20405204:	2289                	jal	20405346 <__call_exitprocs>
20405206:	81018793          	addi	a5,gp,-2032 # 80000a80 <_global_impure_ptr>
2040520a:	4388                	lw	a0,0(a5)
2040520c:	551c                	lw	a5,40(a0)
2040520e:	c391                	beqz	a5,20405212 <exit+0x22>
20405210:	9782                	jalr	a5
20405212:	8522                	mv	a0,s0
20405214:	1f9020ef          	jal	ra,20407c0c <_exit>

20405218 <__libc_fini_array>:
__libc_fini_array():
20405218:	1141                	addi	sp,sp,-16
2040521a:	ffffb797          	auipc	a5,0xffffb
2040521e:	0d678793          	addi	a5,a5,214 # 204002f0 <__fini_array_end>
20405222:	c422                	sw	s0,8(sp)
20405224:	ffffb417          	auipc	s0,0xffffb
20405228:	0cc40413          	addi	s0,s0,204 # 204002f0 <__fini_array_end>
2040522c:	8c1d                	sub	s0,s0,a5
2040522e:	c226                	sw	s1,4(sp)
20405230:	c606                	sw	ra,12(sp)
20405232:	8409                	srai	s0,s0,0x2
20405234:	84be                	mv	s1,a5
20405236:	e411                	bnez	s0,20405242 <__libc_fini_array+0x2a>
20405238:	40b2                	lw	ra,12(sp)
2040523a:	4422                	lw	s0,8(sp)
2040523c:	4492                	lw	s1,4(sp)
2040523e:	0141                	addi	sp,sp,16
20405240:	8082                	ret
20405242:	147d                	addi	s0,s0,-1
20405244:	00241793          	slli	a5,s0,0x2
20405248:	97a6                	add	a5,a5,s1
2040524a:	439c                	lw	a5,0(a5)
2040524c:	9782                	jalr	a5
2040524e:	b7e5                	j	20405236 <__libc_fini_array+0x1e>

20405250 <__libc_init_array>:
__libc_init_array():
20405250:	1141                	addi	sp,sp,-16
20405252:	ffffb797          	auipc	a5,0xffffb
20405256:	08e78793          	addi	a5,a5,142 # 204002e0 <_metal_tty_init_ptr>
2040525a:	c422                	sw	s0,8(sp)
2040525c:	ffffb417          	auipc	s0,0xffffb
20405260:	08440413          	addi	s0,s0,132 # 204002e0 <_metal_tty_init_ptr>
20405264:	8c1d                	sub	s0,s0,a5
20405266:	c226                	sw	s1,4(sp)
20405268:	c04a                	sw	s2,0(sp)
2040526a:	c606                	sw	ra,12(sp)
2040526c:	8409                	srai	s0,s0,0x2
2040526e:	4481                	li	s1,0
20405270:	893e                	mv	s2,a5
20405272:	02849663          	bne	s1,s0,2040529e <__libc_init_array+0x4e>
20405276:	ffffb797          	auipc	a5,0xffffb
2040527a:	06a78793          	addi	a5,a5,106 # 204002e0 <_metal_tty_init_ptr>
2040527e:	ffffb417          	auipc	s0,0xffffb
20405282:	06240413          	addi	s0,s0,98 # 204002e0 <_metal_tty_init_ptr>
20405286:	8c1d                	sub	s0,s0,a5
20405288:	8409                	srai	s0,s0,0x2
2040528a:	4481                	li	s1,0
2040528c:	893e                	mv	s2,a5
2040528e:	00849f63          	bne	s1,s0,204052ac <__libc_init_array+0x5c>
20405292:	40b2                	lw	ra,12(sp)
20405294:	4422                	lw	s0,8(sp)
20405296:	4492                	lw	s1,4(sp)
20405298:	4902                	lw	s2,0(sp)
2040529a:	0141                	addi	sp,sp,16
2040529c:	8082                	ret
2040529e:	00249793          	slli	a5,s1,0x2
204052a2:	97ca                	add	a5,a5,s2
204052a4:	439c                	lw	a5,0(a5)
204052a6:	0485                	addi	s1,s1,1
204052a8:	9782                	jalr	a5
204052aa:	b7e1                	j	20405272 <__libc_init_array+0x22>
204052ac:	00249793          	slli	a5,s1,0x2
204052b0:	97ca                	add	a5,a5,s2
204052b2:	439c                	lw	a5,0(a5)
204052b4:	0485                	addi	s1,s1,1
204052b6:	9782                	jalr	a5
204052b8:	bfd9                	j	2040528e <__libc_init_array+0x3e>

204052ba <__register_exitproc>:
__register_exitproc():
204052ba:	5fbfd797          	auipc	a5,0x5fbfd
204052be:	d2a78793          	addi	a5,a5,-726 # 80001fe4 <_global_atexit>
204052c2:	439c                	lw	a5,0(a5)
204052c4:	8e2a                	mv	t3,a0
204052c6:	e78d                	bnez	a5,204052f0 <__register_exitproc+0x36>
204052c8:	5fbfd717          	auipc	a4,0x5fbfd
204052cc:	d2870713          	addi	a4,a4,-728 # 80001ff0 <_global_atexit0>
204052d0:	5fbfd797          	auipc	a5,0x5fbfd
204052d4:	d0e7aa23          	sw	a4,-748(a5) # 80001fe4 <_global_atexit>
204052d8:	dfbfb517          	auipc	a0,0xdfbfb
204052dc:	d2850513          	addi	a0,a0,-728 # 0 <__metal_boot_hart>
204052e0:	87ba                	mv	a5,a4
204052e2:	c519                	beqz	a0,204052f0 <__register_exitproc+0x36>
204052e4:	411c                	lw	a5,0(a0)
204052e6:	5fbfd517          	auipc	a0,0x5fbfd
204052ea:	d8f52923          	sw	a5,-622(a0) # 80002078 <_global_atexit0+0x88>
204052ee:	87ba                	mv	a5,a4
204052f0:	43d8                	lw	a4,4(a5)
204052f2:	487d                	li	a6,31
204052f4:	557d                	li	a0,-1
204052f6:	04e84763          	blt	a6,a4,20405344 <__register_exitproc+0x8a>
204052fa:	020e0e63          	beqz	t3,20405336 <__register_exitproc+0x7c>
204052fe:	0887a803          	lw	a6,136(a5)
20405302:	04080163          	beqz	a6,20405344 <__register_exitproc+0x8a>
20405306:	00271893          	slli	a7,a4,0x2
2040530a:	98c2                	add	a7,a7,a6
2040530c:	00c8a023          	sw	a2,0(a7)
20405310:	10082303          	lw	t1,256(a6)
20405314:	4605                	li	a2,1
20405316:	00e61633          	sll	a2,a2,a4
2040531a:	00c36333          	or	t1,t1,a2
2040531e:	10682023          	sw	t1,256(a6)
20405322:	08d8a023          	sw	a3,128(a7)
20405326:	4689                	li	a3,2
20405328:	00de1763          	bne	t3,a3,20405336 <__register_exitproc+0x7c>
2040532c:	10482683          	lw	a3,260(a6)
20405330:	8e55                	or	a2,a2,a3
20405332:	10c82223          	sw	a2,260(a6)
20405336:	00170693          	addi	a3,a4,1
2040533a:	070a                	slli	a4,a4,0x2
2040533c:	c3d4                	sw	a3,4(a5)
2040533e:	97ba                	add	a5,a5,a4
20405340:	c78c                	sw	a1,8(a5)
20405342:	4501                	li	a0,0
20405344:	8082                	ret

20405346 <__call_exitprocs>:
__call_exitprocs():
20405346:	7179                	addi	sp,sp,-48
20405348:	cc52                	sw	s4,24(sp)
2040534a:	ca56                	sw	s5,20(sp)
2040534c:	c85a                	sw	s6,16(sp)
2040534e:	c65e                	sw	s7,12(sp)
20405350:	d606                	sw	ra,44(sp)
20405352:	d422                	sw	s0,40(sp)
20405354:	d226                	sw	s1,36(sp)
20405356:	d04a                	sw	s2,32(sp)
20405358:	ce4e                	sw	s3,28(sp)
2040535a:	c462                	sw	s8,8(sp)
2040535c:	8b2a                	mv	s6,a0
2040535e:	8a2e                	mv	s4,a1
20405360:	5fbfda97          	auipc	s5,0x5fbfd
20405364:	c84a8a93          	addi	s5,s5,-892 # 80001fe4 <_global_atexit>
20405368:	4b85                	li	s7,1
2040536a:	000aa403          	lw	s0,0(s5)
2040536e:	c811                	beqz	s0,20405382 <__call_exitprocs+0x3c>
20405370:	4044                	lw	s1,4(s0)
20405372:	08842983          	lw	s3,136(s0)
20405376:	fff48913          	addi	s2,s1,-1
2040537a:	048a                	slli	s1,s1,0x2
2040537c:	94a2                	add	s1,s1,s0
2040537e:	00095e63          	bgez	s2,2040539a <__call_exitprocs+0x54>
20405382:	50b2                	lw	ra,44(sp)
20405384:	5422                	lw	s0,40(sp)
20405386:	5492                	lw	s1,36(sp)
20405388:	5902                	lw	s2,32(sp)
2040538a:	49f2                	lw	s3,28(sp)
2040538c:	4a62                	lw	s4,24(sp)
2040538e:	4ad2                	lw	s5,20(sp)
20405390:	4b42                	lw	s6,16(sp)
20405392:	4bb2                	lw	s7,12(sp)
20405394:	4c22                	lw	s8,8(sp)
20405396:	6145                	addi	sp,sp,48
20405398:	8082                	ret
2040539a:	000a0e63          	beqz	s4,204053b6 <__call_exitprocs+0x70>
2040539e:	00099563          	bnez	s3,204053a8 <__call_exitprocs+0x62>
204053a2:	197d                	addi	s2,s2,-1
204053a4:	14f1                	addi	s1,s1,-4
204053a6:	bfe1                	j	2040537e <__call_exitprocs+0x38>
204053a8:	00291793          	slli	a5,s2,0x2
204053ac:	97ce                	add	a5,a5,s3
204053ae:	0807a783          	lw	a5,128(a5)
204053b2:	ff4798e3          	bne	a5,s4,204053a2 <__call_exitprocs+0x5c>
204053b6:	4058                	lw	a4,4(s0)
204053b8:	40dc                	lw	a5,4(s1)
204053ba:	177d                	addi	a4,a4,-1
204053bc:	03271863          	bne	a4,s2,204053ec <__call_exitprocs+0xa6>
204053c0:	01242223          	sw	s2,4(s0)
204053c4:	dff9                	beqz	a5,204053a2 <__call_exitprocs+0x5c>
204053c6:	00442c03          	lw	s8,4(s0)
204053ca:	00098863          	beqz	s3,204053da <__call_exitprocs+0x94>
204053ce:	1009a683          	lw	a3,256(s3)
204053d2:	012b9733          	sll	a4,s7,s2
204053d6:	8ef9                	and	a3,a3,a4
204053d8:	ee89                	bnez	a3,204053f2 <__call_exitprocs+0xac>
204053da:	9782                	jalr	a5
204053dc:	4058                	lw	a4,4(s0)
204053de:	000aa783          	lw	a5,0(s5)
204053e2:	f98714e3          	bne	a4,s8,2040536a <__call_exitprocs+0x24>
204053e6:	faf40ee3          	beq	s0,a5,204053a2 <__call_exitprocs+0x5c>
204053ea:	b741                	j	2040536a <__call_exitprocs+0x24>
204053ec:	0004a223          	sw	zero,4(s1)
204053f0:	bfd1                	j	204053c4 <__call_exitprocs+0x7e>
204053f2:	00291693          	slli	a3,s2,0x2
204053f6:	96ce                	add	a3,a3,s3
204053f8:	428c                	lw	a1,0(a3)
204053fa:	1049a683          	lw	a3,260(s3)
204053fe:	8f75                	and	a4,a4,a3
20405400:	e701                	bnez	a4,20405408 <__call_exitprocs+0xc2>
20405402:	855a                	mv	a0,s6
20405404:	9782                	jalr	a5
20405406:	bfd9                	j	204053dc <__call_exitprocs+0x96>
20405408:	852e                	mv	a0,a1
2040540a:	9782                	jalr	a5
2040540c:	bfc1                	j	204053dc <__call_exitprocs+0x96>

2040540e <__udivdi3>:
__udivdi3():
/scratch/jenkins/workspace/tpp-freedom-tools/tpp03--toolchain-only-package--scratch-carsteng/obj/x86_64-linux-ubuntu14/build/riscv-gnu-toolchain/build-gcc-newlib-stage2/riscv64-unknown-elf/rv32imac/ilp32/libgcc/../../../../../riscv-gcc/libgcc/libgcc2.c:1319
2040540e:	87ae                	mv	a5,a1
/scratch/jenkins/workspace/tpp-freedom-tools/tpp03--toolchain-only-package--scratch-carsteng/obj/x86_64-linux-ubuntu14/build/riscv-gnu-toolchain/build-gcc-newlib-stage2/riscv64-unknown-elf/rv32imac/ilp32/libgcc/../../../../../riscv-gcc/libgcc/libgcc2.c:1024
20405410:	8832                	mv	a6,a2
/scratch/jenkins/workspace/tpp-freedom-tools/tpp03--toolchain-only-package--scratch-carsteng/obj/x86_64-linux-ubuntu14/build/riscv-gnu-toolchain/build-gcc-newlib-stage2/riscv64-unknown-elf/rv32imac/ilp32/libgcc/../../../../../riscv-gcc/libgcc/libgcc2.c:1025
20405412:	8736                	mv	a4,a3
/scratch/jenkins/workspace/tpp-freedom-tools/tpp03--toolchain-only-package--scratch-carsteng/obj/x86_64-linux-ubuntu14/build/riscv-gnu-toolchain/build-gcc-newlib-stage2/riscv64-unknown-elf/rv32imac/ilp32/libgcc/../../../../../riscv-gcc/libgcc/libgcc2.c:1026
20405414:	832a                	mv	t1,a0
/scratch/jenkins/workspace/tpp-freedom-tools/tpp03--toolchain-only-package--scratch-carsteng/obj/x86_64-linux-ubuntu14/build/riscv-gnu-toolchain/build-gcc-newlib-stage2/riscv64-unknown-elf/rv32imac/ilp32/libgcc/../../../../../riscv-gcc/libgcc/libgcc2.c:1064
20405416:	20069463          	bnez	a3,2040561e <__udivdi3+0x210>
/scratch/jenkins/workspace/tpp-freedom-tools/tpp03--toolchain-only-package--scratch-carsteng/obj/x86_64-linux-ubuntu14/build/riscv-gnu-toolchain/build-gcc-newlib-stage2/riscv64-unknown-elf/rv32imac/ilp32/libgcc/../../../../../riscv-gcc/libgcc/libgcc2.c:1066
2040541a:	1a418893          	addi	a7,gp,420 # 80001414 <__clz_tab>
2040541e:	0ac5fe63          	bgeu	a1,a2,204054da <__udivdi3+0xcc>
/scratch/jenkins/workspace/tpp-freedom-tools/tpp03--toolchain-only-package--scratch-carsteng/obj/x86_64-linux-ubuntu14/build/riscv-gnu-toolchain/build-gcc-newlib-stage2/riscv64-unknown-elf/rv32imac/ilp32/libgcc/../../../../../riscv-gcc/libgcc/libgcc2.c:1070
20405422:	6741                	lui	a4,0x10
20405424:	0ae67463          	bgeu	a2,a4,204054cc <__udivdi3+0xbe>
20405428:	0ff00713          	li	a4,255
2040542c:	00c73733          	sltu	a4,a4,a2
20405430:	070e                	slli	a4,a4,0x3
20405432:	00e656b3          	srl	a3,a2,a4
20405436:	98b6                	add	a7,a7,a3
20405438:	0008c683          	lbu	a3,0(a7)
2040543c:	9736                	add	a4,a4,a3
2040543e:	02000693          	li	a3,32
20405442:	8e99                	sub	a3,a3,a4
/scratch/jenkins/workspace/tpp-freedom-tools/tpp03--toolchain-only-package--scratch-carsteng/obj/x86_64-linux-ubuntu14/build/riscv-gnu-toolchain/build-gcc-newlib-stage2/riscv64-unknown-elf/rv32imac/ilp32/libgcc/../../../../../riscv-gcc/libgcc/libgcc2.c:1072
20405444:	ca99                	beqz	a3,2040545a <__udivdi3+0x4c>
/scratch/jenkins/workspace/tpp-freedom-tools/tpp03--toolchain-only-package--scratch-carsteng/obj/x86_64-linux-ubuntu14/build/riscv-gnu-toolchain/build-gcc-newlib-stage2/riscv64-unknown-elf/rv32imac/ilp32/libgcc/../../../../../riscv-gcc/libgcc/libgcc2.c:1078
20405446:	00d797b3          	sll	a5,a5,a3
2040544a:	00e55733          	srl	a4,a0,a4
/scratch/jenkins/workspace/tpp-freedom-tools/tpp03--toolchain-only-package--scratch-carsteng/obj/x86_64-linux-ubuntu14/build/riscv-gnu-toolchain/build-gcc-newlib-stage2/riscv64-unknown-elf/rv32imac/ilp32/libgcc/../../../../../riscv-gcc/libgcc/libgcc2.c:1077
2040544e:	00d61833          	sll	a6,a2,a3
/scratch/jenkins/workspace/tpp-freedom-tools/tpp03--toolchain-only-package--scratch-carsteng/obj/x86_64-linux-ubuntu14/build/riscv-gnu-toolchain/build-gcc-newlib-stage2/riscv64-unknown-elf/rv32imac/ilp32/libgcc/../../../../../riscv-gcc/libgcc/libgcc2.c:1078
20405452:	00f765b3          	or	a1,a4,a5
/scratch/jenkins/workspace/tpp-freedom-tools/tpp03--toolchain-only-package--scratch-carsteng/obj/x86_64-linux-ubuntu14/build/riscv-gnu-toolchain/build-gcc-newlib-stage2/riscv64-unknown-elf/rv32imac/ilp32/libgcc/../../../../../riscv-gcc/libgcc/libgcc2.c:1079
20405456:	00d51333          	sll	t1,a0,a3
/scratch/jenkins/workspace/tpp-freedom-tools/tpp03--toolchain-only-package--scratch-carsteng/obj/x86_64-linux-ubuntu14/build/riscv-gnu-toolchain/build-gcc-newlib-stage2/riscv64-unknown-elf/rv32imac/ilp32/libgcc/../../../../../riscv-gcc/libgcc/libgcc2.c:1082
2040545a:	01085513          	srli	a0,a6,0x10
2040545e:	02a5f733          	remu	a4,a1,a0
20405462:	01081613          	slli	a2,a6,0x10
20405466:	8241                	srli	a2,a2,0x10
20405468:	01035693          	srli	a3,t1,0x10
2040546c:	02a5d5b3          	divu	a1,a1,a0
20405470:	0742                	slli	a4,a4,0x10
20405472:	8ed9                	or	a3,a3,a4
20405474:	02b607b3          	mul	a5,a2,a1
20405478:	872e                	mv	a4,a1
2040547a:	00f6fc63          	bgeu	a3,a5,20405492 <__udivdi3+0x84>
2040547e:	96c2                	add	a3,a3,a6
20405480:	fff58713          	addi	a4,a1,-1
20405484:	0106e763          	bltu	a3,a6,20405492 <__udivdi3+0x84>
20405488:	00f6f563          	bgeu	a3,a5,20405492 <__udivdi3+0x84>
2040548c:	ffe58713          	addi	a4,a1,-2
20405490:	96c2                	add	a3,a3,a6
20405492:	8e9d                	sub	a3,a3,a5
20405494:	02a6f7b3          	remu	a5,a3,a0
20405498:	0342                	slli	t1,t1,0x10
2040549a:	01035313          	srli	t1,t1,0x10
2040549e:	02a6d6b3          	divu	a3,a3,a0
204054a2:	07c2                	slli	a5,a5,0x10
204054a4:	0067e333          	or	t1,a5,t1
204054a8:	02d605b3          	mul	a1,a2,a3
204054ac:	8536                	mv	a0,a3
204054ae:	00b37b63          	bgeu	t1,a1,204054c4 <__udivdi3+0xb6>
204054b2:	9342                	add	t1,t1,a6
204054b4:	fff68513          	addi	a0,a3,-1
204054b8:	01036663          	bltu	t1,a6,204054c4 <__udivdi3+0xb6>
204054bc:	00b37463          	bgeu	t1,a1,204054c4 <__udivdi3+0xb6>
204054c0:	ffe68513          	addi	a0,a3,-2
204054c4:	0742                	slli	a4,a4,0x10
204054c6:	8f49                	or	a4,a4,a0
/scratch/jenkins/workspace/tpp-freedom-tools/tpp03--toolchain-only-package--scratch-carsteng/obj/x86_64-linux-ubuntu14/build/riscv-gnu-toolchain/build-gcc-newlib-stage2/riscv64-unknown-elf/rv32imac/ilp32/libgcc/../../../../../riscv-gcc/libgcc/libgcc2.c:1209
204054c8:	4581                	li	a1,0
204054ca:	a84d                	j	2040557c <__udivdi3+0x16e>
/scratch/jenkins/workspace/tpp-freedom-tools/tpp03--toolchain-only-package--scratch-carsteng/obj/x86_64-linux-ubuntu14/build/riscv-gnu-toolchain/build-gcc-newlib-stage2/riscv64-unknown-elf/rv32imac/ilp32/libgcc/../../../../../riscv-gcc/libgcc/libgcc2.c:1070
204054cc:	010006b7          	lui	a3,0x1000
204054d0:	4741                	li	a4,16
204054d2:	f6d660e3          	bltu	a2,a3,20405432 <__udivdi3+0x24>
204054d6:	4761                	li	a4,24
204054d8:	bfa9                	j	20405432 <__udivdi3+0x24>
/scratch/jenkins/workspace/tpp-freedom-tools/tpp03--toolchain-only-package--scratch-carsteng/obj/x86_64-linux-ubuntu14/build/riscv-gnu-toolchain/build-gcc-newlib-stage2/riscv64-unknown-elf/rv32imac/ilp32/libgcc/../../../../../riscv-gcc/libgcc/libgcc2.c:1091
204054da:	e601                	bnez	a2,204054e2 <__udivdi3+0xd4>
/scratch/jenkins/workspace/tpp-freedom-tools/tpp03--toolchain-only-package--scratch-carsteng/obj/x86_64-linux-ubuntu14/build/riscv-gnu-toolchain/build-gcc-newlib-stage2/riscv64-unknown-elf/rv32imac/ilp32/libgcc/../../../../../riscv-gcc/libgcc/libgcc2.c:1092
204054dc:	4685                	li	a3,1
204054de:	02c6d833          	divu	a6,a3,a2
/scratch/jenkins/workspace/tpp-freedom-tools/tpp03--toolchain-only-package--scratch-carsteng/obj/x86_64-linux-ubuntu14/build/riscv-gnu-toolchain/build-gcc-newlib-stage2/riscv64-unknown-elf/rv32imac/ilp32/libgcc/../../../../../riscv-gcc/libgcc/libgcc2.c:1094
204054e2:	66c1                	lui	a3,0x10
204054e4:	08d87e63          	bgeu	a6,a3,20405580 <__udivdi3+0x172>
204054e8:	0ff00693          	li	a3,255
204054ec:	0106f363          	bgeu	a3,a6,204054f2 <__udivdi3+0xe4>
204054f0:	4721                	li	a4,8
204054f2:	00e856b3          	srl	a3,a6,a4
204054f6:	98b6                	add	a7,a7,a3
204054f8:	0008c683          	lbu	a3,0(a7)
204054fc:	96ba                	add	a3,a3,a4
204054fe:	02000713          	li	a4,32
20405502:	8f15                	sub	a4,a4,a3
/scratch/jenkins/workspace/tpp-freedom-tools/tpp03--toolchain-only-package--scratch-carsteng/obj/x86_64-linux-ubuntu14/build/riscv-gnu-toolchain/build-gcc-newlib-stage2/riscv64-unknown-elf/rv32imac/ilp32/libgcc/../../../../../riscv-gcc/libgcc/libgcc2.c:1096
20405504:	e749                	bnez	a4,2040558e <__udivdi3+0x180>
/scratch/jenkins/workspace/tpp-freedom-tools/tpp03--toolchain-only-package--scratch-carsteng/obj/x86_64-linux-ubuntu14/build/riscv-gnu-toolchain/build-gcc-newlib-stage2/riscv64-unknown-elf/rv32imac/ilp32/libgcc/../../../../../riscv-gcc/libgcc/libgcc2.c:1105
20405506:	410787b3          	sub	a5,a5,a6
/scratch/jenkins/workspace/tpp-freedom-tools/tpp03--toolchain-only-package--scratch-carsteng/obj/x86_64-linux-ubuntu14/build/riscv-gnu-toolchain/build-gcc-newlib-stage2/riscv64-unknown-elf/rv32imac/ilp32/libgcc/../../../../../riscv-gcc/libgcc/libgcc2.c:1106
2040550a:	4585                	li	a1,1
/scratch/jenkins/workspace/tpp-freedom-tools/tpp03--toolchain-only-package--scratch-carsteng/obj/x86_64-linux-ubuntu14/build/riscv-gnu-toolchain/build-gcc-newlib-stage2/riscv64-unknown-elf/rv32imac/ilp32/libgcc/../../../../../riscv-gcc/libgcc/libgcc2.c:1124
2040550c:	01085613          	srli	a2,a6,0x10
20405510:	01081893          	slli	a7,a6,0x10
20405514:	0108d893          	srli	a7,a7,0x10
20405518:	01035693          	srli	a3,t1,0x10
2040551c:	02c7f733          	remu	a4,a5,a2
20405520:	02c7d7b3          	divu	a5,a5,a2
20405524:	0742                	slli	a4,a4,0x10
20405526:	8ed9                	or	a3,a3,a4
20405528:	02f88533          	mul	a0,a7,a5
2040552c:	873e                	mv	a4,a5
2040552e:	00a6fc63          	bgeu	a3,a0,20405546 <__udivdi3+0x138>
20405532:	96c2                	add	a3,a3,a6
20405534:	fff78713          	addi	a4,a5,-1
20405538:	0106e763          	bltu	a3,a6,20405546 <__udivdi3+0x138>
2040553c:	00a6f563          	bgeu	a3,a0,20405546 <__udivdi3+0x138>
20405540:	ffe78713          	addi	a4,a5,-2
20405544:	96c2                	add	a3,a3,a6
20405546:	8e89                	sub	a3,a3,a0
20405548:	02c6f7b3          	remu	a5,a3,a2
2040554c:	0342                	slli	t1,t1,0x10
2040554e:	01035313          	srli	t1,t1,0x10
20405552:	02c6d6b3          	divu	a3,a3,a2
20405556:	07c2                	slli	a5,a5,0x10
20405558:	0067e333          	or	t1,a5,t1
2040555c:	02d888b3          	mul	a7,a7,a3
20405560:	8536                	mv	a0,a3
20405562:	01137b63          	bgeu	t1,a7,20405578 <__udivdi3+0x16a>
20405566:	9342                	add	t1,t1,a6
20405568:	fff68513          	addi	a0,a3,-1 # ffff <__stack_size+0xefff>
2040556c:	01036663          	bltu	t1,a6,20405578 <__udivdi3+0x16a>
20405570:	01137463          	bgeu	t1,a7,20405578 <__udivdi3+0x16a>
20405574:	ffe68513          	addi	a0,a3,-2
20405578:	0742                	slli	a4,a4,0x10
2040557a:	8f49                	or	a4,a4,a0
/scratch/jenkins/workspace/tpp-freedom-tools/tpp03--toolchain-only-package--scratch-carsteng/obj/x86_64-linux-ubuntu14/build/riscv-gnu-toolchain/build-gcc-newlib-stage2/riscv64-unknown-elf/rv32imac/ilp32/libgcc/../../../../../riscv-gcc/libgcc/libgcc2.c:1321
2040557c:	853a                	mv	a0,a4
2040557e:	8082                	ret
/scratch/jenkins/workspace/tpp-freedom-tools/tpp03--toolchain-only-package--scratch-carsteng/obj/x86_64-linux-ubuntu14/build/riscv-gnu-toolchain/build-gcc-newlib-stage2/riscv64-unknown-elf/rv32imac/ilp32/libgcc/../../../../../riscv-gcc/libgcc/libgcc2.c:1094
20405580:	010006b7          	lui	a3,0x1000
20405584:	4741                	li	a4,16
20405586:	f6d866e3          	bltu	a6,a3,204054f2 <__udivdi3+0xe4>
2040558a:	4761                	li	a4,24
2040558c:	b79d                	j	204054f2 <__udivdi3+0xe4>
/scratch/jenkins/workspace/tpp-freedom-tools/tpp03--toolchain-only-package--scratch-carsteng/obj/x86_64-linux-ubuntu14/build/riscv-gnu-toolchain/build-gcc-newlib-stage2/riscv64-unknown-elf/rv32imac/ilp32/libgcc/../../../../../riscv-gcc/libgcc/libgcc2.c:1114
2040558e:	00e81833          	sll	a6,a6,a4
/scratch/jenkins/workspace/tpp-freedom-tools/tpp03--toolchain-only-package--scratch-carsteng/obj/x86_64-linux-ubuntu14/build/riscv-gnu-toolchain/build-gcc-newlib-stage2/riscv64-unknown-elf/rv32imac/ilp32/libgcc/../../../../../riscv-gcc/libgcc/libgcc2.c:1115
20405592:	00d7d5b3          	srl	a1,a5,a3
/scratch/jenkins/workspace/tpp-freedom-tools/tpp03--toolchain-only-package--scratch-carsteng/obj/x86_64-linux-ubuntu14/build/riscv-gnu-toolchain/build-gcc-newlib-stage2/riscv64-unknown-elf/rv32imac/ilp32/libgcc/../../../../../riscv-gcc/libgcc/libgcc2.c:1117
20405596:	00e51333          	sll	t1,a0,a4
/scratch/jenkins/workspace/tpp-freedom-tools/tpp03--toolchain-only-package--scratch-carsteng/obj/x86_64-linux-ubuntu14/build/riscv-gnu-toolchain/build-gcc-newlib-stage2/riscv64-unknown-elf/rv32imac/ilp32/libgcc/../../../../../riscv-gcc/libgcc/libgcc2.c:1116
2040559a:	00d556b3          	srl	a3,a0,a3
/scratch/jenkins/workspace/tpp-freedom-tools/tpp03--toolchain-only-package--scratch-carsteng/obj/x86_64-linux-ubuntu14/build/riscv-gnu-toolchain/build-gcc-newlib-stage2/riscv64-unknown-elf/rv32imac/ilp32/libgcc/../../../../../riscv-gcc/libgcc/libgcc2.c:1119
2040559e:	01085513          	srli	a0,a6,0x10
/scratch/jenkins/workspace/tpp-freedom-tools/tpp03--toolchain-only-package--scratch-carsteng/obj/x86_64-linux-ubuntu14/build/riscv-gnu-toolchain/build-gcc-newlib-stage2/riscv64-unknown-elf/rv32imac/ilp32/libgcc/../../../../../riscv-gcc/libgcc/libgcc2.c:1116
204055a2:	00e797b3          	sll	a5,a5,a4
/scratch/jenkins/workspace/tpp-freedom-tools/tpp03--toolchain-only-package--scratch-carsteng/obj/x86_64-linux-ubuntu14/build/riscv-gnu-toolchain/build-gcc-newlib-stage2/riscv64-unknown-elf/rv32imac/ilp32/libgcc/../../../../../riscv-gcc/libgcc/libgcc2.c:1119
204055a6:	02a5f733          	remu	a4,a1,a0
/scratch/jenkins/workspace/tpp-freedom-tools/tpp03--toolchain-only-package--scratch-carsteng/obj/x86_64-linux-ubuntu14/build/riscv-gnu-toolchain/build-gcc-newlib-stage2/riscv64-unknown-elf/rv32imac/ilp32/libgcc/../../../../../riscv-gcc/libgcc/libgcc2.c:1116
204055aa:	00f6e8b3          	or	a7,a3,a5
/scratch/jenkins/workspace/tpp-freedom-tools/tpp03--toolchain-only-package--scratch-carsteng/obj/x86_64-linux-ubuntu14/build/riscv-gnu-toolchain/build-gcc-newlib-stage2/riscv64-unknown-elf/rv32imac/ilp32/libgcc/../../../../../riscv-gcc/libgcc/libgcc2.c:1119
204055ae:	01081793          	slli	a5,a6,0x10
204055b2:	83c1                	srli	a5,a5,0x10
204055b4:	0108d613          	srli	a2,a7,0x10
204055b8:	02a5d5b3          	divu	a1,a1,a0
204055bc:	0742                	slli	a4,a4,0x10
204055be:	8f51                	or	a4,a4,a2
204055c0:	02b786b3          	mul	a3,a5,a1
204055c4:	862e                	mv	a2,a1
204055c6:	00d77c63          	bgeu	a4,a3,204055de <__udivdi3+0x1d0>
204055ca:	9742                	add	a4,a4,a6
204055cc:	fff58613          	addi	a2,a1,-1
204055d0:	01076763          	bltu	a4,a6,204055de <__udivdi3+0x1d0>
204055d4:	00d77563          	bgeu	a4,a3,204055de <__udivdi3+0x1d0>
204055d8:	ffe58613          	addi	a2,a1,-2
204055dc:	9742                	add	a4,a4,a6
204055de:	40d706b3          	sub	a3,a4,a3
204055e2:	02a6f733          	remu	a4,a3,a0
204055e6:	08c2                	slli	a7,a7,0x10
204055e8:	0108d893          	srli	a7,a7,0x10
204055ec:	02a6d6b3          	divu	a3,a3,a0
204055f0:	0742                	slli	a4,a4,0x10
204055f2:	02d785b3          	mul	a1,a5,a3
204055f6:	011767b3          	or	a5,a4,a7
204055fa:	8736                	mv	a4,a3
204055fc:	00b7fc63          	bgeu	a5,a1,20405614 <__udivdi3+0x206>
20405600:	97c2                	add	a5,a5,a6
20405602:	fff68713          	addi	a4,a3,-1 # ffffff <__stack_size+0xffefff>
20405606:	0107e763          	bltu	a5,a6,20405614 <__udivdi3+0x206>
2040560a:	00b7f563          	bgeu	a5,a1,20405614 <__udivdi3+0x206>
2040560e:	ffe68713          	addi	a4,a3,-2
20405612:	97c2                	add	a5,a5,a6
20405614:	8f8d                	sub	a5,a5,a1
20405616:	01061593          	slli	a1,a2,0x10
2040561a:	8dd9                	or	a1,a1,a4
2040561c:	bdc5                	j	2040550c <__udivdi3+0xfe>
/scratch/jenkins/workspace/tpp-freedom-tools/tpp03--toolchain-only-package--scratch-carsteng/obj/x86_64-linux-ubuntu14/build/riscv-gnu-toolchain/build-gcc-newlib-stage2/riscv64-unknown-elf/rv32imac/ilp32/libgcc/../../../../../riscv-gcc/libgcc/libgcc2.c:1140
2040561e:	14d5e063          	bltu	a1,a3,2040575e <__udivdi3+0x350>
/scratch/jenkins/workspace/tpp-freedom-tools/tpp03--toolchain-only-package--scratch-carsteng/obj/x86_64-linux-ubuntu14/build/riscv-gnu-toolchain/build-gcc-newlib-stage2/riscv64-unknown-elf/rv32imac/ilp32/libgcc/../../../../../riscv-gcc/libgcc/libgcc2.c:1159
20405622:	6741                	lui	a4,0x10
20405624:	02e6fc63          	bgeu	a3,a4,2040565c <__udivdi3+0x24e>
20405628:	0ff00813          	li	a6,255
2040562c:	00d83733          	sltu	a4,a6,a3
20405630:	070e                	slli	a4,a4,0x3
20405632:	00e6d833          	srl	a6,a3,a4
20405636:	1a418593          	addi	a1,gp,420 # 80001414 <__clz_tab>
2040563a:	95c2                	add	a1,a1,a6
2040563c:	0005c803          	lbu	a6,0(a1)
20405640:	02000593          	li	a1,32
20405644:	983a                	add	a6,a6,a4
20405646:	410585b3          	sub	a1,a1,a6
/scratch/jenkins/workspace/tpp-freedom-tools/tpp03--toolchain-only-package--scratch-carsteng/obj/x86_64-linux-ubuntu14/build/riscv-gnu-toolchain/build-gcc-newlib-stage2/riscv64-unknown-elf/rv32imac/ilp32/libgcc/../../../../../riscv-gcc/libgcc/libgcc2.c:1160
2040564a:	e185                	bnez	a1,2040566a <__udivdi3+0x25c>
/scratch/jenkins/workspace/tpp-freedom-tools/tpp03--toolchain-only-package--scratch-carsteng/obj/x86_64-linux-ubuntu14/build/riscv-gnu-toolchain/build-gcc-newlib-stage2/riscv64-unknown-elf/rv32imac/ilp32/libgcc/../../../../../riscv-gcc/libgcc/libgcc2.c:1172
2040564c:	4705                	li	a4,1
/scratch/jenkins/workspace/tpp-freedom-tools/tpp03--toolchain-only-package--scratch-carsteng/obj/x86_64-linux-ubuntu14/build/riscv-gnu-toolchain/build-gcc-newlib-stage2/riscv64-unknown-elf/rv32imac/ilp32/libgcc/../../../../../riscv-gcc/libgcc/libgcc2.c:1170
2040564e:	f2f6e7e3          	bltu	a3,a5,2040557c <__udivdi3+0x16e>
20405652:	00c53533          	sltu	a0,a0,a2
20405656:	00154713          	xori	a4,a0,1
2040565a:	b70d                	j	2040557c <__udivdi3+0x16e>
/scratch/jenkins/workspace/tpp-freedom-tools/tpp03--toolchain-only-package--scratch-carsteng/obj/x86_64-linux-ubuntu14/build/riscv-gnu-toolchain/build-gcc-newlib-stage2/riscv64-unknown-elf/rv32imac/ilp32/libgcc/../../../../../riscv-gcc/libgcc/libgcc2.c:1159
2040565c:	010005b7          	lui	a1,0x1000
20405660:	4741                	li	a4,16
20405662:	fcb6e8e3          	bltu	a3,a1,20405632 <__udivdi3+0x224>
20405666:	4761                	li	a4,24
20405668:	b7e9                	j	20405632 <__udivdi3+0x224>
/scratch/jenkins/workspace/tpp-freedom-tools/tpp03--toolchain-only-package--scratch-carsteng/obj/x86_64-linux-ubuntu14/build/riscv-gnu-toolchain/build-gcc-newlib-stage2/riscv64-unknown-elf/rv32imac/ilp32/libgcc/../../../../../riscv-gcc/libgcc/libgcc2.c:1194
2040566a:	01065733          	srl	a4,a2,a6
2040566e:	00b696b3          	sll	a3,a3,a1
20405672:	8ed9                	or	a3,a3,a4
/scratch/jenkins/workspace/tpp-freedom-tools/tpp03--toolchain-only-package--scratch-carsteng/obj/x86_64-linux-ubuntu14/build/riscv-gnu-toolchain/build-gcc-newlib-stage2/riscv64-unknown-elf/rv32imac/ilp32/libgcc/../../../../../riscv-gcc/libgcc/libgcc2.c:1200
20405674:	0106de93          	srli	t4,a3,0x10
/scratch/jenkins/workspace/tpp-freedom-tools/tpp03--toolchain-only-package--scratch-carsteng/obj/x86_64-linux-ubuntu14/build/riscv-gnu-toolchain/build-gcc-newlib-stage2/riscv64-unknown-elf/rv32imac/ilp32/libgcc/../../../../../riscv-gcc/libgcc/libgcc2.c:1196
20405678:	0107d733          	srl	a4,a5,a6
/scratch/jenkins/workspace/tpp-freedom-tools/tpp03--toolchain-only-package--scratch-carsteng/obj/x86_64-linux-ubuntu14/build/riscv-gnu-toolchain/build-gcc-newlib-stage2/riscv64-unknown-elf/rv32imac/ilp32/libgcc/../../../../../riscv-gcc/libgcc/libgcc2.c:1200
2040567c:	03d778b3          	remu	a7,a4,t4
/scratch/jenkins/workspace/tpp-freedom-tools/tpp03--toolchain-only-package--scratch-carsteng/obj/x86_64-linux-ubuntu14/build/riscv-gnu-toolchain/build-gcc-newlib-stage2/riscv64-unknown-elf/rv32imac/ilp32/libgcc/../../../../../riscv-gcc/libgcc/libgcc2.c:1197
20405680:	00b797b3          	sll	a5,a5,a1
20405684:	01055833          	srl	a6,a0,a6
20405688:	00f86333          	or	t1,a6,a5
/scratch/jenkins/workspace/tpp-freedom-tools/tpp03--toolchain-only-package--scratch-carsteng/obj/x86_64-linux-ubuntu14/build/riscv-gnu-toolchain/build-gcc-newlib-stage2/riscv64-unknown-elf/rv32imac/ilp32/libgcc/../../../../../riscv-gcc/libgcc/libgcc2.c:1200
2040568c:	01069793          	slli	a5,a3,0x10
20405690:	83c1                	srli	a5,a5,0x10
20405692:	01035813          	srli	a6,t1,0x10
/scratch/jenkins/workspace/tpp-freedom-tools/tpp03--toolchain-only-package--scratch-carsteng/obj/x86_64-linux-ubuntu14/build/riscv-gnu-toolchain/build-gcc-newlib-stage2/riscv64-unknown-elf/rv32imac/ilp32/libgcc/../../../../../riscv-gcc/libgcc/libgcc2.c:1195
20405696:	00b61633          	sll	a2,a2,a1
/scratch/jenkins/workspace/tpp-freedom-tools/tpp03--toolchain-only-package--scratch-carsteng/obj/x86_64-linux-ubuntu14/build/riscv-gnu-toolchain/build-gcc-newlib-stage2/riscv64-unknown-elf/rv32imac/ilp32/libgcc/../../../../../riscv-gcc/libgcc/libgcc2.c:1200
2040569a:	03d75733          	divu	a4,a4,t4
2040569e:	08c2                	slli	a7,a7,0x10
204056a0:	0108e833          	or	a6,a7,a6
204056a4:	02e78f33          	mul	t5,a5,a4
204056a8:	8e3a                	mv	t3,a4
204056aa:	01e87c63          	bgeu	a6,t5,204056c2 <__udivdi3+0x2b4>
204056ae:	9836                	add	a6,a6,a3
204056b0:	fff70e13          	addi	t3,a4,-1 # ffff <__stack_size+0xefff>
204056b4:	00d86763          	bltu	a6,a3,204056c2 <__udivdi3+0x2b4>
204056b8:	01e87563          	bgeu	a6,t5,204056c2 <__udivdi3+0x2b4>
204056bc:	ffe70e13          	addi	t3,a4,-2
204056c0:	9836                	add	a6,a6,a3
204056c2:	41e80833          	sub	a6,a6,t5
204056c6:	03d878b3          	remu	a7,a6,t4
204056ca:	03d85833          	divu	a6,a6,t4
204056ce:	08c2                	slli	a7,a7,0x10
204056d0:	03078eb3          	mul	t4,a5,a6
204056d4:	01031793          	slli	a5,t1,0x10
204056d8:	83c1                	srli	a5,a5,0x10
204056da:	00f8e7b3          	or	a5,a7,a5
204056de:	8742                	mv	a4,a6
204056e0:	01d7fc63          	bgeu	a5,t4,204056f8 <__udivdi3+0x2ea>
204056e4:	97b6                	add	a5,a5,a3
204056e6:	fff80713          	addi	a4,a6,-1
204056ea:	00d7e763          	bltu	a5,a3,204056f8 <__udivdi3+0x2ea>
204056ee:	01d7f563          	bgeu	a5,t4,204056f8 <__udivdi3+0x2ea>
204056f2:	ffe80713          	addi	a4,a6,-2
204056f6:	97b6                	add	a5,a5,a3
204056f8:	0e42                	slli	t3,t3,0x10
204056fa:	41d787b3          	sub	a5,a5,t4
/scratch/jenkins/workspace/tpp-freedom-tools/tpp03--toolchain-only-package--scratch-carsteng/obj/x86_64-linux-ubuntu14/build/riscv-gnu-toolchain/build-gcc-newlib-stage2/riscv64-unknown-elf/rv32imac/ilp32/libgcc/../../../../../riscv-gcc/libgcc/libgcc2.c:1201
204056fe:	6ec1                	lui	t4,0x10
/scratch/jenkins/workspace/tpp-freedom-tools/tpp03--toolchain-only-package--scratch-carsteng/obj/x86_64-linux-ubuntu14/build/riscv-gnu-toolchain/build-gcc-newlib-stage2/riscv64-unknown-elf/rv32imac/ilp32/libgcc/../../../../../riscv-gcc/libgcc/libgcc2.c:1200
20405700:	00ee6733          	or	a4,t3,a4
/scratch/jenkins/workspace/tpp-freedom-tools/tpp03--toolchain-only-package--scratch-carsteng/obj/x86_64-linux-ubuntu14/build/riscv-gnu-toolchain/build-gcc-newlib-stage2/riscv64-unknown-elf/rv32imac/ilp32/libgcc/../../../../../riscv-gcc/libgcc/libgcc2.c:1201
20405704:	fffe8813          	addi	a6,t4,-1 # ffff <__stack_size+0xefff>
20405708:	01077333          	and	t1,a4,a6
2040570c:	01075893          	srli	a7,a4,0x10
20405710:	01067833          	and	a6,a2,a6
20405714:	8241                	srli	a2,a2,0x10
20405716:	03030e33          	mul	t3,t1,a6
2040571a:	03088833          	mul	a6,a7,a6
2040571e:	010e5693          	srli	a3,t3,0x10
20405722:	02c30333          	mul	t1,t1,a2
20405726:	9342                	add	t1,t1,a6
20405728:	969a                	add	a3,a3,t1
2040572a:	02c888b3          	mul	a7,a7,a2
2040572e:	0106f363          	bgeu	a3,a6,20405734 <__udivdi3+0x326>
20405732:	98f6                	add	a7,a7,t4
20405734:	0106d613          	srli	a2,a3,0x10
20405738:	98b2                	add	a7,a7,a2
/scratch/jenkins/workspace/tpp-freedom-tools/tpp03--toolchain-only-package--scratch-carsteng/obj/x86_64-linux-ubuntu14/build/riscv-gnu-toolchain/build-gcc-newlib-stage2/riscv64-unknown-elf/rv32imac/ilp32/libgcc/../../../../../riscv-gcc/libgcc/libgcc2.c:1203
2040573a:	0317e063          	bltu	a5,a7,2040575a <__udivdi3+0x34c>
2040573e:	d91795e3          	bne	a5,a7,204054c8 <__udivdi3+0xba>
/scratch/jenkins/workspace/tpp-freedom-tools/tpp03--toolchain-only-package--scratch-carsteng/obj/x86_64-linux-ubuntu14/build/riscv-gnu-toolchain/build-gcc-newlib-stage2/riscv64-unknown-elf/rv32imac/ilp32/libgcc/../../../../../riscv-gcc/libgcc/libgcc2.c:1201
20405742:	67c1                	lui	a5,0x10
20405744:	17fd                	addi	a5,a5,-1
20405746:	8efd                	and	a3,a3,a5
20405748:	06c2                	slli	a3,a3,0x10
2040574a:	00fe7e33          	and	t3,t3,a5
/scratch/jenkins/workspace/tpp-freedom-tools/tpp03--toolchain-only-package--scratch-carsteng/obj/x86_64-linux-ubuntu14/build/riscv-gnu-toolchain/build-gcc-newlib-stage2/riscv64-unknown-elf/rv32imac/ilp32/libgcc/../../../../../riscv-gcc/libgcc/libgcc2.c:1198
2040574e:	00b51533          	sll	a0,a0,a1
/scratch/jenkins/workspace/tpp-freedom-tools/tpp03--toolchain-only-package--scratch-carsteng/obj/x86_64-linux-ubuntu14/build/riscv-gnu-toolchain/build-gcc-newlib-stage2/riscv64-unknown-elf/rv32imac/ilp32/libgcc/../../../../../riscv-gcc/libgcc/libgcc2.c:1201
20405752:	96f2                	add	a3,a3,t3
/scratch/jenkins/workspace/tpp-freedom-tools/tpp03--toolchain-only-package--scratch-carsteng/obj/x86_64-linux-ubuntu14/build/riscv-gnu-toolchain/build-gcc-newlib-stage2/riscv64-unknown-elf/rv32imac/ilp32/libgcc/../../../../../riscv-gcc/libgcc/libgcc2.c:1209
20405754:	4581                	li	a1,0
/scratch/jenkins/workspace/tpp-freedom-tools/tpp03--toolchain-only-package--scratch-carsteng/obj/x86_64-linux-ubuntu14/build/riscv-gnu-toolchain/build-gcc-newlib-stage2/riscv64-unknown-elf/rv32imac/ilp32/libgcc/../../../../../riscv-gcc/libgcc/libgcc2.c:1203
20405756:	e2d573e3          	bgeu	a0,a3,2040557c <__udivdi3+0x16e>
/scratch/jenkins/workspace/tpp-freedom-tools/tpp03--toolchain-only-package--scratch-carsteng/obj/x86_64-linux-ubuntu14/build/riscv-gnu-toolchain/build-gcc-newlib-stage2/riscv64-unknown-elf/rv32imac/ilp32/libgcc/../../../../../riscv-gcc/libgcc/libgcc2.c:1205
2040575a:	177d                	addi	a4,a4,-1
/scratch/jenkins/workspace/tpp-freedom-tools/tpp03--toolchain-only-package--scratch-carsteng/obj/x86_64-linux-ubuntu14/build/riscv-gnu-toolchain/build-gcc-newlib-stage2/riscv64-unknown-elf/rv32imac/ilp32/libgcc/../../../../../riscv-gcc/libgcc/libgcc2.c:1206
2040575c:	b3b5                	j	204054c8 <__udivdi3+0xba>
/scratch/jenkins/workspace/tpp-freedom-tools/tpp03--toolchain-only-package--scratch-carsteng/obj/x86_64-linux-ubuntu14/build/riscv-gnu-toolchain/build-gcc-newlib-stage2/riscv64-unknown-elf/rv32imac/ilp32/libgcc/../../../../../riscv-gcc/libgcc/libgcc2.c:1145
2040575e:	4581                	li	a1,0
/scratch/jenkins/workspace/tpp-freedom-tools/tpp03--toolchain-only-package--scratch-carsteng/obj/x86_64-linux-ubuntu14/build/riscv-gnu-toolchain/build-gcc-newlib-stage2/riscv64-unknown-elf/rv32imac/ilp32/libgcc/../../../../../riscv-gcc/libgcc/libgcc2.c:1144
20405760:	4701                	li	a4,0
20405762:	bd29                	j	2040557c <__udivdi3+0x16e>

20405764 <__umoddi3>:
__udivmoddi4():
/scratch/jenkins/workspace/tpp-freedom-tools/tpp03--toolchain-only-package--scratch-carsteng/obj/x86_64-linux-ubuntu14/build/riscv-gnu-toolchain/build-gcc-newlib-stage2/riscv64-unknown-elf/rv32imac/ilp32/libgcc/../../../../../riscv-gcc/libgcc/libgcc2.c:1024
20405764:	88b2                	mv	a7,a2
/scratch/jenkins/workspace/tpp-freedom-tools/tpp03--toolchain-only-package--scratch-carsteng/obj/x86_64-linux-ubuntu14/build/riscv-gnu-toolchain/build-gcc-newlib-stage2/riscv64-unknown-elf/rv32imac/ilp32/libgcc/../../../../../riscv-gcc/libgcc/libgcc2.c:1025
20405766:	8736                	mv	a4,a3
/scratch/jenkins/workspace/tpp-freedom-tools/tpp03--toolchain-only-package--scratch-carsteng/obj/x86_64-linux-ubuntu14/build/riscv-gnu-toolchain/build-gcc-newlib-stage2/riscv64-unknown-elf/rv32imac/ilp32/libgcc/../../../../../riscv-gcc/libgcc/libgcc2.c:1026
20405768:	87aa                	mv	a5,a0
/scratch/jenkins/workspace/tpp-freedom-tools/tpp03--toolchain-only-package--scratch-carsteng/obj/x86_64-linux-ubuntu14/build/riscv-gnu-toolchain/build-gcc-newlib-stage2/riscv64-unknown-elf/rv32imac/ilp32/libgcc/../../../../../riscv-gcc/libgcc/libgcc2.c:1027
2040576a:	882e                	mv	a6,a1
/scratch/jenkins/workspace/tpp-freedom-tools/tpp03--toolchain-only-package--scratch-carsteng/obj/x86_64-linux-ubuntu14/build/riscv-gnu-toolchain/build-gcc-newlib-stage2/riscv64-unknown-elf/rv32imac/ilp32/libgcc/../../../../../riscv-gcc/libgcc/libgcc2.c:1064
2040576c:	1c069663          	bnez	a3,20405938 <__umoddi3+0x1d4>
/scratch/jenkins/workspace/tpp-freedom-tools/tpp03--toolchain-only-package--scratch-carsteng/obj/x86_64-linux-ubuntu14/build/riscv-gnu-toolchain/build-gcc-newlib-stage2/riscv64-unknown-elf/rv32imac/ilp32/libgcc/../../../../../riscv-gcc/libgcc/libgcc2.c:1066
20405770:	1a418693          	addi	a3,gp,420 # 80001414 <__clz_tab>
20405774:	0ac5f863          	bgeu	a1,a2,20405824 <__umoddi3+0xc0>
/scratch/jenkins/workspace/tpp-freedom-tools/tpp03--toolchain-only-package--scratch-carsteng/obj/x86_64-linux-ubuntu14/build/riscv-gnu-toolchain/build-gcc-newlib-stage2/riscv64-unknown-elf/rv32imac/ilp32/libgcc/../../../../../riscv-gcc/libgcc/libgcc2.c:1070
20405778:	6341                	lui	t1,0x10
2040577a:	08667e63          	bgeu	a2,t1,20405816 <__umoddi3+0xb2>
2040577e:	0ff00313          	li	t1,255
20405782:	00c37363          	bgeu	t1,a2,20405788 <__umoddi3+0x24>
20405786:	4721                	li	a4,8
20405788:	00e65333          	srl	t1,a2,a4
2040578c:	969a                	add	a3,a3,t1
2040578e:	0006ce03          	lbu	t3,0(a3)
20405792:	02000313          	li	t1,32
20405796:	9e3a                	add	t3,t3,a4
20405798:	41c30333          	sub	t1,t1,t3
/scratch/jenkins/workspace/tpp-freedom-tools/tpp03--toolchain-only-package--scratch-carsteng/obj/x86_64-linux-ubuntu14/build/riscv-gnu-toolchain/build-gcc-newlib-stage2/riscv64-unknown-elf/rv32imac/ilp32/libgcc/../../../../../riscv-gcc/libgcc/libgcc2.c:1072
2040579c:	00030c63          	beqz	t1,204057b4 <__umoddi3+0x50>
/scratch/jenkins/workspace/tpp-freedom-tools/tpp03--toolchain-only-package--scratch-carsteng/obj/x86_64-linux-ubuntu14/build/riscv-gnu-toolchain/build-gcc-newlib-stage2/riscv64-unknown-elf/rv32imac/ilp32/libgcc/../../../../../riscv-gcc/libgcc/libgcc2.c:1078
204057a0:	006595b3          	sll	a1,a1,t1
204057a4:	01c55e33          	srl	t3,a0,t3
/scratch/jenkins/workspace/tpp-freedom-tools/tpp03--toolchain-only-package--scratch-carsteng/obj/x86_64-linux-ubuntu14/build/riscv-gnu-toolchain/build-gcc-newlib-stage2/riscv64-unknown-elf/rv32imac/ilp32/libgcc/../../../../../riscv-gcc/libgcc/libgcc2.c:1077
204057a8:	006618b3          	sll	a7,a2,t1
/scratch/jenkins/workspace/tpp-freedom-tools/tpp03--toolchain-only-package--scratch-carsteng/obj/x86_64-linux-ubuntu14/build/riscv-gnu-toolchain/build-gcc-newlib-stage2/riscv64-unknown-elf/rv32imac/ilp32/libgcc/../../../../../riscv-gcc/libgcc/libgcc2.c:1078
204057ac:	00be6833          	or	a6,t3,a1
/scratch/jenkins/workspace/tpp-freedom-tools/tpp03--toolchain-only-package--scratch-carsteng/obj/x86_64-linux-ubuntu14/build/riscv-gnu-toolchain/build-gcc-newlib-stage2/riscv64-unknown-elf/rv32imac/ilp32/libgcc/../../../../../riscv-gcc/libgcc/libgcc2.c:1079
204057b0:	006517b3          	sll	a5,a0,t1
/scratch/jenkins/workspace/tpp-freedom-tools/tpp03--toolchain-only-package--scratch-carsteng/obj/x86_64-linux-ubuntu14/build/riscv-gnu-toolchain/build-gcc-newlib-stage2/riscv64-unknown-elf/rv32imac/ilp32/libgcc/../../../../../riscv-gcc/libgcc/libgcc2.c:1082
204057b4:	0108d613          	srli	a2,a7,0x10
204057b8:	02c87733          	remu	a4,a6,a2
204057bc:	01089513          	slli	a0,a7,0x10
204057c0:	8141                	srli	a0,a0,0x10
204057c2:	0107d693          	srli	a3,a5,0x10
204057c6:	02c85833          	divu	a6,a6,a2
204057ca:	0742                	slli	a4,a4,0x10
204057cc:	8ed9                	or	a3,a3,a4
204057ce:	03050833          	mul	a6,a0,a6
204057d2:	0106f863          	bgeu	a3,a6,204057e2 <__umoddi3+0x7e>
204057d6:	96c6                	add	a3,a3,a7
204057d8:	0116e563          	bltu	a3,a7,204057e2 <__umoddi3+0x7e>
204057dc:	0106f363          	bgeu	a3,a6,204057e2 <__umoddi3+0x7e>
204057e0:	96c6                	add	a3,a3,a7
204057e2:	410686b3          	sub	a3,a3,a6
204057e6:	02c6f733          	remu	a4,a3,a2
204057ea:	07c2                	slli	a5,a5,0x10
204057ec:	83c1                	srli	a5,a5,0x10
204057ee:	02c6d6b3          	divu	a3,a3,a2
204057f2:	02d506b3          	mul	a3,a0,a3
204057f6:	01071513          	slli	a0,a4,0x10
204057fa:	8fc9                	or	a5,a5,a0
204057fc:	00d7f863          	bgeu	a5,a3,2040580c <__umoddi3+0xa8>
20405800:	97c6                	add	a5,a5,a7
20405802:	0117e563          	bltu	a5,a7,2040580c <__umoddi3+0xa8>
20405806:	00d7f363          	bgeu	a5,a3,2040580c <__umoddi3+0xa8>
2040580a:	97c6                	add	a5,a5,a7
2040580c:	8f95                	sub	a5,a5,a3
/scratch/jenkins/workspace/tpp-freedom-tools/tpp03--toolchain-only-package--scratch-carsteng/obj/x86_64-linux-ubuntu14/build/riscv-gnu-toolchain/build-gcc-newlib-stage2/riscv64-unknown-elf/rv32imac/ilp32/libgcc/../../../../../riscv-gcc/libgcc/libgcc2.c:1131
2040580e:	0067d533          	srl	a0,a5,t1
/scratch/jenkins/workspace/tpp-freedom-tools/tpp03--toolchain-only-package--scratch-carsteng/obj/x86_64-linux-ubuntu14/build/riscv-gnu-toolchain/build-gcc-newlib-stage2/riscv64-unknown-elf/rv32imac/ilp32/libgcc/../../../../../riscv-gcc/libgcc/libgcc2.c:1133
20405812:	4581                	li	a1,0
__umoddi3():
/scratch/jenkins/workspace/tpp-freedom-tools/tpp03--toolchain-only-package--scratch-carsteng/obj/x86_64-linux-ubuntu14/build/riscv-gnu-toolchain/build-gcc-newlib-stage2/riscv64-unknown-elf/rv32imac/ilp32/libgcc/../../../../../riscv-gcc/libgcc/libgcc2.c:1313
20405814:	8082                	ret
__udivmoddi4():
/scratch/jenkins/workspace/tpp-freedom-tools/tpp03--toolchain-only-package--scratch-carsteng/obj/x86_64-linux-ubuntu14/build/riscv-gnu-toolchain/build-gcc-newlib-stage2/riscv64-unknown-elf/rv32imac/ilp32/libgcc/../../../../../riscv-gcc/libgcc/libgcc2.c:1070
20405816:	01000337          	lui	t1,0x1000
2040581a:	4741                	li	a4,16
2040581c:	f66666e3          	bltu	a2,t1,20405788 <__umoddi3+0x24>
20405820:	4761                	li	a4,24
20405822:	b79d                	j	20405788 <__umoddi3+0x24>
/scratch/jenkins/workspace/tpp-freedom-tools/tpp03--toolchain-only-package--scratch-carsteng/obj/x86_64-linux-ubuntu14/build/riscv-gnu-toolchain/build-gcc-newlib-stage2/riscv64-unknown-elf/rv32imac/ilp32/libgcc/../../../../../riscv-gcc/libgcc/libgcc2.c:1091
20405824:	e601                	bnez	a2,2040582c <__umoddi3+0xc8>
/scratch/jenkins/workspace/tpp-freedom-tools/tpp03--toolchain-only-package--scratch-carsteng/obj/x86_64-linux-ubuntu14/build/riscv-gnu-toolchain/build-gcc-newlib-stage2/riscv64-unknown-elf/rv32imac/ilp32/libgcc/../../../../../riscv-gcc/libgcc/libgcc2.c:1092
20405826:	4605                	li	a2,1
20405828:	031658b3          	divu	a7,a2,a7
/scratch/jenkins/workspace/tpp-freedom-tools/tpp03--toolchain-only-package--scratch-carsteng/obj/x86_64-linux-ubuntu14/build/riscv-gnu-toolchain/build-gcc-newlib-stage2/riscv64-unknown-elf/rv32imac/ilp32/libgcc/../../../../../riscv-gcc/libgcc/libgcc2.c:1094
2040582c:	6641                	lui	a2,0x10
2040582e:	08c8f363          	bgeu	a7,a2,204058b4 <__umoddi3+0x150>
20405832:	0ff00613          	li	a2,255
20405836:	01167363          	bgeu	a2,a7,2040583c <__umoddi3+0xd8>
2040583a:	4721                	li	a4,8
2040583c:	00e8d633          	srl	a2,a7,a4
20405840:	96b2                	add	a3,a3,a2
20405842:	0006ce03          	lbu	t3,0(a3)
20405846:	02000313          	li	t1,32
2040584a:	9e3a                	add	t3,t3,a4
2040584c:	41c30333          	sub	t1,t1,t3
/scratch/jenkins/workspace/tpp-freedom-tools/tpp03--toolchain-only-package--scratch-carsteng/obj/x86_64-linux-ubuntu14/build/riscv-gnu-toolchain/build-gcc-newlib-stage2/riscv64-unknown-elf/rv32imac/ilp32/libgcc/../../../../../riscv-gcc/libgcc/libgcc2.c:1096
20405850:	06031963          	bnez	t1,204058c2 <__umoddi3+0x15e>
/scratch/jenkins/workspace/tpp-freedom-tools/tpp03--toolchain-only-package--scratch-carsteng/obj/x86_64-linux-ubuntu14/build/riscv-gnu-toolchain/build-gcc-newlib-stage2/riscv64-unknown-elf/rv32imac/ilp32/libgcc/../../../../../riscv-gcc/libgcc/libgcc2.c:1105
20405854:	411585b3          	sub	a1,a1,a7
/scratch/jenkins/workspace/tpp-freedom-tools/tpp03--toolchain-only-package--scratch-carsteng/obj/x86_64-linux-ubuntu14/build/riscv-gnu-toolchain/build-gcc-newlib-stage2/riscv64-unknown-elf/rv32imac/ilp32/libgcc/../../../../../riscv-gcc/libgcc/libgcc2.c:1124
20405858:	0108d713          	srli	a4,a7,0x10
2040585c:	01089513          	slli	a0,a7,0x10
20405860:	8141                	srli	a0,a0,0x10
20405862:	0107d613          	srli	a2,a5,0x10
20405866:	02e5f6b3          	remu	a3,a1,a4
2040586a:	02e5d5b3          	divu	a1,a1,a4
2040586e:	06c2                	slli	a3,a3,0x10
20405870:	8ed1                	or	a3,a3,a2
20405872:	02b505b3          	mul	a1,a0,a1
20405876:	00b6f863          	bgeu	a3,a1,20405886 <__umoddi3+0x122>
2040587a:	96c6                	add	a3,a3,a7
2040587c:	0116e563          	bltu	a3,a7,20405886 <__umoddi3+0x122>
20405880:	00b6f363          	bgeu	a3,a1,20405886 <__umoddi3+0x122>
20405884:	96c6                	add	a3,a3,a7
20405886:	40b685b3          	sub	a1,a3,a1
2040588a:	02e5f6b3          	remu	a3,a1,a4
2040588e:	07c2                	slli	a5,a5,0x10
20405890:	83c1                	srli	a5,a5,0x10
20405892:	02e5d5b3          	divu	a1,a1,a4
20405896:	02b505b3          	mul	a1,a0,a1
2040589a:	01069513          	slli	a0,a3,0x10
2040589e:	8fc9                	or	a5,a5,a0
204058a0:	00b7f863          	bgeu	a5,a1,204058b0 <__umoddi3+0x14c>
204058a4:	97c6                	add	a5,a5,a7
204058a6:	0117e563          	bltu	a5,a7,204058b0 <__umoddi3+0x14c>
204058aa:	00b7f363          	bgeu	a5,a1,204058b0 <__umoddi3+0x14c>
204058ae:	97c6                	add	a5,a5,a7
204058b0:	8f8d                	sub	a5,a5,a1
204058b2:	bfb1                	j	2040580e <__umoddi3+0xaa>
/scratch/jenkins/workspace/tpp-freedom-tools/tpp03--toolchain-only-package--scratch-carsteng/obj/x86_64-linux-ubuntu14/build/riscv-gnu-toolchain/build-gcc-newlib-stage2/riscv64-unknown-elf/rv32imac/ilp32/libgcc/../../../../../riscv-gcc/libgcc/libgcc2.c:1094
204058b4:	01000637          	lui	a2,0x1000
204058b8:	4741                	li	a4,16
204058ba:	f8c8e1e3          	bltu	a7,a2,2040583c <__umoddi3+0xd8>
204058be:	4761                	li	a4,24
204058c0:	bfb5                	j	2040583c <__umoddi3+0xd8>
/scratch/jenkins/workspace/tpp-freedom-tools/tpp03--toolchain-only-package--scratch-carsteng/obj/x86_64-linux-ubuntu14/build/riscv-gnu-toolchain/build-gcc-newlib-stage2/riscv64-unknown-elf/rv32imac/ilp32/libgcc/../../../../../riscv-gcc/libgcc/libgcc2.c:1114
204058c2:	006898b3          	sll	a7,a7,t1
/scratch/jenkins/workspace/tpp-freedom-tools/tpp03--toolchain-only-package--scratch-carsteng/obj/x86_64-linux-ubuntu14/build/riscv-gnu-toolchain/build-gcc-newlib-stage2/riscv64-unknown-elf/rv32imac/ilp32/libgcc/../../../../../riscv-gcc/libgcc/libgcc2.c:1115
204058c6:	01c5d733          	srl	a4,a1,t3
/scratch/jenkins/workspace/tpp-freedom-tools/tpp03--toolchain-only-package--scratch-carsteng/obj/x86_64-linux-ubuntu14/build/riscv-gnu-toolchain/build-gcc-newlib-stage2/riscv64-unknown-elf/rv32imac/ilp32/libgcc/../../../../../riscv-gcc/libgcc/libgcc2.c:1117
204058ca:	006517b3          	sll	a5,a0,t1
/scratch/jenkins/workspace/tpp-freedom-tools/tpp03--toolchain-only-package--scratch-carsteng/obj/x86_64-linux-ubuntu14/build/riscv-gnu-toolchain/build-gcc-newlib-stage2/riscv64-unknown-elf/rv32imac/ilp32/libgcc/../../../../../riscv-gcc/libgcc/libgcc2.c:1116
204058ce:	01c55e33          	srl	t3,a0,t3
/scratch/jenkins/workspace/tpp-freedom-tools/tpp03--toolchain-only-package--scratch-carsteng/obj/x86_64-linux-ubuntu14/build/riscv-gnu-toolchain/build-gcc-newlib-stage2/riscv64-unknown-elf/rv32imac/ilp32/libgcc/../../../../../riscv-gcc/libgcc/libgcc2.c:1119
204058d2:	0108d513          	srli	a0,a7,0x10
204058d6:	02a776b3          	remu	a3,a4,a0
/scratch/jenkins/workspace/tpp-freedom-tools/tpp03--toolchain-only-package--scratch-carsteng/obj/x86_64-linux-ubuntu14/build/riscv-gnu-toolchain/build-gcc-newlib-stage2/riscv64-unknown-elf/rv32imac/ilp32/libgcc/../../../../../riscv-gcc/libgcc/libgcc2.c:1116
204058da:	006595b3          	sll	a1,a1,t1
204058de:	00be6e33          	or	t3,t3,a1
/scratch/jenkins/workspace/tpp-freedom-tools/tpp03--toolchain-only-package--scratch-carsteng/obj/x86_64-linux-ubuntu14/build/riscv-gnu-toolchain/build-gcc-newlib-stage2/riscv64-unknown-elf/rv32imac/ilp32/libgcc/../../../../../riscv-gcc/libgcc/libgcc2.c:1119
204058e2:	01089593          	slli	a1,a7,0x10
204058e6:	81c1                	srli	a1,a1,0x10
204058e8:	010e5613          	srli	a2,t3,0x10
204058ec:	02a75733          	divu	a4,a4,a0
204058f0:	06c2                	slli	a3,a3,0x10
204058f2:	8ed1                	or	a3,a3,a2
204058f4:	02e58733          	mul	a4,a1,a4
204058f8:	00e6f863          	bgeu	a3,a4,20405908 <__umoddi3+0x1a4>
204058fc:	96c6                	add	a3,a3,a7
204058fe:	0116e563          	bltu	a3,a7,20405908 <__umoddi3+0x1a4>
20405902:	00e6f363          	bgeu	a3,a4,20405908 <__umoddi3+0x1a4>
20405906:	96c6                	add	a3,a3,a7
20405908:	40e68633          	sub	a2,a3,a4
2040590c:	02a676b3          	remu	a3,a2,a0
20405910:	0e42                	slli	t3,t3,0x10
20405912:	010e5e13          	srli	t3,t3,0x10
20405916:	02a65633          	divu	a2,a2,a0
2040591a:	06c2                	slli	a3,a3,0x10
2040591c:	02c58633          	mul	a2,a1,a2
20405920:	01c6e5b3          	or	a1,a3,t3
20405924:	00c5f863          	bgeu	a1,a2,20405934 <__umoddi3+0x1d0>
20405928:	95c6                	add	a1,a1,a7
2040592a:	0115e563          	bltu	a1,a7,20405934 <__umoddi3+0x1d0>
2040592e:	00c5f363          	bgeu	a1,a2,20405934 <__umoddi3+0x1d0>
20405932:	95c6                	add	a1,a1,a7
20405934:	8d91                	sub	a1,a1,a2
20405936:	b70d                	j	20405858 <__umoddi3+0xf4>
/scratch/jenkins/workspace/tpp-freedom-tools/tpp03--toolchain-only-package--scratch-carsteng/obj/x86_64-linux-ubuntu14/build/riscv-gnu-toolchain/build-gcc-newlib-stage2/riscv64-unknown-elf/rv32imac/ilp32/libgcc/../../../../../riscv-gcc/libgcc/libgcc2.c:1140
20405938:	ecd5eee3          	bltu	a1,a3,20405814 <__umoddi3+0xb0>
/scratch/jenkins/workspace/tpp-freedom-tools/tpp03--toolchain-only-package--scratch-carsteng/obj/x86_64-linux-ubuntu14/build/riscv-gnu-toolchain/build-gcc-newlib-stage2/riscv64-unknown-elf/rv32imac/ilp32/libgcc/../../../../../riscv-gcc/libgcc/libgcc2.c:1159
2040593c:	6741                	lui	a4,0x10
2040593e:	04e6f363          	bgeu	a3,a4,20405984 <__umoddi3+0x220>
20405942:	0ff00e93          	li	t4,255
20405946:	00deb733          	sltu	a4,t4,a3
2040594a:	070e                	slli	a4,a4,0x3
2040594c:	00e6d333          	srl	t1,a3,a4
20405950:	1a418893          	addi	a7,gp,420 # 80001414 <__clz_tab>
20405954:	989a                	add	a7,a7,t1
20405956:	0008ce83          	lbu	t4,0(a7)
2040595a:	02000e13          	li	t3,32
2040595e:	9eba                	add	t4,t4,a4
20405960:	41de0e33          	sub	t3,t3,t4
/scratch/jenkins/workspace/tpp-freedom-tools/tpp03--toolchain-only-package--scratch-carsteng/obj/x86_64-linux-ubuntu14/build/riscv-gnu-toolchain/build-gcc-newlib-stage2/riscv64-unknown-elf/rv32imac/ilp32/libgcc/../../../../../riscv-gcc/libgcc/libgcc2.c:1160
20405964:	020e1763          	bnez	t3,20405992 <__umoddi3+0x22e>
/scratch/jenkins/workspace/tpp-freedom-tools/tpp03--toolchain-only-package--scratch-carsteng/obj/x86_64-linux-ubuntu14/build/riscv-gnu-toolchain/build-gcc-newlib-stage2/riscv64-unknown-elf/rv32imac/ilp32/libgcc/../../../../../riscv-gcc/libgcc/libgcc2.c:1170
20405968:	00b6e463          	bltu	a3,a1,20405970 <__umoddi3+0x20c>
2040596c:	00c56963          	bltu	a0,a2,2040597e <__umoddi3+0x21a>
/scratch/jenkins/workspace/tpp-freedom-tools/tpp03--toolchain-only-package--scratch-carsteng/obj/x86_64-linux-ubuntu14/build/riscv-gnu-toolchain/build-gcc-newlib-stage2/riscv64-unknown-elf/rv32imac/ilp32/libgcc/../../../../../riscv-gcc/libgcc/libgcc2.c:1173
20405970:	40c507b3          	sub	a5,a0,a2
20405974:	8d95                	sub	a1,a1,a3
20405976:	00f53533          	sltu	a0,a0,a5
2040597a:	40a58833          	sub	a6,a1,a0
/scratch/jenkins/workspace/tpp-freedom-tools/tpp03--toolchain-only-package--scratch-carsteng/obj/x86_64-linux-ubuntu14/build/riscv-gnu-toolchain/build-gcc-newlib-stage2/riscv64-unknown-elf/rv32imac/ilp32/libgcc/../../../../../riscv-gcc/libgcc/libgcc2.c:1184
2040597e:	853e                	mv	a0,a5
20405980:	85c2                	mv	a1,a6
20405982:	bd49                	j	20405814 <__umoddi3+0xb0>
/scratch/jenkins/workspace/tpp-freedom-tools/tpp03--toolchain-only-package--scratch-carsteng/obj/x86_64-linux-ubuntu14/build/riscv-gnu-toolchain/build-gcc-newlib-stage2/riscv64-unknown-elf/rv32imac/ilp32/libgcc/../../../../../riscv-gcc/libgcc/libgcc2.c:1159
20405984:	010008b7          	lui	a7,0x1000
20405988:	4741                	li	a4,16
2040598a:	fd16e1e3          	bltu	a3,a7,2040594c <__umoddi3+0x1e8>
2040598e:	4761                	li	a4,24
20405990:	bf75                	j	2040594c <__umoddi3+0x1e8>
/scratch/jenkins/workspace/tpp-freedom-tools/tpp03--toolchain-only-package--scratch-carsteng/obj/x86_64-linux-ubuntu14/build/riscv-gnu-toolchain/build-gcc-newlib-stage2/riscv64-unknown-elf/rv32imac/ilp32/libgcc/../../../../../riscv-gcc/libgcc/libgcc2.c:1194
20405992:	01d65733          	srl	a4,a2,t4
20405996:	01c696b3          	sll	a3,a3,t3
2040599a:	8ed9                	or	a3,a3,a4
/scratch/jenkins/workspace/tpp-freedom-tools/tpp03--toolchain-only-package--scratch-carsteng/obj/x86_64-linux-ubuntu14/build/riscv-gnu-toolchain/build-gcc-newlib-stage2/riscv64-unknown-elf/rv32imac/ilp32/libgcc/../../../../../riscv-gcc/libgcc/libgcc2.c:1200
2040599c:	0106d813          	srli	a6,a3,0x10
/scratch/jenkins/workspace/tpp-freedom-tools/tpp03--toolchain-only-package--scratch-carsteng/obj/x86_64-linux-ubuntu14/build/riscv-gnu-toolchain/build-gcc-newlib-stage2/riscv64-unknown-elf/rv32imac/ilp32/libgcc/../../../../../riscv-gcc/libgcc/libgcc2.c:1196
204059a0:	01d5d733          	srl	a4,a1,t4
/scratch/jenkins/workspace/tpp-freedom-tools/tpp03--toolchain-only-package--scratch-carsteng/obj/x86_64-linux-ubuntu14/build/riscv-gnu-toolchain/build-gcc-newlib-stage2/riscv64-unknown-elf/rv32imac/ilp32/libgcc/../../../../../riscv-gcc/libgcc/libgcc2.c:1200
204059a4:	03077333          	remu	t1,a4,a6
/scratch/jenkins/workspace/tpp-freedom-tools/tpp03--toolchain-only-package--scratch-carsteng/obj/x86_64-linux-ubuntu14/build/riscv-gnu-toolchain/build-gcc-newlib-stage2/riscv64-unknown-elf/rv32imac/ilp32/libgcc/../../../../../riscv-gcc/libgcc/libgcc2.c:1197
204059a8:	01c595b3          	sll	a1,a1,t3
204059ac:	01d557b3          	srl	a5,a0,t4
204059b0:	8fcd                	or	a5,a5,a1
/scratch/jenkins/workspace/tpp-freedom-tools/tpp03--toolchain-only-package--scratch-carsteng/obj/x86_64-linux-ubuntu14/build/riscv-gnu-toolchain/build-gcc-newlib-stage2/riscv64-unknown-elf/rv32imac/ilp32/libgcc/../../../../../riscv-gcc/libgcc/libgcc2.c:1200
204059b2:	01069593          	slli	a1,a3,0x10
204059b6:	81c1                	srli	a1,a1,0x10
204059b8:	0107d893          	srli	a7,a5,0x10
/scratch/jenkins/workspace/tpp-freedom-tools/tpp03--toolchain-only-package--scratch-carsteng/obj/x86_64-linux-ubuntu14/build/riscv-gnu-toolchain/build-gcc-newlib-stage2/riscv64-unknown-elf/rv32imac/ilp32/libgcc/../../../../../riscv-gcc/libgcc/libgcc2.c:1195
204059bc:	01c61633          	sll	a2,a2,t3
/scratch/jenkins/workspace/tpp-freedom-tools/tpp03--toolchain-only-package--scratch-carsteng/obj/x86_64-linux-ubuntu14/build/riscv-gnu-toolchain/build-gcc-newlib-stage2/riscv64-unknown-elf/rv32imac/ilp32/libgcc/../../../../../riscv-gcc/libgcc/libgcc2.c:1198
204059c0:	01c51533          	sll	a0,a0,t3
/scratch/jenkins/workspace/tpp-freedom-tools/tpp03--toolchain-only-package--scratch-carsteng/obj/x86_64-linux-ubuntu14/build/riscv-gnu-toolchain/build-gcc-newlib-stage2/riscv64-unknown-elf/rv32imac/ilp32/libgcc/../../../../../riscv-gcc/libgcc/libgcc2.c:1200
204059c4:	03075733          	divu	a4,a4,a6
204059c8:	0342                	slli	t1,t1,0x10
204059ca:	011368b3          	or	a7,t1,a7
204059ce:	02e58f33          	mul	t5,a1,a4
204059d2:	833a                	mv	t1,a4
204059d4:	01e8fc63          	bgeu	a7,t5,204059ec <__umoddi3+0x288>
204059d8:	98b6                	add	a7,a7,a3
204059da:	fff70313          	addi	t1,a4,-1 # ffff <__stack_size+0xefff>
204059de:	00d8e763          	bltu	a7,a3,204059ec <__umoddi3+0x288>
204059e2:	01e8f563          	bgeu	a7,t5,204059ec <__umoddi3+0x288>
204059e6:	ffe70313          	addi	t1,a4,-2
204059ea:	98b6                	add	a7,a7,a3
204059ec:	41e888b3          	sub	a7,a7,t5
204059f0:	0308ff33          	remu	t5,a7,a6
204059f4:	0308d8b3          	divu	a7,a7,a6
204059f8:	0f42                	slli	t5,t5,0x10
204059fa:	03158833          	mul	a6,a1,a7
204059fe:	01079593          	slli	a1,a5,0x10
20405a02:	81c1                	srli	a1,a1,0x10
20405a04:	00bf65b3          	or	a1,t5,a1
20405a08:	87c6                	mv	a5,a7
20405a0a:	0105fc63          	bgeu	a1,a6,20405a22 <__umoddi3+0x2be>
20405a0e:	95b6                	add	a1,a1,a3
20405a10:	fff88793          	addi	a5,a7,-1 # ffffff <__stack_size+0xffefff>
20405a14:	00d5e763          	bltu	a1,a3,20405a22 <__umoddi3+0x2be>
20405a18:	0105f563          	bgeu	a1,a6,20405a22 <__umoddi3+0x2be>
20405a1c:	ffe88793          	addi	a5,a7,-2
20405a20:	95b6                	add	a1,a1,a3
20405a22:	0342                	slli	t1,t1,0x10
/scratch/jenkins/workspace/tpp-freedom-tools/tpp03--toolchain-only-package--scratch-carsteng/obj/x86_64-linux-ubuntu14/build/riscv-gnu-toolchain/build-gcc-newlib-stage2/riscv64-unknown-elf/rv32imac/ilp32/libgcc/../../../../../riscv-gcc/libgcc/libgcc2.c:1201
20405a24:	6f41                	lui	t5,0x10
/scratch/jenkins/workspace/tpp-freedom-tools/tpp03--toolchain-only-package--scratch-carsteng/obj/x86_64-linux-ubuntu14/build/riscv-gnu-toolchain/build-gcc-newlib-stage2/riscv64-unknown-elf/rv32imac/ilp32/libgcc/../../../../../riscv-gcc/libgcc/libgcc2.c:1200
20405a26:	00f36333          	or	t1,t1,a5
/scratch/jenkins/workspace/tpp-freedom-tools/tpp03--toolchain-only-package--scratch-carsteng/obj/x86_64-linux-ubuntu14/build/riscv-gnu-toolchain/build-gcc-newlib-stage2/riscv64-unknown-elf/rv32imac/ilp32/libgcc/../../../../../riscv-gcc/libgcc/libgcc2.c:1201
20405a2a:	ffff0793          	addi	a5,t5,-1 # ffff <__stack_size+0xefff>
20405a2e:	00f378b3          	and	a7,t1,a5
/scratch/jenkins/workspace/tpp-freedom-tools/tpp03--toolchain-only-package--scratch-carsteng/obj/x86_64-linux-ubuntu14/build/riscv-gnu-toolchain/build-gcc-newlib-stage2/riscv64-unknown-elf/rv32imac/ilp32/libgcc/../../../../../riscv-gcc/libgcc/libgcc2.c:1200
20405a32:	410585b3          	sub	a1,a1,a6
/scratch/jenkins/workspace/tpp-freedom-tools/tpp03--toolchain-only-package--scratch-carsteng/obj/x86_64-linux-ubuntu14/build/riscv-gnu-toolchain/build-gcc-newlib-stage2/riscv64-unknown-elf/rv32imac/ilp32/libgcc/../../../../../riscv-gcc/libgcc/libgcc2.c:1201
20405a36:	01035313          	srli	t1,t1,0x10
20405a3a:	01065813          	srli	a6,a2,0x10
20405a3e:	8ff1                	and	a5,a5,a2
20405a40:	02f88733          	mul	a4,a7,a5
20405a44:	02f307b3          	mul	a5,t1,a5
20405a48:	030888b3          	mul	a7,a7,a6
20405a4c:	03030333          	mul	t1,t1,a6
20405a50:	98be                	add	a7,a7,a5
20405a52:	01075813          	srli	a6,a4,0x10
20405a56:	9846                	add	a6,a6,a7
20405a58:	00f87363          	bgeu	a6,a5,20405a5e <__umoddi3+0x2fa>
20405a5c:	937a                	add	t1,t1,t5
20405a5e:	01085793          	srli	a5,a6,0x10
20405a62:	933e                	add	t1,t1,a5
20405a64:	67c1                	lui	a5,0x10
20405a66:	17fd                	addi	a5,a5,-1
20405a68:	00f87833          	and	a6,a6,a5
20405a6c:	0842                	slli	a6,a6,0x10
20405a6e:	8f7d                	and	a4,a4,a5
20405a70:	9742                	add	a4,a4,a6
/scratch/jenkins/workspace/tpp-freedom-tools/tpp03--toolchain-only-package--scratch-carsteng/obj/x86_64-linux-ubuntu14/build/riscv-gnu-toolchain/build-gcc-newlib-stage2/riscv64-unknown-elf/rv32imac/ilp32/libgcc/../../../../../riscv-gcc/libgcc/libgcc2.c:1203
20405a72:	0065e663          	bltu	a1,t1,20405a7e <__umoddi3+0x31a>
20405a76:	00659c63          	bne	a1,t1,20405a8e <__umoddi3+0x32a>
20405a7a:	00e57a63          	bgeu	a0,a4,20405a8e <__umoddi3+0x32a>
/scratch/jenkins/workspace/tpp-freedom-tools/tpp03--toolchain-only-package--scratch-carsteng/obj/x86_64-linux-ubuntu14/build/riscv-gnu-toolchain/build-gcc-newlib-stage2/riscv64-unknown-elf/rv32imac/ilp32/libgcc/../../../../../riscv-gcc/libgcc/libgcc2.c:1206
20405a7e:	40c70633          	sub	a2,a4,a2
20405a82:	00c73733          	sltu	a4,a4,a2
20405a86:	9736                	add	a4,a4,a3
20405a88:	40e30333          	sub	t1,t1,a4
20405a8c:	8732                	mv	a4,a2
/scratch/jenkins/workspace/tpp-freedom-tools/tpp03--toolchain-only-package--scratch-carsteng/obj/x86_64-linux-ubuntu14/build/riscv-gnu-toolchain/build-gcc-newlib-stage2/riscv64-unknown-elf/rv32imac/ilp32/libgcc/../../../../../riscv-gcc/libgcc/libgcc2.c:1214
20405a8e:	40e50733          	sub	a4,a0,a4
20405a92:	00e53533          	sltu	a0,a0,a4
20405a96:	406585b3          	sub	a1,a1,t1
20405a9a:	8d89                	sub	a1,a1,a0
/scratch/jenkins/workspace/tpp-freedom-tools/tpp03--toolchain-only-package--scratch-carsteng/obj/x86_64-linux-ubuntu14/build/riscv-gnu-toolchain/build-gcc-newlib-stage2/riscv64-unknown-elf/rv32imac/ilp32/libgcc/../../../../../riscv-gcc/libgcc/libgcc2.c:1215
20405a9c:	01d597b3          	sll	a5,a1,t4
20405aa0:	01c75733          	srl	a4,a4,t3
/scratch/jenkins/workspace/tpp-freedom-tools/tpp03--toolchain-only-package--scratch-carsteng/obj/x86_64-linux-ubuntu14/build/riscv-gnu-toolchain/build-gcc-newlib-stage2/riscv64-unknown-elf/rv32imac/ilp32/libgcc/../../../../../riscv-gcc/libgcc/libgcc2.c:1217
20405aa4:	00e7e533          	or	a0,a5,a4
20405aa8:	01c5d5b3          	srl	a1,a1,t3
__umoddi3():
/scratch/jenkins/workspace/tpp-freedom-tools/tpp03--toolchain-only-package--scratch-carsteng/obj/x86_64-linux-ubuntu14/build/riscv-gnu-toolchain/build-gcc-newlib-stage2/riscv64-unknown-elf/rv32imac/ilp32/libgcc/../../../../../riscv-gcc/libgcc/libgcc2.c:1312
20405aac:	b3a5                	j	20405814 <__umoddi3+0xb0>

20405aae <metal_cpu_get_timer>:
metal_cpu_get_timer():
20405aae:	411c                	lw	a5,0(a0)
20405ab0:	0007a303          	lw	t1,0(a5) # 10000 <__stack_size+0xf000>
20405ab4:	8302                	jr	t1

20405ab6 <metal_cpu_get_timebase>:
metal_cpu_get_timebase():
20405ab6:	411c                	lw	a5,0(a0)
20405ab8:	0047a303          	lw	t1,4(a5)
20405abc:	8302                	jr	t1

20405abe <metal_cpu_interrupt_controller>:
metal_cpu_interrupt_controller():
20405abe:	411c                	lw	a5,0(a0)
20405ac0:	02c7a303          	lw	t1,44(a5)
20405ac4:	8302                	jr	t1

20405ac6 <metal_cpu_get>:
metal_cpu_get():
20405ac6:	e501                	bnez	a0,20405ace <metal_cpu_get+0x8>
20405ac8:	8181a503          	lw	a0,-2024(gp) # 80000a88 <__metal_cpu_table>
20405acc:	8082                	ret
20405ace:	4501                	li	a0,0
20405ad0:	8082                	ret

20405ad2 <metal_cpu_get_current_hartid>:
metal_cpu_get_current_hartid():
20405ad2:	f1402573          	csrr	a0,mhartid
20405ad6:	8082                	ret

20405ad8 <metal_init>:
metal_init():
20405ad8:	800027b7          	lui	a5,0x80002
20405adc:	fec78793          	addi	a5,a5,-20 # 80001fec <metal_segment_heap_target_end+0xffffe76c>
20405ae0:	4398                	lw	a4,0(a5)
20405ae2:	ef15                	bnez	a4,20405b1e <metal_init+0x46>
20405ae4:	1141                	addi	sp,sp,-16
20405ae6:	c422                	sw	s0,8(sp)
20405ae8:	c226                	sw	s1,4(sp)
20405aea:	20400437          	lui	s0,0x20400
20405aee:	c606                	sw	ra,12(sp)
20405af0:	4705                	li	a4,1
20405af2:	204004b7          	lui	s1,0x20400
20405af6:	c398                	sw	a4,0(a5)
20405af8:	2ec48493          	addi	s1,s1,748 # 204002ec <metal_constructors_end>
20405afc:	2e040793          	addi	a5,s0,736 # 204002e0 <_metal_tty_init_ptr>
20405b00:	2e040413          	addi	s0,s0,736
20405b04:	0097ea63          	bltu	a5,s1,20405b18 <metal_init+0x40>
20405b08:	40b2                	lw	ra,12(sp)
20405b0a:	4422                	lw	s0,8(sp)
20405b0c:	4492                	lw	s1,4(sp)
20405b0e:	0141                	addi	sp,sp,16
20405b10:	8082                	ret
20405b12:	401c                	lw	a5,0(s0)
20405b14:	0411                	addi	s0,s0,4
20405b16:	9782                	jalr	a5
20405b18:	fe941de3          	bne	s0,s1,20405b12 <metal_init+0x3a>
20405b1c:	b7f5                	j	20405b08 <metal_init+0x30>
20405b1e:	8082                	ret

20405b20 <metal_fini>:
metal_fini():
20405b20:	800027b7          	lui	a5,0x80002
20405b24:	fe878793          	addi	a5,a5,-24 # 80001fe8 <metal_segment_heap_target_end+0xffffe768>
20405b28:	4398                	lw	a4,0(a5)
20405b2a:	ef15                	bnez	a4,20405b66 <metal_fini+0x46>
20405b2c:	1141                	addi	sp,sp,-16
20405b2e:	c422                	sw	s0,8(sp)
20405b30:	c226                	sw	s1,4(sp)
20405b32:	20400437          	lui	s0,0x20400
20405b36:	c606                	sw	ra,12(sp)
20405b38:	4705                	li	a4,1
20405b3a:	204004b7          	lui	s1,0x20400
20405b3e:	c398                	sw	a4,0(a5)
20405b40:	2f048493          	addi	s1,s1,752 # 204002f0 <__fini_array_end>
20405b44:	2f040793          	addi	a5,s0,752 # 204002f0 <__fini_array_end>
20405b48:	2f040413          	addi	s0,s0,752
20405b4c:	0097ea63          	bltu	a5,s1,20405b60 <metal_fini+0x40>
20405b50:	40b2                	lw	ra,12(sp)
20405b52:	4422                	lw	s0,8(sp)
20405b54:	4492                	lw	s1,4(sp)
20405b56:	0141                	addi	sp,sp,16
20405b58:	8082                	ret
20405b5a:	401c                	lw	a5,0(s0)
20405b5c:	0411                	addi	s0,s0,4
20405b5e:	9782                	jalr	a5
20405b60:	fe941de3          	bne	s0,s1,20405b5a <metal_fini+0x3a>
20405b64:	b7f5                	j	20405b50 <metal_fini+0x30>
20405b66:	8082                	ret

20405b68 <metal_init_run>:
metal_init_run():
20405b68:	bf85                	j	20405ad8 <metal_init>

20405b6a <metal_fini_run>:
metal_fini_run():
20405b6a:	bf5d                	j	20405b20 <metal_fini>

20405b6c <metal_timer_get_cyclecount>:
metal_timer_get_cyclecount():
20405b6c:	1141                	addi	sp,sp,-16
20405b6e:	c422                	sw	s0,8(sp)
20405b70:	c606                	sw	ra,12(sp)
20405b72:	842e                	mv	s0,a1
20405b74:	3f89                	jal	20405ac6 <metal_cpu_get>
20405b76:	c909                	beqz	a0,20405b88 <metal_timer_get_cyclecount+0x1c>
20405b78:	3f1d                	jal	20405aae <metal_cpu_get_timer>
20405b7a:	c008                	sw	a0,0(s0)
20405b7c:	c04c                	sw	a1,4(s0)
20405b7e:	4501                	li	a0,0
20405b80:	40b2                	lw	ra,12(sp)
20405b82:	4422                	lw	s0,8(sp)
20405b84:	0141                	addi	sp,sp,16
20405b86:	8082                	ret
20405b88:	557d                	li	a0,-1
20405b8a:	bfdd                	j	20405b80 <metal_timer_get_cyclecount+0x14>

20405b8c <metal_timer_get_timebase_frequency>:
metal_timer_get_timebase_frequency():
20405b8c:	1141                	addi	sp,sp,-16
20405b8e:	c422                	sw	s0,8(sp)
20405b90:	c606                	sw	ra,12(sp)
20405b92:	842e                	mv	s0,a1
20405b94:	3f0d                	jal	20405ac6 <metal_cpu_get>
20405b96:	c909                	beqz	a0,20405ba8 <metal_timer_get_timebase_frequency+0x1c>
20405b98:	3f39                	jal	20405ab6 <metal_cpu_get_timebase>
20405b9a:	c008                	sw	a0,0(s0)
20405b9c:	c04c                	sw	a1,4(s0)
20405b9e:	4501                	li	a0,0
20405ba0:	40b2                	lw	ra,12(sp)
20405ba2:	4422                	lw	s0,8(sp)
20405ba4:	0141                	addi	sp,sp,16
20405ba6:	8082                	ret
20405ba8:	557d                	li	a0,-1
20405baa:	bfdd                	j	20405ba0 <metal_timer_get_timebase_frequency+0x14>

20405bac <metal_tty_putc>:
metal_tty_putc():
20405bac:	85aa                	mv	a1,a0
20405bae:	80001537          	lui	a0,0x80001
20405bb2:	a5050513          	addi	a0,a0,-1456 # 80000a50 <metal_segment_heap_target_end+0xffffd1d0>
20405bb6:	a029                	j	20405bc0 <metal_uart_putc>

20405bb8 <metal_uart_init>:
metal_uart_init():
20405bb8:	411c                	lw	a5,0(a0)
20405bba:	0007a303          	lw	t1,0(a5)
20405bbe:	8302                	jr	t1

20405bc0 <metal_uart_putc>:
metal_uart_putc():
20405bc0:	411c                	lw	a5,0(a0)
20405bc2:	0047a303          	lw	t1,4(a5)
20405bc6:	8302                	jr	t1

20405bc8 <metal_uart_set_baud_rate>:
metal_uart_set_baud_rate():
20405bc8:	411c                	lw	a5,0(a0)
20405bca:	0147a303          	lw	t1,20(a5)
20405bce:	8302                	jr	t1

20405bd0 <__metal_driver_riscv_clint0_mtimecmp_set>:
__metal_driver_riscv_clint0_mtimecmp_set():
20405bd0:	81c18793          	addi	a5,gp,-2020 # 80000a8c <__metal_dt_clint_2000000>
20405bd4:	02000737          	lui	a4,0x2000
20405bd8:	00a78363          	beq	a5,a0,20405bde <__metal_driver_riscv_clint0_mtimecmp_set+0xe>
20405bdc:	4701                	li	a4,0
20405bde:	058e                	slli	a1,a1,0x3
20405be0:	95ba                	add	a1,a1,a4
20405be2:	6711                	lui	a4,0x4
20405be4:	00470793          	addi	a5,a4,4 # 4004 <__stack_size+0x3004>
20405be8:	97ae                	add	a5,a5,a1
20405bea:	557d                	li	a0,-1
20405bec:	c388                	sw	a0,0(a5)
20405bee:	95ba                	add	a1,a1,a4
20405bf0:	c190                	sw	a2,0(a1)
20405bf2:	c394                	sw	a3,0(a5)
20405bf4:	4501                	li	a0,0
20405bf6:	8082                	ret

20405bf8 <__metal_driver_riscv_clint0_vector_register>:
__metal_driver_riscv_clint0_vector_register():
20405bf8:	557d                	li	a0,-1
20405bfa:	8082                	ret

20405bfc <__metal_driver_riscv_clint0_get_vector_mode>:
__metal_driver_riscv_clint0_get_vector_mode():
20405bfc:	75f0006f          	j	20406b5a <__metal_controller_interrupt_vector_mode>

20405c00 <_get_cpu_intc>:
_get_cpu_intc():
20405c00:	1141                	addi	sp,sp,-16
20405c02:	c606                	sw	ra,12(sp)
20405c04:	f1402573          	csrr	a0,mhartid
20405c08:	3d7d                	jal	20405ac6 <metal_cpu_get>
20405c0a:	40b2                	lw	ra,12(sp)
20405c0c:	0141                	addi	sp,sp,16
20405c0e:	bd45                	j	20405abe <metal_cpu_interrupt_controller>

20405c10 <__metal_driver_riscv_clint0_set_vector_mode>:
__metal_driver_riscv_clint0_set_vector_mode():
20405c10:	1101                	addi	sp,sp,-32
20405c12:	ce06                	sw	ra,28(sp)
20405c14:	c62e                	sw	a1,12(sp)
20405c16:	37ed                	jal	20405c00 <_get_cpu_intc>
20405c18:	c919                	beqz	a0,20405c2e <__metal_driver_riscv_clint0_set_vector_mode+0x1e>
20405c1a:	45b2                	lw	a1,12(sp)
20405c1c:	4705                	li	a4,1
20405c1e:	00b76863          	bltu	a4,a1,20405c2e <__metal_driver_riscv_clint0_set_vector_mode+0x1e>
20405c22:	411c                	lw	a5,0(a0)
20405c24:	40f2                	lw	ra,28(sp)
20405c26:	0047a303          	lw	t1,4(a5)
20405c2a:	6105                	addi	sp,sp,32
20405c2c:	8302                	jr	t1
20405c2e:	40f2                	lw	ra,28(sp)
20405c30:	557d                	li	a0,-1
20405c32:	6105                	addi	sp,sp,32
20405c34:	8082                	ret

20405c36 <__metal_driver_riscv_clint0_init>:
__metal_driver_riscv_clint0_init():
20405c36:	1101                	addi	sp,sp,-32
20405c38:	c84a                	sw	s2,16(sp)
20405c3a:	ce06                	sw	ra,28(sp)
20405c3c:	cc22                	sw	s0,24(sp)
20405c3e:	ca26                	sw	s1,20(sp)
20405c40:	c64e                	sw	s3,12(sp)
20405c42:	81c18793          	addi	a5,gp,-2020 # 80000a8c <__metal_dt_clint_2000000>
20405c46:	4901                	li	s2,0
20405c48:	00f51363          	bne	a0,a5,20405c4e <__metal_driver_riscv_clint0_init+0x18>
20405c4c:	4909                	li	s2,2
20405c4e:	4144                	lw	s1,4(a0)
20405c50:	e881                	bnez	s1,20405c60 <__metal_driver_riscv_clint0_init+0x2a>
20405c52:	842a                	mv	s0,a0
20405c54:	800009b7          	lui	s3,0x80000
20405c58:	01249b63          	bne	s1,s2,20405c6e <__metal_driver_riscv_clint0_init+0x38>
20405c5c:	4785                	li	a5,1
20405c5e:	c05c                	sw	a5,4(s0)
20405c60:	40f2                	lw	ra,28(sp)
20405c62:	4462                	lw	s0,24(sp)
20405c64:	44d2                	lw	s1,20(sp)
20405c66:	4942                	lw	s2,16(sp)
20405c68:	49b2                	lw	s3,12(sp)
20405c6a:	6105                	addi	sp,sp,32
20405c6c:	8082                	ret
20405c6e:	458d                	li	a1,3
20405c70:	c091                	beqz	s1,20405c74 <__metal_driver_riscv_clint0_init+0x3e>
20405c72:	459d                	li	a1,7
20405c74:	0a89a783          	lw	a5,168(s3) # 800000a8 <metal_segment_heap_target_end+0xffffc828>
20405c78:	86a2                	mv	a3,s0
20405c7a:	4601                	li	a2,0
20405c7c:	4fdc                	lw	a5,28(a5)
20405c7e:	0a898513          	addi	a0,s3,168
20405c82:	0485                	addi	s1,s1,1
20405c84:	9782                	jalr	a5
20405c86:	bfc9                	j	20405c58 <__metal_driver_riscv_clint0_init+0x22>

20405c88 <__metal_driver_riscv_clint0_disable>:
__metal_driver_riscv_clint0_disable():
20405c88:	c1b9                	beqz	a1,20405cce <__metal_driver_riscv_clint0_disable+0x46>
20405c8a:	1101                	addi	sp,sp,-32
20405c8c:	cc22                	sw	s0,24(sp)
20405c8e:	c62e                	sw	a1,12(sp)
20405c90:	ce06                	sw	ra,28(sp)
20405c92:	842a                	mv	s0,a0
20405c94:	37b5                	jal	20405c00 <_get_cpu_intc>
20405c96:	81c18793          	addi	a5,gp,-2020 # 80000a8c <__metal_dt_clint_2000000>
20405c9a:	45b2                	lw	a1,12(sp)
20405c9c:	02f41463          	bne	s0,a5,20405cc4 <__metal_driver_riscv_clint0_disable+0x3c>
20405ca0:	800007b7          	lui	a5,0x80000
20405ca4:	0a878793          	addi	a5,a5,168 # 800000a8 <metal_segment_heap_target_end+0xffffc828>
20405ca8:	00f51e63          	bne	a0,a5,20405cc4 <__metal_driver_riscv_clint0_disable+0x3c>
20405cac:	ffb5f793          	andi	a5,a1,-5
20405cb0:	468d                	li	a3,3
20405cb2:	00d79963          	bne	a5,a3,20405cc4 <__metal_driver_riscv_clint0_disable+0x3c>
20405cb6:	411c                	lw	a5,0(a0)
20405cb8:	4462                	lw	s0,24(sp)
20405cba:	40f2                	lw	ra,28(sp)
20405cbc:	0287a303          	lw	t1,40(a5)
20405cc0:	6105                	addi	sp,sp,32
20405cc2:	8302                	jr	t1
20405cc4:	40f2                	lw	ra,28(sp)
20405cc6:	4462                	lw	s0,24(sp)
20405cc8:	557d                	li	a0,-1
20405cca:	6105                	addi	sp,sp,32
20405ccc:	8082                	ret
20405cce:	557d                	li	a0,-1
20405cd0:	8082                	ret

20405cd2 <__metal_driver_riscv_clint0_enable>:
__metal_driver_riscv_clint0_enable():
20405cd2:	c1b9                	beqz	a1,20405d18 <__metal_driver_riscv_clint0_enable+0x46>
20405cd4:	1101                	addi	sp,sp,-32
20405cd6:	cc22                	sw	s0,24(sp)
20405cd8:	c62e                	sw	a1,12(sp)
20405cda:	ce06                	sw	ra,28(sp)
20405cdc:	842a                	mv	s0,a0
20405cde:	370d                	jal	20405c00 <_get_cpu_intc>
20405ce0:	81c18793          	addi	a5,gp,-2020 # 80000a8c <__metal_dt_clint_2000000>
20405ce4:	45b2                	lw	a1,12(sp)
20405ce6:	02f41463          	bne	s0,a5,20405d0e <__metal_driver_riscv_clint0_enable+0x3c>
20405cea:	800007b7          	lui	a5,0x80000
20405cee:	0a878793          	addi	a5,a5,168 # 800000a8 <metal_segment_heap_target_end+0xffffc828>
20405cf2:	00f51e63          	bne	a0,a5,20405d0e <__metal_driver_riscv_clint0_enable+0x3c>
20405cf6:	ffb5f793          	andi	a5,a1,-5
20405cfa:	468d                	li	a3,3
20405cfc:	00d79963          	bne	a5,a3,20405d0e <__metal_driver_riscv_clint0_enable+0x3c>
20405d00:	411c                	lw	a5,0(a0)
20405d02:	4462                	lw	s0,24(sp)
20405d04:	40f2                	lw	ra,28(sp)
20405d06:	0247a303          	lw	t1,36(a5)
20405d0a:	6105                	addi	sp,sp,32
20405d0c:	8302                	jr	t1
20405d0e:	40f2                	lw	ra,28(sp)
20405d10:	4462                	lw	s0,24(sp)
20405d12:	557d                	li	a0,-1
20405d14:	6105                	addi	sp,sp,32
20405d16:	8082                	ret
20405d18:	557d                	li	a0,-1
20405d1a:	8082                	ret

20405d1c <__metal_driver_riscv_clint0_register>:
__metal_driver_riscv_clint0_register():
20405d1c:	1101                	addi	sp,sp,-32
20405d1e:	c62e                	sw	a1,12(sp)
20405d20:	c432                	sw	a2,8(sp)
20405d22:	c236                	sw	a3,4(sp)
20405d24:	ce06                	sw	ra,28(sp)
20405d26:	cc22                	sw	s0,24(sp)
20405d28:	ca26                	sw	s1,20(sp)
20405d2a:	84aa                	mv	s1,a0
20405d2c:	62f000ef          	jal	ra,20406b5a <__metal_controller_interrupt_vector_mode>
20405d30:	842a                	mv	s0,a0
20405d32:	35f9                	jal	20405c00 <_get_cpu_intc>
20405d34:	81c18793          	addi	a5,gp,-2020 # 80000a8c <__metal_dt_clint_2000000>
20405d38:	4692                	lw	a3,4(sp)
20405d3a:	4622                	lw	a2,8(sp)
20405d3c:	45b2                	lw	a1,12(sp)
20405d3e:	00f49563          	bne	s1,a5,20405d48 <__metal_driver_riscv_clint0_register+0x2c>
20405d42:	4785                	li	a5,1
20405d44:	0087f863          	bgeu	a5,s0,20405d54 <__metal_driver_riscv_clint0_register+0x38>
20405d48:	40f2                	lw	ra,28(sp)
20405d4a:	4462                	lw	s0,24(sp)
20405d4c:	44d2                	lw	s1,20(sp)
20405d4e:	557d                	li	a0,-1
20405d50:	6105                	addi	sp,sp,32
20405d52:	8082                	ret
20405d54:	800007b7          	lui	a5,0x80000
20405d58:	0a878793          	addi	a5,a5,168 # 800000a8 <metal_segment_heap_target_end+0xffffc828>
20405d5c:	872a                	mv	a4,a0
20405d5e:	fef515e3          	bne	a0,a5,20405d48 <__metal_driver_riscv_clint0_register+0x2c>
20405d62:	ffb5f793          	andi	a5,a1,-5
20405d66:	480d                	li	a6,3
20405d68:	ff0790e3          	bne	a5,a6,20405d48 <__metal_driver_riscv_clint0_register+0x2c>
20405d6c:	431c                	lw	a5,0(a4)
20405d6e:	4462                	lw	s0,24(sp)
20405d70:	40f2                	lw	ra,28(sp)
20405d72:	44d2                	lw	s1,20(sp)
20405d74:	01c7a303          	lw	t1,28(a5)
20405d78:	6105                	addi	sp,sp,32
20405d7a:	8302                	jr	t1

20405d7c <__metal_clint0_mtime_get>:
__metal_clint0_mtime_get():
20405d7c:	81c18713          	addi	a4,gp,-2020 # 80000a8c <__metal_dt_clint_2000000>
20405d80:	020007b7          	lui	a5,0x2000
20405d84:	00a70363          	beq	a4,a0,20405d8a <__metal_clint0_mtime_get+0xe>
20405d88:	4781                	li	a5,0
20405d8a:	66b1                	lui	a3,0xc
20405d8c:	ffc68713          	addi	a4,a3,-4 # bffc <__stack_size+0xaffc>
20405d90:	16e1                	addi	a3,a3,-8
20405d92:	973e                	add	a4,a4,a5
20405d94:	97b6                	add	a5,a5,a3
20405d96:	4314                	lw	a3,0(a4)
20405d98:	4388                	lw	a0,0(a5)
20405d9a:	430c                	lw	a1,0(a4)
20405d9c:	fed59de3          	bne	a1,a3,20405d96 <__metal_clint0_mtime_get+0x1a>
20405da0:	8082                	ret

20405da2 <__metal_driver_riscv_clint0_command_request>:
__metal_driver_riscv_clint0_command_request():
20405da2:	81c18793          	addi	a5,gp,-2020 # 80000a8c <__metal_dt_clint_2000000>
20405da6:	4701                	li	a4,0
20405da8:	00f51463          	bne	a0,a5,20405db0 <__metal_driver_riscv_clint0_command_request+0xe>
20405dac:	02000737          	lui	a4,0x2000
20405db0:	4789                	li	a5,2
20405db2:	04f58663          	beq	a1,a5,20405dfe <__metal_driver_riscv_clint0_command_request+0x5c>
20405db6:	00b7c863          	blt	a5,a1,20405dc6 <__metal_driver_riscv_clint0_command_request+0x24>
20405dba:	4785                	li	a5,1
20405dbc:	02f58263          	beq	a1,a5,20405de0 <__metal_driver_riscv_clint0_command_request+0x3e>
20405dc0:	57fd                	li	a5,-1
20405dc2:	853e                	mv	a0,a5
20405dc4:	8082                	ret
20405dc6:	478d                	li	a5,3
20405dc8:	04f58463          	beq	a1,a5,20405e10 <__metal_driver_riscv_clint0_command_request+0x6e>
20405dcc:	4791                	li	a5,4
20405dce:	fef599e3          	bne	a1,a5,20405dc0 <__metal_driver_riscv_clint0_command_request+0x1e>
20405dd2:	4781                	li	a5,0
20405dd4:	d67d                	beqz	a2,20405dc2 <__metal_driver_riscv_clint0_command_request+0x20>
20405dd6:	421c                	lw	a5,0(a2)
20405dd8:	078a                	slli	a5,a5,0x2
20405dda:	97ba                	add	a5,a5,a4
20405ddc:	439c                	lw	a5,0(a5)
20405dde:	b7d5                	j	20405dc2 <__metal_driver_riscv_clint0_command_request+0x20>
20405de0:	57fd                	li	a5,-1
20405de2:	d265                	beqz	a2,20405dc2 <__metal_driver_riscv_clint0_command_request+0x20>
20405de4:	1141                	addi	sp,sp,-16
20405de6:	c422                	sw	s0,8(sp)
20405de8:	c606                	sw	ra,12(sp)
20405dea:	8432                	mv	s0,a2
20405dec:	3f41                	jal	20405d7c <__metal_clint0_mtime_get>
20405dee:	c008                	sw	a0,0(s0)
20405df0:	c04c                	sw	a1,4(s0)
20405df2:	40b2                	lw	ra,12(sp)
20405df4:	4422                	lw	s0,8(sp)
20405df6:	4781                	li	a5,0
20405df8:	853e                	mv	a0,a5
20405dfa:	0141                	addi	sp,sp,16
20405dfc:	8082                	ret
20405dfe:	57fd                	li	a5,-1
20405e00:	d269                	beqz	a2,20405dc2 <__metal_driver_riscv_clint0_command_request+0x20>
20405e02:	421c                	lw	a5,0(a2)
20405e04:	078a                	slli	a5,a5,0x2
20405e06:	97ba                	add	a5,a5,a4
20405e08:	0007a023          	sw	zero,0(a5) # 2000000 <__stack_size+0x1fff000>
20405e0c:	4781                	li	a5,0
20405e0e:	bf55                	j	20405dc2 <__metal_driver_riscv_clint0_command_request+0x20>
20405e10:	57fd                	li	a5,-1
20405e12:	da45                	beqz	a2,20405dc2 <__metal_driver_riscv_clint0_command_request+0x20>
20405e14:	421c                	lw	a5,0(a2)
20405e16:	078a                	slli	a5,a5,0x2
20405e18:	97ba                	add	a5,a5,a4
20405e1a:	4705                	li	a4,1
20405e1c:	c398                	sw	a4,0(a5)
20405e1e:	0480000f          	fence	o,i
20405e22:	439c                	lw	a5,0(a5)
20405e24:	b7e5                	j	20405e0c <__metal_driver_riscv_clint0_command_request+0x6a>

20405e26 <__metal_driver_riscv_clint0_clear_interrupt>:
__metal_driver_riscv_clint0_clear_interrupt():
20405e26:	1101                	addi	sp,sp,-32
20405e28:	ce06                	sw	ra,28(sp)
20405e2a:	cc22                	sw	s0,24(sp)
20405e2c:	842a                	mv	s0,a0
20405e2e:	ca5ff0ef          	jal	ra,20405ad2 <metal_cpu_get_current_hartid>
20405e32:	c62a                	sw	a0,12(sp)
20405e34:	0070                	addi	a2,sp,12
20405e36:	8522                	mv	a0,s0
20405e38:	4589                	li	a1,2
20405e3a:	37a5                	jal	20405da2 <__metal_driver_riscv_clint0_command_request>
20405e3c:	40f2                	lw	ra,28(sp)
20405e3e:	4462                	lw	s0,24(sp)
20405e40:	6105                	addi	sp,sp,32
20405e42:	8082                	ret

20405e44 <__metal_driver_riscv_clint0_set_interrupt>:
__metal_driver_riscv_clint0_set_interrupt():
20405e44:	1101                	addi	sp,sp,-32
20405e46:	ce06                	sw	ra,28(sp)
20405e48:	cc22                	sw	s0,24(sp)
20405e4a:	842a                	mv	s0,a0
20405e4c:	c87ff0ef          	jal	ra,20405ad2 <metal_cpu_get_current_hartid>
20405e50:	c62a                	sw	a0,12(sp)
20405e52:	0070                	addi	a2,sp,12
20405e54:	8522                	mv	a0,s0
20405e56:	458d                	li	a1,3
20405e58:	37a9                	jal	20405da2 <__metal_driver_riscv_clint0_command_request>
20405e5a:	40f2                	lw	ra,28(sp)
20405e5c:	4462                	lw	s0,24(sp)
20405e5e:	6105                	addi	sp,sp,32
20405e60:	8082                	ret

20405e62 <__metal_default_sw_handler>:
__metal_default_sw_handler():
20405e62:	85aa                	mv	a1,a0
20405e64:	f14027f3          	csrr	a5,mhartid
20405e68:	00279713          	slli	a4,a5,0x2
20405e6c:	83418793          	addi	a5,gp,-1996 # 80000aa4 <__metal_dt_prci_10008000+0x4>
20405e70:	97ba                	add	a5,a5,a4
20405e72:	4388                	lw	a0,0(a5)
20405e74:	342027f3          	csrr	a5,mcause
20405e78:	c50d                	beqz	a0,20405ea2 <__metal_default_sw_handler+0x40>
20405e7a:	3ff7f793          	andi	a5,a5,1023
20405e7e:	82418713          	addi	a4,gp,-2012 # 80000a94 <__metal_dt_cpu_0>
20405e82:	0e878793          	addi	a5,a5,232
20405e86:	00e51b63          	bne	a0,a4,20405e9c <__metal_default_sw_handler+0x3a>
20405e8a:	80000737          	lui	a4,0x80000
20405e8e:	078a                	slli	a5,a5,0x2
20405e90:	0a870713          	addi	a4,a4,168 # 800000a8 <metal_segment_heap_target_end+0xffffc828>
20405e94:	97ba                	add	a5,a5,a4
20405e96:	0007a303          	lw	t1,0(a5)
20405e9a:	8302                	jr	t1
20405e9c:	078a                	slli	a5,a5,0x2
20405e9e:	439c                	lw	a5,0(a5)
20405ea0:	9002                	ebreak
20405ea2:	8082                	ret

20405ea4 <__metal_default_beu_handler>:
__metal_default_beu_handler():
20405ea4:	8082                	ret
	...

20405f00 <__metal_exception_handler>:
__metal_exception_handler():
20405f00:	7139                	addi	sp,sp,-64
20405f02:	de06                	sw	ra,60(sp)
20405f04:	dc16                	sw	t0,56(sp)
20405f06:	da1a                	sw	t1,52(sp)
20405f08:	d81e                	sw	t2,48(sp)
20405f0a:	d62a                	sw	a0,44(sp)
20405f0c:	d42e                	sw	a1,40(sp)
20405f0e:	d232                	sw	a2,36(sp)
20405f10:	d036                	sw	a3,32(sp)
20405f12:	ce3a                	sw	a4,28(sp)
20405f14:	cc3e                	sw	a5,24(sp)
20405f16:	ca42                	sw	a6,20(sp)
20405f18:	c846                	sw	a7,16(sp)
20405f1a:	c672                	sw	t3,12(sp)
20405f1c:	c476                	sw	t4,8(sp)
20405f1e:	c27a                	sw	t5,4(sp)
20405f20:	c07e                	sw	t6,0(sp)
20405f22:	f14027f3          	csrr	a5,mhartid
20405f26:	00279713          	slli	a4,a5,0x2
20405f2a:	83418793          	addi	a5,gp,-1996 # 80000aa4 <__metal_dt_prci_10008000+0x4>
20405f2e:	97ba                	add	a5,a5,a4
20405f30:	4394                	lw	a3,0(a5)
20405f32:	34202673          	csrr	a2,mcause
20405f36:	341027f3          	csrr	a5,mepc
20405f3a:	343027f3          	csrr	a5,mtval
20405f3e:	30502773          	csrr	a4,mtvec
20405f42:	c68d                	beqz	a3,20405f6c <__metal_exception_handler+0x6c>
20405f44:	82418793          	addi	a5,gp,-2012 # 80000a94 <__metal_dt_cpu_0>
20405f48:	04f68563          	beq	a3,a5,20405f92 <__metal_exception_handler+0x92>
20405f4c:	4781                	li	a5,0
20405f4e:	3ff67513          	andi	a0,a2,1023
20405f52:	06065d63          	bgez	a2,20405fcc <__metal_exception_handler+0xcc>
20405f56:	08000693          	li	a3,128
20405f5a:	04d51163          	bne	a0,a3,20405f9c <__metal_exception_handler+0x9c>
20405f5e:	3907a703          	lw	a4,912(a5)
20405f62:	3987a583          	lw	a1,920(a5)
20405f66:	08000513          	li	a0,128
20405f6a:	9702                	jalr	a4
20405f6c:	50f2                	lw	ra,60(sp)
20405f6e:	52e2                	lw	t0,56(sp)
20405f70:	5352                	lw	t1,52(sp)
20405f72:	53c2                	lw	t2,48(sp)
20405f74:	5532                	lw	a0,44(sp)
20405f76:	55a2                	lw	a1,40(sp)
20405f78:	5612                	lw	a2,36(sp)
20405f7a:	5682                	lw	a3,32(sp)
20405f7c:	4772                	lw	a4,28(sp)
20405f7e:	47e2                	lw	a5,24(sp)
20405f80:	4852                	lw	a6,20(sp)
20405f82:	48c2                	lw	a7,16(sp)
20405f84:	4e32                	lw	t3,12(sp)
20405f86:	4ea2                	lw	t4,8(sp)
20405f88:	4f12                	lw	t5,4(sp)
20405f8a:	4f82                	lw	t6,0(sp)
20405f8c:	6121                	addi	sp,sp,64
20405f8e:	30200073          	mret
20405f92:	800007b7          	lui	a5,0x80000
20405f96:	0a878793          	addi	a5,a5,168 # 800000a8 <metal_segment_heap_target_end+0xffffc828>
20405f9a:	bf55                	j	20405f4e <__metal_exception_handler+0x4e>
20405f9c:	46ad                	li	a3,11
20405f9e:	00a6d563          	bge	a3,a0,20405fa8 <__metal_exception_handler+0xa8>
20405fa2:	03f77713          	andi	a4,a4,63
20405fa6:	eb11                	bnez	a4,20405fba <__metal_exception_handler+0xba>
20405fa8:	4761                	li	a4,24
20405faa:	02e50733          	mul	a4,a0,a4
20405fae:	97ba                	add	a5,a5,a4
20405fb0:	0907a703          	lw	a4,144(a5)
20405fb4:	0987a583          	lw	a1,152(a5)
20405fb8:	bf4d                	j	20405f6a <__metal_exception_handler+0x6a>
20405fba:	4689                	li	a3,2
20405fbc:	fad718e3          	bne	a4,a3,20405f6c <__metal_exception_handler+0x6c>
20405fc0:	30702773          	csrr	a4,mtvt
20405fc4:	4318                	lw	a4,0(a4)
20405fc6:	0dc7a583          	lw	a1,220(a5)
20405fca:	b745                	j	20405f6a <__metal_exception_handler+0x6a>
20405fcc:	0e850713          	addi	a4,a0,232
20405fd0:	070a                	slli	a4,a4,0x2
20405fd2:	97ba                	add	a5,a5,a4
20405fd4:	439c                	lw	a5,0(a5)
20405fd6:	85aa                	mv	a1,a0
20405fd8:	8536                	mv	a0,a3
20405fda:	9782                	jalr	a5
20405fdc:	bf41                	j	20405f6c <__metal_exception_handler+0x6c>
	...

20405ffa <__metal_driver_riscv_cpu_controller_command_request>:
__metal_driver_riscv_cpu_controller_command_request():
20405ffa:	4501                	li	a0,0
20405ffc:	8082                	ret

20405ffe <__metal_driver_cpu_mcycle_get>:
__metal_driver_cpu_mcycle_get():
20405ffe:	b80025f3          	csrr	a1,mcycleh
20406002:	b0002573          	csrr	a0,mcycle
20406006:	b80027f3          	csrr	a5,mcycleh
2040600a:	fef59ae3          	bne	a1,a5,20405ffe <__metal_driver_cpu_mcycle_get>
2040600e:	8082                	ret

20406010 <__metal_driver_cpu_timebase_get>:
__metal_driver_cpu_timebase_get():
20406010:	cd11                	beqz	a0,2040602c <__metal_driver_cpu_timebase_get+0x1c>
20406012:	82418793          	addi	a5,gp,-2012 # 80000a94 <__metal_dt_cpu_0>
20406016:	00f50663          	beq	a0,a5,20406022 <__metal_driver_cpu_timebase_get+0x12>
2040601a:	4501                	li	a0,0
2040601c:	41f55593          	srai	a1,a0,0x1f
20406020:	8082                	ret
20406022:	000f4537          	lui	a0,0xf4
20406026:	24050513          	addi	a0,a0,576 # f4240 <__stack_size+0xf3240>
2040602a:	bfcd                	j	2040601c <__metal_driver_cpu_timebase_get+0xc>
2040602c:	4501                	li	a0,0
2040602e:	4581                	li	a1,0
20406030:	8082                	ret

20406032 <__metal_driver_cpu_mtime_get>:
__metal_driver_cpu_mtime_get():
20406032:	1101                	addi	sp,sp,-32
20406034:	4781                	li	a5,0
20406036:	4801                	li	a6,0
20406038:	c43e                	sw	a5,8(sp)
2040603a:	ce06                	sw	ra,28(sp)
2040603c:	c642                	sw	a6,12(sp)
2040603e:	82418793          	addi	a5,gp,-2012 # 80000a94 <__metal_dt_cpu_0>
20406042:	00a79c63          	bne	a5,a0,2040605a <__metal_driver_cpu_mtime_get+0x28>
20406046:	800007b7          	lui	a5,0x80000
2040604a:	1e47a503          	lw	a0,484(a5) # 800001e4 <metal_segment_heap_target_end+0xffffc964>
2040604e:	c511                	beqz	a0,2040605a <__metal_driver_cpu_mtime_get+0x28>
20406050:	411c                	lw	a5,0(a0)
20406052:	0030                	addi	a2,sp,8
20406054:	4585                	li	a1,1
20406056:	47fc                	lw	a5,76(a5)
20406058:	9782                	jalr	a5
2040605a:	40f2                	lw	ra,28(sp)
2040605c:	4522                	lw	a0,8(sp)
2040605e:	45b2                	lw	a1,12(sp)
20406060:	6105                	addi	sp,sp,32
20406062:	8082                	ret

20406064 <__metal_driver_cpu_timer_controller_interrupt>:
__metal_driver_cpu_timer_controller_interrupt():
20406064:	81c18513          	addi	a0,gp,-2020 # 80000a8c <__metal_dt_clint_2000000>
20406068:	8082                	ret

2040606a <__metal_driver_cpu_get_timer_interrupt_id>:
__metal_driver_cpu_get_timer_interrupt_id():
2040606a:	451d                	li	a0,7
2040606c:	8082                	ret

2040606e <__metal_driver_cpu_get_sw_interrupt_id>:
__metal_driver_cpu_get_sw_interrupt_id():
2040606e:	450d                	li	a0,3
20406070:	8082                	ret

20406072 <__metal_driver_cpu_set_sw_ipi>:
__metal_driver_cpu_set_sw_ipi():
20406072:	1101                	addi	sp,sp,-32
20406074:	ce06                	sw	ra,28(sp)
20406076:	c62e                	sw	a1,12(sp)
20406078:	82418793          	addi	a5,gp,-2012 # 80000a94 <__metal_dt_cpu_0>
2040607c:	02a79163          	bne	a5,a0,2040609e <__metal_driver_cpu_set_sw_ipi+0x2c>
20406080:	800007b7          	lui	a5,0x80000
20406084:	1847a783          	lw	a5,388(a5) # 80000184 <metal_segment_heap_target_end+0xffffc904>
20406088:	557d                	li	a0,-1
2040608a:	c799                	beqz	a5,20406098 <__metal_driver_cpu_set_sw_ipi+0x26>
2040608c:	4398                	lw	a4,0(a5)
2040608e:	0070                	addi	a2,sp,12
20406090:	458d                	li	a1,3
20406092:	4778                	lw	a4,76(a4)
20406094:	853e                	mv	a0,a5
20406096:	9702                	jalr	a4
20406098:	40f2                	lw	ra,28(sp)
2040609a:	6105                	addi	sp,sp,32
2040609c:	8082                	ret
2040609e:	557d                	li	a0,-1
204060a0:	bfe5                	j	20406098 <__metal_driver_cpu_set_sw_ipi+0x26>

204060a2 <__metal_driver_cpu_clear_sw_ipi>:
__metal_driver_cpu_clear_sw_ipi():
204060a2:	1101                	addi	sp,sp,-32
204060a4:	ce06                	sw	ra,28(sp)
204060a6:	c62e                	sw	a1,12(sp)
204060a8:	82418793          	addi	a5,gp,-2012 # 80000a94 <__metal_dt_cpu_0>
204060ac:	02a79163          	bne	a5,a0,204060ce <__metal_driver_cpu_clear_sw_ipi+0x2c>
204060b0:	800007b7          	lui	a5,0x80000
204060b4:	1847a783          	lw	a5,388(a5) # 80000184 <metal_segment_heap_target_end+0xffffc904>
204060b8:	557d                	li	a0,-1
204060ba:	c799                	beqz	a5,204060c8 <__metal_driver_cpu_clear_sw_ipi+0x26>
204060bc:	4398                	lw	a4,0(a5)
204060be:	0070                	addi	a2,sp,12
204060c0:	4589                	li	a1,2
204060c2:	4778                	lw	a4,76(a4)
204060c4:	853e                	mv	a0,a5
204060c6:	9702                	jalr	a4
204060c8:	40f2                	lw	ra,28(sp)
204060ca:	6105                	addi	sp,sp,32
204060cc:	8082                	ret
204060ce:	557d                	li	a0,-1
204060d0:	bfe5                	j	204060c8 <__metal_driver_cpu_clear_sw_ipi+0x26>

204060d2 <__metal_driver_cpu_get_msip>:
__metal_driver_cpu_get_msip():
204060d2:	1101                	addi	sp,sp,-32
204060d4:	ce06                	sw	ra,28(sp)
204060d6:	c62e                	sw	a1,12(sp)
204060d8:	82418793          	addi	a5,gp,-2012 # 80000a94 <__metal_dt_cpu_0>
204060dc:	02a79163          	bne	a5,a0,204060fe <__metal_driver_cpu_get_msip+0x2c>
204060e0:	800007b7          	lui	a5,0x80000
204060e4:	1847a783          	lw	a5,388(a5) # 80000184 <metal_segment_heap_target_end+0xffffc904>
204060e8:	4501                	li	a0,0
204060ea:	c799                	beqz	a5,204060f8 <__metal_driver_cpu_get_msip+0x26>
204060ec:	4398                	lw	a4,0(a5)
204060ee:	0070                	addi	a2,sp,12
204060f0:	4591                	li	a1,4
204060f2:	4778                	lw	a4,76(a4)
204060f4:	853e                	mv	a0,a5
204060f6:	9702                	jalr	a4
204060f8:	40f2                	lw	ra,28(sp)
204060fa:	6105                	addi	sp,sp,32
204060fc:	8082                	ret
204060fe:	4501                	li	a0,0
20406100:	bfe5                	j	204060f8 <__metal_driver_cpu_get_msip+0x26>

20406102 <__metal_driver_cpu_controller_interrupt>:
__metal_driver_cpu_controller_interrupt():
20406102:	82418793          	addi	a5,gp,-2012 # 80000a94 <__metal_dt_cpu_0>
20406106:	00a78463          	beq	a5,a0,2040610e <__metal_driver_cpu_controller_interrupt+0xc>
2040610a:	4501                	li	a0,0
2040610c:	8082                	ret
2040610e:	80000537          	lui	a0,0x80000
20406112:	0a850513          	addi	a0,a0,168 # 800000a8 <metal_segment_heap_target_end+0xffffc828>
20406116:	8082                	ret

20406118 <__metal_driver_cpu_get_instruction_length>:
__metal_driver_cpu_get_instruction_length():
20406118:	0005d783          	lhu	a5,0(a1) # 1000000 <__stack_size+0xfff000>
2040611c:	470d                	li	a4,3
2040611e:	4511                	li	a0,4
20406120:	8b8d                	andi	a5,a5,3
20406122:	00e78363          	beq	a5,a4,20406128 <__metal_driver_cpu_get_instruction_length+0x10>
20406126:	4509                	li	a0,2
20406128:	8082                	ret

2040612a <__metal_driver_cpu_get_exception_pc>:
__metal_driver_cpu_get_exception_pc():
2040612a:	34102573          	csrr	a0,mepc
2040612e:	8082                	ret

20406130 <__metal_driver_cpu_set_exception_pc>:
__metal_driver_cpu_set_exception_pc():
20406130:	34159073          	csrw	mepc,a1
20406134:	4501                	li	a0,0
20406136:	8082                	ret

20406138 <__metal_driver_cpu_get_buserror>:
__metal_driver_cpu_get_buserror():
20406138:	4501                	li	a0,0
2040613a:	8082                	ret

2040613c <__metal_default_exception_handler>:
__metal_default_exception_handler():
2040613c:	1141                	addi	sp,sp,-16
2040613e:	06400513          	li	a0,100
20406142:	c606                	sw	ra,12(sp)
20406144:	1af010ef          	jal	ra,20407af2 <metal_shutdown>

20406148 <__metal_default_interrupt_handler>:
__metal_default_interrupt_handler():
20406148:	1141                	addi	sp,sp,-16
2040614a:	0c800513          	li	a0,200
2040614e:	c606                	sw	ra,12(sp)
20406150:	1a3010ef          	jal	ra,20407af2 <metal_shutdown>

20406154 <__metal_driver_cpu_mtimecmp_set>:
__metal_driver_cpu_mtimecmp_set():
20406154:	82418793          	addi	a5,gp,-2012 # 80000a94 <__metal_dt_cpu_0>
20406158:	86b2                	mv	a3,a2
2040615a:	862e                	mv	a2,a1
2040615c:	00a79c63          	bne	a5,a0,20406174 <__metal_driver_cpu_mtimecmp_set+0x20>
20406160:	800007b7          	lui	a5,0x80000
20406164:	1e47a503          	lw	a0,484(a5) # 800001e4 <metal_segment_heap_target_end+0xffffc964>
20406168:	c511                	beqz	a0,20406174 <__metal_driver_cpu_mtimecmp_set+0x20>
2040616a:	411c                	lw	a5,0(a0)
2040616c:	4581                	li	a1,0
2040616e:	0507a303          	lw	t1,80(a5)
20406172:	8302                	jr	t1
20406174:	557d                	li	a0,-1
20406176:	8082                	ret

20406178 <__metal_default_timer_handler>:
__metal_default_timer_handler():
20406178:	1141                	addi	sp,sp,-16
2040617a:	c606                	sw	ra,12(sp)
2040617c:	c422                	sw	s0,8(sp)
2040617e:	f14027f3          	csrr	a5,mhartid
20406182:	4401                	li	s0,0
20406184:	00f04863          	bgtz	a5,20406194 <__metal_default_timer_handler+0x1c>
20406188:	00279713          	slli	a4,a5,0x2
2040618c:	83418793          	addi	a5,gp,-1996 # 80000aa4 <__metal_dt_prci_10008000+0x4>
20406190:	97ba                	add	a5,a5,a4
20406192:	4380                	lw	s0,0(a5)
20406194:	8522                	mv	a0,s0
20406196:	3d71                	jal	20406032 <__metal_driver_cpu_mtime_get>
20406198:	00a50793          	addi	a5,a0,10
2040619c:	00a7b533          	sltu	a0,a5,a0
204061a0:	00b50633          	add	a2,a0,a1
204061a4:	8522                	mv	a0,s0
204061a6:	4422                	lw	s0,8(sp)
204061a8:	40b2                	lw	ra,12(sp)
204061aa:	85be                	mv	a1,a5
204061ac:	0141                	addi	sp,sp,16
204061ae:	b75d                	j	20406154 <__metal_driver_cpu_mtimecmp_set>

204061b0 <__metal_driver_riscv_cpu_controller_interrupt_init>:
__metal_driver_riscv_cpu_controller_interrupt_init():
204061b0:	415c                	lw	a5,4(a0)
204061b2:	efa9                	bnez	a5,2040620c <__metal_driver_riscv_cpu_controller_interrupt_init+0x5c>
204061b4:	09050793          	addi	a5,a0,144
204061b8:	39050713          	addi	a4,a0,912
204061bc:	0007a023          	sw	zero,0(a5)
204061c0:	0007a223          	sw	zero,4(a5)
204061c4:	0007a423          	sw	zero,8(a5)
204061c8:	07e1                	addi	a5,a5,24
204061ca:	fee799e3          	bne	a5,a4,204061bc <__metal_driver_riscv_cpu_controller_interrupt_init+0xc>
204061ce:	20406737          	lui	a4,0x20406
204061d2:	3a050793          	addi	a5,a0,928
204061d6:	3d050693          	addi	a3,a0,976
204061da:	13c70713          	addi	a4,a4,316 # 2040613c <__metal_default_exception_handler>
204061de:	c398                	sw	a4,0(a5)
204061e0:	0791                	addi	a5,a5,4
204061e2:	fef69ee3          	bne	a3,a5,204061de <__metal_driver_riscv_cpu_controller_interrupt_init+0x2e>
204061e6:	30502773          	csrr	a4,mtvec
204061ea:	204007b7          	lui	a5,0x20400
204061ee:	14478793          	addi	a5,a5,324 # 20400144 <early_trap_vector>
204061f2:	00f71b63          	bne	a4,a5,20406208 <__metal_driver_riscv_cpu_controller_interrupt_init+0x58>
204061f6:	305027f3          	csrr	a5,mtvec
204061fa:	204067b7          	lui	a5,0x20406
204061fe:	f0078793          	addi	a5,a5,-256 # 20405f00 <__metal_exception_handler>
20406202:	9bf1                	andi	a5,a5,-4
20406204:	30579073          	csrw	mtvec,a5
20406208:	4785                	li	a5,1
2040620a:	c15c                	sw	a5,4(a0)
2040620c:	8082                	ret

2040620e <__metal_driver_cpu_exception_register>:
__metal_driver_cpu_exception_register():
2040620e:	82418793          	addi	a5,gp,-2012 # 80000a94 <__metal_dt_cpu_0>
20406212:	02a79263          	bne	a5,a0,20406236 <__metal_driver_cpu_exception_register+0x28>
20406216:	47ad                	li	a5,11
20406218:	557d                	li	a0,-1
2040621a:	00b7cf63          	blt	a5,a1,20406238 <__metal_driver_cpu_exception_register+0x2a>
2040621e:	ce09                	beqz	a2,20406238 <__metal_driver_cpu_exception_register+0x2a>
20406220:	800007b7          	lui	a5,0x80000
20406224:	0e858593          	addi	a1,a1,232
20406228:	0a878793          	addi	a5,a5,168 # 800000a8 <metal_segment_heap_target_end+0xffffc828>
2040622c:	058a                	slli	a1,a1,0x2
2040622e:	95be                	add	a1,a1,a5
20406230:	c190                	sw	a2,0(a1)
20406232:	4501                	li	a0,0
20406234:	8082                	ret
20406236:	557d                	li	a0,-1
20406238:	8082                	ret

2040623a <__metal_driver_cpu_sw_controller_interrupt>:
__metal_driver_cpu_sw_controller_interrupt():
2040623a:	81c18513          	addi	a0,gp,-2020 # 80000a8c <__metal_dt_clint_2000000>
2040623e:	8082                	ret

20406240 <__metal_driver_riscv_cpu_controller_set_vector_mode>:
__metal_driver_riscv_cpu_controller_set_vector_mode():
20406240:	ed81                	bnez	a1,20406258 <__metal_driver_riscv_cpu_controller_set_vector_mode+0x18>
20406242:	305027f3          	csrr	a5,mtvec
20406246:	204067b7          	lui	a5,0x20406
2040624a:	f0078793          	addi	a5,a5,-256 # 20405f00 <__metal_exception_handler>
2040624e:	9bf1                	andi	a5,a5,-4
20406250:	30579073          	csrw	mtvec,a5
20406254:	4501                	li	a0,0
20406256:	8082                	ret
20406258:	4785                	li	a5,1
2040625a:	557d                	li	a0,-1
2040625c:	fef59de3          	bne	a1,a5,20406256 <__metal_driver_riscv_cpu_controller_set_vector_mode+0x16>
20406260:	305027f3          	csrr	a5,mtvec
20406264:	204087b7          	lui	a5,0x20408
20406268:	b0078793          	addi	a5,a5,-1280 # 20407b00 <__metal_vector_table>
2040626c:	0017e793          	ori	a5,a5,1
20406270:	b7c5                	j	20406250 <__metal_driver_riscv_cpu_controller_set_vector_mode+0x10>

20406272 <__metal_myhart_id>:
__metal_myhart_id():
20406272:	f1402573          	csrr	a0,mhartid
20406276:	8082                	ret

20406278 <metal_interrupt_vector_handler>:
metal_interrupt_vector_handler():
20406278:	7139                	addi	sp,sp,-64
2040627a:	d62a                	sw	a0,44(sp)
2040627c:	12c00513          	li	a0,300
20406280:	de06                	sw	ra,60(sp)
20406282:	dc16                	sw	t0,56(sp)
20406284:	da1a                	sw	t1,52(sp)
20406286:	d81e                	sw	t2,48(sp)
20406288:	d42e                	sw	a1,40(sp)
2040628a:	d232                	sw	a2,36(sp)
2040628c:	d036                	sw	a3,32(sp)
2040628e:	ce3a                	sw	a4,28(sp)
20406290:	cc3e                	sw	a5,24(sp)
20406292:	ca42                	sw	a6,20(sp)
20406294:	c846                	sw	a7,16(sp)
20406296:	c672                	sw	t3,12(sp)
20406298:	c476                	sw	t4,8(sp)
2040629a:	c27a                	sw	t5,4(sp)
2040629c:	c07e                	sw	t6,0(sp)
2040629e:	055010ef          	jal	ra,20407af2 <metal_shutdown>

204062a2 <metal_software_interrupt_vector_handler>:
metal_software_interrupt_vector_handler():
204062a2:	7139                	addi	sp,sp,-64
204062a4:	de06                	sw	ra,60(sp)
204062a6:	dc16                	sw	t0,56(sp)
204062a8:	da1a                	sw	t1,52(sp)
204062aa:	d81e                	sw	t2,48(sp)
204062ac:	d62a                	sw	a0,44(sp)
204062ae:	d42e                	sw	a1,40(sp)
204062b0:	d232                	sw	a2,36(sp)
204062b2:	d036                	sw	a3,32(sp)
204062b4:	ce3a                	sw	a4,28(sp)
204062b6:	cc3e                	sw	a5,24(sp)
204062b8:	ca42                	sw	a6,20(sp)
204062ba:	c846                	sw	a7,16(sp)
204062bc:	c672                	sw	t3,12(sp)
204062be:	c476                	sw	t4,8(sp)
204062c0:	c27a                	sw	t5,4(sp)
204062c2:	c07e                	sw	t6,0(sp)
204062c4:	f14027f3          	csrr	a5,mhartid
204062c8:	00279713          	slli	a4,a5,0x2
204062cc:	83418793          	addi	a5,gp,-1996 # 80000aa4 <__metal_dt_prci_10008000+0x4>
204062d0:	97ba                	add	a5,a5,a4
204062d2:	4398                	lw	a4,0(a5)
204062d4:	cf19                	beqz	a4,204062f2 <metal_software_interrupt_vector_handler+0x50>
204062d6:	82418793          	addi	a5,gp,-2012 # 80000a94 <__metal_dt_cpu_0>
204062da:	02f71f63          	bne	a4,a5,20406318 <metal_software_interrupt_vector_handler+0x76>
204062de:	800007b7          	lui	a5,0x80000
204062e2:	0a878793          	addi	a5,a5,168 # 800000a8 <metal_segment_heap_target_end+0xffffc828>
204062e6:	0d87a703          	lw	a4,216(a5)
204062ea:	0e07a583          	lw	a1,224(a5)
204062ee:	450d                	li	a0,3
204062f0:	9702                	jalr	a4
204062f2:	50f2                	lw	ra,60(sp)
204062f4:	52e2                	lw	t0,56(sp)
204062f6:	5352                	lw	t1,52(sp)
204062f8:	53c2                	lw	t2,48(sp)
204062fa:	5532                	lw	a0,44(sp)
204062fc:	55a2                	lw	a1,40(sp)
204062fe:	5612                	lw	a2,36(sp)
20406300:	5682                	lw	a3,32(sp)
20406302:	4772                	lw	a4,28(sp)
20406304:	47e2                	lw	a5,24(sp)
20406306:	4852                	lw	a6,20(sp)
20406308:	48c2                	lw	a7,16(sp)
2040630a:	4e32                	lw	t3,12(sp)
2040630c:	4ea2                	lw	t4,8(sp)
2040630e:	4f12                	lw	t5,4(sp)
20406310:	4f82                	lw	t6,0(sp)
20406312:	6121                	addi	sp,sp,64
20406314:	30200073          	mret
20406318:	0e002783          	lw	a5,224(zero) # e0 <__metal_chicken_bit+0xdf>
2040631c:	9002                	ebreak

2040631e <metal_timer_interrupt_vector_handler>:
metal_timer_interrupt_vector_handler():
2040631e:	7139                	addi	sp,sp,-64
20406320:	de06                	sw	ra,60(sp)
20406322:	dc16                	sw	t0,56(sp)
20406324:	da1a                	sw	t1,52(sp)
20406326:	d81e                	sw	t2,48(sp)
20406328:	d62a                	sw	a0,44(sp)
2040632a:	d42e                	sw	a1,40(sp)
2040632c:	d232                	sw	a2,36(sp)
2040632e:	d036                	sw	a3,32(sp)
20406330:	ce3a                	sw	a4,28(sp)
20406332:	cc3e                	sw	a5,24(sp)
20406334:	ca42                	sw	a6,20(sp)
20406336:	c846                	sw	a7,16(sp)
20406338:	c672                	sw	t3,12(sp)
2040633a:	c476                	sw	t4,8(sp)
2040633c:	c27a                	sw	t5,4(sp)
2040633e:	c07e                	sw	t6,0(sp)
20406340:	f14027f3          	csrr	a5,mhartid
20406344:	00279713          	slli	a4,a5,0x2
20406348:	83418793          	addi	a5,gp,-1996 # 80000aa4 <__metal_dt_prci_10008000+0x4>
2040634c:	97ba                	add	a5,a5,a4
2040634e:	4398                	lw	a4,0(a5)
20406350:	cf19                	beqz	a4,2040636e <metal_timer_interrupt_vector_handler+0x50>
20406352:	82418793          	addi	a5,gp,-2012 # 80000a94 <__metal_dt_cpu_0>
20406356:	02f71f63          	bne	a4,a5,20406394 <metal_timer_interrupt_vector_handler+0x76>
2040635a:	800007b7          	lui	a5,0x80000
2040635e:	0a878793          	addi	a5,a5,168 # 800000a8 <metal_segment_heap_target_end+0xffffc828>
20406362:	1387a703          	lw	a4,312(a5)
20406366:	1407a583          	lw	a1,320(a5)
2040636a:	451d                	li	a0,7
2040636c:	9702                	jalr	a4
2040636e:	50f2                	lw	ra,60(sp)
20406370:	52e2                	lw	t0,56(sp)
20406372:	5352                	lw	t1,52(sp)
20406374:	53c2                	lw	t2,48(sp)
20406376:	5532                	lw	a0,44(sp)
20406378:	55a2                	lw	a1,40(sp)
2040637a:	5612                	lw	a2,36(sp)
2040637c:	5682                	lw	a3,32(sp)
2040637e:	4772                	lw	a4,28(sp)
20406380:	47e2                	lw	a5,24(sp)
20406382:	4852                	lw	a6,20(sp)
20406384:	48c2                	lw	a7,16(sp)
20406386:	4e32                	lw	t3,12(sp)
20406388:	4ea2                	lw	t4,8(sp)
2040638a:	4f12                	lw	t5,4(sp)
2040638c:	4f82                	lw	t6,0(sp)
2040638e:	6121                	addi	sp,sp,64
20406390:	30200073          	mret
20406394:	14002783          	lw	a5,320(zero) # 140 <__metal_chicken_bit+0x13f>
20406398:	9002                	ebreak

2040639a <metal_lc0_interrupt_vector_handler>:
metal_lc0_interrupt_vector_handler():
2040639a:	7139                	addi	sp,sp,-64
2040639c:	de06                	sw	ra,60(sp)
2040639e:	dc16                	sw	t0,56(sp)
204063a0:	da1a                	sw	t1,52(sp)
204063a2:	d81e                	sw	t2,48(sp)
204063a4:	d62a                	sw	a0,44(sp)
204063a6:	d42e                	sw	a1,40(sp)
204063a8:	d232                	sw	a2,36(sp)
204063aa:	d036                	sw	a3,32(sp)
204063ac:	ce3a                	sw	a4,28(sp)
204063ae:	cc3e                	sw	a5,24(sp)
204063b0:	ca42                	sw	a6,20(sp)
204063b2:	c846                	sw	a7,16(sp)
204063b4:	c672                	sw	t3,12(sp)
204063b6:	c476                	sw	t4,8(sp)
204063b8:	c27a                	sw	t5,4(sp)
204063ba:	c07e                	sw	t6,0(sp)
204063bc:	f14027f3          	csrr	a5,mhartid
204063c0:	00279713          	slli	a4,a5,0x2
204063c4:	83418793          	addi	a5,gp,-1996 # 80000aa4 <__metal_dt_prci_10008000+0x4>
204063c8:	97ba                	add	a5,a5,a4
204063ca:	4398                	lw	a4,0(a5)
204063cc:	cf19                	beqz	a4,204063ea <metal_lc0_interrupt_vector_handler+0x50>
204063ce:	82418793          	addi	a5,gp,-2012 # 80000a94 <__metal_dt_cpu_0>
204063d2:	02f71f63          	bne	a4,a5,20406410 <metal_lc0_interrupt_vector_handler+0x76>
204063d6:	800007b7          	lui	a5,0x80000
204063da:	0a878793          	addi	a5,a5,168 # 800000a8 <metal_segment_heap_target_end+0xffffc828>
204063de:	2107a703          	lw	a4,528(a5)
204063e2:	2187a583          	lw	a1,536(a5)
204063e6:	4541                	li	a0,16
204063e8:	9702                	jalr	a4
204063ea:	50f2                	lw	ra,60(sp)
204063ec:	52e2                	lw	t0,56(sp)
204063ee:	5352                	lw	t1,52(sp)
204063f0:	53c2                	lw	t2,48(sp)
204063f2:	5532                	lw	a0,44(sp)
204063f4:	55a2                	lw	a1,40(sp)
204063f6:	5612                	lw	a2,36(sp)
204063f8:	5682                	lw	a3,32(sp)
204063fa:	4772                	lw	a4,28(sp)
204063fc:	47e2                	lw	a5,24(sp)
204063fe:	4852                	lw	a6,20(sp)
20406400:	48c2                	lw	a7,16(sp)
20406402:	4e32                	lw	t3,12(sp)
20406404:	4ea2                	lw	t4,8(sp)
20406406:	4f12                	lw	t5,4(sp)
20406408:	4f82                	lw	t6,0(sp)
2040640a:	6121                	addi	sp,sp,64
2040640c:	30200073          	mret
20406410:	21802783          	lw	a5,536(zero) # 218 <__metal_chicken_bit+0x217>
20406414:	9002                	ebreak

20406416 <metal_lc1_interrupt_vector_handler>:
metal_lc1_interrupt_vector_handler():
20406416:	7139                	addi	sp,sp,-64
20406418:	de06                	sw	ra,60(sp)
2040641a:	dc16                	sw	t0,56(sp)
2040641c:	da1a                	sw	t1,52(sp)
2040641e:	d81e                	sw	t2,48(sp)
20406420:	d62a                	sw	a0,44(sp)
20406422:	d42e                	sw	a1,40(sp)
20406424:	d232                	sw	a2,36(sp)
20406426:	d036                	sw	a3,32(sp)
20406428:	ce3a                	sw	a4,28(sp)
2040642a:	cc3e                	sw	a5,24(sp)
2040642c:	ca42                	sw	a6,20(sp)
2040642e:	c846                	sw	a7,16(sp)
20406430:	c672                	sw	t3,12(sp)
20406432:	c476                	sw	t4,8(sp)
20406434:	c27a                	sw	t5,4(sp)
20406436:	c07e                	sw	t6,0(sp)
20406438:	f14027f3          	csrr	a5,mhartid
2040643c:	00279713          	slli	a4,a5,0x2
20406440:	83418793          	addi	a5,gp,-1996 # 80000aa4 <__metal_dt_prci_10008000+0x4>
20406444:	97ba                	add	a5,a5,a4
20406446:	4398                	lw	a4,0(a5)
20406448:	cf19                	beqz	a4,20406466 <metal_lc1_interrupt_vector_handler+0x50>
2040644a:	82418793          	addi	a5,gp,-2012 # 80000a94 <__metal_dt_cpu_0>
2040644e:	02f71f63          	bne	a4,a5,2040648c <metal_lc1_interrupt_vector_handler+0x76>
20406452:	800007b7          	lui	a5,0x80000
20406456:	0a878793          	addi	a5,a5,168 # 800000a8 <metal_segment_heap_target_end+0xffffc828>
2040645a:	2287a703          	lw	a4,552(a5)
2040645e:	2307a583          	lw	a1,560(a5)
20406462:	4545                	li	a0,17
20406464:	9702                	jalr	a4
20406466:	50f2                	lw	ra,60(sp)
20406468:	52e2                	lw	t0,56(sp)
2040646a:	5352                	lw	t1,52(sp)
2040646c:	53c2                	lw	t2,48(sp)
2040646e:	5532                	lw	a0,44(sp)
20406470:	55a2                	lw	a1,40(sp)
20406472:	5612                	lw	a2,36(sp)
20406474:	5682                	lw	a3,32(sp)
20406476:	4772                	lw	a4,28(sp)
20406478:	47e2                	lw	a5,24(sp)
2040647a:	4852                	lw	a6,20(sp)
2040647c:	48c2                	lw	a7,16(sp)
2040647e:	4e32                	lw	t3,12(sp)
20406480:	4ea2                	lw	t4,8(sp)
20406482:	4f12                	lw	t5,4(sp)
20406484:	4f82                	lw	t6,0(sp)
20406486:	6121                	addi	sp,sp,64
20406488:	30200073          	mret
2040648c:	23002783          	lw	a5,560(zero) # 230 <__metal_chicken_bit+0x22f>
20406490:	9002                	ebreak

20406492 <metal_lc2_interrupt_vector_handler>:
metal_lc2_interrupt_vector_handler():
20406492:	7139                	addi	sp,sp,-64
20406494:	de06                	sw	ra,60(sp)
20406496:	dc16                	sw	t0,56(sp)
20406498:	da1a                	sw	t1,52(sp)
2040649a:	d81e                	sw	t2,48(sp)
2040649c:	d62a                	sw	a0,44(sp)
2040649e:	d42e                	sw	a1,40(sp)
204064a0:	d232                	sw	a2,36(sp)
204064a2:	d036                	sw	a3,32(sp)
204064a4:	ce3a                	sw	a4,28(sp)
204064a6:	cc3e                	sw	a5,24(sp)
204064a8:	ca42                	sw	a6,20(sp)
204064aa:	c846                	sw	a7,16(sp)
204064ac:	c672                	sw	t3,12(sp)
204064ae:	c476                	sw	t4,8(sp)
204064b0:	c27a                	sw	t5,4(sp)
204064b2:	c07e                	sw	t6,0(sp)
204064b4:	f14027f3          	csrr	a5,mhartid
204064b8:	00279713          	slli	a4,a5,0x2
204064bc:	83418793          	addi	a5,gp,-1996 # 80000aa4 <__metal_dt_prci_10008000+0x4>
204064c0:	97ba                	add	a5,a5,a4
204064c2:	4398                	lw	a4,0(a5)
204064c4:	cf19                	beqz	a4,204064e2 <metal_lc2_interrupt_vector_handler+0x50>
204064c6:	82418793          	addi	a5,gp,-2012 # 80000a94 <__metal_dt_cpu_0>
204064ca:	02f71f63          	bne	a4,a5,20406508 <metal_lc2_interrupt_vector_handler+0x76>
204064ce:	800007b7          	lui	a5,0x80000
204064d2:	0a878793          	addi	a5,a5,168 # 800000a8 <metal_segment_heap_target_end+0xffffc828>
204064d6:	2407a703          	lw	a4,576(a5)
204064da:	2487a583          	lw	a1,584(a5)
204064de:	4549                	li	a0,18
204064e0:	9702                	jalr	a4
204064e2:	50f2                	lw	ra,60(sp)
204064e4:	52e2                	lw	t0,56(sp)
204064e6:	5352                	lw	t1,52(sp)
204064e8:	53c2                	lw	t2,48(sp)
204064ea:	5532                	lw	a0,44(sp)
204064ec:	55a2                	lw	a1,40(sp)
204064ee:	5612                	lw	a2,36(sp)
204064f0:	5682                	lw	a3,32(sp)
204064f2:	4772                	lw	a4,28(sp)
204064f4:	47e2                	lw	a5,24(sp)
204064f6:	4852                	lw	a6,20(sp)
204064f8:	48c2                	lw	a7,16(sp)
204064fa:	4e32                	lw	t3,12(sp)
204064fc:	4ea2                	lw	t4,8(sp)
204064fe:	4f12                	lw	t5,4(sp)
20406500:	4f82                	lw	t6,0(sp)
20406502:	6121                	addi	sp,sp,64
20406504:	30200073          	mret
20406508:	24802783          	lw	a5,584(zero) # 248 <__metal_chicken_bit+0x247>
2040650c:	9002                	ebreak

2040650e <metal_lc3_interrupt_vector_handler>:
metal_lc3_interrupt_vector_handler():
2040650e:	7139                	addi	sp,sp,-64
20406510:	de06                	sw	ra,60(sp)
20406512:	dc16                	sw	t0,56(sp)
20406514:	da1a                	sw	t1,52(sp)
20406516:	d81e                	sw	t2,48(sp)
20406518:	d62a                	sw	a0,44(sp)
2040651a:	d42e                	sw	a1,40(sp)
2040651c:	d232                	sw	a2,36(sp)
2040651e:	d036                	sw	a3,32(sp)
20406520:	ce3a                	sw	a4,28(sp)
20406522:	cc3e                	sw	a5,24(sp)
20406524:	ca42                	sw	a6,20(sp)
20406526:	c846                	sw	a7,16(sp)
20406528:	c672                	sw	t3,12(sp)
2040652a:	c476                	sw	t4,8(sp)
2040652c:	c27a                	sw	t5,4(sp)
2040652e:	c07e                	sw	t6,0(sp)
20406530:	f14027f3          	csrr	a5,mhartid
20406534:	00279713          	slli	a4,a5,0x2
20406538:	83418793          	addi	a5,gp,-1996 # 80000aa4 <__metal_dt_prci_10008000+0x4>
2040653c:	97ba                	add	a5,a5,a4
2040653e:	4398                	lw	a4,0(a5)
20406540:	cf19                	beqz	a4,2040655e <metal_lc3_interrupt_vector_handler+0x50>
20406542:	82418793          	addi	a5,gp,-2012 # 80000a94 <__metal_dt_cpu_0>
20406546:	02f71f63          	bne	a4,a5,20406584 <metal_lc3_interrupt_vector_handler+0x76>
2040654a:	800007b7          	lui	a5,0x80000
2040654e:	0a878793          	addi	a5,a5,168 # 800000a8 <metal_segment_heap_target_end+0xffffc828>
20406552:	2587a703          	lw	a4,600(a5)
20406556:	2607a583          	lw	a1,608(a5)
2040655a:	454d                	li	a0,19
2040655c:	9702                	jalr	a4
2040655e:	50f2                	lw	ra,60(sp)
20406560:	52e2                	lw	t0,56(sp)
20406562:	5352                	lw	t1,52(sp)
20406564:	53c2                	lw	t2,48(sp)
20406566:	5532                	lw	a0,44(sp)
20406568:	55a2                	lw	a1,40(sp)
2040656a:	5612                	lw	a2,36(sp)
2040656c:	5682                	lw	a3,32(sp)
2040656e:	4772                	lw	a4,28(sp)
20406570:	47e2                	lw	a5,24(sp)
20406572:	4852                	lw	a6,20(sp)
20406574:	48c2                	lw	a7,16(sp)
20406576:	4e32                	lw	t3,12(sp)
20406578:	4ea2                	lw	t4,8(sp)
2040657a:	4f12                	lw	t5,4(sp)
2040657c:	4f82                	lw	t6,0(sp)
2040657e:	6121                	addi	sp,sp,64
20406580:	30200073          	mret
20406584:	26002783          	lw	a5,608(zero) # 260 <__metal_chicken_bit+0x25f>
20406588:	9002                	ebreak

2040658a <metal_lc4_interrupt_vector_handler>:
metal_lc4_interrupt_vector_handler():
2040658a:	7139                	addi	sp,sp,-64
2040658c:	de06                	sw	ra,60(sp)
2040658e:	dc16                	sw	t0,56(sp)
20406590:	da1a                	sw	t1,52(sp)
20406592:	d81e                	sw	t2,48(sp)
20406594:	d62a                	sw	a0,44(sp)
20406596:	d42e                	sw	a1,40(sp)
20406598:	d232                	sw	a2,36(sp)
2040659a:	d036                	sw	a3,32(sp)
2040659c:	ce3a                	sw	a4,28(sp)
2040659e:	cc3e                	sw	a5,24(sp)
204065a0:	ca42                	sw	a6,20(sp)
204065a2:	c846                	sw	a7,16(sp)
204065a4:	c672                	sw	t3,12(sp)
204065a6:	c476                	sw	t4,8(sp)
204065a8:	c27a                	sw	t5,4(sp)
204065aa:	c07e                	sw	t6,0(sp)
204065ac:	f14027f3          	csrr	a5,mhartid
204065b0:	00279713          	slli	a4,a5,0x2
204065b4:	83418793          	addi	a5,gp,-1996 # 80000aa4 <__metal_dt_prci_10008000+0x4>
204065b8:	97ba                	add	a5,a5,a4
204065ba:	4398                	lw	a4,0(a5)
204065bc:	cf19                	beqz	a4,204065da <metal_lc4_interrupt_vector_handler+0x50>
204065be:	82418793          	addi	a5,gp,-2012 # 80000a94 <__metal_dt_cpu_0>
204065c2:	02f71f63          	bne	a4,a5,20406600 <metal_lc4_interrupt_vector_handler+0x76>
204065c6:	800007b7          	lui	a5,0x80000
204065ca:	0a878793          	addi	a5,a5,168 # 800000a8 <metal_segment_heap_target_end+0xffffc828>
204065ce:	2707a703          	lw	a4,624(a5)
204065d2:	2787a583          	lw	a1,632(a5)
204065d6:	4551                	li	a0,20
204065d8:	9702                	jalr	a4
204065da:	50f2                	lw	ra,60(sp)
204065dc:	52e2                	lw	t0,56(sp)
204065de:	5352                	lw	t1,52(sp)
204065e0:	53c2                	lw	t2,48(sp)
204065e2:	5532                	lw	a0,44(sp)
204065e4:	55a2                	lw	a1,40(sp)
204065e6:	5612                	lw	a2,36(sp)
204065e8:	5682                	lw	a3,32(sp)
204065ea:	4772                	lw	a4,28(sp)
204065ec:	47e2                	lw	a5,24(sp)
204065ee:	4852                	lw	a6,20(sp)
204065f0:	48c2                	lw	a7,16(sp)
204065f2:	4e32                	lw	t3,12(sp)
204065f4:	4ea2                	lw	t4,8(sp)
204065f6:	4f12                	lw	t5,4(sp)
204065f8:	4f82                	lw	t6,0(sp)
204065fa:	6121                	addi	sp,sp,64
204065fc:	30200073          	mret
20406600:	27802783          	lw	a5,632(zero) # 278 <__metal_chicken_bit+0x277>
20406604:	9002                	ebreak

20406606 <metal_lc5_interrupt_vector_handler>:
metal_lc5_interrupt_vector_handler():
20406606:	7139                	addi	sp,sp,-64
20406608:	de06                	sw	ra,60(sp)
2040660a:	dc16                	sw	t0,56(sp)
2040660c:	da1a                	sw	t1,52(sp)
2040660e:	d81e                	sw	t2,48(sp)
20406610:	d62a                	sw	a0,44(sp)
20406612:	d42e                	sw	a1,40(sp)
20406614:	d232                	sw	a2,36(sp)
20406616:	d036                	sw	a3,32(sp)
20406618:	ce3a                	sw	a4,28(sp)
2040661a:	cc3e                	sw	a5,24(sp)
2040661c:	ca42                	sw	a6,20(sp)
2040661e:	c846                	sw	a7,16(sp)
20406620:	c672                	sw	t3,12(sp)
20406622:	c476                	sw	t4,8(sp)
20406624:	c27a                	sw	t5,4(sp)
20406626:	c07e                	sw	t6,0(sp)
20406628:	f14027f3          	csrr	a5,mhartid
2040662c:	00279713          	slli	a4,a5,0x2
20406630:	83418793          	addi	a5,gp,-1996 # 80000aa4 <__metal_dt_prci_10008000+0x4>
20406634:	97ba                	add	a5,a5,a4
20406636:	4398                	lw	a4,0(a5)
20406638:	cf19                	beqz	a4,20406656 <metal_lc5_interrupt_vector_handler+0x50>
2040663a:	82418793          	addi	a5,gp,-2012 # 80000a94 <__metal_dt_cpu_0>
2040663e:	02f71f63          	bne	a4,a5,2040667c <metal_lc5_interrupt_vector_handler+0x76>
20406642:	800007b7          	lui	a5,0x80000
20406646:	0a878793          	addi	a5,a5,168 # 800000a8 <metal_segment_heap_target_end+0xffffc828>
2040664a:	2887a703          	lw	a4,648(a5)
2040664e:	2907a583          	lw	a1,656(a5)
20406652:	4555                	li	a0,21
20406654:	9702                	jalr	a4
20406656:	50f2                	lw	ra,60(sp)
20406658:	52e2                	lw	t0,56(sp)
2040665a:	5352                	lw	t1,52(sp)
2040665c:	53c2                	lw	t2,48(sp)
2040665e:	5532                	lw	a0,44(sp)
20406660:	55a2                	lw	a1,40(sp)
20406662:	5612                	lw	a2,36(sp)
20406664:	5682                	lw	a3,32(sp)
20406666:	4772                	lw	a4,28(sp)
20406668:	47e2                	lw	a5,24(sp)
2040666a:	4852                	lw	a6,20(sp)
2040666c:	48c2                	lw	a7,16(sp)
2040666e:	4e32                	lw	t3,12(sp)
20406670:	4ea2                	lw	t4,8(sp)
20406672:	4f12                	lw	t5,4(sp)
20406674:	4f82                	lw	t6,0(sp)
20406676:	6121                	addi	sp,sp,64
20406678:	30200073          	mret
2040667c:	29002783          	lw	a5,656(zero) # 290 <__metal_chicken_bit+0x28f>
20406680:	9002                	ebreak

20406682 <metal_lc6_interrupt_vector_handler>:
metal_lc6_interrupt_vector_handler():
20406682:	7139                	addi	sp,sp,-64
20406684:	de06                	sw	ra,60(sp)
20406686:	dc16                	sw	t0,56(sp)
20406688:	da1a                	sw	t1,52(sp)
2040668a:	d81e                	sw	t2,48(sp)
2040668c:	d62a                	sw	a0,44(sp)
2040668e:	d42e                	sw	a1,40(sp)
20406690:	d232                	sw	a2,36(sp)
20406692:	d036                	sw	a3,32(sp)
20406694:	ce3a                	sw	a4,28(sp)
20406696:	cc3e                	sw	a5,24(sp)
20406698:	ca42                	sw	a6,20(sp)
2040669a:	c846                	sw	a7,16(sp)
2040669c:	c672                	sw	t3,12(sp)
2040669e:	c476                	sw	t4,8(sp)
204066a0:	c27a                	sw	t5,4(sp)
204066a2:	c07e                	sw	t6,0(sp)
204066a4:	f14027f3          	csrr	a5,mhartid
204066a8:	00279713          	slli	a4,a5,0x2
204066ac:	83418793          	addi	a5,gp,-1996 # 80000aa4 <__metal_dt_prci_10008000+0x4>
204066b0:	97ba                	add	a5,a5,a4
204066b2:	4398                	lw	a4,0(a5)
204066b4:	cf19                	beqz	a4,204066d2 <metal_lc6_interrupt_vector_handler+0x50>
204066b6:	82418793          	addi	a5,gp,-2012 # 80000a94 <__metal_dt_cpu_0>
204066ba:	02f71f63          	bne	a4,a5,204066f8 <metal_lc6_interrupt_vector_handler+0x76>
204066be:	800007b7          	lui	a5,0x80000
204066c2:	0a878793          	addi	a5,a5,168 # 800000a8 <metal_segment_heap_target_end+0xffffc828>
204066c6:	2a07a703          	lw	a4,672(a5)
204066ca:	2a87a583          	lw	a1,680(a5)
204066ce:	4559                	li	a0,22
204066d0:	9702                	jalr	a4
204066d2:	50f2                	lw	ra,60(sp)
204066d4:	52e2                	lw	t0,56(sp)
204066d6:	5352                	lw	t1,52(sp)
204066d8:	53c2                	lw	t2,48(sp)
204066da:	5532                	lw	a0,44(sp)
204066dc:	55a2                	lw	a1,40(sp)
204066de:	5612                	lw	a2,36(sp)
204066e0:	5682                	lw	a3,32(sp)
204066e2:	4772                	lw	a4,28(sp)
204066e4:	47e2                	lw	a5,24(sp)
204066e6:	4852                	lw	a6,20(sp)
204066e8:	48c2                	lw	a7,16(sp)
204066ea:	4e32                	lw	t3,12(sp)
204066ec:	4ea2                	lw	t4,8(sp)
204066ee:	4f12                	lw	t5,4(sp)
204066f0:	4f82                	lw	t6,0(sp)
204066f2:	6121                	addi	sp,sp,64
204066f4:	30200073          	mret
204066f8:	2a802783          	lw	a5,680(zero) # 2a8 <__metal_chicken_bit+0x2a7>
204066fc:	9002                	ebreak

204066fe <metal_lc7_interrupt_vector_handler>:
metal_lc7_interrupt_vector_handler():
204066fe:	7139                	addi	sp,sp,-64
20406700:	de06                	sw	ra,60(sp)
20406702:	dc16                	sw	t0,56(sp)
20406704:	da1a                	sw	t1,52(sp)
20406706:	d81e                	sw	t2,48(sp)
20406708:	d62a                	sw	a0,44(sp)
2040670a:	d42e                	sw	a1,40(sp)
2040670c:	d232                	sw	a2,36(sp)
2040670e:	d036                	sw	a3,32(sp)
20406710:	ce3a                	sw	a4,28(sp)
20406712:	cc3e                	sw	a5,24(sp)
20406714:	ca42                	sw	a6,20(sp)
20406716:	c846                	sw	a7,16(sp)
20406718:	c672                	sw	t3,12(sp)
2040671a:	c476                	sw	t4,8(sp)
2040671c:	c27a                	sw	t5,4(sp)
2040671e:	c07e                	sw	t6,0(sp)
20406720:	f14027f3          	csrr	a5,mhartid
20406724:	00279713          	slli	a4,a5,0x2
20406728:	83418793          	addi	a5,gp,-1996 # 80000aa4 <__metal_dt_prci_10008000+0x4>
2040672c:	97ba                	add	a5,a5,a4
2040672e:	4398                	lw	a4,0(a5)
20406730:	cf19                	beqz	a4,2040674e <metal_lc7_interrupt_vector_handler+0x50>
20406732:	82418793          	addi	a5,gp,-2012 # 80000a94 <__metal_dt_cpu_0>
20406736:	02f71f63          	bne	a4,a5,20406774 <metal_lc7_interrupt_vector_handler+0x76>
2040673a:	800007b7          	lui	a5,0x80000
2040673e:	0a878793          	addi	a5,a5,168 # 800000a8 <metal_segment_heap_target_end+0xffffc828>
20406742:	2b87a703          	lw	a4,696(a5)
20406746:	2c07a583          	lw	a1,704(a5)
2040674a:	455d                	li	a0,23
2040674c:	9702                	jalr	a4
2040674e:	50f2                	lw	ra,60(sp)
20406750:	52e2                	lw	t0,56(sp)
20406752:	5352                	lw	t1,52(sp)
20406754:	53c2                	lw	t2,48(sp)
20406756:	5532                	lw	a0,44(sp)
20406758:	55a2                	lw	a1,40(sp)
2040675a:	5612                	lw	a2,36(sp)
2040675c:	5682                	lw	a3,32(sp)
2040675e:	4772                	lw	a4,28(sp)
20406760:	47e2                	lw	a5,24(sp)
20406762:	4852                	lw	a6,20(sp)
20406764:	48c2                	lw	a7,16(sp)
20406766:	4e32                	lw	t3,12(sp)
20406768:	4ea2                	lw	t4,8(sp)
2040676a:	4f12                	lw	t5,4(sp)
2040676c:	4f82                	lw	t6,0(sp)
2040676e:	6121                	addi	sp,sp,64
20406770:	30200073          	mret
20406774:	2c002783          	lw	a5,704(zero) # 2c0 <__metal_chicken_bit+0x2bf>
20406778:	9002                	ebreak

2040677a <metal_lc8_interrupt_vector_handler>:
metal_lc8_interrupt_vector_handler():
2040677a:	7139                	addi	sp,sp,-64
2040677c:	de06                	sw	ra,60(sp)
2040677e:	dc16                	sw	t0,56(sp)
20406780:	da1a                	sw	t1,52(sp)
20406782:	d81e                	sw	t2,48(sp)
20406784:	d62a                	sw	a0,44(sp)
20406786:	d42e                	sw	a1,40(sp)
20406788:	d232                	sw	a2,36(sp)
2040678a:	d036                	sw	a3,32(sp)
2040678c:	ce3a                	sw	a4,28(sp)
2040678e:	cc3e                	sw	a5,24(sp)
20406790:	ca42                	sw	a6,20(sp)
20406792:	c846                	sw	a7,16(sp)
20406794:	c672                	sw	t3,12(sp)
20406796:	c476                	sw	t4,8(sp)
20406798:	c27a                	sw	t5,4(sp)
2040679a:	c07e                	sw	t6,0(sp)
2040679c:	f14027f3          	csrr	a5,mhartid
204067a0:	00279713          	slli	a4,a5,0x2
204067a4:	83418793          	addi	a5,gp,-1996 # 80000aa4 <__metal_dt_prci_10008000+0x4>
204067a8:	97ba                	add	a5,a5,a4
204067aa:	4398                	lw	a4,0(a5)
204067ac:	cf19                	beqz	a4,204067ca <metal_lc8_interrupt_vector_handler+0x50>
204067ae:	82418793          	addi	a5,gp,-2012 # 80000a94 <__metal_dt_cpu_0>
204067b2:	02f71f63          	bne	a4,a5,204067f0 <metal_lc8_interrupt_vector_handler+0x76>
204067b6:	800007b7          	lui	a5,0x80000
204067ba:	0a878793          	addi	a5,a5,168 # 800000a8 <metal_segment_heap_target_end+0xffffc828>
204067be:	2d07a703          	lw	a4,720(a5)
204067c2:	2d87a583          	lw	a1,728(a5)
204067c6:	4561                	li	a0,24
204067c8:	9702                	jalr	a4
204067ca:	50f2                	lw	ra,60(sp)
204067cc:	52e2                	lw	t0,56(sp)
204067ce:	5352                	lw	t1,52(sp)
204067d0:	53c2                	lw	t2,48(sp)
204067d2:	5532                	lw	a0,44(sp)
204067d4:	55a2                	lw	a1,40(sp)
204067d6:	5612                	lw	a2,36(sp)
204067d8:	5682                	lw	a3,32(sp)
204067da:	4772                	lw	a4,28(sp)
204067dc:	47e2                	lw	a5,24(sp)
204067de:	4852                	lw	a6,20(sp)
204067e0:	48c2                	lw	a7,16(sp)
204067e2:	4e32                	lw	t3,12(sp)
204067e4:	4ea2                	lw	t4,8(sp)
204067e6:	4f12                	lw	t5,4(sp)
204067e8:	4f82                	lw	t6,0(sp)
204067ea:	6121                	addi	sp,sp,64
204067ec:	30200073          	mret
204067f0:	2d802783          	lw	a5,728(zero) # 2d8 <__metal_chicken_bit+0x2d7>
204067f4:	9002                	ebreak

204067f6 <metal_lc9_interrupt_vector_handler>:
metal_lc9_interrupt_vector_handler():
204067f6:	7139                	addi	sp,sp,-64
204067f8:	de06                	sw	ra,60(sp)
204067fa:	dc16                	sw	t0,56(sp)
204067fc:	da1a                	sw	t1,52(sp)
204067fe:	d81e                	sw	t2,48(sp)
20406800:	d62a                	sw	a0,44(sp)
20406802:	d42e                	sw	a1,40(sp)
20406804:	d232                	sw	a2,36(sp)
20406806:	d036                	sw	a3,32(sp)
20406808:	ce3a                	sw	a4,28(sp)
2040680a:	cc3e                	sw	a5,24(sp)
2040680c:	ca42                	sw	a6,20(sp)
2040680e:	c846                	sw	a7,16(sp)
20406810:	c672                	sw	t3,12(sp)
20406812:	c476                	sw	t4,8(sp)
20406814:	c27a                	sw	t5,4(sp)
20406816:	c07e                	sw	t6,0(sp)
20406818:	f14027f3          	csrr	a5,mhartid
2040681c:	00279713          	slli	a4,a5,0x2
20406820:	83418793          	addi	a5,gp,-1996 # 80000aa4 <__metal_dt_prci_10008000+0x4>
20406824:	97ba                	add	a5,a5,a4
20406826:	4398                	lw	a4,0(a5)
20406828:	cf19                	beqz	a4,20406846 <metal_lc9_interrupt_vector_handler+0x50>
2040682a:	82418793          	addi	a5,gp,-2012 # 80000a94 <__metal_dt_cpu_0>
2040682e:	02f71f63          	bne	a4,a5,2040686c <metal_lc9_interrupt_vector_handler+0x76>
20406832:	800007b7          	lui	a5,0x80000
20406836:	0a878793          	addi	a5,a5,168 # 800000a8 <metal_segment_heap_target_end+0xffffc828>
2040683a:	2e87a703          	lw	a4,744(a5)
2040683e:	2f07a583          	lw	a1,752(a5)
20406842:	4565                	li	a0,25
20406844:	9702                	jalr	a4
20406846:	50f2                	lw	ra,60(sp)
20406848:	52e2                	lw	t0,56(sp)
2040684a:	5352                	lw	t1,52(sp)
2040684c:	53c2                	lw	t2,48(sp)
2040684e:	5532                	lw	a0,44(sp)
20406850:	55a2                	lw	a1,40(sp)
20406852:	5612                	lw	a2,36(sp)
20406854:	5682                	lw	a3,32(sp)
20406856:	4772                	lw	a4,28(sp)
20406858:	47e2                	lw	a5,24(sp)
2040685a:	4852                	lw	a6,20(sp)
2040685c:	48c2                	lw	a7,16(sp)
2040685e:	4e32                	lw	t3,12(sp)
20406860:	4ea2                	lw	t4,8(sp)
20406862:	4f12                	lw	t5,4(sp)
20406864:	4f82                	lw	t6,0(sp)
20406866:	6121                	addi	sp,sp,64
20406868:	30200073          	mret
2040686c:	2f002783          	lw	a5,752(zero) # 2f0 <__metal_chicken_bit+0x2ef>
20406870:	9002                	ebreak

20406872 <metal_lc10_interrupt_vector_handler>:
metal_lc10_interrupt_vector_handler():
20406872:	7139                	addi	sp,sp,-64
20406874:	de06                	sw	ra,60(sp)
20406876:	dc16                	sw	t0,56(sp)
20406878:	da1a                	sw	t1,52(sp)
2040687a:	d81e                	sw	t2,48(sp)
2040687c:	d62a                	sw	a0,44(sp)
2040687e:	d42e                	sw	a1,40(sp)
20406880:	d232                	sw	a2,36(sp)
20406882:	d036                	sw	a3,32(sp)
20406884:	ce3a                	sw	a4,28(sp)
20406886:	cc3e                	sw	a5,24(sp)
20406888:	ca42                	sw	a6,20(sp)
2040688a:	c846                	sw	a7,16(sp)
2040688c:	c672                	sw	t3,12(sp)
2040688e:	c476                	sw	t4,8(sp)
20406890:	c27a                	sw	t5,4(sp)
20406892:	c07e                	sw	t6,0(sp)
20406894:	f14027f3          	csrr	a5,mhartid
20406898:	00279713          	slli	a4,a5,0x2
2040689c:	83418793          	addi	a5,gp,-1996 # 80000aa4 <__metal_dt_prci_10008000+0x4>
204068a0:	97ba                	add	a5,a5,a4
204068a2:	4398                	lw	a4,0(a5)
204068a4:	cf19                	beqz	a4,204068c2 <metal_lc10_interrupt_vector_handler+0x50>
204068a6:	82418793          	addi	a5,gp,-2012 # 80000a94 <__metal_dt_cpu_0>
204068aa:	02f71f63          	bne	a4,a5,204068e8 <metal_lc10_interrupt_vector_handler+0x76>
204068ae:	800007b7          	lui	a5,0x80000
204068b2:	0a878793          	addi	a5,a5,168 # 800000a8 <metal_segment_heap_target_end+0xffffc828>
204068b6:	3007a703          	lw	a4,768(a5)
204068ba:	3087a583          	lw	a1,776(a5)
204068be:	4569                	li	a0,26
204068c0:	9702                	jalr	a4
204068c2:	50f2                	lw	ra,60(sp)
204068c4:	52e2                	lw	t0,56(sp)
204068c6:	5352                	lw	t1,52(sp)
204068c8:	53c2                	lw	t2,48(sp)
204068ca:	5532                	lw	a0,44(sp)
204068cc:	55a2                	lw	a1,40(sp)
204068ce:	5612                	lw	a2,36(sp)
204068d0:	5682                	lw	a3,32(sp)
204068d2:	4772                	lw	a4,28(sp)
204068d4:	47e2                	lw	a5,24(sp)
204068d6:	4852                	lw	a6,20(sp)
204068d8:	48c2                	lw	a7,16(sp)
204068da:	4e32                	lw	t3,12(sp)
204068dc:	4ea2                	lw	t4,8(sp)
204068de:	4f12                	lw	t5,4(sp)
204068e0:	4f82                	lw	t6,0(sp)
204068e2:	6121                	addi	sp,sp,64
204068e4:	30200073          	mret
204068e8:	30802783          	lw	a5,776(zero) # 308 <__metal_chicken_bit+0x307>
204068ec:	9002                	ebreak

204068ee <metal_lc11_interrupt_vector_handler>:
metal_lc11_interrupt_vector_handler():
204068ee:	7139                	addi	sp,sp,-64
204068f0:	de06                	sw	ra,60(sp)
204068f2:	dc16                	sw	t0,56(sp)
204068f4:	da1a                	sw	t1,52(sp)
204068f6:	d81e                	sw	t2,48(sp)
204068f8:	d62a                	sw	a0,44(sp)
204068fa:	d42e                	sw	a1,40(sp)
204068fc:	d232                	sw	a2,36(sp)
204068fe:	d036                	sw	a3,32(sp)
20406900:	ce3a                	sw	a4,28(sp)
20406902:	cc3e                	sw	a5,24(sp)
20406904:	ca42                	sw	a6,20(sp)
20406906:	c846                	sw	a7,16(sp)
20406908:	c672                	sw	t3,12(sp)
2040690a:	c476                	sw	t4,8(sp)
2040690c:	c27a                	sw	t5,4(sp)
2040690e:	c07e                	sw	t6,0(sp)
20406910:	f14027f3          	csrr	a5,mhartid
20406914:	00279713          	slli	a4,a5,0x2
20406918:	83418793          	addi	a5,gp,-1996 # 80000aa4 <__metal_dt_prci_10008000+0x4>
2040691c:	97ba                	add	a5,a5,a4
2040691e:	4398                	lw	a4,0(a5)
20406920:	cf19                	beqz	a4,2040693e <metal_lc11_interrupt_vector_handler+0x50>
20406922:	82418793          	addi	a5,gp,-2012 # 80000a94 <__metal_dt_cpu_0>
20406926:	02f71f63          	bne	a4,a5,20406964 <metal_lc11_interrupt_vector_handler+0x76>
2040692a:	800007b7          	lui	a5,0x80000
2040692e:	0a878793          	addi	a5,a5,168 # 800000a8 <metal_segment_heap_target_end+0xffffc828>
20406932:	3187a703          	lw	a4,792(a5)
20406936:	3207a583          	lw	a1,800(a5)
2040693a:	456d                	li	a0,27
2040693c:	9702                	jalr	a4
2040693e:	50f2                	lw	ra,60(sp)
20406940:	52e2                	lw	t0,56(sp)
20406942:	5352                	lw	t1,52(sp)
20406944:	53c2                	lw	t2,48(sp)
20406946:	5532                	lw	a0,44(sp)
20406948:	55a2                	lw	a1,40(sp)
2040694a:	5612                	lw	a2,36(sp)
2040694c:	5682                	lw	a3,32(sp)
2040694e:	4772                	lw	a4,28(sp)
20406950:	47e2                	lw	a5,24(sp)
20406952:	4852                	lw	a6,20(sp)
20406954:	48c2                	lw	a7,16(sp)
20406956:	4e32                	lw	t3,12(sp)
20406958:	4ea2                	lw	t4,8(sp)
2040695a:	4f12                	lw	t5,4(sp)
2040695c:	4f82                	lw	t6,0(sp)
2040695e:	6121                	addi	sp,sp,64
20406960:	30200073          	mret
20406964:	32002783          	lw	a5,800(zero) # 320 <__metal_chicken_bit+0x31f>
20406968:	9002                	ebreak

2040696a <metal_lc12_interrupt_vector_handler>:
metal_lc12_interrupt_vector_handler():
2040696a:	7139                	addi	sp,sp,-64
2040696c:	de06                	sw	ra,60(sp)
2040696e:	dc16                	sw	t0,56(sp)
20406970:	da1a                	sw	t1,52(sp)
20406972:	d81e                	sw	t2,48(sp)
20406974:	d62a                	sw	a0,44(sp)
20406976:	d42e                	sw	a1,40(sp)
20406978:	d232                	sw	a2,36(sp)
2040697a:	d036                	sw	a3,32(sp)
2040697c:	ce3a                	sw	a4,28(sp)
2040697e:	cc3e                	sw	a5,24(sp)
20406980:	ca42                	sw	a6,20(sp)
20406982:	c846                	sw	a7,16(sp)
20406984:	c672                	sw	t3,12(sp)
20406986:	c476                	sw	t4,8(sp)
20406988:	c27a                	sw	t5,4(sp)
2040698a:	c07e                	sw	t6,0(sp)
2040698c:	f14027f3          	csrr	a5,mhartid
20406990:	00279713          	slli	a4,a5,0x2
20406994:	83418793          	addi	a5,gp,-1996 # 80000aa4 <__metal_dt_prci_10008000+0x4>
20406998:	97ba                	add	a5,a5,a4
2040699a:	4398                	lw	a4,0(a5)
2040699c:	cf19                	beqz	a4,204069ba <metal_lc12_interrupt_vector_handler+0x50>
2040699e:	82418793          	addi	a5,gp,-2012 # 80000a94 <__metal_dt_cpu_0>
204069a2:	02f71f63          	bne	a4,a5,204069e0 <metal_lc12_interrupt_vector_handler+0x76>
204069a6:	800007b7          	lui	a5,0x80000
204069aa:	0a878793          	addi	a5,a5,168 # 800000a8 <metal_segment_heap_target_end+0xffffc828>
204069ae:	3307a703          	lw	a4,816(a5)
204069b2:	3387a583          	lw	a1,824(a5)
204069b6:	4571                	li	a0,28
204069b8:	9702                	jalr	a4
204069ba:	50f2                	lw	ra,60(sp)
204069bc:	52e2                	lw	t0,56(sp)
204069be:	5352                	lw	t1,52(sp)
204069c0:	53c2                	lw	t2,48(sp)
204069c2:	5532                	lw	a0,44(sp)
204069c4:	55a2                	lw	a1,40(sp)
204069c6:	5612                	lw	a2,36(sp)
204069c8:	5682                	lw	a3,32(sp)
204069ca:	4772                	lw	a4,28(sp)
204069cc:	47e2                	lw	a5,24(sp)
204069ce:	4852                	lw	a6,20(sp)
204069d0:	48c2                	lw	a7,16(sp)
204069d2:	4e32                	lw	t3,12(sp)
204069d4:	4ea2                	lw	t4,8(sp)
204069d6:	4f12                	lw	t5,4(sp)
204069d8:	4f82                	lw	t6,0(sp)
204069da:	6121                	addi	sp,sp,64
204069dc:	30200073          	mret
204069e0:	33802783          	lw	a5,824(zero) # 338 <__metal_chicken_bit+0x337>
204069e4:	9002                	ebreak

204069e6 <metal_lc13_interrupt_vector_handler>:
metal_lc13_interrupt_vector_handler():
204069e6:	7139                	addi	sp,sp,-64
204069e8:	de06                	sw	ra,60(sp)
204069ea:	dc16                	sw	t0,56(sp)
204069ec:	da1a                	sw	t1,52(sp)
204069ee:	d81e                	sw	t2,48(sp)
204069f0:	d62a                	sw	a0,44(sp)
204069f2:	d42e                	sw	a1,40(sp)
204069f4:	d232                	sw	a2,36(sp)
204069f6:	d036                	sw	a3,32(sp)
204069f8:	ce3a                	sw	a4,28(sp)
204069fa:	cc3e                	sw	a5,24(sp)
204069fc:	ca42                	sw	a6,20(sp)
204069fe:	c846                	sw	a7,16(sp)
20406a00:	c672                	sw	t3,12(sp)
20406a02:	c476                	sw	t4,8(sp)
20406a04:	c27a                	sw	t5,4(sp)
20406a06:	c07e                	sw	t6,0(sp)
20406a08:	f14027f3          	csrr	a5,mhartid
20406a0c:	00279713          	slli	a4,a5,0x2
20406a10:	83418793          	addi	a5,gp,-1996 # 80000aa4 <__metal_dt_prci_10008000+0x4>
20406a14:	97ba                	add	a5,a5,a4
20406a16:	4398                	lw	a4,0(a5)
20406a18:	cf19                	beqz	a4,20406a36 <metal_lc13_interrupt_vector_handler+0x50>
20406a1a:	82418793          	addi	a5,gp,-2012 # 80000a94 <__metal_dt_cpu_0>
20406a1e:	02f71f63          	bne	a4,a5,20406a5c <metal_lc13_interrupt_vector_handler+0x76>
20406a22:	800007b7          	lui	a5,0x80000
20406a26:	0a878793          	addi	a5,a5,168 # 800000a8 <metal_segment_heap_target_end+0xffffc828>
20406a2a:	3487a703          	lw	a4,840(a5)
20406a2e:	3507a583          	lw	a1,848(a5)
20406a32:	4575                	li	a0,29
20406a34:	9702                	jalr	a4
20406a36:	50f2                	lw	ra,60(sp)
20406a38:	52e2                	lw	t0,56(sp)
20406a3a:	5352                	lw	t1,52(sp)
20406a3c:	53c2                	lw	t2,48(sp)
20406a3e:	5532                	lw	a0,44(sp)
20406a40:	55a2                	lw	a1,40(sp)
20406a42:	5612                	lw	a2,36(sp)
20406a44:	5682                	lw	a3,32(sp)
20406a46:	4772                	lw	a4,28(sp)
20406a48:	47e2                	lw	a5,24(sp)
20406a4a:	4852                	lw	a6,20(sp)
20406a4c:	48c2                	lw	a7,16(sp)
20406a4e:	4e32                	lw	t3,12(sp)
20406a50:	4ea2                	lw	t4,8(sp)
20406a52:	4f12                	lw	t5,4(sp)
20406a54:	4f82                	lw	t6,0(sp)
20406a56:	6121                	addi	sp,sp,64
20406a58:	30200073          	mret
20406a5c:	35002783          	lw	a5,848(zero) # 350 <__metal_chicken_bit+0x34f>
20406a60:	9002                	ebreak

20406a62 <metal_lc14_interrupt_vector_handler>:
metal_lc14_interrupt_vector_handler():
20406a62:	7139                	addi	sp,sp,-64
20406a64:	de06                	sw	ra,60(sp)
20406a66:	dc16                	sw	t0,56(sp)
20406a68:	da1a                	sw	t1,52(sp)
20406a6a:	d81e                	sw	t2,48(sp)
20406a6c:	d62a                	sw	a0,44(sp)
20406a6e:	d42e                	sw	a1,40(sp)
20406a70:	d232                	sw	a2,36(sp)
20406a72:	d036                	sw	a3,32(sp)
20406a74:	ce3a                	sw	a4,28(sp)
20406a76:	cc3e                	sw	a5,24(sp)
20406a78:	ca42                	sw	a6,20(sp)
20406a7a:	c846                	sw	a7,16(sp)
20406a7c:	c672                	sw	t3,12(sp)
20406a7e:	c476                	sw	t4,8(sp)
20406a80:	c27a                	sw	t5,4(sp)
20406a82:	c07e                	sw	t6,0(sp)
20406a84:	f14027f3          	csrr	a5,mhartid
20406a88:	00279713          	slli	a4,a5,0x2
20406a8c:	83418793          	addi	a5,gp,-1996 # 80000aa4 <__metal_dt_prci_10008000+0x4>
20406a90:	97ba                	add	a5,a5,a4
20406a92:	4398                	lw	a4,0(a5)
20406a94:	cf19                	beqz	a4,20406ab2 <metal_lc14_interrupt_vector_handler+0x50>
20406a96:	82418793          	addi	a5,gp,-2012 # 80000a94 <__metal_dt_cpu_0>
20406a9a:	02f71f63          	bne	a4,a5,20406ad8 <metal_lc14_interrupt_vector_handler+0x76>
20406a9e:	800007b7          	lui	a5,0x80000
20406aa2:	0a878793          	addi	a5,a5,168 # 800000a8 <metal_segment_heap_target_end+0xffffc828>
20406aa6:	3607a703          	lw	a4,864(a5)
20406aaa:	3687a583          	lw	a1,872(a5)
20406aae:	4579                	li	a0,30
20406ab0:	9702                	jalr	a4
20406ab2:	50f2                	lw	ra,60(sp)
20406ab4:	52e2                	lw	t0,56(sp)
20406ab6:	5352                	lw	t1,52(sp)
20406ab8:	53c2                	lw	t2,48(sp)
20406aba:	5532                	lw	a0,44(sp)
20406abc:	55a2                	lw	a1,40(sp)
20406abe:	5612                	lw	a2,36(sp)
20406ac0:	5682                	lw	a3,32(sp)
20406ac2:	4772                	lw	a4,28(sp)
20406ac4:	47e2                	lw	a5,24(sp)
20406ac6:	4852                	lw	a6,20(sp)
20406ac8:	48c2                	lw	a7,16(sp)
20406aca:	4e32                	lw	t3,12(sp)
20406acc:	4ea2                	lw	t4,8(sp)
20406ace:	4f12                	lw	t5,4(sp)
20406ad0:	4f82                	lw	t6,0(sp)
20406ad2:	6121                	addi	sp,sp,64
20406ad4:	30200073          	mret
20406ad8:	36802783          	lw	a5,872(zero) # 368 <__metal_chicken_bit+0x367>
20406adc:	9002                	ebreak

20406ade <metal_lc15_interrupt_vector_handler>:
metal_lc15_interrupt_vector_handler():
20406ade:	7139                	addi	sp,sp,-64
20406ae0:	de06                	sw	ra,60(sp)
20406ae2:	dc16                	sw	t0,56(sp)
20406ae4:	da1a                	sw	t1,52(sp)
20406ae6:	d81e                	sw	t2,48(sp)
20406ae8:	d62a                	sw	a0,44(sp)
20406aea:	d42e                	sw	a1,40(sp)
20406aec:	d232                	sw	a2,36(sp)
20406aee:	d036                	sw	a3,32(sp)
20406af0:	ce3a                	sw	a4,28(sp)
20406af2:	cc3e                	sw	a5,24(sp)
20406af4:	ca42                	sw	a6,20(sp)
20406af6:	c846                	sw	a7,16(sp)
20406af8:	c672                	sw	t3,12(sp)
20406afa:	c476                	sw	t4,8(sp)
20406afc:	c27a                	sw	t5,4(sp)
20406afe:	c07e                	sw	t6,0(sp)
20406b00:	f14027f3          	csrr	a5,mhartid
20406b04:	00279713          	slli	a4,a5,0x2
20406b08:	83418793          	addi	a5,gp,-1996 # 80000aa4 <__metal_dt_prci_10008000+0x4>
20406b0c:	97ba                	add	a5,a5,a4
20406b0e:	4398                	lw	a4,0(a5)
20406b10:	cf19                	beqz	a4,20406b2e <metal_lc15_interrupt_vector_handler+0x50>
20406b12:	82418793          	addi	a5,gp,-2012 # 80000a94 <__metal_dt_cpu_0>
20406b16:	02f71f63          	bne	a4,a5,20406b54 <metal_lc15_interrupt_vector_handler+0x76>
20406b1a:	800007b7          	lui	a5,0x80000
20406b1e:	0a878793          	addi	a5,a5,168 # 800000a8 <metal_segment_heap_target_end+0xffffc828>
20406b22:	3787a703          	lw	a4,888(a5)
20406b26:	3807a583          	lw	a1,896(a5)
20406b2a:	457d                	li	a0,31
20406b2c:	9702                	jalr	a4
20406b2e:	50f2                	lw	ra,60(sp)
20406b30:	52e2                	lw	t0,56(sp)
20406b32:	5352                	lw	t1,52(sp)
20406b34:	53c2                	lw	t2,48(sp)
20406b36:	5532                	lw	a0,44(sp)
20406b38:	55a2                	lw	a1,40(sp)
20406b3a:	5612                	lw	a2,36(sp)
20406b3c:	5682                	lw	a3,32(sp)
20406b3e:	4772                	lw	a4,28(sp)
20406b40:	47e2                	lw	a5,24(sp)
20406b42:	4852                	lw	a6,20(sp)
20406b44:	48c2                	lw	a7,16(sp)
20406b46:	4e32                	lw	t3,12(sp)
20406b48:	4ea2                	lw	t4,8(sp)
20406b4a:	4f12                	lw	t5,4(sp)
20406b4c:	4f82                	lw	t6,0(sp)
20406b4e:	6121                	addi	sp,sp,64
20406b50:	30200073          	mret
20406b54:	38002783          	lw	a5,896(zero) # 380 <__metal_chicken_bit+0x37f>
20406b58:	9002                	ebreak

20406b5a <__metal_controller_interrupt_vector_mode>:
__metal_controller_interrupt_vector_mode():
20406b5a:	305027f3          	csrr	a5,mtvec
20406b5e:	03f7f793          	andi	a5,a5,63
20406b62:	17fd                	addi	a5,a5,-1
20406b64:	4709                	li	a4,2
20406b66:	4501                	li	a0,0
20406b68:	00f76763          	bltu	a4,a5,20406b76 <__metal_controller_interrupt_vector_mode+0x1c>
20406b6c:	83818713          	addi	a4,gp,-1992 # 80000aa8 <CSWTCH.18>
20406b70:	97ba                	add	a5,a5,a4
20406b72:	0007c503          	lbu	a0,0(a5)
20406b76:	8082                	ret

20406b78 <__metal_driver_riscv_cpu_controller_get_vector_mode>:
__metal_driver_riscv_cpu_controller_get_vector_mode():
20406b78:	b7cd                	j	20406b5a <__metal_controller_interrupt_vector_mode>

20406b7a <__metal_valid_interrupt_id>:
__metal_valid_interrupt_id():
20406b7a:	47ad                	li	a5,11
20406b7c:	02f50863          	beq	a0,a5,20406bac <__metal_valid_interrupt_id+0x32>
20406b80:	00a7cb63          	blt	a5,a0,20406b96 <__metal_valid_interrupt_id+0x1c>
20406b84:	470d                	li	a4,3
20406b86:	4785                	li	a5,1
20406b88:	00e50563          	beq	a0,a4,20406b92 <__metal_valid_interrupt_id+0x18>
20406b8c:	1565                	addi	a0,a0,-7
20406b8e:	00153793          	seqz	a5,a0
20406b92:	853e                	mv	a0,a5
20406b94:	8082                	ret
20406b96:	4741                	li	a4,16
20406b98:	4781                	li	a5,0
20406b9a:	fee54ce3          	blt	a0,a4,20406b92 <__metal_valid_interrupt_id+0x18>
20406b9e:	477d                	li	a4,31
20406ba0:	4785                	li	a5,1
20406ba2:	fea758e3          	bge	a4,a0,20406b92 <__metal_valid_interrupt_id+0x18>
20406ba6:	f8050513          	addi	a0,a0,-128
20406baa:	b7d5                	j	20406b8e <__metal_valid_interrupt_id+0x14>
20406bac:	4785                	li	a5,1
20406bae:	b7d5                	j	20406b92 <__metal_valid_interrupt_id+0x18>

20406bb0 <__metal_driver_riscv_cpu_controller_interrupt_register>:
__metal_driver_riscv_cpu_controller_interrupt_register():
20406bb0:	1101                	addi	sp,sp,-32
20406bb2:	cc22                	sw	s0,24(sp)
20406bb4:	842a                	mv	s0,a0
20406bb6:	852e                	mv	a0,a1
20406bb8:	ca26                	sw	s1,20(sp)
20406bba:	c84a                	sw	s2,16(sp)
20406bbc:	c64e                	sw	s3,12(sp)
20406bbe:	ce06                	sw	ra,28(sp)
20406bc0:	84ae                	mv	s1,a1
20406bc2:	89b2                	mv	s3,a2
20406bc4:	8936                	mv	s2,a3
20406bc6:	3f55                	jal	20406b7a <__metal_valid_interrupt_id>
20406bc8:	57d5                	li	a5,-11
20406bca:	c901                	beqz	a0,20406bda <__metal_driver_riscv_cpu_controller_interrupt_register+0x2a>
20406bcc:	08000793          	li	a5,128
20406bd0:	08f49a63          	bne	s1,a5,20406c64 <__metal_driver_riscv_cpu_controller_interrupt_register+0xb4>
20406bd4:	3759                	jal	20406b5a <__metal_controller_interrupt_vector_mode>
20406bd6:	57cd                	li	a5,-13
20406bd8:	cd2d                	beqz	a0,20406c52 <__metal_driver_riscv_cpu_controller_interrupt_register+0xa2>
20406bda:	40f2                	lw	ra,28(sp)
20406bdc:	4462                	lw	s0,24(sp)
20406bde:	44d2                	lw	s1,20(sp)
20406be0:	4942                	lw	s2,16(sp)
20406be2:	49b2                	lw	s3,12(sp)
20406be4:	853e                	mv	a0,a5
20406be6:	6105                	addi	sp,sp,32
20406be8:	8082                	ret
20406bea:	39342823          	sw	s3,912(s0)
20406bee:	39242c23          	sw	s2,920(s0)
20406bf2:	a809                	j	20406c04 <__metal_driver_riscv_cpu_controller_interrupt_register+0x54>
20406bf4:	45e1                	li	a1,24
20406bf6:	02b484b3          	mul	s1,s1,a1
20406bfa:	9426                	add	s0,s0,s1
20406bfc:	09342823          	sw	s3,144(s0)
20406c00:	09242c23          	sw	s2,152(s0)
20406c04:	4781                	li	a5,0
20406c06:	bfd1                	j	20406bda <__metal_driver_riscv_cpu_controller_interrupt_register+0x2a>
20406c08:	ff048713          	addi	a4,s1,-16
20406c0c:	46bd                	li	a3,15
20406c0e:	57d1                	li	a5,-12
20406c10:	fce6e5e3          	bltu	a3,a4,20406bda <__metal_driver_riscv_cpu_controller_interrupt_register+0x2a>
20406c14:	45e1                	li	a1,24
20406c16:	02b484b3          	mul	s1,s1,a1
20406c1a:	204067b7          	lui	a5,0x20406
20406c1e:	14878793          	addi	a5,a5,328 # 20406148 <__metal_default_interrupt_handler>
20406c22:	9426                	add	s0,s0,s1
20406c24:	08f42823          	sw	a5,144(s0)
20406c28:	09242a23          	sw	s2,148(s0)
20406c2c:	bfe1                	j	20406c04 <__metal_driver_riscv_cpu_controller_interrupt_register+0x54>
20406c2e:	204067b7          	lui	a5,0x20406
20406c32:	e6278793          	addi	a5,a5,-414 # 20405e62 <__metal_default_sw_handler>
20406c36:	0cf42c23          	sw	a5,216(s0)
20406c3a:	0d242e23          	sw	s2,220(s0)
20406c3e:	b7d9                	j	20406c04 <__metal_driver_riscv_cpu_controller_interrupt_register+0x54>
20406c40:	204067b7          	lui	a5,0x20406
20406c44:	17878793          	addi	a5,a5,376 # 20406178 <__metal_default_timer_handler>
20406c48:	12f42c23          	sw	a5,312(s0)
20406c4c:	13242e23          	sw	s2,316(s0)
20406c50:	bf55                	j	20406c04 <__metal_driver_riscv_cpu_controller_interrupt_register+0x54>
20406c52:	f8099ce3          	bnez	s3,20406bea <__metal_driver_riscv_cpu_controller_interrupt_register+0x3a>
20406c56:	204067b7          	lui	a5,0x20406
20406c5a:	ea478793          	addi	a5,a5,-348 # 20405ea4 <__metal_default_beu_handler>
20406c5e:	38f42823          	sw	a5,912(s0)
20406c62:	b771                	j	20406bee <__metal_driver_riscv_cpu_controller_interrupt_register+0x3e>
20406c64:	f80998e3          	bnez	s3,20406bf4 <__metal_driver_riscv_cpu_controller_interrupt_register+0x44>
20406c68:	47ad                	li	a5,11
20406c6a:	faf485e3          	beq	s1,a5,20406c14 <__metal_driver_riscv_cpu_controller_interrupt_register+0x64>
20406c6e:	f897cde3          	blt	a5,s1,20406c08 <__metal_driver_riscv_cpu_controller_interrupt_register+0x58>
20406c72:	478d                	li	a5,3
20406c74:	faf48de3          	beq	s1,a5,20406c2e <__metal_driver_riscv_cpu_controller_interrupt_register+0x7e>
20406c78:	479d                	li	a5,7
20406c7a:	fcf483e3          	beq	s1,a5,20406c40 <__metal_driver_riscv_cpu_controller_interrupt_register+0x90>
20406c7e:	57d1                	li	a5,-12
20406c80:	bfa9                	j	20406bda <__metal_driver_riscv_cpu_controller_interrupt_register+0x2a>

20406c82 <__metal_local_interrupt_enable>:
__metal_local_interrupt_enable():
20406c82:	c911                	beqz	a0,20406c96 <__metal_local_interrupt_enable+0x14>
20406c84:	479d                	li	a5,7
20406c86:	04f58a63          	beq	a1,a5,20406cda <__metal_local_interrupt_enable+0x58>
20406c8a:	00b7e863          	bltu	a5,a1,20406c9a <__metal_local_interrupt_enable+0x18>
20406c8e:	c59d                	beqz	a1,20406cbc <__metal_local_interrupt_enable+0x3a>
20406c90:	478d                	li	a5,3
20406c92:	02f58f63          	beq	a1,a5,20406cd0 <__metal_local_interrupt_enable+0x4e>
20406c96:	567d                	li	a2,-1
20406c98:	a815                	j	20406ccc <__metal_local_interrupt_enable+0x4a>
20406c9a:	47ad                	li	a5,11
20406c9c:	04f58263          	beq	a1,a5,20406ce0 <__metal_local_interrupt_enable+0x5e>
20406ca0:	fef5ebe3          	bltu	a1,a5,20406c96 <__metal_local_interrupt_enable+0x14>
20406ca4:	ff058793          	addi	a5,a1,-16
20406ca8:	473d                	li	a4,15
20406caa:	fef766e3          	bltu	a4,a5,20406c96 <__metal_local_interrupt_enable+0x14>
20406cae:	4785                	li	a5,1
20406cb0:	00b795b3          	sll	a1,a5,a1
20406cb4:	ce0d                	beqz	a2,20406cee <__metal_local_interrupt_enable+0x6c>
20406cb6:	3045a5f3          	csrrs	a1,mie,a1
20406cba:	a029                	j	20406cc4 <__metal_local_interrupt_enable+0x42>
20406cbc:	47a1                	li	a5,8
20406cbe:	c609                	beqz	a2,20406cc8 <__metal_local_interrupt_enable+0x46>
20406cc0:	3007a7f3          	csrrs	a5,mstatus,a5
20406cc4:	4601                	li	a2,0
20406cc6:	a019                	j	20406ccc <__metal_local_interrupt_enable+0x4a>
20406cc8:	3007b7f3          	csrrc	a5,mstatus,a5
20406ccc:	8532                	mv	a0,a2
20406cce:	8082                	ret
20406cd0:	47a1                	li	a5,8
20406cd2:	ca19                	beqz	a2,20406ce8 <__metal_local_interrupt_enable+0x66>
20406cd4:	3047a7f3          	csrrs	a5,mie,a5
20406cd8:	b7f5                	j	20406cc4 <__metal_local_interrupt_enable+0x42>
20406cda:	08000793          	li	a5,128
20406cde:	bfd5                	j	20406cd2 <__metal_local_interrupt_enable+0x50>
20406ce0:	6785                	lui	a5,0x1
20406ce2:	80078793          	addi	a5,a5,-2048 # 800 <__heap_size>
20406ce6:	b7f5                	j	20406cd2 <__metal_local_interrupt_enable+0x50>
20406ce8:	3047b7f3          	csrrc	a5,mie,a5
20406cec:	b7c5                	j	20406ccc <__metal_local_interrupt_enable+0x4a>
20406cee:	3045b5f3          	csrrc	a1,mie,a1
20406cf2:	bfe9                	j	20406ccc <__metal_local_interrupt_enable+0x4a>

20406cf4 <__metal_driver_riscv_cpu_controller_interrupt_enable>:
__metal_driver_riscv_cpu_controller_interrupt_enable():
20406cf4:	4605                	li	a2,1
20406cf6:	b771                	j	20406c82 <__metal_local_interrupt_enable>

20406cf8 <__metal_driver_riscv_cpu_controller_interrupt_disable>:
__metal_driver_riscv_cpu_controller_interrupt_disable():
20406cf8:	4601                	li	a2,0
20406cfa:	b761                	j	20406c82 <__metal_local_interrupt_enable>

20406cfc <__metal_driver_riscv_plic0_set_priority>:
__metal_driver_riscv_plic0_set_priority():
20406cfc:	800007b7          	lui	a5,0x80000
20406d00:	47878793          	addi	a5,a5,1144 # 80000478 <metal_segment_heap_target_end+0xffffcbf8>
20406d04:	00a79d63          	bne	a5,a0,20406d1e <__metal_driver_riscv_plic0_set_priority+0x22>
20406d08:	4799                	li	a5,6
20406d0a:	557d                	li	a0,-1
20406d0c:	00c7ea63          	bltu	a5,a2,20406d20 <__metal_driver_riscv_plic0_set_priority+0x24>
20406d10:	0c0007b7          	lui	a5,0xc000
20406d14:	058a                	slli	a1,a1,0x2
20406d16:	95be                	add	a1,a1,a5
20406d18:	c190                	sw	a2,0(a1)
20406d1a:	4501                	li	a0,0
20406d1c:	8082                	ret
20406d1e:	557d                	li	a0,-1
20406d20:	8082                	ret

20406d22 <__metal_driver_riscv_plic0_get_priority>:
__metal_driver_riscv_plic0_get_priority():
20406d22:	800007b7          	lui	a5,0x80000
20406d26:	47878793          	addi	a5,a5,1144 # 80000478 <metal_segment_heap_target_end+0xffffcbf8>
20406d2a:	00a78763          	beq	a5,a0,20406d38 <__metal_driver_riscv_plic0_get_priority+0x16>
20406d2e:	4781                	li	a5,0
20406d30:	058a                	slli	a1,a1,0x2
20406d32:	95be                	add	a1,a1,a5
20406d34:	4188                	lw	a0,0(a1)
20406d36:	8082                	ret
20406d38:	0c0007b7          	lui	a5,0xc000
20406d3c:	bfd5                	j	20406d30 <__metal_driver_riscv_plic0_get_priority+0xe>

20406d3e <__metal_plic0_default_handler>:
__metal_plic0_default_handler():
20406d3e:	1141                	addi	sp,sp,-16
20406d40:	12c00513          	li	a0,300
20406d44:	c606                	sw	ra,12(sp)
20406d46:	5ad000ef          	jal	ra,20407af2 <metal_shutdown>

20406d4a <__metal_driver_riscv_plic0_register>:
__metal_driver_riscv_plic0_register():
20406d4a:	1101                	addi	sp,sp,-32
20406d4c:	800007b7          	lui	a5,0x80000
20406d50:	cc22                	sw	s0,24(sp)
20406d52:	ce06                	sw	ra,28(sp)
20406d54:	ca26                	sw	s1,20(sp)
20406d56:	c84a                	sw	s2,16(sp)
20406d58:	c64e                	sw	s3,12(sp)
20406d5a:	c452                	sw	s4,8(sp)
20406d5c:	47878793          	addi	a5,a5,1144 # 80000478 <metal_segment_heap_target_end+0xffffcbf8>
20406d60:	842a                	mv	s0,a0
20406d62:	4701                	li	a4,0
20406d64:	00f51463          	bne	a0,a5,20406d6c <__metal_driver_riscv_plic0_register+0x22>
20406d68:	03500713          	li	a4,53
20406d6c:	557d                	li	a0,-1
20406d6e:	02e5d563          	bge	a1,a4,20406d98 <__metal_driver_riscv_plic0_register+0x4e>
20406d72:	89b6                	mv	s3,a3
20406d74:	8a32                	mv	s4,a2
20406d76:	84ae                	mv	s1,a1
20406d78:	00259913          	slli	s2,a1,0x2
20406d7c:	c615                	beqz	a2,20406da8 <__metal_driver_riscv_plic0_register+0x5e>
20406d7e:	8522                	mv	a0,s0
20406d80:	4609                	li	a2,2
20406d82:	3fad                	jal	20406cfc <__metal_driver_riscv_plic0_set_priority>
20406d84:	45e1                	li	a1,24
20406d86:	02b484b3          	mul	s1,s1,a1
20406d8a:	9922                	add	s2,s2,s0
20406d8c:	01492423          	sw	s4,8(s2)
20406d90:	9426                	add	s0,s0,s1
20406d92:	0f342823          	sw	s3,240(s0)
20406d96:	4501                	li	a0,0
20406d98:	40f2                	lw	ra,28(sp)
20406d9a:	4462                	lw	s0,24(sp)
20406d9c:	44d2                	lw	s1,20(sp)
20406d9e:	4942                	lw	s2,16(sp)
20406da0:	49b2                	lw	s3,12(sp)
20406da2:	4a22                	lw	s4,8(sp)
20406da4:	6105                	addi	sp,sp,32
20406da6:	8082                	ret
20406da8:	8522                	mv	a0,s0
20406daa:	4605                	li	a2,1
20406dac:	3f81                	jal	20406cfc <__metal_driver_riscv_plic0_set_priority>
20406dae:	45e1                	li	a1,24
20406db0:	02b484b3          	mul	s1,s1,a1
20406db4:	204077b7          	lui	a5,0x20407
20406db8:	9922                	add	s2,s2,s0
20406dba:	d3e78793          	addi	a5,a5,-706 # 20406d3e <__metal_plic0_default_handler>
20406dbe:	00f92423          	sw	a5,8(s2)
20406dc2:	9426                	add	s0,s0,s1
20406dc4:	0f342623          	sw	s3,236(s0)
20406dc8:	b7f9                	j	20406d96 <__metal_driver_riscv_plic0_register+0x4c>

20406dca <__metal_plic0_claim_interrupt>:
__metal_plic0_claim_interrupt():
20406dca:	800007b7          	lui	a5,0x80000
20406dce:	47878793          	addi	a5,a5,1144 # 80000478 <metal_segment_heap_target_end+0xffffcbf8>
20406dd2:	4701                	li	a4,0
20406dd4:	00a79463          	bne	a5,a0,20406ddc <__metal_plic0_claim_interrupt+0x12>
20406dd8:	0c000737          	lui	a4,0xc000
20406ddc:	002007b7          	lui	a5,0x200
20406de0:	0791                	addi	a5,a5,4
20406de2:	05b2                	slli	a1,a1,0xc
20406de4:	95be                	add	a1,a1,a5
20406de6:	95ba                	add	a1,a1,a4
20406de8:	4188                	lw	a0,0(a1)
20406dea:	8082                	ret

20406dec <__metal_plic0_complete_interrupt>:
__metal_plic0_complete_interrupt():
20406dec:	800007b7          	lui	a5,0x80000
20406df0:	47878793          	addi	a5,a5,1144 # 80000478 <metal_segment_heap_target_end+0xffffcbf8>
20406df4:	0c000737          	lui	a4,0xc000
20406df8:	00a78363          	beq	a5,a0,20406dfe <__metal_plic0_complete_interrupt+0x12>
20406dfc:	4701                	li	a4,0
20406dfe:	002007b7          	lui	a5,0x200
20406e02:	05b2                	slli	a1,a1,0xc
20406e04:	0791                	addi	a5,a5,4
20406e06:	95be                	add	a1,a1,a5
20406e08:	95ba                	add	a1,a1,a4
20406e0a:	c190                	sw	a2,0(a1)
20406e0c:	8082                	ret

20406e0e <__metal_plic0_handler>:
__metal_plic0_handler():
20406e0e:	1101                	addi	sp,sp,-32
20406e10:	ce06                	sw	ra,28(sp)
20406e12:	cc22                	sw	s0,24(sp)
20406e14:	ca26                	sw	s1,20(sp)
20406e16:	842e                	mv	s0,a1
20406e18:	c5aff0ef          	jal	ra,20406272 <__metal_myhart_id>
20406e1c:	00a03533          	snez	a0,a0
20406e20:	40a004b3          	neg	s1,a0
20406e24:	85a6                	mv	a1,s1
20406e26:	8522                	mv	a0,s0
20406e28:	374d                	jal	20406dca <__metal_plic0_claim_interrupt>
20406e2a:	800007b7          	lui	a5,0x80000
20406e2e:	47878793          	addi	a5,a5,1144 # 80000478 <metal_segment_heap_target_end+0xffffcbf8>
20406e32:	862a                	mv	a2,a0
20406e34:	02f41463          	bne	s0,a5,20406e5c <__metal_plic0_handler+0x4e>
20406e38:	03400793          	li	a5,52
20406e3c:	02a7e063          	bltu	a5,a0,20406e5c <__metal_plic0_handler+0x4e>
20406e40:	00251793          	slli	a5,a0,0x2
20406e44:	97a2                	add	a5,a5,s0
20406e46:	4798                	lw	a4,8(a5)
20406e48:	cb11                	beqz	a4,20406e5c <__metal_plic0_handler+0x4e>
20406e4a:	47e1                	li	a5,24
20406e4c:	02f507b3          	mul	a5,a0,a5
20406e50:	c62a                	sw	a0,12(sp)
20406e52:	97a2                	add	a5,a5,s0
20406e54:	0f07a583          	lw	a1,240(a5)
20406e58:	9702                	jalr	a4
20406e5a:	4632                	lw	a2,12(sp)
20406e5c:	8522                	mv	a0,s0
20406e5e:	4462                	lw	s0,24(sp)
20406e60:	40f2                	lw	ra,28(sp)
20406e62:	85a6                	mv	a1,s1
20406e64:	44d2                	lw	s1,20(sp)
20406e66:	6105                	addi	sp,sp,32
20406e68:	b751                	j	20406dec <__metal_plic0_complete_interrupt>

20406e6a <__metal_plic0_set_threshold>:
__metal_plic0_set_threshold():
20406e6a:	800007b7          	lui	a5,0x80000
20406e6e:	47878793          	addi	a5,a5,1144 # 80000478 <metal_segment_heap_target_end+0xffffcbf8>
20406e72:	0c000737          	lui	a4,0xc000
20406e76:	00a78363          	beq	a5,a0,20406e7c <__metal_plic0_set_threshold+0x12>
20406e7a:	4701                	li	a4,0
20406e7c:	002007b7          	lui	a5,0x200
20406e80:	05b2                	slli	a1,a1,0xc
20406e82:	95be                	add	a1,a1,a5
20406e84:	95ba                	add	a1,a1,a4
20406e86:	c190                	sw	a2,0(a1)
20406e88:	4501                	li	a0,0
20406e8a:	8082                	ret

20406e8c <__metal_driver_riscv_plic0_set_threshold>:
__metal_driver_riscv_plic0_set_threshold():
20406e8c:	1101                	addi	sp,sp,-32
20406e8e:	cc22                	sw	s0,24(sp)
20406e90:	ce06                	sw	ra,28(sp)
20406e92:	842a                	mv	s0,a0
20406e94:	c62e                	sw	a1,12(sp)
20406e96:	bdcff0ef          	jal	ra,20406272 <__metal_myhart_id>
20406e9a:	85aa                	mv	a1,a0
20406e9c:	8522                	mv	a0,s0
20406e9e:	4462                	lw	s0,24(sp)
20406ea0:	4632                	lw	a2,12(sp)
20406ea2:	40f2                	lw	ra,28(sp)
20406ea4:	6105                	addi	sp,sp,32
20406ea6:	b7d1                	j	20406e6a <__metal_plic0_set_threshold>

20406ea8 <__metal_driver_riscv_plic0_affinity_set_threshold>:
__metal_driver_riscv_plic0_affinity_set_threshold():
20406ea8:	1101                	addi	sp,sp,-32
20406eaa:	cc22                	sw	s0,24(sp)
20406eac:	ca26                	sw	s1,20(sp)
20406eae:	c84a                	sw	s2,16(sp)
20406eb0:	c64e                	sw	s3,12(sp)
20406eb2:	c452                	sw	s4,8(sp)
20406eb4:	ce06                	sw	ra,28(sp)
20406eb6:	89aa                	mv	s3,a0
20406eb8:	8a32                	mv	s4,a2
20406eba:	892e                	mv	s2,a1
20406ebc:	4481                	li	s1,0
20406ebe:	4401                	li	s0,0
20406ec0:	00091b63          	bnez	s2,20406ed6 <__metal_driver_riscv_plic0_affinity_set_threshold+0x2e>
20406ec4:	40f2                	lw	ra,28(sp)
20406ec6:	4462                	lw	s0,24(sp)
20406ec8:	8526                	mv	a0,s1
20406eca:	4942                	lw	s2,16(sp)
20406ecc:	44d2                	lw	s1,20(sp)
20406ece:	49b2                	lw	s3,12(sp)
20406ed0:	4a22                	lw	s4,8(sp)
20406ed2:	6105                	addi	sp,sp,32
20406ed4:	8082                	ret
20406ed6:	c809                	beqz	s0,20406ee8 <__metal_driver_riscv_plic0_affinity_set_threshold+0x40>
20406ed8:	8652                	mv	a2,s4
20406eda:	85a2                	mv	a1,s0
20406edc:	854e                	mv	a0,s3
20406ede:	3771                	jal	20406e6a <__metal_plic0_set_threshold>
20406ee0:	8905                	andi	a0,a0,1
20406ee2:	00851533          	sll	a0,a0,s0
20406ee6:	8cc9                	or	s1,s1,a0
20406ee8:	0405                	addi	s0,s0,1
20406eea:	00195913          	srli	s2,s2,0x1
20406eee:	bfc9                	j	20406ec0 <__metal_driver_riscv_plic0_affinity_set_threshold+0x18>

20406ef0 <__metal_plic0_get_threshold>:
__metal_plic0_get_threshold():
20406ef0:	800007b7          	lui	a5,0x80000
20406ef4:	47878793          	addi	a5,a5,1144 # 80000478 <metal_segment_heap_target_end+0xffffcbf8>
20406ef8:	00a78a63          	beq	a5,a0,20406f0c <__metal_plic0_get_threshold+0x1c>
20406efc:	4781                	li	a5,0
20406efe:	00200737          	lui	a4,0x200
20406f02:	05b2                	slli	a1,a1,0xc
20406f04:	95ba                	add	a1,a1,a4
20406f06:	95be                	add	a1,a1,a5
20406f08:	4188                	lw	a0,0(a1)
20406f0a:	8082                	ret
20406f0c:	0c0007b7          	lui	a5,0xc000
20406f10:	b7fd                	j	20406efe <__metal_plic0_get_threshold+0xe>

20406f12 <__metal_driver_riscv_plic0_get_threshold>:
__metal_driver_riscv_plic0_get_threshold():
20406f12:	1141                	addi	sp,sp,-16
20406f14:	c422                	sw	s0,8(sp)
20406f16:	c606                	sw	ra,12(sp)
20406f18:	842a                	mv	s0,a0
20406f1a:	b58ff0ef          	jal	ra,20406272 <__metal_myhart_id>
20406f1e:	85aa                	mv	a1,a0
20406f20:	8522                	mv	a0,s0
20406f22:	4422                	lw	s0,8(sp)
20406f24:	40b2                	lw	ra,12(sp)
20406f26:	0141                	addi	sp,sp,16
20406f28:	b7e1                	j	20406ef0 <__metal_plic0_get_threshold>

20406f2a <__metal_driver_riscv_plic0_affinity_get_threshold>:
__metal_driver_riscv_plic0_affinity_get_threshold():
20406f2a:	1141                	addi	sp,sp,-16
20406f2c:	c606                	sw	ra,12(sp)
20406f2e:	37c9                	jal	20406ef0 <__metal_plic0_get_threshold>
20406f30:	40b2                	lw	ra,12(sp)
20406f32:	4501                	li	a0,0
20406f34:	0141                	addi	sp,sp,16
20406f36:	8082                	ret

20406f38 <__metal_plic0_enable>:
__metal_plic0_enable():
20406f38:	80000737          	lui	a4,0x80000
20406f3c:	47870713          	addi	a4,a4,1144 # 80000478 <metal_segment_heap_target_end+0xffffcbf8>
20406f40:	0c000837          	lui	a6,0xc000
20406f44:	00a70363          	beq	a4,a0,20406f4a <__metal_plic0_enable+0x12>
20406f48:	4801                	li	a6,0
20406f4a:	40565713          	srai	a4,a2,0x5
20406f4e:	070a                	slli	a4,a4,0x2
20406f50:	00759793          	slli	a5,a1,0x7
20406f54:	97ba                	add	a5,a5,a4
20406f56:	6709                	lui	a4,0x2
20406f58:	97ba                	add	a5,a5,a4
20406f5a:	97c2                	add	a5,a5,a6
20406f5c:	438c                	lw	a1,0(a5)
20406f5e:	4705                	li	a4,1
20406f60:	00c71633          	sll	a2,a4,a2
20406f64:	c689                	beqz	a3,20406f6e <__metal_plic0_enable+0x36>
20406f66:	8e4d                	or	a2,a2,a1
20406f68:	c390                	sw	a2,0(a5)
20406f6a:	4501                	li	a0,0
20406f6c:	8082                	ret
20406f6e:	fff64613          	not	a2,a2
20406f72:	8e6d                	and	a2,a2,a1
20406f74:	bfd5                	j	20406f68 <__metal_plic0_enable+0x30>

20406f76 <__metal_driver_riscv_plic0_init>:
__metal_driver_riscv_plic0_init():
20406f76:	1101                	addi	sp,sp,-32
20406f78:	ca26                	sw	s1,20(sp)
20406f7a:	4144                	lw	s1,4(a0)
20406f7c:	ce06                	sw	ra,28(sp)
20406f7e:	cc22                	sw	s0,24(sp)
20406f80:	c84a                	sw	s2,16(sp)
20406f82:	c64e                	sw	s3,12(sp)
20406f84:	c452                	sw	s4,8(sp)
20406f86:	c256                	sw	s5,4(sp)
20406f88:	c05a                	sw	s6,0(sp)
20406f8a:	c899                	beqz	s1,20406fa0 <__metal_driver_riscv_plic0_init+0x2a>
20406f8c:	40f2                	lw	ra,28(sp)
20406f8e:	4462                	lw	s0,24(sp)
20406f90:	44d2                	lw	s1,20(sp)
20406f92:	4942                	lw	s2,16(sp)
20406f94:	49b2                	lw	s3,12(sp)
20406f96:	4a22                	lw	s4,8(sp)
20406f98:	4a92                	lw	s5,4(sp)
20406f9a:	4b02                	lw	s6,0(sp)
20406f9c:	6105                	addi	sp,sp,32
20406f9e:	8082                	ret
20406fa0:	800007b7          	lui	a5,0x80000
20406fa4:	47878793          	addi	a5,a5,1144 # 80000478 <metal_segment_heap_target_end+0xffffcbf8>
20406fa8:	03500a93          	li	s5,53
20406fac:	00f50363          	beq	a0,a5,20406fb2 <__metal_driver_riscv_plic0_init+0x3c>
20406fb0:	4a81                	li	s5,0
20406fb2:	80000937          	lui	s2,0x80000
20406fb6:	0a892783          	lw	a5,168(s2) # 800000a8 <metal_segment_heap_target_end+0xffffc828>
20406fba:	842a                	mv	s0,a0
20406fbc:	0a890513          	addi	a0,s2,168
20406fc0:	439c                	lw	a5,0(a5)
20406fc2:	0ec40993          	addi	s3,s0,236
20406fc6:	0a890a13          	addi	s4,s2,168
20406fca:	9782                	jalr	a5
20406fcc:	40000b13          	li	s6,1024
20406fd0:	4681                	li	a3,0
20406fd2:	8626                	mv	a2,s1
20406fd4:	4581                	li	a1,0
20406fd6:	8522                	mv	a0,s0
20406fd8:	3785                	jal	20406f38 <__metal_plic0_enable>
20406fda:	0354d063          	bge	s1,s5,20406ffa <__metal_driver_riscv_plic0_init+0x84>
20406fde:	4601                	li	a2,0
20406fe0:	85a6                	mv	a1,s1
20406fe2:	8522                	mv	a0,s0
20406fe4:	d19ff0ef          	jal	ra,20406cfc <__metal_driver_riscv_plic0_set_priority>
20406fe8:	00249793          	slli	a5,s1,0x2
20406fec:	97a2                	add	a5,a5,s0
20406fee:	0007a423          	sw	zero,8(a5)
20406ff2:	0009a023          	sw	zero,0(s3)
20406ff6:	0009a223          	sw	zero,4(s3)
20406ffa:	0485                	addi	s1,s1,1
20406ffc:	09e1                	addi	s3,s3,24
20406ffe:	fd6499e3          	bne	s1,s6,20406fd0 <__metal_driver_riscv_plic0_init+0x5a>
20407002:	4601                	li	a2,0
20407004:	4581                	li	a1,0
20407006:	8522                	mv	a0,s0
20407008:	358d                	jal	20406e6a <__metal_plic0_set_threshold>
2040700a:	000a2783          	lw	a5,0(s4)
2040700e:	86a2                	mv	a3,s0
20407010:	4601                	li	a2,0
20407012:	4fdc                	lw	a5,28(a5)
20407014:	45ad                	li	a1,11
20407016:	0a890513          	addi	a0,s2,168
2040701a:	9782                	jalr	a5
2040701c:	000a2783          	lw	a5,0(s4)
20407020:	20407637          	lui	a2,0x20407
20407024:	86a2                	mv	a3,s0
20407026:	4fdc                	lw	a5,28(a5)
20407028:	e0e60613          	addi	a2,a2,-498 # 20406e0e <__metal_plic0_handler>
2040702c:	45ad                	li	a1,11
2040702e:	0a890513          	addi	a0,s2,168
20407032:	9782                	jalr	a5
20407034:	000a2783          	lw	a5,0(s4)
20407038:	45ad                	li	a1,11
2040703a:	0a890513          	addi	a0,s2,168
2040703e:	53dc                	lw	a5,36(a5)
20407040:	9782                	jalr	a5
20407042:	4785                	li	a5,1
20407044:	c05c                	sw	a5,4(s0)
20407046:	b799                	j	20406f8c <__metal_driver_riscv_plic0_init+0x16>

20407048 <__metal_driver_riscv_plic0_enable>:
__metal_driver_riscv_plic0_enable():
20407048:	800007b7          	lui	a5,0x80000
2040704c:	47878793          	addi	a5,a5,1144 # 80000478 <metal_segment_heap_target_end+0xffffcbf8>
20407050:	4701                	li	a4,0
20407052:	00f51463          	bne	a0,a5,2040705a <__metal_driver_riscv_plic0_enable+0x12>
20407056:	03500713          	li	a4,53
2040705a:	57fd                	li	a5,-1
2040705c:	02e5d463          	bge	a1,a4,20407084 <__metal_driver_riscv_plic0_enable+0x3c>
20407060:	1101                	addi	sp,sp,-32
20407062:	ce06                	sw	ra,28(sp)
20407064:	cc22                	sw	s0,24(sp)
20407066:	c62e                	sw	a1,12(sp)
20407068:	842a                	mv	s0,a0
2040706a:	a08ff0ef          	jal	ra,20406272 <__metal_myhart_id>
2040706e:	4632                	lw	a2,12(sp)
20407070:	85aa                	mv	a1,a0
20407072:	4685                	li	a3,1
20407074:	8522                	mv	a0,s0
20407076:	35c9                	jal	20406f38 <__metal_plic0_enable>
20407078:	40f2                	lw	ra,28(sp)
2040707a:	4462                	lw	s0,24(sp)
2040707c:	4781                	li	a5,0
2040707e:	853e                	mv	a0,a5
20407080:	6105                	addi	sp,sp,32
20407082:	8082                	ret
20407084:	853e                	mv	a0,a5
20407086:	8082                	ret

20407088 <__metal_driver_riscv_plic0_disable>:
__metal_driver_riscv_plic0_disable():
20407088:	800007b7          	lui	a5,0x80000
2040708c:	47878793          	addi	a5,a5,1144 # 80000478 <metal_segment_heap_target_end+0xffffcbf8>
20407090:	4701                	li	a4,0
20407092:	00f51463          	bne	a0,a5,2040709a <__metal_driver_riscv_plic0_disable+0x12>
20407096:	03500713          	li	a4,53
2040709a:	57fd                	li	a5,-1
2040709c:	02e5d463          	bge	a1,a4,204070c4 <__metal_driver_riscv_plic0_disable+0x3c>
204070a0:	1101                	addi	sp,sp,-32
204070a2:	ce06                	sw	ra,28(sp)
204070a4:	cc22                	sw	s0,24(sp)
204070a6:	c62e                	sw	a1,12(sp)
204070a8:	842a                	mv	s0,a0
204070aa:	9c8ff0ef          	jal	ra,20406272 <__metal_myhart_id>
204070ae:	4632                	lw	a2,12(sp)
204070b0:	85aa                	mv	a1,a0
204070b2:	4681                	li	a3,0
204070b4:	8522                	mv	a0,s0
204070b6:	3549                	jal	20406f38 <__metal_plic0_enable>
204070b8:	40f2                	lw	ra,28(sp)
204070ba:	4462                	lw	s0,24(sp)
204070bc:	4781                	li	a5,0
204070be:	853e                	mv	a0,a5
204070c0:	6105                	addi	sp,sp,32
204070c2:	8082                	ret
204070c4:	853e                	mv	a0,a5
204070c6:	8082                	ret

204070c8 <__metal_driver_riscv_plic0_affinity_enable>:
__metal_driver_riscv_plic0_affinity_enable():
204070c8:	1101                	addi	sp,sp,-32
204070ca:	800007b7          	lui	a5,0x80000
204070ce:	ce06                	sw	ra,28(sp)
204070d0:	cc22                	sw	s0,24(sp)
204070d2:	ca26                	sw	s1,20(sp)
204070d4:	c84a                	sw	s2,16(sp)
204070d6:	c64e                	sw	s3,12(sp)
204070d8:	c452                	sw	s4,8(sp)
204070da:	47878793          	addi	a5,a5,1144 # 80000478 <metal_segment_heap_target_end+0xffffcbf8>
204070de:	4701                	li	a4,0
204070e0:	00f51463          	bne	a0,a5,204070e8 <__metal_driver_riscv_plic0_affinity_enable+0x20>
204070e4:	03500713          	li	a4,53
204070e8:	54fd                	li	s1,-1
204070ea:	00e65863          	bge	a2,a4,204070fa <__metal_driver_riscv_plic0_affinity_enable+0x32>
204070ee:	8a32                	mv	s4,a2
204070f0:	89aa                	mv	s3,a0
204070f2:	842e                	mv	s0,a1
204070f4:	4481                	li	s1,0
204070f6:	4901                	li	s2,0
204070f8:	e811                	bnez	s0,2040710c <__metal_driver_riscv_plic0_affinity_enable+0x44>
204070fa:	40f2                	lw	ra,28(sp)
204070fc:	4462                	lw	s0,24(sp)
204070fe:	8526                	mv	a0,s1
20407100:	4942                	lw	s2,16(sp)
20407102:	44d2                	lw	s1,20(sp)
20407104:	49b2                	lw	s3,12(sp)
20407106:	4a22                	lw	s4,8(sp)
20407108:	6105                	addi	sp,sp,32
2040710a:	8082                	ret
2040710c:	00090c63          	beqz	s2,20407124 <__metal_driver_riscv_plic0_affinity_enable+0x5c>
20407110:	4685                	li	a3,1
20407112:	8652                	mv	a2,s4
20407114:	85ca                	mv	a1,s2
20407116:	854e                	mv	a0,s3
20407118:	e21ff0ef          	jal	ra,20406f38 <__metal_plic0_enable>
2040711c:	8905                	andi	a0,a0,1
2040711e:	01251533          	sll	a0,a0,s2
20407122:	8cc9                	or	s1,s1,a0
20407124:	0905                	addi	s2,s2,1
20407126:	8005                	srli	s0,s0,0x1
20407128:	bfc1                	j	204070f8 <__metal_driver_riscv_plic0_affinity_enable+0x30>

2040712a <__metal_driver_riscv_plic0_affinity_disable>:
__metal_driver_riscv_plic0_affinity_disable():
2040712a:	1101                	addi	sp,sp,-32
2040712c:	800007b7          	lui	a5,0x80000
20407130:	ce06                	sw	ra,28(sp)
20407132:	cc22                	sw	s0,24(sp)
20407134:	ca26                	sw	s1,20(sp)
20407136:	c84a                	sw	s2,16(sp)
20407138:	c64e                	sw	s3,12(sp)
2040713a:	c452                	sw	s4,8(sp)
2040713c:	47878793          	addi	a5,a5,1144 # 80000478 <metal_segment_heap_target_end+0xffffcbf8>
20407140:	4701                	li	a4,0
20407142:	00f51463          	bne	a0,a5,2040714a <__metal_driver_riscv_plic0_affinity_disable+0x20>
20407146:	03500713          	li	a4,53
2040714a:	54fd                	li	s1,-1
2040714c:	00e65863          	bge	a2,a4,2040715c <__metal_driver_riscv_plic0_affinity_disable+0x32>
20407150:	8a32                	mv	s4,a2
20407152:	89aa                	mv	s3,a0
20407154:	842e                	mv	s0,a1
20407156:	4481                	li	s1,0
20407158:	4901                	li	s2,0
2040715a:	e811                	bnez	s0,2040716e <__metal_driver_riscv_plic0_affinity_disable+0x44>
2040715c:	40f2                	lw	ra,28(sp)
2040715e:	4462                	lw	s0,24(sp)
20407160:	8526                	mv	a0,s1
20407162:	4942                	lw	s2,16(sp)
20407164:	44d2                	lw	s1,20(sp)
20407166:	49b2                	lw	s3,12(sp)
20407168:	4a22                	lw	s4,8(sp)
2040716a:	6105                	addi	sp,sp,32
2040716c:	8082                	ret
2040716e:	00090c63          	beqz	s2,20407186 <__metal_driver_riscv_plic0_affinity_disable+0x5c>
20407172:	4681                	li	a3,0
20407174:	8652                	mv	a2,s4
20407176:	85ca                	mv	a1,s2
20407178:	854e                	mv	a0,s3
2040717a:	dbfff0ef          	jal	ra,20406f38 <__metal_plic0_enable>
2040717e:	8905                	andi	a0,a0,1
20407180:	01251533          	sll	a0,a0,s2
20407184:	8cc9                	or	s1,s1,a0
20407186:	0905                	addi	s2,s2,1
20407188:	8005                	srli	s0,s0,0x1
2040718a:	bfc1                	j	2040715a <__metal_driver_riscv_plic0_affinity_disable+0x30>

2040718c <__metal_driver_sifive_fe310_g000_hfrosc_get_rate_hz>:
__metal_driver_sifive_fe310_g000_hfrosc_get_rate_hz():
2040718c:	84c1a783          	lw	a5,-1972(gp) # 80000abc <__metal_driver_vtable_sifive_fe310_g000_prci>
20407190:	1141                	addi	sp,sp,-16
20407192:	c422                	sw	s0,8(sp)
20407194:	c606                	sw	ra,12(sp)
20407196:	4581                	li	a1,0
20407198:	83018513          	addi	a0,gp,-2000 # 80000aa0 <__metal_dt_prci_10008000>
2040719c:	9782                	jalr	a5
2040719e:	842a                	mv	s0,a0
204071a0:	00141793          	slli	a5,s0,0x1
204071a4:	557d                	li	a0,-1
204071a6:	0007df63          	bgez	a5,204071c4 <__metal_driver_sifive_fe310_g000_hfrosc_get_rate_hz+0x38>
204071aa:	00045d63          	bgez	s0,204071c4 <__metal_driver_sifive_fe310_g000_hfrosc_get_rate_hz+0x38>
204071ae:	80000537          	lui	a0,0x80000
204071b2:	07850513          	addi	a0,a0,120 # 80000078 <metal_segment_heap_target_end+0xffffc7f8>
204071b6:	03f47413          	andi	s0,s0,63
204071ba:	105000ef          	jal	ra,20407abe <metal_clock_get_rate_hz>
204071be:	0405                	addi	s0,s0,1
204071c0:	02855533          	divu	a0,a0,s0
204071c4:	40b2                	lw	ra,12(sp)
204071c6:	4422                	lw	s0,8(sp)
204071c8:	0141                	addi	sp,sp,16
204071ca:	8082                	ret

204071cc <__metal_driver_sifive_fe310_g000_hfrosc_set_rate_hz>:
__metal_driver_sifive_fe310_g000_hfrosc_set_rate_hz():
204071cc:	b7c1                	j	2040718c <__metal_driver_sifive_fe310_g000_hfrosc_get_rate_hz>

204071ce <__metal_driver_sifive_fe310_g000_hfxosc_get_rate_hz>:
__metal_driver_sifive_fe310_g000_hfxosc_get_rate_hz():
204071ce:	84c1a783          	lw	a5,-1972(gp) # 80000abc <__metal_driver_vtable_sifive_fe310_g000_prci>
204071d2:	1141                	addi	sp,sp,-16
204071d4:	c606                	sw	ra,12(sp)
204071d6:	4591                	li	a1,4
204071d8:	83018513          	addi	a0,gp,-2000 # 80000aa0 <__metal_dt_prci_10008000>
204071dc:	9782                	jalr	a5
204071de:	00151793          	slli	a5,a0,0x1
204071e2:	0007dc63          	bgez	a5,204071fa <__metal_driver_sifive_fe310_g000_hfxosc_get_rate_hz+0x2c>
204071e6:	00055a63          	bgez	a0,204071fa <__metal_driver_sifive_fe310_g000_hfxosc_get_rate_hz+0x2c>
204071ea:	40b2                	lw	ra,12(sp)
204071ec:	80000537          	lui	a0,0x80000
204071f0:	06050513          	addi	a0,a0,96 # 80000060 <metal_segment_heap_target_end+0xffffc7e0>
204071f4:	0141                	addi	sp,sp,16
204071f6:	0c90006f          	j	20407abe <metal_clock_get_rate_hz>
204071fa:	40b2                	lw	ra,12(sp)
204071fc:	557d                	li	a0,-1
204071fe:	0141                	addi	sp,sp,16
20407200:	8082                	ret

20407202 <__metal_driver_sifive_fe310_g000_hfxosc_set_rate_hz>:
__metal_driver_sifive_fe310_g000_hfxosc_set_rate_hz():
20407202:	b7f1                	j	204071ce <__metal_driver_sifive_fe310_g000_hfxosc_get_rate_hz>

20407204 <__metal_driver_sifive_fe310_g000_pll_config_base>:
__metal_driver_sifive_fe310_g000_pll_config_base():
20407204:	83018513          	addi	a0,gp,-2000 # 80000aa0 <__metal_dt_prci_10008000>
20407208:	8082                	ret

2040720a <__metal_driver_sifive_fe310_g000_pll_config_offset>:
__metal_driver_sifive_fe310_g000_pll_config_offset():
2040720a:	4521                	li	a0,8
2040720c:	8082                	ret

2040720e <__metal_driver_sifive_fe310_g000_pll_init>:
__metal_driver_sifive_fe310_g000_pll_init():
2040720e:	1141                	addi	sp,sp,-16
20407210:	c422                	sw	s0,8(sp)
20407212:	842a                	mv	s0,a0
20407214:	4148                	lw	a0,4(a0)
20407216:	c606                	sw	ra,12(sp)
20407218:	073000ef          	jal	ra,20407a8a <_metal_clock_call_all_callbacks>
2040721c:	100087b7          	lui	a5,0x10008
20407220:	4798                	lw	a4,8(a5)
20407222:	00f71693          	slli	a3,a4,0xf
20407226:	0006d763          	bgez	a3,20407234 <__metal_driver_sifive_fe310_g000_pll_init+0x26>
2040722a:	4798                	lw	a4,8(a5)
2040722c:	76c1                	lui	a3,0xffff0
2040722e:	16fd                	addi	a3,a3,-1
20407230:	8f75                	and	a4,a4,a3
20407232:	c798                	sw	a4,8(a5)
20407234:	10008737          	lui	a4,0x10008
20407238:	471c                	lw	a5,8(a4)
2040723a:	000206b7          	lui	a3,0x20
2040723e:	00f425b7          	lui	a1,0xf42
20407242:	8fd5                	or	a5,a5,a3
20407244:	c71c                	sw	a5,8(a4)
20407246:	401c                	lw	a5,0(s0)
20407248:	8522                	mv	a0,s0
2040724a:	40058593          	addi	a1,a1,1024 # f42400 <__stack_size+0xf41400>
2040724e:	43dc                	lw	a5,4(a5)
20407250:	9782                	jalr	a5
20407252:	4408                	lw	a0,8(s0)
20407254:	4422                	lw	s0,8(sp)
20407256:	40b2                	lw	ra,12(sp)
20407258:	0141                	addi	sp,sp,16
2040725a:	0310006f          	j	20407a8a <_metal_clock_call_all_callbacks>

2040725e <__metal_driver_sifive_fe310_g000_pll_get_rate_hz>:
__metal_driver_sifive_fe310_g000_pll_get_rate_hz():
2040725e:	1101                	addi	sp,sp,-32
20407260:	ce06                	sw	ra,28(sp)
20407262:	cc22                	sw	s0,24(sp)
20407264:	ca26                	sw	s1,20(sp)
20407266:	842a                	mv	s0,a0
20407268:	374d                	jal	2040720a <__metal_driver_sifive_fe310_g000_pll_config_offset>
2040726a:	c62a                	sw	a0,12(sp)
2040726c:	8522                	mv	a0,s0
2040726e:	3f59                	jal	20407204 <__metal_driver_sifive_fe310_g000_pll_config_base>
20407270:	84c1a483          	lw	s1,-1972(gp) # 80000abc <__metal_driver_vtable_sifive_fe310_g000_prci>
20407274:	45b2                	lw	a1,12(sp)
20407276:	9482                	jalr	s1
20407278:	842a                	mv	s0,a0
2040727a:	45b1                	li	a1,12
2040727c:	83018513          	addi	a0,gp,-2000 # 80000aa0 <__metal_dt_prci_10008000>
20407280:	9482                	jalr	s1
20407282:	00f41793          	slli	a5,s0,0xf
20407286:	0007cc63          	bltz	a5,2040729e <__metal_driver_sifive_fe310_g000_pll_get_rate_hz+0x40>
2040728a:	4462                	lw	s0,24(sp)
2040728c:	40f2                	lw	ra,28(sp)
2040728e:	44d2                	lw	s1,20(sp)
20407290:	80000537          	lui	a0,0x80000
20407294:	08450513          	addi	a0,a0,132 # 80000084 <metal_segment_heap_target_end+0xffffc804>
20407298:	6105                	addi	sp,sp,32
2040729a:	0250006f          	j	20407abe <metal_clock_get_rate_hz>
2040729e:	00e41793          	slli	a5,s0,0xe
204072a2:	84aa                	mv	s1,a0
204072a4:	0607c563          	bltz	a5,2040730e <__metal_driver_sifive_fe310_g000_pll_get_rate_hz+0xb0>
204072a8:	80000537          	lui	a0,0x80000
204072ac:	08450513          	addi	a0,a0,132 # 80000084 <metal_segment_heap_target_end+0xffffc804>
204072b0:	00f000ef          	jal	ra,20407abe <metal_clock_get_rate_hz>
204072b4:	00d41793          	slli	a5,s0,0xd
204072b8:	0407c663          	bltz	a5,20407304 <__metal_driver_sifive_fe310_g000_pll_get_rate_hz+0xa6>
204072bc:	00445793          	srli	a5,s0,0x4
204072c0:	6685                	lui	a3,0x1
204072c2:	c0068693          	addi	a3,a3,-1024 # c00 <__heap_size+0x400>
204072c6:	03f7f793          	andi	a5,a5,63
204072ca:	00747713          	andi	a4,s0,7
204072ce:	0785                	addi	a5,a5,1
204072d0:	8c75                	and	s0,s0,a3
204072d2:	3ff00693          	li	a3,1023
204072d6:	0705                	addi	a4,a4,1
204072d8:	0786                	slli	a5,a5,0x1
204072da:	0286ff63          	bgeu	a3,s0,20407318 <__metal_driver_sifive_fe310_g000_pll_get_rate_hz+0xba>
204072de:	02e54533          	div	a0,a0,a4
204072e2:	8029                	srli	s0,s0,0xa
204072e4:	02f50533          	mul	a0,a0,a5
204072e8:	4785                	li	a5,1
204072ea:	00879433          	sll	s0,a5,s0
204072ee:	1004f793          	andi	a5,s1,256
204072f2:	02854533          	div	a0,a0,s0
204072f6:	e799                	bnez	a5,20407304 <__metal_driver_sifive_fe310_g000_pll_get_rate_hz+0xa6>
204072f8:	03f4f493          	andi	s1,s1,63
204072fc:	0485                	addi	s1,s1,1
204072fe:	0486                	slli	s1,s1,0x1
20407300:	02955533          	divu	a0,a0,s1
20407304:	40f2                	lw	ra,28(sp)
20407306:	4462                	lw	s0,24(sp)
20407308:	44d2                	lw	s1,20(sp)
2040730a:	6105                	addi	sp,sp,32
2040730c:	8082                	ret
2040730e:	80000537          	lui	a0,0x80000
20407312:	06c50513          	addi	a0,a0,108 # 8000006c <metal_segment_heap_target_end+0xffffc7ec>
20407316:	bf69                	j	204072b0 <__metal_driver_sifive_fe310_g000_pll_get_rate_hz+0x52>
20407318:	557d                	li	a0,-1
2040731a:	b7ed                	j	20407304 <__metal_driver_sifive_fe310_g000_pll_get_rate_hz+0xa6>

2040731c <__metal_driver_sifive_fe310_g000_pll_set_rate_hz>:
__metal_driver_sifive_fe310_g000_pll_set_rate_hz():
2040731c:	7179                	addi	sp,sp,-48
2040731e:	d422                	sw	s0,40(sp)
20407320:	d226                	sw	s1,36(sp)
20407322:	d04a                	sw	s2,32(sp)
20407324:	d606                	sw	ra,44(sp)
20407326:	ce4e                	sw	s3,28(sp)
20407328:	cc52                	sw	s4,24(sp)
2040732a:	84aa                	mv	s1,a0
2040732c:	892e                	mv	s2,a1
2040732e:	10008437          	lui	s0,0x10008
20407332:	3de1                	jal	2040720a <__metal_driver_sifive_fe310_g000_pll_config_offset>
20407334:	942a                	add	s0,s0,a0
20407336:	401c                	lw	a5,0(s0)
20407338:	00f79713          	slli	a4,a5,0xf
2040733c:	00075763          	bgez	a4,2040734a <__metal_driver_sifive_fe310_g000_pll_set_rate_hz+0x2e>
20407340:	401c                	lw	a5,0(s0)
20407342:	7741                	lui	a4,0xffff0
20407344:	177d                	addi	a4,a4,-1
20407346:	8ff9                	and	a5,a5,a4
20407348:	c01c                	sw	a5,0(s0)
2040734a:	401c                	lw	a5,0(s0)
2040734c:	00e79713          	slli	a4,a5,0xe
20407350:	02074c63          	bltz	a4,20407388 <__metal_driver_sifive_fe310_g000_pll_set_rate_hz+0x6c>
20407354:	80000537          	lui	a0,0x80000
20407358:	08450513          	addi	a0,a0,132 # 80000084 <metal_segment_heap_target_end+0xffffc804>
2040735c:	278d                	jal	20407abe <metal_clock_get_rate_hz>
2040735e:	470d                	li	a4,3
20407360:	02e50733          	mul	a4,a0,a4
20407364:	4691                	li	a3,4
20407366:	02d74733          	div	a4,a4,a3
2040736a:	02e94463          	blt	s2,a4,20407392 <__metal_driver_sifive_fe310_g000_pll_set_rate_hz+0x76>
2040736e:	4795                	li	a5,5
20407370:	02f507b3          	mul	a5,a0,a5
20407374:	02d7c7b3          	div	a5,a5,a3
20407378:	0127cd63          	blt	a5,s2,20407392 <__metal_driver_sifive_fe310_g000_pll_set_rate_hz+0x76>
2040737c:	401c                	lw	a5,0(s0)
2040737e:	00040737          	lui	a4,0x40
20407382:	8fd9                	or	a5,a5,a4
20407384:	c01c                	sw	a5,0(s0)
20407386:	aa11                	j	2040749a <__metal_driver_sifive_fe310_g000_pll_set_rate_hz+0x17e>
20407388:	80000537          	lui	a0,0x80000
2040738c:	06c50513          	addi	a0,a0,108 # 8000006c <metal_segment_heap_target_end+0xffffc7ec>
20407390:	b7f1                	j	2040735c <__metal_driver_sifive_fe310_g000_pll_set_rate_hz+0x40>
20407392:	80002737          	lui	a4,0x80002
20407396:	80000837          	lui	a6,0x80000
2040739a:	ef070713          	addi	a4,a4,-272 # 80001ef0 <metal_segment_heap_target_end+0xffffe670>
2040739e:	56fd                	li	a3,-1
204073a0:	fff84813          	not	a6,a6
204073a4:	04300613          	li	a2,67
204073a8:	55fd                	li	a1,-1
204073aa:	471c                	lw	a5,8(a4)
204073ac:	02f56a63          	bltu	a0,a5,204073e0 <__metal_driver_sifive_fe310_g000_pll_set_rate_hz+0xc4>
204073b0:	475c                	lw	a5,12(a4)
204073b2:	02a7e763          	bltu	a5,a0,204073e0 <__metal_driver_sifive_fe310_g000_pll_set_rate_hz+0xc4>
204073b6:	431c                	lw	a5,0(a4)
204073b8:	00472883          	lw	a7,4(a4)
204073bc:	02f507b3          	mul	a5,a0,a5
204073c0:	0317d7b3          	divu	a5,a5,a7
204073c4:	00b78e63          	beq	a5,a1,204073e0 <__metal_driver_sifive_fe310_g000_pll_set_rate_hz+0xc4>
204073c8:	412787b3          	sub	a5,a5,s2
204073cc:	41f7d893          	srai	a7,a5,0x1f
204073d0:	00f8c7b3          	xor	a5,a7,a5
204073d4:	411787b3          	sub	a5,a5,a7
204073d8:	0107d463          	bge	a5,a6,204073e0 <__metal_driver_sifive_fe310_g000_pll_set_rate_hz+0xc4>
204073dc:	883e                	mv	a6,a5
204073de:	86b2                	mv	a3,a2
204073e0:	167d                	addi	a2,a2,-1
204073e2:	1701                	addi	a4,a4,-32
204073e4:	fcb613e3          	bne	a2,a1,204073aa <__metal_driver_sifive_fe310_g000_pll_set_rate_hz+0x8e>
204073e8:	401c                	lw	a5,0(s0)
204073ea:	f8c68ae3          	beq	a3,a2,2040737e <__metal_driver_sifive_fe310_g000_pll_set_rate_hz+0x62>
204073ee:	9be1                	andi	a5,a5,-8
204073f0:	c01c                	sw	a5,0(s0)
204073f2:	800017b7          	lui	a5,0x80001
204073f6:	0696                	slli	a3,a3,0x5
204073f8:	69078793          	addi	a5,a5,1680 # 80001690 <metal_segment_heap_target_end+0xffffde10>
204073fc:	97b6                	add	a5,a5,a3
204073fe:	4b98                	lw	a4,16(a5)
20407400:	4010                	lw	a2,0(s0)
20407402:	8b1d                	andi	a4,a4,7
20407404:	8f51                	or	a4,a4,a2
20407406:	c018                	sw	a4,0(s0)
20407408:	4018                	lw	a4,0(s0)
2040740a:	c0f77713          	andi	a4,a4,-1009
2040740e:	c018                	sw	a4,0(s0)
20407410:	4bd8                	lw	a4,20(a5)
20407412:	4014                	lw	a3,0(s0)
20407414:	0712                	slli	a4,a4,0x4
20407416:	3f077713          	andi	a4,a4,1008
2040741a:	8f55                	or	a4,a4,a3
2040741c:	c018                	sw	a4,0(s0)
2040741e:	4018                	lw	a4,0(s0)
20407420:	76fd                	lui	a3,0xfffff
20407422:	3ff68693          	addi	a3,a3,1023 # fffff3ff <metal_segment_heap_target_end+0x7fffbb7f>
20407426:	8f75                	and	a4,a4,a3
20407428:	c018                	sw	a4,0(s0)
2040742a:	4f98                	lw	a4,24(a5)
2040742c:	4010                	lw	a2,0(s0)
2040742e:	6685                	lui	a3,0x1
20407430:	072a                	slli	a4,a4,0xa
20407432:	c0068693          	addi	a3,a3,-1024 # c00 <__heap_size+0x400>
20407436:	8f75                	and	a4,a4,a3
20407438:	8f51                	or	a4,a4,a2
2040743a:	c018                	sw	a4,0(s0)
2040743c:	4fd8                	lw	a4,28(a5)
2040743e:	100087b7          	lui	a5,0x10008
20407442:	06075b63          	bgez	a4,204074b8 <__metal_driver_sifive_fe310_g000_pll_set_rate_hz+0x19c>
20407446:	47d8                	lw	a4,12(a5)
20407448:	10076713          	ori	a4,a4,256
2040744c:	c7d8                	sw	a4,12(a5)
2040744e:	47d8                	lw	a4,12(a5)
20407450:	fc077713          	andi	a4,a4,-64
20407454:	c7d8                	sw	a4,12(a5)
20407456:	47d8                	lw	a4,12(a5)
20407458:	00176713          	ori	a4,a4,1
2040745c:	c7d8                	sw	a4,12(a5)
2040745e:	401c                	lw	a5,0(s0)
20407460:	fffc0737          	lui	a4,0xfffc0
20407464:	177d                	addi	a4,a4,-1
20407466:	8ff9                	and	a5,a5,a4
20407468:	c01c                	sw	a5,0(s0)
2040746a:	0030                	addi	a2,sp,8
2040746c:	4585                	li	a1,1
2040746e:	81c18513          	addi	a0,gp,-2020 # 80000a8c <__metal_dt_clint_2000000>
20407472:	931fe0ef          	jal	ra,20405da2 <__metal_driver_riscv_clint0_command_request>
20407476:	4922                	lw	s2,8(sp)
20407478:	47b2                	lw	a5,12(sp)
2040747a:	00490a13          	addi	s4,s2,4
2040747e:	012a3933          	sltu	s2,s4,s2
20407482:	993e                	add	s2,s2,a5
20407484:	47b2                	lw	a5,12(sp)
20407486:	00f96763          	bltu	s2,a5,20407494 <__metal_driver_sifive_fe310_g000_pll_set_rate_hz+0x178>
2040748a:	05279463          	bne	a5,s2,204074d2 <__metal_driver_sifive_fe310_g000_pll_set_rate_hz+0x1b6>
2040748e:	47a2                	lw	a5,8(sp)
20407490:	04fa7163          	bgeu	s4,a5,204074d2 <__metal_driver_sifive_fe310_g000_pll_set_rate_hz+0x1b6>
20407494:	401c                	lw	a5,0(s0)
20407496:	fe07dfe3          	bgez	a5,20407494 <__metal_driver_sifive_fe310_g000_pll_set_rate_hz+0x178>
2040749a:	401c                	lw	a5,0(s0)
2040749c:	6741                	lui	a4,0x10
2040749e:	8526                	mv	a0,s1
204074a0:	8fd9                	or	a5,a5,a4
204074a2:	c01c                	sw	a5,0(s0)
204074a4:	dbbff0ef          	jal	ra,2040725e <__metal_driver_sifive_fe310_g000_pll_get_rate_hz>
204074a8:	50b2                	lw	ra,44(sp)
204074aa:	5422                	lw	s0,40(sp)
204074ac:	5492                	lw	s1,36(sp)
204074ae:	5902                	lw	s2,32(sp)
204074b0:	49f2                	lw	s3,28(sp)
204074b2:	4a62                	lw	s4,24(sp)
204074b4:	6145                	addi	sp,sp,48
204074b6:	8082                	ret
204074b8:	47d4                	lw	a3,12(a5)
204074ba:	03f77713          	andi	a4,a4,63
204074be:	eff6f693          	andi	a3,a3,-257
204074c2:	c7d4                	sw	a3,12(a5)
204074c4:	47d4                	lw	a3,12(a5)
204074c6:	fc06f693          	andi	a3,a3,-64
204074ca:	c7d4                	sw	a3,12(a5)
204074cc:	47d4                	lw	a3,12(a5)
204074ce:	8f55                	or	a4,a4,a3
204074d0:	b771                	j	2040745c <__metal_driver_sifive_fe310_g000_pll_set_rate_hz+0x140>
204074d2:	0030                	addi	a2,sp,8
204074d4:	4585                	li	a1,1
204074d6:	81c18513          	addi	a0,gp,-2020 # 80000a8c <__metal_dt_clint_2000000>
204074da:	8c9fe0ef          	jal	ra,20405da2 <__metal_driver_riscv_clint0_command_request>
204074de:	b75d                	j	20407484 <__metal_driver_sifive_fe310_g000_pll_set_rate_hz+0x168>

204074e0 <__metal_driver_sifive_fe310_g000_prci_get_reg>:
__metal_driver_sifive_fe310_g000_prci_get_reg():
204074e0:	100087b7          	lui	a5,0x10008
204074e4:	95be                	add	a1,a1,a5
204074e6:	4188                	lw	a0,0(a1)
204074e8:	8082                	ret

204074ea <__metal_driver_sifive_fe310_g000_prci_set_reg>:
__metal_driver_sifive_fe310_g000_prci_set_reg():
204074ea:	100087b7          	lui	a5,0x10008
204074ee:	95be                	add	a1,a1,a5
204074f0:	c190                	sw	a2,0(a1)
204074f2:	8532                	mv	a0,a2
204074f4:	8082                	ret

204074f6 <__metal_driver_sifive_gpio0_enable_input>:
__metal_driver_sifive_gpio0_enable_input():
204074f6:	82c18713          	addi	a4,gp,-2004 # 80000a9c <__metal_dt_gpio_10012000>
204074fa:	100127b7          	lui	a5,0x10012
204074fe:	00a70363          	beq	a4,a0,20407504 <__metal_driver_sifive_gpio0_enable_input+0xe>
20407502:	4781                	li	a5,0
20407504:	43d8                	lw	a4,4(a5)
20407506:	4501                	li	a0,0
20407508:	8dd9                	or	a1,a1,a4
2040750a:	c3cc                	sw	a1,4(a5)
2040750c:	8082                	ret

2040750e <__metal_driver_sifive_gpio0_disable_input>:
__metal_driver_sifive_gpio0_disable_input():
2040750e:	82c18713          	addi	a4,gp,-2004 # 80000a9c <__metal_dt_gpio_10012000>
20407512:	100127b7          	lui	a5,0x10012
20407516:	00a70363          	beq	a4,a0,2040751c <__metal_driver_sifive_gpio0_disable_input+0xe>
2040751a:	4781                	li	a5,0
2040751c:	43d8                	lw	a4,4(a5)
2040751e:	fff5c593          	not	a1,a1
20407522:	4501                	li	a0,0
20407524:	8df9                	and	a1,a1,a4
20407526:	c3cc                	sw	a1,4(a5)
20407528:	8082                	ret

2040752a <__metal_driver_sifive_gpio0_input>:
__metal_driver_sifive_gpio0_input():
2040752a:	82c18793          	addi	a5,gp,-2004 # 80000a9c <__metal_dt_gpio_10012000>
2040752e:	00a78563          	beq	a5,a0,20407538 <__metal_driver_sifive_gpio0_input+0xe>
20407532:	4781                	li	a5,0
20407534:	4388                	lw	a0,0(a5)
20407536:	8082                	ret
20407538:	100127b7          	lui	a5,0x10012
2040753c:	bfe5                	j	20407534 <__metal_driver_sifive_gpio0_input+0xa>

2040753e <__metal_driver_sifive_gpio0_output>:
__metal_driver_sifive_gpio0_output():
2040753e:	82c18793          	addi	a5,gp,-2004 # 80000a9c <__metal_dt_gpio_10012000>
20407542:	00a78563          	beq	a5,a0,2040754c <__metal_driver_sifive_gpio0_output+0xe>
20407546:	4781                	li	a5,0
20407548:	47c8                	lw	a0,12(a5)
2040754a:	8082                	ret
2040754c:	100127b7          	lui	a5,0x10012
20407550:	bfe5                	j	20407548 <__metal_driver_sifive_gpio0_output+0xa>

20407552 <__metal_driver_sifive_gpio0_disable_output>:
__metal_driver_sifive_gpio0_disable_output():
20407552:	82c18713          	addi	a4,gp,-2004 # 80000a9c <__metal_dt_gpio_10012000>
20407556:	100127b7          	lui	a5,0x10012
2040755a:	00a70363          	beq	a4,a0,20407560 <__metal_driver_sifive_gpio0_disable_output+0xe>
2040755e:	4781                	li	a5,0
20407560:	4798                	lw	a4,8(a5)
20407562:	fff5c593          	not	a1,a1
20407566:	4501                	li	a0,0
20407568:	8df9                	and	a1,a1,a4
2040756a:	c78c                	sw	a1,8(a5)
2040756c:	8082                	ret

2040756e <__metal_driver_sifive_gpio0_enable_output>:
__metal_driver_sifive_gpio0_enable_output():
2040756e:	82c18713          	addi	a4,gp,-2004 # 80000a9c <__metal_dt_gpio_10012000>
20407572:	100127b7          	lui	a5,0x10012
20407576:	00a70363          	beq	a4,a0,2040757c <__metal_driver_sifive_gpio0_enable_output+0xe>
2040757a:	4781                	li	a5,0
2040757c:	4798                	lw	a4,8(a5)
2040757e:	4501                	li	a0,0
20407580:	8dd9                	or	a1,a1,a4
20407582:	c78c                	sw	a1,8(a5)
20407584:	8082                	ret

20407586 <__metal_driver_sifive_gpio0_output_set>:
__metal_driver_sifive_gpio0_output_set():
20407586:	82c18713          	addi	a4,gp,-2004 # 80000a9c <__metal_dt_gpio_10012000>
2040758a:	100127b7          	lui	a5,0x10012
2040758e:	00a70363          	beq	a4,a0,20407594 <__metal_driver_sifive_gpio0_output_set+0xe>
20407592:	4781                	li	a5,0
20407594:	47d8                	lw	a4,12(a5)
20407596:	4501                	li	a0,0
20407598:	8dd9                	or	a1,a1,a4
2040759a:	c7cc                	sw	a1,12(a5)
2040759c:	8082                	ret

2040759e <__metal_driver_sifive_gpio0_output_clear>:
__metal_driver_sifive_gpio0_output_clear():
2040759e:	82c18713          	addi	a4,gp,-2004 # 80000a9c <__metal_dt_gpio_10012000>
204075a2:	100127b7          	lui	a5,0x10012
204075a6:	00a70363          	beq	a4,a0,204075ac <__metal_driver_sifive_gpio0_output_clear+0xe>
204075aa:	4781                	li	a5,0
204075ac:	47d8                	lw	a4,12(a5)
204075ae:	fff5c593          	not	a1,a1
204075b2:	4501                	li	a0,0
204075b4:	8df9                	and	a1,a1,a4
204075b6:	c7cc                	sw	a1,12(a5)
204075b8:	8082                	ret

204075ba <__metal_driver_sifive_gpio0_output_toggle>:
__metal_driver_sifive_gpio0_output_toggle():
204075ba:	82c18713          	addi	a4,gp,-2004 # 80000a9c <__metal_dt_gpio_10012000>
204075be:	100127b7          	lui	a5,0x10012
204075c2:	00a70363          	beq	a4,a0,204075c8 <__metal_driver_sifive_gpio0_output_toggle+0xe>
204075c6:	4781                	li	a5,0
204075c8:	47d8                	lw	a4,12(a5)
204075ca:	4501                	li	a0,0
204075cc:	8db9                	xor	a1,a1,a4
204075ce:	c7cc                	sw	a1,12(a5)
204075d0:	8082                	ret

204075d2 <__metal_driver_sifive_gpio0_enable_io>:
__metal_driver_sifive_gpio0_enable_io():
204075d2:	82c18713          	addi	a4,gp,-2004 # 80000a9c <__metal_dt_gpio_10012000>
204075d6:	100127b7          	lui	a5,0x10012
204075da:	00a70363          	beq	a4,a0,204075e0 <__metal_driver_sifive_gpio0_enable_io+0xe>
204075de:	4781                	li	a5,0
204075e0:	5fd8                	lw	a4,60(a5)
204075e2:	4501                	li	a0,0
204075e4:	8dd9                	or	a1,a1,a4
204075e6:	dfcc                	sw	a1,60(a5)
204075e8:	5f98                	lw	a4,56(a5)
204075ea:	8e59                	or	a2,a2,a4
204075ec:	df90                	sw	a2,56(a5)
204075ee:	8082                	ret

204075f0 <__metal_driver_sifive_gpio0_disable_io>:
__metal_driver_sifive_gpio0_disable_io():
204075f0:	82c18713          	addi	a4,gp,-2004 # 80000a9c <__metal_dt_gpio_10012000>
204075f4:	100127b7          	lui	a5,0x10012
204075f8:	00a70363          	beq	a4,a0,204075fe <__metal_driver_sifive_gpio0_disable_io+0xe>
204075fc:	4781                	li	a5,0
204075fe:	5f98                	lw	a4,56(a5)
20407600:	fff5c593          	not	a1,a1
20407604:	4501                	li	a0,0
20407606:	8df9                	and	a1,a1,a4
20407608:	df8c                	sw	a1,56(a5)
2040760a:	8082                	ret

2040760c <__metal_driver_sifive_gpio0_config_int>:
__metal_driver_sifive_gpio0_config_int():
2040760c:	82c18713          	addi	a4,gp,-2004 # 80000a9c <__metal_dt_gpio_10012000>
20407610:	100127b7          	lui	a5,0x10012
20407614:	00a70363          	beq	a4,a0,2040761a <__metal_driver_sifive_gpio0_config_int+0xe>
20407618:	4781                	li	a5,0
2040761a:	471d                	li	a4,7
2040761c:	02c76c63          	bltu	a4,a2,20407654 <__metal_driver_sifive_gpio0_config_int+0x48>
20407620:	80002737          	lui	a4,0x80002
20407624:	f1070713          	addi	a4,a4,-240 # 80001f10 <metal_segment_heap_target_end+0xffffe690>
20407628:	060a                	slli	a2,a2,0x2
2040762a:	963a                	add	a2,a2,a4
2040762c:	4218                	lw	a4,0(a2)
2040762e:	8702                	jr	a4
20407630:	4f98                	lw	a4,24(a5)
20407632:	fff5c593          	not	a1,a1
20407636:	8f6d                	and	a4,a4,a1
20407638:	cf98                	sw	a4,24(a5)
2040763a:	5398                	lw	a4,32(a5)
2040763c:	8f6d                	and	a4,a4,a1
2040763e:	d398                	sw	a4,32(a5)
20407640:	5798                	lw	a4,40(a5)
20407642:	8f6d                	and	a4,a4,a1
20407644:	d798                	sw	a4,40(a5)
20407646:	5b98                	lw	a4,48(a5)
20407648:	8df9                	and	a1,a1,a4
2040764a:	db8c                	sw	a1,48(a5)
2040764c:	a021                	j	20407654 <__metal_driver_sifive_gpio0_config_int+0x48>
2040764e:	4f98                	lw	a4,24(a5)
20407650:	8dd9                	or	a1,a1,a4
20407652:	cf8c                	sw	a1,24(a5)
20407654:	4501                	li	a0,0
20407656:	8082                	ret
20407658:	4f98                	lw	a4,24(a5)
2040765a:	8f4d                	or	a4,a4,a1
2040765c:	cf98                	sw	a4,24(a5)
2040765e:	5398                	lw	a4,32(a5)
20407660:	8dd9                	or	a1,a1,a4
20407662:	d38c                	sw	a1,32(a5)
20407664:	bfc5                	j	20407654 <__metal_driver_sifive_gpio0_config_int+0x48>
20407666:	5798                	lw	a4,40(a5)
20407668:	8dd9                	or	a1,a1,a4
2040766a:	d78c                	sw	a1,40(a5)
2040766c:	b7e5                	j	20407654 <__metal_driver_sifive_gpio0_config_int+0x48>
2040766e:	4f98                	lw	a4,24(a5)
20407670:	8f4d                	or	a4,a4,a1
20407672:	cf98                	sw	a4,24(a5)
20407674:	5398                	lw	a4,32(a5)
20407676:	8f4d                	or	a4,a4,a1
20407678:	d398                	sw	a4,32(a5)
2040767a:	5798                	lw	a4,40(a5)
2040767c:	8f4d                	or	a4,a4,a1
2040767e:	d798                	sw	a4,40(a5)
20407680:	5b98                	lw	a4,48(a5)
20407682:	8dd9                	or	a1,a1,a4
20407684:	b7d9                	j	2040764a <__metal_driver_sifive_gpio0_config_int+0x3e>

20407686 <__metal_driver_sifive_gpio0_clear_int>:
__metal_driver_sifive_gpio0_clear_int():
20407686:	82c18713          	addi	a4,gp,-2004 # 80000a9c <__metal_dt_gpio_10012000>
2040768a:	100127b7          	lui	a5,0x10012
2040768e:	00a70363          	beq	a4,a0,20407694 <__metal_driver_sifive_gpio0_clear_int+0xe>
20407692:	4781                	li	a5,0
20407694:	167d                	addi	a2,a2,-1
20407696:	4719                	li	a4,6
20407698:	00c76d63          	bltu	a4,a2,204076b2 <__metal_driver_sifive_gpio0_clear_int+0x2c>
2040769c:	80002737          	lui	a4,0x80002
204076a0:	f3070713          	addi	a4,a4,-208 # 80001f30 <metal_segment_heap_target_end+0xffffe6b0>
204076a4:	060a                	slli	a2,a2,0x2
204076a6:	963a                	add	a2,a2,a4
204076a8:	4218                	lw	a4,0(a2)
204076aa:	8702                	jr	a4
204076ac:	4fd8                	lw	a4,28(a5)
204076ae:	8dd9                	or	a1,a1,a4
204076b0:	cfcc                	sw	a1,28(a5)
204076b2:	4501                	li	a0,0
204076b4:	8082                	ret
204076b6:	4fd8                	lw	a4,28(a5)
204076b8:	8f4d                	or	a4,a4,a1
204076ba:	cfd8                	sw	a4,28(a5)
204076bc:	53d8                	lw	a4,36(a5)
204076be:	8dd9                	or	a1,a1,a4
204076c0:	d3cc                	sw	a1,36(a5)
204076c2:	bfc5                	j	204076b2 <__metal_driver_sifive_gpio0_clear_int+0x2c>
204076c4:	57d8                	lw	a4,44(a5)
204076c6:	8dd9                	or	a1,a1,a4
204076c8:	d7cc                	sw	a1,44(a5)
204076ca:	b7e5                	j	204076b2 <__metal_driver_sifive_gpio0_clear_int+0x2c>
204076cc:	4fd8                	lw	a4,28(a5)
204076ce:	8f4d                	or	a4,a4,a1
204076d0:	cfd8                	sw	a4,28(a5)
204076d2:	53d8                	lw	a4,36(a5)
204076d4:	8f4d                	or	a4,a4,a1
204076d6:	d3d8                	sw	a4,36(a5)
204076d8:	57d8                	lw	a4,44(a5)
204076da:	8f4d                	or	a4,a4,a1
204076dc:	d7d8                	sw	a4,44(a5)
204076de:	5bd8                	lw	a4,52(a5)
204076e0:	8dd9                	or	a1,a1,a4
204076e2:	dbcc                	sw	a1,52(a5)
204076e4:	b7f9                	j	204076b2 <__metal_driver_sifive_gpio0_clear_int+0x2c>

204076e6 <__metal_driver_gpio_interrupt_controller>:
__metal_driver_gpio_interrupt_controller():
204076e6:	82c18793          	addi	a5,gp,-2004 # 80000a9c <__metal_dt_gpio_10012000>
204076ea:	00a78463          	beq	a5,a0,204076f2 <__metal_driver_gpio_interrupt_controller+0xc>
204076ee:	4501                	li	a0,0
204076f0:	8082                	ret
204076f2:	80000537          	lui	a0,0x80000
204076f6:	47850513          	addi	a0,a0,1144 # 80000478 <metal_segment_heap_target_end+0xffffcbf8>
204076fa:	8082                	ret

204076fc <__metal_driver_gpio_get_interrupt_id>:
__metal_driver_gpio_get_interrupt_id():
204076fc:	82c18793          	addi	a5,gp,-2004 # 80000a9c <__metal_dt_gpio_10012000>
20407700:	08a79263          	bne	a5,a0,20407784 <__metal_driver_gpio_get_interrupt_id+0x88>
20407704:	451d                	li	a0,7
20407706:	c1c1                	beqz	a1,20407786 <__metal_driver_gpio_get_interrupt_id+0x8a>
20407708:	4785                	li	a5,1
2040770a:	4521                	li	a0,8
2040770c:	06f58d63          	beq	a1,a5,20407786 <__metal_driver_gpio_get_interrupt_id+0x8a>
20407710:	4789                	li	a5,2
20407712:	4525                	li	a0,9
20407714:	06f58963          	beq	a1,a5,20407786 <__metal_driver_gpio_get_interrupt_id+0x8a>
20407718:	478d                	li	a5,3
2040771a:	4529                	li	a0,10
2040771c:	06f58563          	beq	a1,a5,20407786 <__metal_driver_gpio_get_interrupt_id+0x8a>
20407720:	4791                	li	a5,4
20407722:	452d                	li	a0,11
20407724:	06f58163          	beq	a1,a5,20407786 <__metal_driver_gpio_get_interrupt_id+0x8a>
20407728:	4795                	li	a5,5
2040772a:	4531                	li	a0,12
2040772c:	04f58d63          	beq	a1,a5,20407786 <__metal_driver_gpio_get_interrupt_id+0x8a>
20407730:	4799                	li	a5,6
20407732:	4535                	li	a0,13
20407734:	04f58963          	beq	a1,a5,20407786 <__metal_driver_gpio_get_interrupt_id+0x8a>
20407738:	479d                	li	a5,7
2040773a:	4539                	li	a0,14
2040773c:	04f58563          	beq	a1,a5,20407786 <__metal_driver_gpio_get_interrupt_id+0x8a>
20407740:	47a1                	li	a5,8
20407742:	453d                	li	a0,15
20407744:	04f58163          	beq	a1,a5,20407786 <__metal_driver_gpio_get_interrupt_id+0x8a>
20407748:	47a5                	li	a5,9
2040774a:	4541                	li	a0,16
2040774c:	02f58d63          	beq	a1,a5,20407786 <__metal_driver_gpio_get_interrupt_id+0x8a>
20407750:	47a9                	li	a5,10
20407752:	4545                	li	a0,17
20407754:	02f58963          	beq	a1,a5,20407786 <__metal_driver_gpio_get_interrupt_id+0x8a>
20407758:	47ad                	li	a5,11
2040775a:	4549                	li	a0,18
2040775c:	02f58563          	beq	a1,a5,20407786 <__metal_driver_gpio_get_interrupt_id+0x8a>
20407760:	47b1                	li	a5,12
20407762:	454d                	li	a0,19
20407764:	02f58163          	beq	a1,a5,20407786 <__metal_driver_gpio_get_interrupt_id+0x8a>
20407768:	47b5                	li	a5,13
2040776a:	4551                	li	a0,20
2040776c:	00f58d63          	beq	a1,a5,20407786 <__metal_driver_gpio_get_interrupt_id+0x8a>
20407770:	47b9                	li	a5,14
20407772:	4555                	li	a0,21
20407774:	00f58963          	beq	a1,a5,20407786 <__metal_driver_gpio_get_interrupt_id+0x8a>
20407778:	47bd                	li	a5,15
2040777a:	4501                	li	a0,0
2040777c:	00f59563          	bne	a1,a5,20407786 <__metal_driver_gpio_get_interrupt_id+0x8a>
20407780:	4559                	li	a0,22
20407782:	8082                	ret
20407784:	4501                	li	a0,0
20407786:	8082                	ret

20407788 <__metal_driver_sifive_uart0_interrupt_controller>:
__metal_driver_sifive_uart0_interrupt_controller():
20407788:	800017b7          	lui	a5,0x80001
2040778c:	a5078793          	addi	a5,a5,-1456 # 80000a50 <metal_segment_heap_target_end+0xffffd1d0>
20407790:	00a78463          	beq	a5,a0,20407798 <__metal_driver_sifive_uart0_interrupt_controller+0x10>
20407794:	4501                	li	a0,0
20407796:	8082                	ret
20407798:	80000537          	lui	a0,0x80000
2040779c:	47850513          	addi	a0,a0,1144 # 80000478 <metal_segment_heap_target_end+0xffffcbf8>
204077a0:	8082                	ret

204077a2 <__metal_driver_sifive_uart0_get_interrupt_id>:
__metal_driver_sifive_uart0_get_interrupt_id():
204077a2:	800017b7          	lui	a5,0x80001
204077a6:	a5078793          	addi	a5,a5,-1456 # 80000a50 <metal_segment_heap_target_end+0xffffd1d0>
204077aa:	00a78463          	beq	a5,a0,204077b2 <__metal_driver_sifive_uart0_get_interrupt_id+0x10>
204077ae:	4501                	li	a0,0
204077b0:	8082                	ret
204077b2:	4515                	li	a0,5
204077b4:	8082                	ret

204077b6 <__metal_driver_sifive_uart0_tx_interrupt_enable>:
__metal_driver_sifive_uart0_tx_interrupt_enable():
204077b6:	80001737          	lui	a4,0x80001
204077ba:	a5070713          	addi	a4,a4,-1456 # 80000a50 <metal_segment_heap_target_end+0xffffd1d0>
204077be:	100137b7          	lui	a5,0x10013
204077c2:	00a70363          	beq	a4,a0,204077c8 <__metal_driver_sifive_uart0_tx_interrupt_enable+0x12>
204077c6:	4781                	li	a5,0
204077c8:	4b98                	lw	a4,16(a5)
204077ca:	4501                	li	a0,0
204077cc:	00176713          	ori	a4,a4,1
204077d0:	cb98                	sw	a4,16(a5)
204077d2:	8082                	ret

204077d4 <__metal_driver_sifive_uart0_tx_interrupt_disable>:
__metal_driver_sifive_uart0_tx_interrupt_disable():
204077d4:	80001737          	lui	a4,0x80001
204077d8:	a5070713          	addi	a4,a4,-1456 # 80000a50 <metal_segment_heap_target_end+0xffffd1d0>
204077dc:	100137b7          	lui	a5,0x10013
204077e0:	00a70363          	beq	a4,a0,204077e6 <__metal_driver_sifive_uart0_tx_interrupt_disable+0x12>
204077e4:	4781                	li	a5,0
204077e6:	4b98                	lw	a4,16(a5)
204077e8:	4501                	li	a0,0
204077ea:	9b79                	andi	a4,a4,-2
204077ec:	cb98                	sw	a4,16(a5)
204077ee:	8082                	ret

204077f0 <__metal_driver_sifive_uart0_rx_interrupt_enable>:
__metal_driver_sifive_uart0_rx_interrupt_enable():
204077f0:	80001737          	lui	a4,0x80001
204077f4:	a5070713          	addi	a4,a4,-1456 # 80000a50 <metal_segment_heap_target_end+0xffffd1d0>
204077f8:	100137b7          	lui	a5,0x10013
204077fc:	00a70363          	beq	a4,a0,20407802 <__metal_driver_sifive_uart0_rx_interrupt_enable+0x12>
20407800:	4781                	li	a5,0
20407802:	4b98                	lw	a4,16(a5)
20407804:	4501                	li	a0,0
20407806:	00276713          	ori	a4,a4,2
2040780a:	cb98                	sw	a4,16(a5)
2040780c:	8082                	ret

2040780e <__metal_driver_sifive_uart0_rx_interrupt_disable>:
__metal_driver_sifive_uart0_rx_interrupt_disable():
2040780e:	80001737          	lui	a4,0x80001
20407812:	a5070713          	addi	a4,a4,-1456 # 80000a50 <metal_segment_heap_target_end+0xffffd1d0>
20407816:	100137b7          	lui	a5,0x10013
2040781a:	00a70363          	beq	a4,a0,20407820 <__metal_driver_sifive_uart0_rx_interrupt_disable+0x12>
2040781e:	4781                	li	a5,0
20407820:	4b98                	lw	a4,16(a5)
20407822:	4501                	li	a0,0
20407824:	9b75                	andi	a4,a4,-3
20407826:	cb98                	sw	a4,16(a5)
20407828:	8082                	ret

2040782a <__metal_driver_sifive_uart0_txready>:
__metal_driver_sifive_uart0_txready():
2040782a:	800017b7          	lui	a5,0x80001
2040782e:	a5078793          	addi	a5,a5,-1456 # 80000a50 <metal_segment_heap_target_end+0xffffd1d0>
20407832:	00a78663          	beq	a5,a0,2040783e <__metal_driver_sifive_uart0_txready+0x14>
20407836:	4781                	li	a5,0
20407838:	4388                	lw	a0,0(a5)
2040783a:	817d                	srli	a0,a0,0x1f
2040783c:	8082                	ret
2040783e:	100137b7          	lui	a5,0x10013
20407842:	bfdd                	j	20407838 <__metal_driver_sifive_uart0_txready+0xe>

20407844 <__metal_driver_sifive_uart0_set_tx_watermark>:
__metal_driver_sifive_uart0_set_tx_watermark():
20407844:	80001737          	lui	a4,0x80001
20407848:	a5070713          	addi	a4,a4,-1456 # 80000a50 <metal_segment_heap_target_end+0xffffd1d0>
2040784c:	100137b7          	lui	a5,0x10013
20407850:	00a70363          	beq	a4,a0,20407856 <__metal_driver_sifive_uart0_set_tx_watermark+0x12>
20407854:	4781                	li	a5,0
20407856:	4798                	lw	a4,8(a5)
20407858:	000706b7          	lui	a3,0x70
2040785c:	05c2                	slli	a1,a1,0x10
2040785e:	8df5                	and	a1,a1,a3
20407860:	8dd9                	or	a1,a1,a4
20407862:	c78c                	sw	a1,8(a5)
20407864:	4501                	li	a0,0
20407866:	8082                	ret

20407868 <__metal_driver_sifive_uart0_get_tx_watermark>:
__metal_driver_sifive_uart0_get_tx_watermark():
20407868:	800017b7          	lui	a5,0x80001
2040786c:	a5078793          	addi	a5,a5,-1456 # 80000a50 <metal_segment_heap_target_end+0xffffd1d0>
20407870:	00a78763          	beq	a5,a0,2040787e <__metal_driver_sifive_uart0_get_tx_watermark+0x16>
20407874:	4781                	li	a5,0
20407876:	4788                	lw	a0,8(a5)
20407878:	8141                	srli	a0,a0,0x10
2040787a:	891d                	andi	a0,a0,7
2040787c:	8082                	ret
2040787e:	100137b7          	lui	a5,0x10013
20407882:	bfd5                	j	20407876 <__metal_driver_sifive_uart0_get_tx_watermark+0xe>

20407884 <__metal_driver_sifive_uart0_set_rx_watermark>:
__metal_driver_sifive_uart0_set_rx_watermark():
20407884:	80001737          	lui	a4,0x80001
20407888:	a5070713          	addi	a4,a4,-1456 # 80000a50 <metal_segment_heap_target_end+0xffffd1d0>
2040788c:	100137b7          	lui	a5,0x10013
20407890:	00a70363          	beq	a4,a0,20407896 <__metal_driver_sifive_uart0_set_rx_watermark+0x12>
20407894:	4781                	li	a5,0
20407896:	47d8                	lw	a4,12(a5)
20407898:	000706b7          	lui	a3,0x70
2040789c:	05c2                	slli	a1,a1,0x10
2040789e:	8df5                	and	a1,a1,a3
204078a0:	8dd9                	or	a1,a1,a4
204078a2:	c7cc                	sw	a1,12(a5)
204078a4:	4501                	li	a0,0
204078a6:	8082                	ret

204078a8 <__metal_driver_sifive_uart0_get_rx_watermark>:
__metal_driver_sifive_uart0_get_rx_watermark():
204078a8:	800017b7          	lui	a5,0x80001
204078ac:	a5078793          	addi	a5,a5,-1456 # 80000a50 <metal_segment_heap_target_end+0xffffd1d0>
204078b0:	00a78763          	beq	a5,a0,204078be <__metal_driver_sifive_uart0_get_rx_watermark+0x16>
204078b4:	4781                	li	a5,0
204078b6:	47c8                	lw	a0,12(a5)
204078b8:	8141                	srli	a0,a0,0x10
204078ba:	891d                	andi	a0,a0,7
204078bc:	8082                	ret
204078be:	100137b7          	lui	a5,0x10013
204078c2:	bfd5                	j	204078b6 <__metal_driver_sifive_uart0_get_rx_watermark+0xe>

204078c4 <__metal_driver_sifive_uart0_putc>:
__metal_driver_sifive_uart0_putc():
204078c4:	1101                	addi	sp,sp,-32
204078c6:	800017b7          	lui	a5,0x80001
204078ca:	cc22                	sw	s0,24(sp)
204078cc:	ca26                	sw	s1,20(sp)
204078ce:	ce06                	sw	ra,28(sp)
204078d0:	a5078793          	addi	a5,a5,-1456 # 80000a50 <metal_segment_heap_target_end+0xffffd1d0>
204078d4:	84aa                	mv	s1,a0
204078d6:	10013437          	lui	s0,0x10013
204078da:	00f50363          	beq	a0,a5,204078e0 <__metal_driver_sifive_uart0_putc+0x1c>
204078de:	4401                	li	s0,0
204078e0:	8526                	mv	a0,s1
204078e2:	c62e                	sw	a1,12(sp)
204078e4:	3799                	jal	2040782a <__metal_driver_sifive_uart0_txready>
204078e6:	45b2                	lw	a1,12(sp)
204078e8:	fd65                	bnez	a0,204078e0 <__metal_driver_sifive_uart0_putc+0x1c>
204078ea:	c00c                	sw	a1,0(s0)
204078ec:	40f2                	lw	ra,28(sp)
204078ee:	4462                	lw	s0,24(sp)
204078f0:	44d2                	lw	s1,20(sp)
204078f2:	6105                	addi	sp,sp,32
204078f4:	8082                	ret

204078f6 <__metal_driver_sifive_uart0_getc>:
__metal_driver_sifive_uart0_getc():
204078f6:	800017b7          	lui	a5,0x80001
204078fa:	a5078793          	addi	a5,a5,-1456 # 80000a50 <metal_segment_heap_target_end+0xffffd1d0>
204078fe:	10013737          	lui	a4,0x10013
20407902:	00a78363          	beq	a5,a0,20407908 <__metal_driver_sifive_uart0_getc+0x12>
20407906:	4701                	li	a4,0
20407908:	4358                	lw	a4,4(a4)
2040790a:	57fd                	li	a5,-1
2040790c:	00074463          	bltz	a4,20407914 <__metal_driver_sifive_uart0_getc+0x1e>
20407910:	0ff77793          	andi	a5,a4,255
20407914:	c19c                	sw	a5,0(a1)
20407916:	4501                	li	a0,0
20407918:	8082                	ret

2040791a <__metal_driver_sifive_uart0_get_baud_rate>:
__metal_driver_sifive_uart0_get_baud_rate():
2040791a:	4148                	lw	a0,4(a0)
2040791c:	8082                	ret

2040791e <__metal_driver_sifive_uart0_set_baud_rate>:
__metal_driver_sifive_uart0_set_baud_rate():
2040791e:	800017b7          	lui	a5,0x80001
20407922:	a5078793          	addi	a5,a5,-1456 # 80000a50 <metal_segment_heap_target_end+0xffffd1d0>
20407926:	00f50563          	beq	a0,a5,20407930 <__metal_driver_sifive_uart0_set_baud_rate+0x12>
2040792a:	c14c                	sw	a1,4(a0)
2040792c:	4501                	li	a0,0
2040792e:	8082                	ret
20407930:	1141                	addi	sp,sp,-16
20407932:	c422                	sw	s0,8(sp)
20407934:	c606                	sw	ra,12(sp)
20407936:	c14c                	sw	a1,4(a0)
20407938:	80000537          	lui	a0,0x80000
2040793c:	09052783          	lw	a5,144(a0) # 80000090 <metal_segment_heap_target_end+0xffffc810>
20407940:	09050513          	addi	a0,a0,144
20407944:	842e                	mv	s0,a1
20407946:	439c                	lw	a5,0(a5)
20407948:	9782                	jalr	a5
2040794a:	02854533          	div	a0,a0,s0
2040794e:	100137b7          	lui	a5,0x10013
20407952:	40b2                	lw	ra,12(sp)
20407954:	4422                	lw	s0,8(sp)
20407956:	157d                	addi	a0,a0,-1
20407958:	cf88                	sw	a0,24(a5)
2040795a:	4798                	lw	a4,8(a5)
2040795c:	4501                	li	a0,0
2040795e:	00176713          	ori	a4,a4,1
20407962:	c798                	sw	a4,8(a5)
20407964:	47d8                	lw	a4,12(a5)
20407966:	00176713          	ori	a4,a4,1
2040796a:	c7d8                	sw	a4,12(a5)
2040796c:	0141                	addi	sp,sp,16
2040796e:	8082                	ret

20407970 <pre_rate_change_callback_func>:
pre_rate_change_callback_func():
20407970:	1101                	addi	sp,sp,-32
20407972:	800017b7          	lui	a5,0x80001
20407976:	ca26                	sw	s1,20(sp)
20407978:	ce06                	sw	ra,28(sp)
2040797a:	cc22                	sw	s0,24(sp)
2040797c:	a5078793          	addi	a5,a5,-1456 # 80000a50 <metal_segment_heap_target_end+0xffffd1d0>
20407980:	84aa                	mv	s1,a0
20407982:	04f50963          	beq	a0,a5,204079d4 <pre_rate_change_callback_func+0x64>
20407986:	4781                	li	a5,0
20407988:	4501                	li	a0,0
2040798a:	4798                	lw	a4,8(a5)
2040798c:	fff906b7          	lui	a3,0xfff90
20407990:	16fd                	addi	a3,a3,-1
20407992:	8f75                	and	a4,a4,a3
20407994:	c798                	sw	a4,8(a5)
20407996:	4798                	lw	a4,8(a5)
20407998:	66c1                	lui	a3,0x10
2040799a:	00878613          	addi	a2,a5,8
2040799e:	8f55                	or	a4,a4,a3
204079a0:	c798                	sw	a4,8(a5)
204079a2:	4bd8                	lw	a4,20(a5)
204079a4:	8b05                	andi	a4,a4,1
204079a6:	df75                	beqz	a4,204079a2 <pre_rate_change_callback_func+0x32>
204079a8:	411c                	lw	a5,0(a0)
204079aa:	4200                	lw	s0,0(a2)
204079ac:	439c                	lw	a5,0(a5)
204079ae:	8809                	andi	s0,s0,2
204079b0:	00143413          	seqz	s0,s0
204079b4:	9782                	jalr	a5
204079b6:	0425                	addi	s0,s0,9
204079b8:	02a40533          	mul	a0,s0,a0
204079bc:	40c0                	lw	s0,4(s1)
204079be:	c602                	sw	zero,12(sp)
204079c0:	02855533          	divu	a0,a0,s0
204079c4:	47b2                	lw	a5,12(sp)
204079c6:	00a7ce63          	blt	a5,a0,204079e2 <pre_rate_change_callback_func+0x72>
204079ca:	40f2                	lw	ra,28(sp)
204079cc:	4462                	lw	s0,24(sp)
204079ce:	44d2                	lw	s1,20(sp)
204079d0:	6105                	addi	sp,sp,32
204079d2:	8082                	ret
204079d4:	80000537          	lui	a0,0x80000
204079d8:	100137b7          	lui	a5,0x10013
204079dc:	09050513          	addi	a0,a0,144 # 80000090 <metal_segment_heap_target_end+0xffffc810>
204079e0:	b76d                	j	2040798a <pre_rate_change_callback_func+0x1a>
204079e2:	0001                	nop
204079e4:	47b2                	lw	a5,12(sp)
204079e6:	0785                	addi	a5,a5,1
204079e8:	c63e                	sw	a5,12(sp)
204079ea:	bfe9                	j	204079c4 <pre_rate_change_callback_func+0x54>

204079ec <post_rate_change_callback_func>:
post_rate_change_callback_func():
204079ec:	414c                	lw	a1,4(a0)
204079ee:	9dafe06f          	j	20405bc8 <metal_uart_set_baud_rate>

204079f2 <__metal_driver_sifive_uart0_init>:
__metal_driver_sifive_uart0_init():
204079f2:	1101                	addi	sp,sp,-32
204079f4:	c84a                	sw	s2,16(sp)
204079f6:	80001937          	lui	s2,0x80001
204079fa:	cc22                	sw	s0,24(sp)
204079fc:	ca26                	sw	s1,20(sp)
204079fe:	c452                	sw	s4,8(sp)
20407a00:	ce06                	sw	ra,28(sp)
20407a02:	c64e                	sw	s3,12(sp)
20407a04:	a5090913          	addi	s2,s2,-1456 # 80000a50 <metal_segment_heap_target_end+0xffffd1d0>
20407a08:	842a                	mv	s0,a0
20407a0a:	8a2e                	mv	s4,a1
20407a0c:	4481                	li	s1,0
20407a0e:	03251f63          	bne	a0,s2,20407a4c <__metal_driver_sifive_uart0_init+0x5a>
20407a12:	204087b7          	lui	a5,0x20408
20407a16:	97078793          	addi	a5,a5,-1680 # 20407970 <pre_rate_change_callback_func>
20407a1a:	800004b7          	lui	s1,0x80000
20407a1e:	09048493          	addi	s1,s1,144 # 80000090 <metal_segment_heap_target_end+0xffffc810>
20407a22:	c51c                	sw	a5,8(a0)
20407a24:	c448                	sw	a0,12(s0)
20407a26:	00850993          	addi	s3,a0,8
20407a2a:	40c8                	lw	a0,4(s1)
20407a2c:	85ce                	mv	a1,s3
20407a2e:	28a5                	jal	20407aa6 <_metal_clock_append_to_callbacks>
20407a30:	c0c8                	sw	a0,4(s1)
20407a32:	204087b7          	lui	a5,0x20408
20407a36:	4488                	lw	a0,8(s1)
20407a38:	9ec78793          	addi	a5,a5,-1556 # 204079ec <post_rate_change_callback_func>
20407a3c:	c85c                	sw	a5,20(s0)
20407a3e:	cc00                	sw	s0,24(s0)
20407a40:	01440593          	addi	a1,s0,20 # 10013014 <__stack_size+0x10012014>
20407a44:	208d                	jal	20407aa6 <_metal_clock_append_to_callbacks>
20407a46:	c488                	sw	a0,8(s1)
20407a48:	82c18493          	addi	s1,gp,-2004 # 80000a9c <__metal_dt_gpio_10012000>
20407a4c:	85d2                	mv	a1,s4
20407a4e:	8522                	mv	a0,s0
20407a50:	978fe0ef          	jal	ra,20405bc8 <metal_uart_set_baud_rate>
20407a54:	c09d                	beqz	s1,20407a7a <__metal_driver_sifive_uart0_init+0x88>
20407a56:	00030637          	lui	a2,0x30
20407a5a:	01240363          	beq	s0,s2,20407a60 <__metal_driver_sifive_uart0_init+0x6e>
20407a5e:	4601                	li	a2,0
20407a60:	409c                	lw	a5,0(s1)
20407a62:	4462                	lw	s0,24(sp)
20407a64:	40f2                	lw	ra,28(sp)
20407a66:	4942                	lw	s2,16(sp)
20407a68:	49b2                	lw	s3,12(sp)
20407a6a:	4a22                	lw	s4,8(sp)
20407a6c:	0247a303          	lw	t1,36(a5)
20407a70:	8526                	mv	a0,s1
20407a72:	44d2                	lw	s1,20(sp)
20407a74:	4581                	li	a1,0
20407a76:	6105                	addi	sp,sp,32
20407a78:	8302                	jr	t1
20407a7a:	40f2                	lw	ra,28(sp)
20407a7c:	4462                	lw	s0,24(sp)
20407a7e:	44d2                	lw	s1,20(sp)
20407a80:	4942                	lw	s2,16(sp)
20407a82:	49b2                	lw	s3,12(sp)
20407a84:	4a22                	lw	s4,8(sp)
20407a86:	6105                	addi	sp,sp,32
20407a88:	8082                	ret

20407a8a <_metal_clock_call_all_callbacks>:
_metal_clock_call_all_callbacks():
20407a8a:	1141                	addi	sp,sp,-16
20407a8c:	c422                	sw	s0,8(sp)
20407a8e:	c606                	sw	ra,12(sp)
20407a90:	842a                	mv	s0,a0
20407a92:	e409                	bnez	s0,20407a9c <_metal_clock_call_all_callbacks+0x12>
20407a94:	40b2                	lw	ra,12(sp)
20407a96:	4422                	lw	s0,8(sp)
20407a98:	0141                	addi	sp,sp,16
20407a9a:	8082                	ret
20407a9c:	401c                	lw	a5,0(s0)
20407a9e:	4048                	lw	a0,4(s0)
20407aa0:	9782                	jalr	a5
20407aa2:	4400                	lw	s0,8(s0)
20407aa4:	b7fd                	j	20407a92 <_metal_clock_call_all_callbacks+0x8>

20407aa6 <_metal_clock_append_to_callbacks>:
_metal_clock_append_to_callbacks():
20407aa6:	0005a423          	sw	zero,8(a1)
20407aaa:	87aa                	mv	a5,a0
20407aac:	e501                	bnez	a0,20407ab4 <_metal_clock_append_to_callbacks+0xe>
20407aae:	852e                	mv	a0,a1
20407ab0:	8082                	ret
20407ab2:	87ba                	mv	a5,a4
20407ab4:	4798                	lw	a4,8(a5)
20407ab6:	ff75                	bnez	a4,20407ab2 <_metal_clock_append_to_callbacks+0xc>
20407ab8:	c78c                	sw	a1,8(a5)
20407aba:	85aa                	mv	a1,a0
20407abc:	bfcd                	j	20407aae <_metal_clock_append_to_callbacks+0x8>

20407abe <metal_clock_get_rate_hz>:
metal_clock_get_rate_hz():
20407abe:	411c                	lw	a5,0(a0)
20407ac0:	0007a303          	lw	t1,0(a5)
20407ac4:	8302                	jr	t1

20407ac6 <metal_clock_set_rate_hz>:
metal_clock_set_rate_hz():
20407ac6:	1101                	addi	sp,sp,-32
20407ac8:	cc22                	sw	s0,24(sp)
20407aca:	842a                	mv	s0,a0
20407acc:	4148                	lw	a0,4(a0)
20407ace:	ce06                	sw	ra,28(sp)
20407ad0:	ca26                	sw	s1,20(sp)
20407ad2:	c62e                	sw	a1,12(sp)
20407ad4:	3f5d                	jal	20407a8a <_metal_clock_call_all_callbacks>
20407ad6:	401c                	lw	a5,0(s0)
20407ad8:	45b2                	lw	a1,12(sp)
20407ada:	8522                	mv	a0,s0
20407adc:	43dc                	lw	a5,4(a5)
20407ade:	9782                	jalr	a5
20407ae0:	84aa                	mv	s1,a0
20407ae2:	4408                	lw	a0,8(s0)
20407ae4:	375d                	jal	20407a8a <_metal_clock_call_all_callbacks>
20407ae6:	40f2                	lw	ra,28(sp)
20407ae8:	4462                	lw	s0,24(sp)
20407aea:	8526                	mv	a0,s1
20407aec:	44d2                	lw	s1,20(sp)
20407aee:	6105                	addi	sp,sp,32
20407af0:	8082                	ret

20407af2 <metal_shutdown>:
metal_shutdown():
20407af2:	0001                	nop
20407af4:	bffd                	j	20407af2 <metal_shutdown>
	...

20407b00 <__metal_vector_table>:
IRQ_0():
20407b00:	f78fe06f          	j	20406278 <metal_interrupt_vector_handler>

20407b04 <IRQ_1>:
IRQ_1():
20407b04:	f74fe06f          	j	20406278 <metal_interrupt_vector_handler>

20407b08 <IRQ_2>:
IRQ_2():
20407b08:	f70fe06f          	j	20406278 <metal_interrupt_vector_handler>

20407b0c <IRQ_3>:
IRQ_3():
20407b0c:	f96fe06f          	j	204062a2 <metal_software_interrupt_vector_handler>

20407b10 <IRQ_4>:
IRQ_4():
20407b10:	f68fe06f          	j	20406278 <metal_interrupt_vector_handler>

20407b14 <IRQ_5>:
IRQ_5():
20407b14:	f64fe06f          	j	20406278 <metal_interrupt_vector_handler>

20407b18 <IRQ_6>:
IRQ_6():
20407b18:	f60fe06f          	j	20406278 <metal_interrupt_vector_handler>

20407b1c <IRQ_7>:
IRQ_7():
20407b1c:	803fe06f          	j	2040631e <metal_timer_interrupt_vector_handler>

20407b20 <IRQ_8>:
IRQ_8():
20407b20:	f58fe06f          	j	20406278 <metal_interrupt_vector_handler>

20407b24 <IRQ_9>:
IRQ_9():
20407b24:	f54fe06f          	j	20406278 <metal_interrupt_vector_handler>

20407b28 <IRQ_10>:
IRQ_10():
20407b28:	f50fe06f          	j	20406278 <metal_interrupt_vector_handler>

20407b2c <IRQ_11>:
IRQ_11():
20407b2c:	f4cfe06f          	j	20406278 <metal_interrupt_vector_handler>

20407b30 <IRQ_12>:
IRQ_12():
20407b30:	f48fe06f          	j	20406278 <metal_interrupt_vector_handler>

20407b34 <IRQ_13>:
IRQ_13():
20407b34:	f44fe06f          	j	20406278 <metal_interrupt_vector_handler>

20407b38 <IRQ_14>:
IRQ_14():
20407b38:	f40fe06f          	j	20406278 <metal_interrupt_vector_handler>

20407b3c <IRQ_15>:
IRQ_15():
20407b3c:	f3cfe06f          	j	20406278 <metal_interrupt_vector_handler>

20407b40 <IRQ_LC0>:
IRQ_LC0():
20407b40:	85bfe06f          	j	2040639a <metal_lc0_interrupt_vector_handler>

20407b44 <IRQ_LC1>:
IRQ_LC1():
20407b44:	8d3fe06f          	j	20406416 <metal_lc1_interrupt_vector_handler>

20407b48 <IRQ_LC2>:
IRQ_LC2():
20407b48:	94bfe06f          	j	20406492 <metal_lc2_interrupt_vector_handler>

20407b4c <IRQ_LC3>:
IRQ_LC3():
20407b4c:	9c3fe06f          	j	2040650e <metal_lc3_interrupt_vector_handler>

20407b50 <IRQ_LC4>:
IRQ_LC4():
20407b50:	a3bfe06f          	j	2040658a <metal_lc4_interrupt_vector_handler>

20407b54 <IRQ_LC5>:
IRQ_LC5():
20407b54:	ab3fe06f          	j	20406606 <metal_lc5_interrupt_vector_handler>

20407b58 <IRQ_LC6>:
IRQ_LC6():
20407b58:	b2bfe06f          	j	20406682 <metal_lc6_interrupt_vector_handler>

20407b5c <IRQ_LC7>:
IRQ_LC7():
20407b5c:	ba3fe06f          	j	204066fe <metal_lc7_interrupt_vector_handler>

20407b60 <IRQ_LC8>:
IRQ_LC8():
20407b60:	c1bfe06f          	j	2040677a <metal_lc8_interrupt_vector_handler>

20407b64 <IRQ_LC9>:
IRQ_LC9():
20407b64:	c93fe06f          	j	204067f6 <metal_lc9_interrupt_vector_handler>

20407b68 <IRQ_LC10>:
IRQ_LC10():
20407b68:	d0bfe06f          	j	20406872 <metal_lc10_interrupt_vector_handler>

20407b6c <IRQ_LC11>:
IRQ_LC11():
20407b6c:	d83fe06f          	j	204068ee <metal_lc11_interrupt_vector_handler>

20407b70 <IRQ_LC12>:
IRQ_LC12():
20407b70:	dfbfe06f          	j	2040696a <metal_lc12_interrupt_vector_handler>

20407b74 <IRQ_LC13>:
IRQ_LC13():
20407b74:	e73fe06f          	j	204069e6 <metal_lc13_interrupt_vector_handler>

20407b78 <IRQ_LC14>:
IRQ_LC14():
20407b78:	eebfe06f          	j	20406a62 <metal_lc14_interrupt_vector_handler>

20407b7c <IRQ_LC15>:
IRQ_LC15():
20407b7c:	f63fe06f          	j	20406ade <metal_lc15_interrupt_vector_handler>

20407b80 <__metal_driver_fixed_clock_get_rate_hz>:
__metal_driver_fixed_clock_get_rate_hz():
20407b80:	800007b7          	lui	a5,0x80000
20407b84:	06078793          	addi	a5,a5,96 # 80000060 <metal_segment_heap_target_end+0xffffc7e0>
20407b88:	02f50063          	beq	a0,a5,20407ba8 <__metal_driver_fixed_clock_get_rate_hz+0x28>
20407b8c:	800007b7          	lui	a5,0x80000
20407b90:	07878793          	addi	a5,a5,120 # 80000078 <metal_segment_heap_target_end+0xffffc7f8>
20407b94:	00f50f63          	beq	a0,a5,20407bb2 <__metal_driver_fixed_clock_get_rate_hz+0x32>
20407b98:	800007b7          	lui	a5,0x80000
20407b9c:	09c78793          	addi	a5,a5,156 # 8000009c <metal_segment_heap_target_end+0xffffc81c>
20407ba0:	00f50e63          	beq	a0,a5,20407bbc <__metal_driver_fixed_clock_get_rate_hz+0x3c>
20407ba4:	4501                	li	a0,0
20407ba6:	8082                	ret
20407ba8:	00f42537          	lui	a0,0xf42
20407bac:	40050513          	addi	a0,a0,1024 # f42400 <__stack_size+0xf41400>
20407bb0:	8082                	ret
20407bb2:	044aa537          	lui	a0,0x44aa
20407bb6:	20050513          	addi	a0,a0,512 # 44aa200 <__stack_size+0x44a9200>
20407bba:	8082                	ret
20407bbc:	01e85537          	lui	a0,0x1e85
20407bc0:	80050513          	addi	a0,a0,-2048 # 1e84800 <__stack_size+0x1e83800>
20407bc4:	8082                	ret

20407bc6 <__metal_driver_fixed_clock_set_rate_hz>:
__metal_driver_fixed_clock_set_rate_hz():
20407bc6:	800007b7          	lui	a5,0x80000
20407bca:	06078793          	addi	a5,a5,96 # 80000060 <metal_segment_heap_target_end+0xffffc7e0>
20407bce:	02f50063          	beq	a0,a5,20407bee <__metal_driver_fixed_clock_set_rate_hz+0x28>
20407bd2:	800007b7          	lui	a5,0x80000
20407bd6:	07878793          	addi	a5,a5,120 # 80000078 <metal_segment_heap_target_end+0xffffc7f8>
20407bda:	00f50f63          	beq	a0,a5,20407bf8 <__metal_driver_fixed_clock_set_rate_hz+0x32>
20407bde:	800007b7          	lui	a5,0x80000
20407be2:	09c78793          	addi	a5,a5,156 # 8000009c <metal_segment_heap_target_end+0xffffc81c>
20407be6:	00f50e63          	beq	a0,a5,20407c02 <__metal_driver_fixed_clock_set_rate_hz+0x3c>
20407bea:	4501                	li	a0,0
20407bec:	8082                	ret
20407bee:	00f42537          	lui	a0,0xf42
20407bf2:	40050513          	addi	a0,a0,1024 # f42400 <__stack_size+0xf41400>
20407bf6:	8082                	ret
20407bf8:	044aa537          	lui	a0,0x44aa
20407bfc:	20050513          	addi	a0,a0,512 # 44aa200 <__stack_size+0x44a9200>
20407c00:	8082                	ret
20407c02:	01e85537          	lui	a0,0x1e85
20407c06:	80050513          	addi	a0,a0,-2048 # 1e84800 <__stack_size+0x1e83800>
20407c0a:	8082                	ret

20407c0c <_exit>:
_exit():
20407c0c:	1141                	addi	sp,sp,-16
20407c0e:	c606                	sw	ra,12(sp)
20407c10:	ee3ff0ef          	jal	ra,20407af2 <metal_shutdown>
