
/home/reglisse/Documents/Code/Github/SecPump/SecPump-RISC-V/Freedom-e-sdk/software/hello/release/hello.elf:     format de fichier elf32-littleriscv
/home/reglisse/Documents/Code/Github/SecPump/SecPump-RISC-V/Freedom-e-sdk/software/hello/release/hello.elf
architecture: riscv:rv32, fanions 0x00000112:
EXEC_P, HAS_SYMS, D_PAGED
adresse de départ 0x20400000

En-tête de programme:
    LOAD off    0x00001000 vaddr 0x20400000 paddr 0x20400000 align 2**12
         filesz 0x00000e58 memsz 0x00000e58 flags rwx
    LOAD off    0x00002000 vaddr 0x80000000 paddr 0x20403e18 align 2**12
         filesz 0x00000ac0 memsz 0x00000ac0 flags rw-
     TLS off    0x00000000 vaddr 0x00000000 paddr 0x00000000 align 2**2
         filesz 0x00000000 memsz 0x00000000 flags ---
    LOAD off    0x00002ac0 vaddr 0x80000ac0 paddr 0x80000ac0 align 2**12
         filesz 0x00000000 memsz 0x00000cb0 flags rw-
    LOAD off    0x00002ac0 vaddr 0x00000000 paddr 0x00000000 align 2**12
         filesz 0x00000000 memsz 0x00000000 flags ---
    LOAD off    0x00002e80 vaddr 0x20400e80 paddr 0x20400e80 align 2**12
         filesz 0x00002f92 memsz 0x00002f92 flags r-x
    LOAD off    0x00005e12 vaddr 0x00000000 paddr 0x00000000 align 2**12
         filesz 0x00000000 memsz 0x00000000 flags ---

Sections :
Idx Name              Taille    VMA       LMA       Off fich  Algn  Fanions
  0 .init             000002da  20400000  20400000  00001000  2**4  CONTENTS, ALLOC, LOAD, READONLY, CODE
  1 .init_array       0000000c  204002e0  204002e0  000012e0  2**3  CONTENTS, ALLOC, LOAD, DATA
  2 .ctors            00000032  204002ec  204002ec  000012ec  2**1  CONTENTS, ALLOC, LOAD, READONLY, CODE
  3 .rodata           00000b38  20400320  20400320  00001320  2**2  CONTENTS, ALLOC, LOAD, READONLY, DATA
  4 .text             00002f92  20400e80  20400e80  00002e80  2**7  CONTENTS, ALLOC, LOAD, READONLY, CODE
  5 .data             00000ac0  80000000  20403e18  00002000  2**3  CONTENTS, ALLOC, LOAD, DATA
  6 .bss              000000a4  80000ac0  80000ac0  00002ac0  2**3  ALLOC
  7 .stack            00000400  80000b70  80000b70  00002ac0  2**4  ALLOC
  8 .heap             00000800  80000f70  80000f70  00002ac0  2**3  ALLOC
  9 .comment          00000028  00000000  00000000  00005e12  2**0  CONTENTS, READONLY
 10 .riscv.attributes 0000002b  00000000  00000000  00005e3a  2**0  CONTENTS, READONLY
SYMBOL TABLE:
20400000 l    d  .init	00000000 .init
204002e0 l    d  .init_array	00000000 .init_array
204002ec l    d  .ctors	00000000 .ctors
20400320 l    d  .rodata	00000000 .rodata
20400e80 l    d  .text	00000000 .text
80000000 l    d  .data	00000000 .data
80000ac0 l    d  .bss	00000000 .bss
80000b70 l    d  .stack	00000000 .stack
80000f70 l    d  .heap	00000000 .heap
00000000 l    d  .comment	00000000 .comment
00000000 l    d  .riscv.attributes	00000000 .riscv.attributes
00000000 l    df *ABS*	00000000 scrub.o
204000ca l     F .init	00000000 __metal_memory_scrub
20400138 l       .init	00000000 skip_scrub
00000000 l    df *ABS*	00000000 synchronize_harts.c
00000000 l    df *ABS*	00000000 crt0.o
2040023c l       .init	00000000 _skip_init
20400390 l       .rodata	00000000 argv
20400394 l       .rodata	00000000 envp
20400398 l       .rodata	00000000 name
00000000 l    df *ABS*	00000000 tty.c
00000000 l    df *ABS*	00000000 sifive_fe310-g000_pll.c
20403386 l     F .text	00000006 __metal_driver_sifive_fe310_g000_pll_config_base
2040338c l     F .text	00000004 __metal_driver_sifive_fe310_g000_pll_config_offset
20400520 l     O .rodata	00000880 pll_configs
00000000 l    df *ABS*	00000000 hello.c
00000000 l    df *ABS*	00000000 findfp.c
204012fc l     F .text	00000068 std
00000000 l    df *ABS*	00000000 riscv_clint0.c
20401d84 l     F .text	00000014 _get_cpu_intc
00000000 l    df *ABS*	00000000 riscv_cpu.c
80000a98 l     O .data	00000003 CSWTCH.18
00000000 l    df *ABS*	00000000 riscv_plic0.c
00000000 l    df *ABS*	00000000 sifive_gpio0.c
00000000 l    df *ABS*	00000000 sifive_uart0.c
20403af4 l     F .text	0000007c pre_rate_change_callback_func
20403b70 l     F .text	00000006 post_rate_change_callback_func
00000000 l    df *ABS*	00000000 puts.c
00000000 l    df *ABS*	00000000 wbuf.c
00000000 l    df *ABS*	00000000 wsetup.c
00000000 l    df *ABS*	00000000 fflush.c
00000000 l    df *ABS*	00000000 fwalk.c
00000000 l    df *ABS*	00000000 makebuf.c
00000000 l    df *ABS*	00000000 nano-mallocr.c
00000000 l    df *ABS*	00000000 nano-mallocr.c
00000000 l    df *ABS*	00000000 sbrkr.c
00000000 l    df *ABS*	00000000 stdio.c
00000000 l    df *ABS*	00000000 writer.c
00000000 l    df *ABS*	00000000 closer.c
00000000 l    df *ABS*	00000000 fstatr.c
00000000 l    df *ABS*	00000000 isattyr.c
00000000 l    df *ABS*	00000000 lseekr.c
00000000 l    df *ABS*	00000000 mlock.c
00000000 l    df *ABS*	00000000 readr.c
00000000 l    df *ABS*	00000000 sys_close.c
00000000 l    df *ABS*	00000000 sys_fstat.c
00000000 l    df *ABS*	00000000 sys_isatty.c
00000000 l    df *ABS*	00000000 sys_lseek.c
00000000 l    df *ABS*	00000000 sys_read.c
00000000 l    df *ABS*	00000000 sys_sbrk.c
80000a78 l     O .data	00000004 __brk
00000000 l    df *ABS*	00000000 sys_write.c
00000000 l    df *ABS*	00000000 atexit.c
00000000 l    df *ABS*	00000000 errno.c
00000000 l    df *ABS*	00000000 exit.c
00000000 l    df *ABS*	00000000 fini.c
00000000 l    df *ABS*	00000000 init.c
00000000 l    df *ABS*	00000000 __atexit.c
80000ad4 l     O .bss	0000008c _global_atexit0
00000000 l    df *ABS*	00000000 __call_atexit.c
00000000 l    df *ABS*	00000000 init.c
80000acc l     O .bss	00000004 fini_done.1540
80000ad0 l     O .bss	00000004 init_done.1531
00000000 l    df *ABS*	00000000 uart.c
00000000 l    df *ABS*	00000000 sifive_fe310-g000_hfrosc.c
00000000 l    df *ABS*	00000000 sifive_fe310-g000_hfxosc.c
00000000 l    df *ABS*	00000000 sifive_fe310-g000_prci.c
00000000 l    df *ABS*	00000000 clock.c
00000000 l    df *ABS*	00000000 cpu.c
00000000 l    df *ABS*	00000000 shutdown.c
00000000 l    df *ABS*	00000000 vector.o
20403d00 l       .text	00000000 IRQ_0
20403d04 l       .text	00000000 IRQ_1
20403d08 l       .text	00000000 IRQ_2
20403d0c l       .text	00000000 IRQ_3
20403d10 l       .text	00000000 IRQ_4
20403d14 l       .text	00000000 IRQ_5
20403d18 l       .text	00000000 IRQ_6
20403d1c l       .text	00000000 IRQ_7
20403d20 l       .text	00000000 IRQ_8
20403d24 l       .text	00000000 IRQ_9
20403d28 l       .text	00000000 IRQ_10
20403d2c l       .text	00000000 IRQ_11
20403d30 l       .text	00000000 IRQ_12
20403d34 l       .text	00000000 IRQ_13
20403d38 l       .text	00000000 IRQ_14
20403d3c l       .text	00000000 IRQ_15
20403d40 l       .text	00000000 IRQ_LC0
20403d44 l       .text	00000000 IRQ_LC1
20403d48 l       .text	00000000 IRQ_LC2
20403d4c l       .text	00000000 IRQ_LC3
20403d50 l       .text	00000000 IRQ_LC4
20403d54 l       .text	00000000 IRQ_LC5
20403d58 l       .text	00000000 IRQ_LC6
20403d5c l       .text	00000000 IRQ_LC7
20403d60 l       .text	00000000 IRQ_LC8
20403d64 l       .text	00000000 IRQ_LC9
20403d68 l       .text	00000000 IRQ_LC10
20403d6c l       .text	00000000 IRQ_LC11
20403d70 l       .text	00000000 IRQ_LC12
20403d74 l       .text	00000000 IRQ_LC13
20403d78 l       .text	00000000 IRQ_LC14
20403d7c l       .text	00000000 IRQ_LC15
00000000 l    df *ABS*	00000000 fixed-clock.c
00000000 l    df *ABS*	00000000 sys_exit.c
00000000 l    df *ABS*	00000000 impure.c
80000000 l     O .data	00000060 impure_data
00000000 l    df *ABS*	00000000 inline.c
00000000 l    df *ABS*	00000000 
204002ec l       .init_array	00000000 metal_constructors_end
204002f0 l       .init_array	00000000 __fini_array_end
204002f0 l       .init_array	00000000 metal_destructors_end
204002f0 l       .init_array	00000000 metal_destructors_start
204002f0 l       .init_array	00000000 __fini_array_start
204002e0 l       .init_array	00000000 __init_array_end
204002e0 l       .init_array	00000000 __preinit_array_end
204002e0 l       .init_array	00000000 __init_array_start
204002e0 l       .init_array	00000000 metal_constructors_start
204002e0 l       .init_array	00000000 __preinit_array_start
20400e18 g     O .rodata	00000040 __metal_driver_vtable_sifive_uart0
20401914 g     F .text	00000028 _isatty_r
20402712  w    F .text	0000007c metal_lc4_interrupt_vector_handler
20400e96 g     F .text	000000da _puts_r
2040193c g     F .text	0000002c _lseek_r
20403c42 g     F .text	00000008 metal_clock_get_rate_hz
20403aa2 g     F .text	00000052 __metal_driver_sifive_uart0_set_baud_rate
20401d98 g     F .text	00000026 __metal_driver_riscv_clint0_set_vector_mode
204039c8 g     F .text	00000024 __metal_driver_sifive_uart0_set_tx_watermark
20402696  w    F .text	0000007c metal_lc3_interrupt_vector_handler
20402d02 g     F .text	00000036 __metal_valid_interrupt_id
204002e4 g     O .init_array	00000004 _use_hfxosc_ptr
20402d00 g     F .text	00000002 __metal_driver_riscv_cpu_controller_get_vector_mode
80001270 g       .data	00000000 __global_pointer$
204002ec g     F .ctors	00000012 metal_tty_init
20403c2a g     F .text	00000018 _metal_clock_append_to_callbacks
20402f74 g     F .text	00000022 __metal_plic0_complete_interrupt
20402d38 g     F .text	000000d2 __metal_driver_riscv_cpu_controller_interrupt_register
204002e8 g     O .init_array	00000004 _metal_sifive_fe310_g000_pll_init_ptr
2040185a g     F .text	00000036 __sseek
204013b2 g     F .text	0000006a __sinit
20400f7e g     F .text	000000c0 __swbuf_r
80000ac0 g       .data	00000000 __tls_base
2040136e g     F .text	00000044 __sfmoreglue
2040196a g     F .text	00000002 __malloc_unlock
20403c7e g     F .text	0000000c metal_cpu_get
80000a50 g     O .data	00000020 __metal_dt_serial_10013000
20403774 g     F .text	0000001c __metal_driver_sifive_gpio0_disable_io
204003a4 g     O .rodata	00000064 __metal_driver_vtable_riscv_clint0
80000b64 g       .bss	00000000 metal_segment_bss_target_end
20401f14 g     F .text	0000002a __metal_clint0_mtime_get
2040229c g     F .text	00000012 __metal_driver_cpu_get_instruction_length
00000001 g       *ABS*	00000000 __metal_chicken_bit
20403a2c g     F .text	0000001c __metal_driver_sifive_uart0_get_rx_watermark
20403692 g     F .text	0000001c __metal_driver_sifive_gpio0_disable_input
20401a6e g     F .text	0000000c __errno
80000000 g       .rodata	00000000 metal_segment_itim_target_start
204039ae g     F .text	0000001a __metal_driver_sifive_uart0_txready
20403974 g     F .text	0000001e __metal_driver_sifive_uart0_rx_interrupt_enable
2040014a g     F .init	00000002 __metal_synchronize_harts
80000ac0 g       .data	00000000 metal_segment_bss_target_start
20401d50 g     F .text	0000002c __metal_driver_riscv_clint0_mtimecmp_set
204018ea g     F .text	0000002a _fstat_r
2040380a g     F .text	00000060 __metal_driver_sifive_gpio0_clear_int
80000b60 g     O .bss	00000004 errno
204033e0 g     F .text	000000be __metal_driver_sifive_fe310_g000_pll_get_rate_hz
00000400 g       *ABS*	00000000 __stack_size
2040297e  w    F .text	0000007c metal_lc9_interrupt_vector_handler
204000d6  w    F .init	00000000 __metal_before_start
20401d28  w    F .text	00000002 metal_init_run
204004b0 g     O .rodata	00000064 __metal_driver_vtable_riscv_plic0
20400408 g     O .rodata	00000044 __metal_driver_vtable_cpu
20401d48 g     F .text	00000008 metal_uart_set_baud_rate
20403b76 g     F .text	00000098 __metal_driver_sifive_uart0_init
00000000 g       *ABS*	00000000 __metal_eccscrub_bit
2040217e g     F .text	00000012 __metal_driver_cpu_mcycle_get
20400514 g     O .rodata	0000000c __metal_driver_vtable_sifive_fe310_g000_pll
80000f70 g       .heap	00000000 metal_segment_heap_target_start
20401364 g     F .text	0000000a _cleanup_r
80000a84 g     O .data	00000008 __metal_dt_cpu_0
20402902  w    F .text	0000007c metal_lc8_interrupt_vector_handler
2040349e g     F .text	000001c6 __metal_driver_sifive_fe310_g000_pll_set_rate_hz
20403030 g     F .text	00000048 __metal_driver_riscv_plic0_affinity_set_threshold
20400f70 g     F .text	0000000e puts
20402b6e  w    F .text	0000007c metal_lc13_interrupt_vector_handler
204022c0 g     F .text	0000000c __metal_default_exception_handler
204019ac g     F .text	00000014 _fstat
20401fe4 g     F .text	0000001e __metal_driver_riscv_clint0_set_interrupt
204023c8 g     F .text	00000032 __metal_driver_riscv_cpu_controller_set_vector_mode
2040044c g     O .rodata	00000064 __metal_driver_vtable_riscv_cpu_intc
204030b2 g     F .text	0000000e __metal_driver_riscv_plic0_affinity_get_threshold
20402886  w    F .text	0000007c metal_lc7_interrupt_vector_handler
204029fa  w    F .text	0000007c metal_lc10_interrupt_vector_handler
204017b4 g     F .text	00000028 _sbrk_r
2040320e g     F .text	00000040 __metal_driver_riscv_plic0_disable
20401c98 g     F .text	00000048 metal_init
2040196c g     F .text	0000002c _read_r
204021e4 g     F .text	0000000a __metal_driver_cpu_timer_controller_interrupt
204036f2 g     F .text	00000018 __metal_driver_sifive_gpio0_enable_output
80000000 g       .rodata	00000000 metal_segment_lim_target_end
20402002 g     F .text	00000042 __metal_default_sw_handler
80000078 g     O .data	0000000c __metal_dt_clock_2
2040390c g     F .text	0000001a __metal_driver_sifive_uart0_interrupt_controller
204019c0 g     F .text	00000008 _isatty
2040373e g     F .text	00000018 __metal_driver_sifive_gpio0_output_toggle
2040393a g     F .text	0000001e __metal_driver_sifive_uart0_tx_interrupt_enable
80000ab8 g     O .data	00000008 __metal_driver_vtable_fixed_clock
80000a74 g     O .data	00000004 _global_impure_ptr
204024a6  w    F .text	0000007c metal_timer_interrupt_vector_handler
20401ade g     F .text	0000006a __libc_init_array
2040370a g     F .text	00000018 __metal_driver_sifive_gpio0_output_set
20402a76  w    F .text	0000007c metal_lc11_interrupt_vector_handler
20403384 g     F .text	00000002 __metal_driver_sifive_fe310_g000_hfxosc_set_rate_hz
20402e7c g     F .text	00000004 __metal_driver_riscv_cpu_controller_interrupt_enable
204019f0 g     F .text	0000003a _sbrk
204036d6 g     F .text	0000001c __metal_driver_sifive_gpio0_disable_output
20403c0e g     F .text	0000001c _metal_clock_call_all_callbacks
204002b8 g     F .init	00000002 _init
20403790 g     F .text	0000007a __metal_driver_sifive_gpio0_config_int
20402226 g     F .text	00000030 __metal_driver_cpu_clear_sw_ipi
20400ddc g     O .rodata	0000003c __metal_driver_vtable_sifive_gpio0
20403958 g     F .text	0000001c __metal_driver_sifive_uart0_tx_interrupt_disable
20403756 g     F .text	0000001e __metal_driver_sifive_gpio0_enable_io
20401aa6 g     F .text	00000038 __libc_fini_array
80000090 g     O .data	0000000c __metal_dt_clock_4
2040386a g     F .text	00000016 __metal_driver_gpio_interrupt_controller
20401ce0 g     F .text	00000048 metal_fini
204021f2 g     F .text	00000004 __metal_driver_cpu_get_sw_interrupt_id
204022bc g     F .text	00000004 __metal_driver_cpu_get_buserror
80000000 g       .data	00000000 metal_segment_data_target_start
20401fc6 g     F .text	0000001e __metal_driver_riscv_clint0_clear_interrupt
20401d2c g     F .text	0000000c metal_tty_putc
20402ec6 g     F .text	0000000c __metal_plic0_default_handler
20401a2a  w    F .text	0000003a write
00000000 g       *ABS*	00000000 __tbss_size
80000060 g     O .data	0000000c __metal_dt_clock_0
00000800 g       *ABS*	00000000 __heap_size
20403014 g     F .text	0000001c __metal_driver_riscv_plic0_set_threshold
20402044 g     F .text	00000002 __metal_default_beu_handler
20400330 g     O .rodata	00000020 __sf_fake_stderr
20403926 g     F .text	00000014 __metal_driver_sifive_uart0_get_interrupt_id
2040217a g     F .text	00000004 __metal_driver_riscv_cpu_controller_command_request
20402334 g     F .text	0000005e __metal_driver_riscv_cpu_controller_interrupt_init
20402392 g     F .text	0000002c __metal_driver_cpu_exception_register
2040259e  w    F .text	0000007c metal_lc1_interrupt_vector_handler
2040162a g     F .text	000000ac _free_r
80000ac8 g     O .bss	00000004 _global_atexit
20402e84 g     F .text	00000026 __metal_driver_riscv_plic0_set_priority
20402ce2 g     F .text	0000001e __metal_controller_interrupt_vector_mode
20401bd0 g     F .text	000000c8 __call_exitprocs
80000f70 g       .stack	00000000 _sp
204002e0 g     O .init_array	00000004 _metal_tty_init_ptr
2040014c g     F .init	00000000 _start
2040330e g     F .text	00000040 __metal_driver_sifive_fe310_g000_hfrosc_get_rate_hz
204019c8 g     F .text	00000014 _lseek
20402286 g     F .text	00000016 __metal_driver_cpu_controller_interrupt
204022ae g     F .text	00000006 __metal_driver_cpu_get_exception_pc
20401b48 g     F .text	00000088 __register_exitproc
20403a48 g     F .text	00000032 __metal_driver_sifive_uart0_putc
204030fe g     F .text	000000d0 __metal_driver_riscv_plic0_init
204031ce g     F .text	00000040 __metal_driver_riscv_plic0_enable
204036c2 g     F .text	00000014 __metal_driver_sifive_gpio0_output
2040280a  w    F .text	0000007c metal_lc6_interrupt_vector_handler
204023fa g     F .text	00000006 __metal_myhart_id
20403880 g     F .text	0000008c __metal_driver_gpio_get_interrupt_id
2040242a  w    F .text	0000007c metal_software_interrupt_vector_handler
20402e80 g     F .text	00000004 __metal_driver_riscv_cpu_controller_interrupt_disable
204018c2 g     F .text	00000028 _close_r
20403a9e g     F .text	00000004 __metal_driver_sifive_uart0_get_baud_rate
20401eb0 g     F .text	00000064 __metal_driver_riscv_clint0_register
80000a7c g     O .data	00000008 __metal_dt_clint_2000000
2040103e g     F .text	00000110 __swsetup_r
2040141c g     F .text	0000009e __sfp
20403c4a g     F .text	0000002c metal_clock_set_rate_hz
204017dc g     F .text	00000030 __sread
2040367a g     F .text	00000018 __metal_driver_sifive_gpio0_enable_input
204002ba  w    F .init	00000000 secondary_main
20402400  w    F .text	0000002a metal_interrupt_vector_handler
20401968 g     F .text	00000002 __malloc_lock
20403992 g     F .text	0000001c __metal_driver_sifive_uart0_rx_interrupt_disable
20401298 g     F .text	00000064 _fflush_r
20403078 g     F .text	00000022 __metal_plic0_get_threshold
20403664 g     F .text	0000000a __metal_driver_sifive_fe310_g000_prci_get_reg
20400350 g     O .rodata	00000020 __sf_fake_stdin
20402e0a g     F .text	00000072 __metal_local_interrupt_enable
20401f3e g     F .text	00000088 __metal_driver_riscv_clint0_command_request
2040161a g     F .text	00000010 memset
2040278e  w    F .text	0000007c metal_lc5_interrupt_vector_handler
20400e80 g     F .text	00000016 main
80000ac0 g       .data	00000000 metal_segment_data_target_end
20403a08 g     F .text	00000024 __metal_driver_sifive_uart0_set_rx_watermark
80000a9c g     O .data	00000008 __metal_driver_vtable_sifive_fe310_g000_hfrosc
204021f6 g     F .text	00000030 __metal_driver_cpu_set_sw_ipi
20402256 g     F .text	00000030 __metal_driver_cpu_get_msip
20403c90 g     F .text	00000004 metal_shutdown
80000000 g       .rodata	00000000 metal_segment_itim_target_end
204022b4 g     F .text	00000008 __metal_driver_cpu_set_exception_pc
20402f52 g     F .text	00000022 __metal_plic0_claim_interrupt
204039ec g     F .text	0000001c __metal_driver_sifive_uart0_get_tx_watermark
20401890 g     F .text	00000006 __sclose
20402af2  w    F .text	0000007c metal_lc12_interrupt_vector_handler
20400092 g     F .init	00000000 metal_mem_scrub
204016d6 g     F .text	000000de _malloc_r
20401d80 g     F .text	00000004 __metal_driver_riscv_clint0_get_vector_mode
80000a90 g     O .data	00000004 __metal_dt_prci_10008000
20402190 g     F .text	00000022 __metal_driver_cpu_timebase_get
204032ae g     F .text	00000060 __metal_driver_riscv_plic0_affinity_disable
20400000 g       .init	00000000 _enter
20403c8a g     F .text	00000006 metal_cpu_get_current_hartid
20403350 g     F .text	00000034 __metal_driver_sifive_fe310_g000_hfxosc_get_rate_hz
20403d00 g       .text	00000000 __metal_vector_table
20400e58 g       *ABS*	00000000 metal_segment_itim_source_start
800000a8 g     O .data	000003d0 __metal_dt_cpu_0_interrupt_controller
204002b8 g     F .init	00000002 _fini
80000000 g       .rodata	00000000 metal_segment_lim_target_start
20402eaa g     F .text	0000001c __metal_driver_riscv_plic0_get_priority
2040030a g     F .ctors	00000014 use_hfxosc
20401a64 g     F .text	0000000a atexit
20401896 g     F .text	0000002c _write_r
20403a7a g     F .text	00000024 __metal_driver_sifive_uart0_getc
20401e14 g     F .text	0000004e __metal_driver_riscv_clint0_disable
80000a70 g     O .data	00000004 _impure_ptr
204022d8 g     F .text	00000024 __metal_driver_cpu_mtimecmp_set
2040114e g     F .text	0000014a __sflush_r
2040309a g     F .text	00000018 __metal_driver_riscv_plic0_get_threshold
20403390 g     F .text	00000050 __metal_driver_sifive_fe310_g000_pll_init
8000009c g     O .data	0000000c __metal_dt_clock_5
2040366e g     F .text	0000000c __metal_driver_sifive_fe310_g000_prci_set_reg
20403d80 g     F .text	00000046 __metal_driver_fixed_clock_get_rate_hz
20401e62 g     F .text	0000004e __metal_driver_riscv_clint0_enable
20403e18 g       *ABS*	00000000 metal_segment_data_source_start
2040013c g       .init	00000000 early_trap_vector
80001770 g       .heap	00000000 metal_segment_heap_target_end
8000006c g     O .data	0000000c __metal_dt_clock_1
80000478 g     O .data	000005d8 __metal_dt_interrupt_controller_c000000
20401526 g     F .text	00000058 __swhatbuf_r
20403722 g     F .text	0000001c __metal_driver_sifive_gpio0_output_clear
204022fc g     F .text	00000038 __metal_default_timer_handler
20401a2a g     F .text	0000003a _write
20402f96 g     F .text	0000005c __metal_plic0_handler
2040261a  w    F .text	0000007c metal_lc2_interrupt_vector_handler
20402c66  w    F .text	0000007c metal_lc15_interrupt_vector_handler
20403c76 g     F .text	00000008 metal_cpu_interrupt_controller
2040180c g     F .text	0000004e __swrite
20401a7a g     F .text	0000002c exit
204014ba g     F .text	0000006c _fwalk_reent
20403dc6 g     F .text	00000046 __metal_driver_fixed_clock_set_rate_hz
20400e58 g       *ABS*	00000000 metal_segment_lim_source_start
20400370 g     O .rodata	00000020 __sf_fake_stdout
80000a8c g     O .data	00000004 __metal_dt_gpio_10012000
204022cc g     F .text	0000000c __metal_default_interrupt_handler
20401d40 g     F .text	00000008 metal_uart_putc
204019dc g     F .text	00000014 _read
20401d2a  w    F .text	00000002 metal_fini_run
204036ae g     F .text	00000014 __metal_driver_sifive_gpio0_input
20402080 g     F .text	000000de __metal_exception_handler
20402522  w    F .text	0000007c metal_lc0_interrupt_vector_handler
20403e0c g     F .text	00000006 _exit
204021b2 g     F .text	00000032 __metal_driver_cpu_mtime_get
2040157e g     F .text	0000009c __smakebuf_r
20401d7c g     F .text	00000004 __metal_driver_riscv_clint0_vector_register
80000ac4 g     O .bss	00000004 __malloc_sbrk_start
20402bea  w    F .text	0000007c metal_lc14_interrupt_vector_handler
80000aa4 g     O .data	00000008 __metal_driver_vtable_sifive_fe310_g000_hfxosc
20401dbe g     F .text	00000056 __metal_driver_riscv_clint0_init
80000ac0 g     O .bss	00000004 __malloc_free_list
204002fe g     F .ctors	0000000c metal_sifive_fe310_g000_pll_init
204021ee g     F .text	00000004 __metal_driver_cpu_get_timer_interrupt_id
204030c0 g     F .text	0000003e __metal_plic0_enable
20400090  w      .init	00000000 __register_frame_info
2040334e g     F .text	00000002 __metal_driver_sifive_fe310_g000_hfrosc_set_rate_hz
204023be g     F .text	0000000a __metal_driver_cpu_sw_controller_interrupt
20401d38 g     F .text	00000008 metal_uart_init
80000084 g     O .data	0000000c __metal_dt_clock_3
20402ff2 g     F .text	00000022 __metal_plic0_set_threshold
2040324e g     F .text	00000060 __metal_driver_riscv_plic0_affinity_enable
20401998 g     F .text	00000014 _close
80000aac g     O .data	00000008 __metal_driver_vtable_sifive_fe310_g000_prci
00000000 g       *ABS*	00000000 __metal_boot_hart
20402ed2 g     F .text	00000080 __metal_driver_riscv_plic0_register



Déassemblage de la section .init :

20400000 <_enter>:
_enter():
20400000:	5fc01197          	auipc	gp,0x5fc01
20400004:	27018193          	addi	gp,gp,624 # 80001270 <__global_pointer$>
20400008:	00000297          	auipc	t0,0x0
2040000c:	01828293          	addi	t0,t0,24 # 20400020 <_enter+0x20>
20400010:	30529073          	csrw	mtvec,t0
20400014:	00100293          	li	t0,1
20400018:	00028463          	beqz	t0,20400020 <_enter+0x20>
2040001c:	7c105073          	csrwi	0x7c1,0
20400020:	00000297          	auipc	t0,0x0
20400024:	11c28293          	addi	t0,t0,284 # 2040013c <early_trap_vector>
20400028:	30529073          	csrw	mtvec,t0
2040002c:	dfc00117          	auipc	sp,0xdfc00
20400030:	fd410113          	addi	sp,sp,-44 # 0 <__metal_boot_hart>
20400034:	00011463          	bnez	sp,2040003c <_enter+0x3c>
20400038:	d0018113          	addi	sp,gp,-768 # 80000f70 <_sp>
2040003c:	f1402573          	csrr	a0,mhartid
20400040:	4281                	li	t0,0
20400042:	40000313          	li	t1,1024
20400046:	ff017113          	andi	sp,sp,-16
2040004a:	00a28563          	beq	t0,a0,20400054 <_enter+0x54>
2040004e:	911a                	add	sp,sp,t1
20400050:	0285                	addi	t0,t0,1
20400052:	bfd5                	j	20400046 <_enter+0x46>
20400054:	00000097          	auipc	ra,0x0
20400058:	08208093          	addi	ra,ra,130 # 204000d6 <__metal_before_start>
2040005c:	00008363          	beqz	ra,20400062 <_enter+0x62>
20400060:	9082                	jalr	ra
20400062:	f1402573          	csrr	a0,mhartid
20400066:	4581                	li	a1,0
20400068:	4601                	li	a2,0
2040006a:	20cd                	jal	2040014c <_start>
2040006c:	dfc00097          	auipc	ra,0xdfc00
20400070:	f9408093          	addi	ra,ra,-108 # 0 <__metal_boot_hart>
20400074:	00008363          	beqz	ra,2040007a <_enter+0x7a>
20400078:	9082                	jalr	ra
2040007a:	00000297          	auipc	t0,0x0
2040007e:	00c28293          	addi	t0,t0,12 # 20400086 <_enter+0x86>
20400082:	30529073          	csrw	mtvec,t0
20400086:	00002303          	lw	t1,0(zero) # 0 <__metal_boot_hart>
2040008a:	bff5                	j	20400086 <_enter+0x86>
2040008c:	0000                	unimp
	...

20400090 <__register_frame_info>:
__register_frame_info():
20400090:	8082                	ret

20400092 <metal_mem_scrub>:
metal_mem_scrub():
20400092:	46a1                	li	a3,8
20400094:	3006b373          	csrrc	t1,mstatus,a3
20400098:	00400293          	li	t0,4
2040009c:	0055c563          	blt	a1,t0,204000a6 <metal_mem_scrub+0x14>
204000a0:	00357613          	andi	a2,a0,3
204000a4:	ca11                	beqz	a2,204000b8 <metal_mem_scrub+0x26>
204000a6:	00050023          	sb	zero,0(a0)
204000aa:	0505                	addi	a0,a0,1
204000ac:	15fd                	addi	a1,a1,-1
204000ae:	feb047e3          	bgtz	a1,2040009c <metal_mem_scrub+0xa>
204000b2:	30031073          	csrw	mstatus,t1
204000b6:	8082                	ret
204000b8:	00052023          	sw	zero,0(a0)
204000bc:	0511                	addi	a0,a0,4
204000be:	15f1                	addi	a1,a1,-4
204000c0:	fcb04ee3          	bgtz	a1,2040009c <metal_mem_scrub+0xa>
204000c4:	30031073          	csrw	mstatus,t1
204000c8:	8082                	ret

204000ca <__metal_memory_scrub>:
__metal_memory_scrub():
204000ca:	00032023          	sw	zero,0(t1)
204000ce:	0311                	addi	t1,t1,4
204000d0:	fe734de3          	blt	t1,t2,204000ca <__metal_memory_scrub>
204000d4:	8082                	ret

204000d6 <__metal_before_start>:
__metal_before_start():
204000d6:	8406                	mv	s0,ra
204000d8:	dfc00297          	auipc	t0,0xdfc00
204000dc:	f2828293          	addi	t0,t0,-216 # 0 <__metal_boot_hart>
204000e0:	04028c63          	beqz	t0,20400138 <skip_scrub>
204000e4:	dfc00297          	auipc	t0,0xdfc00
204000e8:	f1c28293          	addi	t0,t0,-228 # 0 <__metal_boot_hart>
204000ec:	f14027f3          	csrr	a5,mhartid
204000f0:	46a1                	li	a3,8
204000f2:	3006b073          	csrc	mstatus,a3
204000f6:	830a                	mv	t1,sp
204000f8:	dfc00397          	auipc	t2,0xdfc00
204000fc:	30838393          	addi	t2,t2,776 # 400 <__stack_size>
20400100:	938a                	add	t2,t2,sp
20400102:	00730363          	beq	t1,t2,20400108 <__metal_before_start+0x32>
20400106:	37d1                	jal	204000ca <__metal_memory_scrub>
20400108:	02579863          	bne	a5,t0,20400138 <skip_scrub>
2040010c:	5fc00317          	auipc	t1,0x5fc00
20400110:	ef430313          	addi	t1,t1,-268 # 80000000 <metal_segment_itim_target_end>
20400114:	5fc01397          	auipc	t2,0x5fc01
20400118:	9ac38393          	addi	t2,t2,-1620 # 80000ac0 <__tls_base>
2040011c:	00730363          	beq	t1,t2,20400122 <__metal_before_start+0x4c>
20400120:	376d                	jal	204000ca <__metal_memory_scrub>
20400122:	5fc00317          	auipc	t1,0x5fc00
20400126:	ede30313          	addi	t1,t1,-290 # 80000000 <metal_segment_itim_target_end>
2040012a:	5fc00397          	auipc	t2,0x5fc00
2040012e:	ed638393          	addi	t2,t2,-298 # 80000000 <metal_segment_itim_target_end>
20400132:	00730363          	beq	t1,t2,20400138 <skip_scrub>
20400136:	3f51                	jal	204000ca <__metal_memory_scrub>

20400138 <skip_scrub>:
skip_scrub():
20400138:	80a2                	mv	ra,s0
2040013a:	8082                	ret

2040013c <early_trap_vector>:
early_trap_vector():
2040013c:	342022f3          	csrr	t0,mcause
20400140:	34102373          	csrr	t1,mepc
20400144:	343023f3          	csrr	t2,mtval
20400148:	bfd5                	j	2040013c <early_trap_vector>

2040014a <__metal_synchronize_harts>:
__metal_synchronize_harts():
2040014a:	8082                	ret

2040014c <_start>:
_start():
2040014c:	8406                	mv	s0,ra
2040014e:	5fc01197          	auipc	gp,0x5fc01
20400152:	12218193          	addi	gp,gp,290 # 80001270 <__global_pointer$>
20400156:	00000293          	li	t0,0
2040015a:	0e551163          	bne	a0,t0,2040023c <_skip_init>
2040015e:	00004297          	auipc	t0,0x4
20400162:	cba28293          	addi	t0,t0,-838 # 20403e18 <metal_segment_data_source_start>
20400166:	5fc00317          	auipc	t1,0x5fc00
2040016a:	e9a30313          	addi	t1,t1,-358 # 80000000 <metal_segment_itim_target_end>
2040016e:	5fc01397          	auipc	t2,0x5fc01
20400172:	95238393          	addi	t2,t2,-1710 # 80000ac0 <__tls_base>
20400176:	00628c63          	beq	t0,t1,2040018e <_start+0x42>
2040017a:	00735a63          	bge	t1,t2,2040018e <_start+0x42>
2040017e:	0002a503          	lw	a0,0(t0)
20400182:	0291                	addi	t0,t0,4
20400184:	00a32023          	sw	a0,0(t1)
20400188:	0311                	addi	t1,t1,4
2040018a:	fe734ae3          	blt	t1,t2,2040017e <_start+0x32>
2040018e:	00001297          	auipc	t0,0x1
20400192:	cca28293          	addi	t0,t0,-822 # 20400e58 <metal_segment_itim_source_start>
20400196:	5fc00317          	auipc	t1,0x5fc00
2040019a:	e6a30313          	addi	t1,t1,-406 # 80000000 <metal_segment_itim_target_end>
2040019e:	5fc00397          	auipc	t2,0x5fc00
204001a2:	e6238393          	addi	t2,t2,-414 # 80000000 <metal_segment_itim_target_end>
204001a6:	00628c63          	beq	t0,t1,204001be <_start+0x72>
204001aa:	00735a63          	bge	t1,t2,204001be <_start+0x72>
204001ae:	0002a503          	lw	a0,0(t0)
204001b2:	0291                	addi	t0,t0,4
204001b4:	00a32023          	sw	a0,0(t1)
204001b8:	0311                	addi	t1,t1,4
204001ba:	fe734ae3          	blt	t1,t2,204001ae <_start+0x62>
204001be:	0000100f          	fence.i
204001c2:	00001297          	auipc	t0,0x1
204001c6:	c9628293          	addi	t0,t0,-874 # 20400e58 <metal_segment_itim_source_start>
204001ca:	5fc00317          	auipc	t1,0x5fc00
204001ce:	e3630313          	addi	t1,t1,-458 # 80000000 <metal_segment_itim_target_end>
204001d2:	5fc00397          	auipc	t2,0x5fc00
204001d6:	e2e38393          	addi	t2,t2,-466 # 80000000 <metal_segment_itim_target_end>
204001da:	00628c63          	beq	t0,t1,204001f2 <_start+0xa6>
204001de:	00735a63          	bge	t1,t2,204001f2 <_start+0xa6>
204001e2:	0002a503          	lw	a0,0(t0)
204001e6:	0291                	addi	t0,t0,4
204001e8:	00a32023          	sw	a0,0(t1)
204001ec:	0311                	addi	t1,t1,4
204001ee:	fe734ae3          	blt	t1,t2,204001e2 <_start+0x96>
204001f2:	0000100f          	fence.i
204001f6:	5fc01317          	auipc	t1,0x5fc01
204001fa:	8ca30313          	addi	t1,t1,-1846 # 80000ac0 <__tls_base>
204001fe:	8f418393          	addi	t2,gp,-1804 # 80000b64 <metal_segment_bss_target_end>
20400202:	00735763          	bge	t1,t2,20400210 <_start+0xc4>
20400206:	00032023          	sw	zero,0(t1)
2040020a:	0311                	addi	t1,t1,4
2040020c:	fe734de3          	blt	t1,t2,20400206 <_start+0xba>
20400210:	5fc01217          	auipc	tp,0x5fc01
20400214:	8b020213          	addi	tp,tp,-1872 # 80000ac0 <__tls_base>
20400218:	c211                	beqz	a2,2040021c <_start+0xd0>
2040021a:	9602                	jalr	a2
2040021c:	00002517          	auipc	a0,0x2
20400220:	88a50513          	addi	a0,a0,-1910 # 20401aa6 <__libc_fini_array>
20400224:	041010ef          	jal	ra,20401a64 <atexit>
20400228:	0b7010ef          	jal	ra,20401ade <__libc_init_array>
2040022c:	00002517          	auipc	a0,0x2
20400230:	afe50513          	addi	a0,a0,-1282 # 20401d2a <metal_fini_run>
20400234:	031010ef          	jal	ra,20401a64 <atexit>
20400238:	2f1010ef          	jal	ra,20401d28 <metal_init_run>

2040023c <_skip_init>:
_skip_init():
2040023c:	3739                	jal	2040014a <__metal_synchronize_harts>
2040023e:	56fd                	li	a3,-1
20400240:	3046b073          	csrc	mie,a3
20400244:	3446b073          	csrc	mip,a3
20400248:	301027f3          	csrr	a5,misa
2040024c:	00042737          	lui	a4,0x42
20400250:	8f7d                	and	a4,a4,a5
20400252:	c709                	beqz	a4,2040025c <_skip_init+0x20>
20400254:	3036b073          	csrc	mideleg,a3
20400258:	3026b073          	csrc	medeleg,a3
2040025c:	00040737          	lui	a4,0x40
20400260:	8f7d                	and	a4,a4,a5
20400262:	c319                	beqz	a4,20400268 <_skip_init+0x2c>
20400264:	1806b073          	csrc	satp,a3
20400268:	00010737          	lui	a4,0x10
2040026c:	02870713          	addi	a4,a4,40 # 10028 <__heap_size+0xf828>
20400270:	8ff9                	and	a5,a5,a4
20400272:	cb89                	beqz	a5,20400284 <_skip_init+0x48>
20400274:	300027f3          	csrr	a5,mstatus
20400278:	6709                	lui	a4,0x2
2040027a:	8fd9                	or	a5,a5,a4
2040027c:	30079073          	csrw	mstatus,a5
20400280:	00305073          	csrwi	fcsr,0
20400284:	301027f3          	csrr	a5,misa
20400288:	00200737          	lui	a4,0x200
2040028c:	8ff9                	and	a5,a5,a4
2040028e:	c799                	beqz	a5,2040029c <_skip_init+0x60>
20400290:	300027f3          	csrr	a5,mstatus
20400294:	2007e793          	ori	a5,a5,512
20400298:	30079073          	csrw	mstatus,a5
2040029c:	4505                	li	a0,1
2040029e:	00000597          	auipc	a1,0x0
204002a2:	0f258593          	addi	a1,a1,242 # 20400390 <argv>
204002a6:	00000617          	auipc	a2,0x0
204002aa:	0ee60613          	addi	a2,a2,238 # 20400394 <envp>
204002ae:	2031                	jal	204002ba <secondary_main>
204002b0:	7ca010ef          	jal	ra,20401a7a <exit>
204002b4:	80a2                	mv	ra,s0
204002b6:	8082                	ret

204002b8 <_fini>:
_init():
204002b8:	8082                	ret

204002ba <secondary_main>:
secondary_main():
204002ba:	1141                	addi	sp,sp,-16
204002bc:	c206                	sw	ra,4(sp)
204002be:	f14022f3          	csrr	t0,mhartid
204002c2:	00000313          	li	t1,0
204002c6:	00628563          	beq	t0,t1,204002d0 <secondary_main+0x16>
204002ca:	10500073          	wfi
204002ce:	bff5                	j	204002ca <secondary_main+0x10>
204002d0:	3b1000ef          	jal	ra,20400e80 <main>
204002d4:	4092                	lw	ra,4(sp)
204002d6:	0141                	addi	sp,sp,16
204002d8:	8082                	ret

Déassemblage de la section .ctors :

204002ec <metal_tty_init>:
metal_tty_init():
204002ec:	65f1                	lui	a1,0x1c
204002ee:	80001537          	lui	a0,0x80001
204002f2:	20058593          	addi	a1,a1,512 # 1c200 <__heap_size+0x1ba00>
204002f6:	a5050513          	addi	a0,a0,-1456 # 80000a50 <metal_segment_heap_target_end+0xfffff2e0>
204002fa:	23f0106f          	j	20401d38 <metal_uart_init>

204002fe <metal_sifive_fe310_g000_pll_init>:
metal_sifive_fe310_g000_pll_init():
204002fe:	80000537          	lui	a0,0x80000
20400302:	09050513          	addi	a0,a0,144 # 80000090 <metal_segment_heap_target_end+0xffffe920>
20400306:	08a0306f          	j	20403390 <__metal_driver_sifive_fe310_g000_pll_init>

2040030a <use_hfxosc>:
use_hfxosc():
2040030a:	00f425b7          	lui	a1,0xf42
2040030e:	80000537          	lui	a0,0x80000
20400312:	40058593          	addi	a1,a1,1024 # f42400 <__heap_size+0xf41c00>
20400316:	09050513          	addi	a0,a0,144 # 80000090 <metal_segment_heap_target_end+0xffffe920>
2040031a:	1310306f          	j	20403c4a <metal_clock_set_rate_hz>

Déassemblage de la section .text :

20400e80 <main>:
main():
20400e80:	20400537          	lui	a0,0x20400
20400e84:	1141                	addi	sp,sp,-16
20400e86:	32050513          	addi	a0,a0,800 # 20400320 <use_hfxosc+0x16>
20400e8a:	c606                	sw	ra,12(sp)
20400e8c:	20d5                	jal	20400f70 <puts>
20400e8e:	40b2                	lw	ra,12(sp)
20400e90:	4501                	li	a0,0
20400e92:	0141                	addi	sp,sp,16
20400e94:	8082                	ret

20400e96 <_puts_r>:
_puts_r():
20400e96:	1101                	addi	sp,sp,-32
20400e98:	ca26                	sw	s1,20(sp)
20400e9a:	c84a                	sw	s2,16(sp)
20400e9c:	ce06                	sw	ra,28(sp)
20400e9e:	cc22                	sw	s0,24(sp)
20400ea0:	c64e                	sw	s3,12(sp)
20400ea2:	c452                	sw	s4,8(sp)
20400ea4:	84aa                	mv	s1,a0
20400ea6:	892e                	mv	s2,a1
20400ea8:	c501                	beqz	a0,20400eb0 <_puts_r+0x1a>
20400eaa:	4d1c                	lw	a5,24(a0)
20400eac:	e391                	bnez	a5,20400eb0 <_puts_r+0x1a>
20400eae:	2311                	jal	204013b2 <__sinit>
20400eb0:	4c9c                	lw	a5,24(s1)
20400eb2:	4480                	lw	s0,8(s1)
20400eb4:	e399                	bnez	a5,20400eba <_puts_r+0x24>
20400eb6:	8526                	mv	a0,s1
20400eb8:	29ed                	jal	204013b2 <__sinit>
20400eba:	fffff797          	auipc	a5,0xfffff
20400ebe:	49678793          	addi	a5,a5,1174 # 20400350 <__sf_fake_stdin>
20400ec2:	02f41c63          	bne	s0,a5,20400efa <_puts_r+0x64>
20400ec6:	40c0                	lw	s0,4(s1)
20400ec8:	00c45783          	lhu	a5,12(s0)
20400ecc:	8ba1                	andi	a5,a5,8
20400ece:	c7b1                	beqz	a5,20400f1a <_puts_r+0x84>
20400ed0:	481c                	lw	a5,16(s0)
20400ed2:	c7a1                	beqz	a5,20400f1a <_puts_r+0x84>
20400ed4:	59fd                	li	s3,-1
20400ed6:	4a29                	li	s4,10
20400ed8:	441c                	lw	a5,8(s0)
20400eda:	00094583          	lbu	a1,0(s2)
20400ede:	17fd                	addi	a5,a5,-1
20400ee0:	e9b1                	bnez	a1,20400f34 <_puts_r+0x9e>
20400ee2:	c41c                	sw	a5,8(s0)
20400ee4:	0607de63          	bgez	a5,20400f60 <_puts_r+0xca>
20400ee8:	8622                	mv	a2,s0
20400eea:	45a9                	li	a1,10
20400eec:	8526                	mv	a0,s1
20400eee:	2841                	jal	20400f7e <__swbuf_r>
20400ef0:	57fd                	li	a5,-1
20400ef2:	02f50863          	beq	a0,a5,20400f22 <_puts_r+0x8c>
20400ef6:	4529                	li	a0,10
20400ef8:	a035                	j	20400f24 <_puts_r+0x8e>
20400efa:	fffff797          	auipc	a5,0xfffff
20400efe:	47678793          	addi	a5,a5,1142 # 20400370 <__sf_fake_stdout>
20400f02:	00f41463          	bne	s0,a5,20400f0a <_puts_r+0x74>
20400f06:	4480                	lw	s0,8(s1)
20400f08:	b7c1                	j	20400ec8 <_puts_r+0x32>
20400f0a:	fffff797          	auipc	a5,0xfffff
20400f0e:	42678793          	addi	a5,a5,1062 # 20400330 <__sf_fake_stderr>
20400f12:	faf41be3          	bne	s0,a5,20400ec8 <_puts_r+0x32>
20400f16:	44c0                	lw	s0,12(s1)
20400f18:	bf45                	j	20400ec8 <_puts_r+0x32>
20400f1a:	85a2                	mv	a1,s0
20400f1c:	8526                	mv	a0,s1
20400f1e:	2205                	jal	2040103e <__swsetup_r>
20400f20:	d955                	beqz	a0,20400ed4 <_puts_r+0x3e>
20400f22:	557d                	li	a0,-1
20400f24:	40f2                	lw	ra,28(sp)
20400f26:	4462                	lw	s0,24(sp)
20400f28:	44d2                	lw	s1,20(sp)
20400f2a:	4942                	lw	s2,16(sp)
20400f2c:	49b2                	lw	s3,12(sp)
20400f2e:	4a22                	lw	s4,8(sp)
20400f30:	6105                	addi	sp,sp,32
20400f32:	8082                	ret
20400f34:	c41c                	sw	a5,8(s0)
20400f36:	0905                	addi	s2,s2,1
20400f38:	0007d763          	bgez	a5,20400f46 <_puts_r+0xb0>
20400f3c:	4c18                	lw	a4,24(s0)
20400f3e:	00e7cb63          	blt	a5,a4,20400f54 <_puts_r+0xbe>
20400f42:	01458963          	beq	a1,s4,20400f54 <_puts_r+0xbe>
20400f46:	401c                	lw	a5,0(s0)
20400f48:	00178713          	addi	a4,a5,1
20400f4c:	c018                	sw	a4,0(s0)
20400f4e:	00b78023          	sb	a1,0(a5)
20400f52:	b759                	j	20400ed8 <_puts_r+0x42>
20400f54:	8622                	mv	a2,s0
20400f56:	8526                	mv	a0,s1
20400f58:	201d                	jal	20400f7e <__swbuf_r>
20400f5a:	f7351fe3          	bne	a0,s3,20400ed8 <_puts_r+0x42>
20400f5e:	b7d1                	j	20400f22 <_puts_r+0x8c>
20400f60:	401c                	lw	a5,0(s0)
20400f62:	00178713          	addi	a4,a5,1
20400f66:	c018                	sw	a4,0(s0)
20400f68:	4729                	li	a4,10
20400f6a:	00e78023          	sb	a4,0(a5)
20400f6e:	b761                	j	20400ef6 <_puts_r+0x60>

20400f70 <puts>:
puts():
20400f70:	5fc00797          	auipc	a5,0x5fc00
20400f74:	b0078793          	addi	a5,a5,-1280 # 80000a70 <_impure_ptr>
20400f78:	85aa                	mv	a1,a0
20400f7a:	4388                	lw	a0,0(a5)
20400f7c:	bf29                	j	20400e96 <_puts_r>

20400f7e <__swbuf_r>:
__swbuf_r():
20400f7e:	1101                	addi	sp,sp,-32
20400f80:	cc22                	sw	s0,24(sp)
20400f82:	ca26                	sw	s1,20(sp)
20400f84:	c84a                	sw	s2,16(sp)
20400f86:	ce06                	sw	ra,28(sp)
20400f88:	c64e                	sw	s3,12(sp)
20400f8a:	84aa                	mv	s1,a0
20400f8c:	892e                	mv	s2,a1
20400f8e:	8432                	mv	s0,a2
20400f90:	c501                	beqz	a0,20400f98 <__swbuf_r+0x1a>
20400f92:	4d1c                	lw	a5,24(a0)
20400f94:	e391                	bnez	a5,20400f98 <__swbuf_r+0x1a>
20400f96:	2931                	jal	204013b2 <__sinit>
20400f98:	fffff797          	auipc	a5,0xfffff
20400f9c:	3b878793          	addi	a5,a5,952 # 20400350 <__sf_fake_stdin>
20400fa0:	06f41963          	bne	s0,a5,20401012 <__swbuf_r+0x94>
20400fa4:	40c0                	lw	s0,4(s1)
20400fa6:	4c1c                	lw	a5,24(s0)
20400fa8:	c41c                	sw	a5,8(s0)
20400faa:	00c45783          	lhu	a5,12(s0)
20400fae:	8ba1                	andi	a5,a5,8
20400fb0:	c3c9                	beqz	a5,20401032 <__swbuf_r+0xb4>
20400fb2:	481c                	lw	a5,16(s0)
20400fb4:	cfbd                	beqz	a5,20401032 <__swbuf_r+0xb4>
20400fb6:	481c                	lw	a5,16(s0)
20400fb8:	4008                	lw	a0,0(s0)
20400fba:	0ff97993          	andi	s3,s2,255
20400fbe:	0ff97913          	andi	s2,s2,255
20400fc2:	8d1d                	sub	a0,a0,a5
20400fc4:	485c                	lw	a5,20(s0)
20400fc6:	00f54663          	blt	a0,a5,20400fd2 <__swbuf_r+0x54>
20400fca:	85a2                	mv	a1,s0
20400fcc:	8526                	mv	a0,s1
20400fce:	24e9                	jal	20401298 <_fflush_r>
20400fd0:	e52d                	bnez	a0,2040103a <__swbuf_r+0xbc>
20400fd2:	441c                	lw	a5,8(s0)
20400fd4:	0505                	addi	a0,a0,1
20400fd6:	17fd                	addi	a5,a5,-1
20400fd8:	c41c                	sw	a5,8(s0)
20400fda:	401c                	lw	a5,0(s0)
20400fdc:	00178713          	addi	a4,a5,1
20400fe0:	c018                	sw	a4,0(s0)
20400fe2:	01378023          	sb	s3,0(a5)
20400fe6:	485c                	lw	a5,20(s0)
20400fe8:	00a78963          	beq	a5,a0,20400ffa <__swbuf_r+0x7c>
20400fec:	00c45783          	lhu	a5,12(s0)
20400ff0:	8b85                	andi	a5,a5,1
20400ff2:	cb81                	beqz	a5,20401002 <__swbuf_r+0x84>
20400ff4:	47a9                	li	a5,10
20400ff6:	00f91663          	bne	s2,a5,20401002 <__swbuf_r+0x84>
20400ffa:	85a2                	mv	a1,s0
20400ffc:	8526                	mv	a0,s1
20400ffe:	2c69                	jal	20401298 <_fflush_r>
20401000:	ed0d                	bnez	a0,2040103a <__swbuf_r+0xbc>
20401002:	40f2                	lw	ra,28(sp)
20401004:	4462                	lw	s0,24(sp)
20401006:	854a                	mv	a0,s2
20401008:	44d2                	lw	s1,20(sp)
2040100a:	4942                	lw	s2,16(sp)
2040100c:	49b2                	lw	s3,12(sp)
2040100e:	6105                	addi	sp,sp,32
20401010:	8082                	ret
20401012:	fffff797          	auipc	a5,0xfffff
20401016:	35e78793          	addi	a5,a5,862 # 20400370 <__sf_fake_stdout>
2040101a:	00f41463          	bne	s0,a5,20401022 <__swbuf_r+0xa4>
2040101e:	4480                	lw	s0,8(s1)
20401020:	b759                	j	20400fa6 <__swbuf_r+0x28>
20401022:	fffff797          	auipc	a5,0xfffff
20401026:	30e78793          	addi	a5,a5,782 # 20400330 <__sf_fake_stderr>
2040102a:	f6f41ee3          	bne	s0,a5,20400fa6 <__swbuf_r+0x28>
2040102e:	44c0                	lw	s0,12(s1)
20401030:	bf9d                	j	20400fa6 <__swbuf_r+0x28>
20401032:	85a2                	mv	a1,s0
20401034:	8526                	mv	a0,s1
20401036:	2021                	jal	2040103e <__swsetup_r>
20401038:	dd3d                	beqz	a0,20400fb6 <__swbuf_r+0x38>
2040103a:	597d                	li	s2,-1
2040103c:	b7d9                	j	20401002 <__swbuf_r+0x84>

2040103e <__swsetup_r>:
__swsetup_r():
2040103e:	1141                	addi	sp,sp,-16
20401040:	5fc00797          	auipc	a5,0x5fc00
20401044:	a3078793          	addi	a5,a5,-1488 # 80000a70 <_impure_ptr>
20401048:	c226                	sw	s1,4(sp)
2040104a:	4384                	lw	s1,0(a5)
2040104c:	c422                	sw	s0,8(sp)
2040104e:	c04a                	sw	s2,0(sp)
20401050:	c606                	sw	ra,12(sp)
20401052:	892a                	mv	s2,a0
20401054:	842e                	mv	s0,a1
20401056:	c489                	beqz	s1,20401060 <__swsetup_r+0x22>
20401058:	4c9c                	lw	a5,24(s1)
2040105a:	e399                	bnez	a5,20401060 <__swsetup_r+0x22>
2040105c:	8526                	mv	a0,s1
2040105e:	2e91                	jal	204013b2 <__sinit>
20401060:	fffff797          	auipc	a5,0xfffff
20401064:	2f078793          	addi	a5,a5,752 # 20400350 <__sf_fake_stdin>
20401068:	02f41c63          	bne	s0,a5,204010a0 <__swsetup_r+0x62>
2040106c:	40c0                	lw	s0,4(s1)
2040106e:	00c41703          	lh	a4,12(s0)
20401072:	01071793          	slli	a5,a4,0x10
20401076:	83c1                	srli	a5,a5,0x10
20401078:	0087f693          	andi	a3,a5,8
2040107c:	eeb5                	bnez	a3,204010f8 <__swsetup_r+0xba>
2040107e:	0107f693          	andi	a3,a5,16
20401082:	ee9d                	bnez	a3,204010c0 <__swsetup_r+0x82>
20401084:	47a5                	li	a5,9
20401086:	00f92023          	sw	a5,0(s2)
2040108a:	04076713          	ori	a4,a4,64
2040108e:	00e41623          	sh	a4,12(s0)
20401092:	557d                	li	a0,-1
20401094:	40b2                	lw	ra,12(sp)
20401096:	4422                	lw	s0,8(sp)
20401098:	4492                	lw	s1,4(sp)
2040109a:	4902                	lw	s2,0(sp)
2040109c:	0141                	addi	sp,sp,16
2040109e:	8082                	ret
204010a0:	fffff797          	auipc	a5,0xfffff
204010a4:	2d078793          	addi	a5,a5,720 # 20400370 <__sf_fake_stdout>
204010a8:	00f41463          	bne	s0,a5,204010b0 <__swsetup_r+0x72>
204010ac:	4480                	lw	s0,8(s1)
204010ae:	b7c1                	j	2040106e <__swsetup_r+0x30>
204010b0:	fffff797          	auipc	a5,0xfffff
204010b4:	28078793          	addi	a5,a5,640 # 20400330 <__sf_fake_stderr>
204010b8:	faf41be3          	bne	s0,a5,2040106e <__swsetup_r+0x30>
204010bc:	44c0                	lw	s0,12(s1)
204010be:	bf45                	j	2040106e <__swsetup_r+0x30>
204010c0:	8b91                	andi	a5,a5,4
204010c2:	c78d                	beqz	a5,204010ec <__swsetup_r+0xae>
204010c4:	584c                	lw	a1,52(s0)
204010c6:	c989                	beqz	a1,204010d8 <__swsetup_r+0x9a>
204010c8:	04440793          	addi	a5,s0,68
204010cc:	00f58463          	beq	a1,a5,204010d4 <__swsetup_r+0x96>
204010d0:	854a                	mv	a0,s2
204010d2:	2ba1                	jal	2040162a <_free_r>
204010d4:	02042a23          	sw	zero,52(s0)
204010d8:	00c45783          	lhu	a5,12(s0)
204010dc:	00042223          	sw	zero,4(s0)
204010e0:	fdb7f793          	andi	a5,a5,-37
204010e4:	00f41623          	sh	a5,12(s0)
204010e8:	481c                	lw	a5,16(s0)
204010ea:	c01c                	sw	a5,0(s0)
204010ec:	00c45783          	lhu	a5,12(s0)
204010f0:	0087e793          	ori	a5,a5,8
204010f4:	00f41623          	sh	a5,12(s0)
204010f8:	481c                	lw	a5,16(s0)
204010fa:	ef81                	bnez	a5,20401112 <__swsetup_r+0xd4>
204010fc:	00c45783          	lhu	a5,12(s0)
20401100:	20000713          	li	a4,512
20401104:	2807f793          	andi	a5,a5,640
20401108:	00e78563          	beq	a5,a4,20401112 <__swsetup_r+0xd4>
2040110c:	85a2                	mv	a1,s0
2040110e:	854a                	mv	a0,s2
20401110:	21bd                	jal	2040157e <__smakebuf_r>
20401112:	00c45783          	lhu	a5,12(s0)
20401116:	0017f713          	andi	a4,a5,1
2040111a:	c705                	beqz	a4,20401142 <__swsetup_r+0x104>
2040111c:	485c                	lw	a5,20(s0)
2040111e:	00042423          	sw	zero,8(s0)
20401122:	40f007b3          	neg	a5,a5
20401126:	cc1c                	sw	a5,24(s0)
20401128:	481c                	lw	a5,16(s0)
2040112a:	4501                	li	a0,0
2040112c:	f7a5                	bnez	a5,20401094 <__swsetup_r+0x56>
2040112e:	00c41783          	lh	a5,12(s0)
20401132:	0807f713          	andi	a4,a5,128
20401136:	df39                	beqz	a4,20401094 <__swsetup_r+0x56>
20401138:	0407e793          	ori	a5,a5,64
2040113c:	00f41623          	sh	a5,12(s0)
20401140:	bf89                	j	20401092 <__swsetup_r+0x54>
20401142:	8b89                	andi	a5,a5,2
20401144:	4701                	li	a4,0
20401146:	e391                	bnez	a5,2040114a <__swsetup_r+0x10c>
20401148:	4858                	lw	a4,20(s0)
2040114a:	c418                	sw	a4,8(s0)
2040114c:	bff1                	j	20401128 <__swsetup_r+0xea>

2040114e <__sflush_r>:
__sflush_r():
2040114e:	00c5d783          	lhu	a5,12(a1)
20401152:	1101                	addi	sp,sp,-32
20401154:	cc22                	sw	s0,24(sp)
20401156:	ca26                	sw	s1,20(sp)
20401158:	ce06                	sw	ra,28(sp)
2040115a:	c84a                	sw	s2,16(sp)
2040115c:	c64e                	sw	s3,12(sp)
2040115e:	0087f713          	andi	a4,a5,8
20401162:	84aa                	mv	s1,a0
20401164:	842e                	mv	s0,a1
20401166:	e765                	bnez	a4,2040124e <__sflush_r+0x100>
20401168:	41d8                	lw	a4,4(a1)
2040116a:	00e04763          	bgtz	a4,20401178 <__sflush_r+0x2a>
2040116e:	41b8                	lw	a4,64(a1)
20401170:	00e04463          	bgtz	a4,20401178 <__sflush_r+0x2a>
20401174:	4501                	li	a0,0
20401176:	a0c1                	j	20401236 <__sflush_r+0xe8>
20401178:	5458                	lw	a4,44(s0)
2040117a:	df6d                	beqz	a4,20401174 <__sflush_r+0x26>
2040117c:	0004a903          	lw	s2,0(s1)
20401180:	01379693          	slli	a3,a5,0x13
20401184:	0004a023          	sw	zero,0(s1)
20401188:	0606de63          	bgez	a3,20401204 <__sflush_r+0xb6>
2040118c:	4868                	lw	a0,84(s0)
2040118e:	00c45783          	lhu	a5,12(s0)
20401192:	8b91                	andi	a5,a5,4
20401194:	c799                	beqz	a5,204011a2 <__sflush_r+0x54>
20401196:	405c                	lw	a5,4(s0)
20401198:	8d1d                	sub	a0,a0,a5
2040119a:	585c                	lw	a5,52(s0)
2040119c:	c399                	beqz	a5,204011a2 <__sflush_r+0x54>
2040119e:	403c                	lw	a5,64(s0)
204011a0:	8d1d                	sub	a0,a0,a5
204011a2:	545c                	lw	a5,44(s0)
204011a4:	500c                	lw	a1,32(s0)
204011a6:	862a                	mv	a2,a0
204011a8:	4681                	li	a3,0
204011aa:	8526                	mv	a0,s1
204011ac:	9782                	jalr	a5
204011ae:	57fd                	li	a5,-1
204011b0:	00c45703          	lhu	a4,12(s0)
204011b4:	00f51d63          	bne	a0,a5,204011ce <__sflush_r+0x80>
204011b8:	4094                	lw	a3,0(s1)
204011ba:	47f5                	li	a5,29
204011bc:	08d7e463          	bltu	a5,a3,20401244 <__sflush_r+0xf6>
204011c0:	204007b7          	lui	a5,0x20400
204011c4:	0785                	addi	a5,a5,1
204011c6:	00d7d7b3          	srl	a5,a5,a3
204011ca:	8b85                	andi	a5,a5,1
204011cc:	cfa5                	beqz	a5,20401244 <__sflush_r+0xf6>
204011ce:	481c                	lw	a5,16(s0)
204011d0:	00042223          	sw	zero,4(s0)
204011d4:	c01c                	sw	a5,0(s0)
204011d6:	01371793          	slli	a5,a4,0x13
204011da:	0007d863          	bgez	a5,204011ea <__sflush_r+0x9c>
204011de:	57fd                	li	a5,-1
204011e0:	00f51463          	bne	a0,a5,204011e8 <__sflush_r+0x9a>
204011e4:	409c                	lw	a5,0(s1)
204011e6:	e391                	bnez	a5,204011ea <__sflush_r+0x9c>
204011e8:	c868                	sw	a0,84(s0)
204011ea:	584c                	lw	a1,52(s0)
204011ec:	0124a023          	sw	s2,0(s1)
204011f0:	d1d1                	beqz	a1,20401174 <__sflush_r+0x26>
204011f2:	04440793          	addi	a5,s0,68
204011f6:	00f58463          	beq	a1,a5,204011fe <__sflush_r+0xb0>
204011fa:	8526                	mv	a0,s1
204011fc:	213d                	jal	2040162a <_free_r>
204011fe:	02042a23          	sw	zero,52(s0)
20401202:	bf8d                	j	20401174 <__sflush_r+0x26>
20401204:	500c                	lw	a1,32(s0)
20401206:	4685                	li	a3,1
20401208:	4601                	li	a2,0
2040120a:	8526                	mv	a0,s1
2040120c:	9702                	jalr	a4
2040120e:	57fd                	li	a5,-1
20401210:	f6f51fe3          	bne	a0,a5,2040118e <__sflush_r+0x40>
20401214:	409c                	lw	a5,0(s1)
20401216:	dfa5                	beqz	a5,2040118e <__sflush_r+0x40>
20401218:	4775                	li	a4,29
2040121a:	00e78563          	beq	a5,a4,20401224 <__sflush_r+0xd6>
2040121e:	4759                	li	a4,22
20401220:	00e79563          	bne	a5,a4,2040122a <__sflush_r+0xdc>
20401224:	0124a023          	sw	s2,0(s1)
20401228:	b7b1                	j	20401174 <__sflush_r+0x26>
2040122a:	00c45783          	lhu	a5,12(s0)
2040122e:	0407e793          	ori	a5,a5,64
20401232:	00f41623          	sh	a5,12(s0)
20401236:	40f2                	lw	ra,28(sp)
20401238:	4462                	lw	s0,24(sp)
2040123a:	44d2                	lw	s1,20(sp)
2040123c:	4942                	lw	s2,16(sp)
2040123e:	49b2                	lw	s3,12(sp)
20401240:	6105                	addi	sp,sp,32
20401242:	8082                	ret
20401244:	04076713          	ori	a4,a4,64
20401248:	00e41623          	sh	a4,12(s0)
2040124c:	b7ed                	j	20401236 <__sflush_r+0xe8>
2040124e:	0105a983          	lw	s3,16(a1)
20401252:	f20981e3          	beqz	s3,20401174 <__sflush_r+0x26>
20401256:	0005a903          	lw	s2,0(a1)
2040125a:	8b8d                	andi	a5,a5,3
2040125c:	0135a023          	sw	s3,0(a1)
20401260:	41390933          	sub	s2,s2,s3
20401264:	4701                	li	a4,0
20401266:	e391                	bnez	a5,2040126a <__sflush_r+0x11c>
20401268:	49d8                	lw	a4,20(a1)
2040126a:	c418                	sw	a4,8(s0)
2040126c:	f12054e3          	blez	s2,20401174 <__sflush_r+0x26>
20401270:	541c                	lw	a5,40(s0)
20401272:	500c                	lw	a1,32(s0)
20401274:	86ca                	mv	a3,s2
20401276:	864e                	mv	a2,s3
20401278:	8526                	mv	a0,s1
2040127a:	9782                	jalr	a5
2040127c:	00a04a63          	bgtz	a0,20401290 <__sflush_r+0x142>
20401280:	00c45783          	lhu	a5,12(s0)
20401284:	557d                	li	a0,-1
20401286:	0407e793          	ori	a5,a5,64
2040128a:	00f41623          	sh	a5,12(s0)
2040128e:	b765                	j	20401236 <__sflush_r+0xe8>
20401290:	99aa                	add	s3,s3,a0
20401292:	40a90933          	sub	s2,s2,a0
20401296:	bfd9                	j	2040126c <__sflush_r+0x11e>

20401298 <_fflush_r>:
_fflush_r():
20401298:	499c                	lw	a5,16(a1)
2040129a:	cfb9                	beqz	a5,204012f8 <_fflush_r+0x60>
2040129c:	1101                	addi	sp,sp,-32
2040129e:	cc22                	sw	s0,24(sp)
204012a0:	ce06                	sw	ra,28(sp)
204012a2:	842a                	mv	s0,a0
204012a4:	c511                	beqz	a0,204012b0 <_fflush_r+0x18>
204012a6:	4d1c                	lw	a5,24(a0)
204012a8:	e781                	bnez	a5,204012b0 <_fflush_r+0x18>
204012aa:	c62e                	sw	a1,12(sp)
204012ac:	2219                	jal	204013b2 <__sinit>
204012ae:	45b2                	lw	a1,12(sp)
204012b0:	fffff797          	auipc	a5,0xfffff
204012b4:	0a078793          	addi	a5,a5,160 # 20400350 <__sf_fake_stdin>
204012b8:	00f59b63          	bne	a1,a5,204012ce <_fflush_r+0x36>
204012bc:	404c                	lw	a1,4(s0)
204012be:	00c59783          	lh	a5,12(a1)
204012c2:	c795                	beqz	a5,204012ee <_fflush_r+0x56>
204012c4:	8522                	mv	a0,s0
204012c6:	4462                	lw	s0,24(sp)
204012c8:	40f2                	lw	ra,28(sp)
204012ca:	6105                	addi	sp,sp,32
204012cc:	b549                	j	2040114e <__sflush_r>
204012ce:	fffff797          	auipc	a5,0xfffff
204012d2:	0a278793          	addi	a5,a5,162 # 20400370 <__sf_fake_stdout>
204012d6:	00f59463          	bne	a1,a5,204012de <_fflush_r+0x46>
204012da:	440c                	lw	a1,8(s0)
204012dc:	b7cd                	j	204012be <_fflush_r+0x26>
204012de:	fffff797          	auipc	a5,0xfffff
204012e2:	05278793          	addi	a5,a5,82 # 20400330 <__sf_fake_stderr>
204012e6:	fcf59ce3          	bne	a1,a5,204012be <_fflush_r+0x26>
204012ea:	444c                	lw	a1,12(s0)
204012ec:	bfc9                	j	204012be <_fflush_r+0x26>
204012ee:	40f2                	lw	ra,28(sp)
204012f0:	4462                	lw	s0,24(sp)
204012f2:	4501                	li	a0,0
204012f4:	6105                	addi	sp,sp,32
204012f6:	8082                	ret
204012f8:	4501                	li	a0,0
204012fa:	8082                	ret

204012fc <std>:
std():
204012fc:	1141                	addi	sp,sp,-16
204012fe:	c422                	sw	s0,8(sp)
20401300:	c606                	sw	ra,12(sp)
20401302:	842a                	mv	s0,a0
20401304:	00b51623          	sh	a1,12(a0)
20401308:	00c51723          	sh	a2,14(a0)
2040130c:	00052023          	sw	zero,0(a0)
20401310:	00052223          	sw	zero,4(a0)
20401314:	00052423          	sw	zero,8(a0)
20401318:	06052223          	sw	zero,100(a0)
2040131c:	00052823          	sw	zero,16(a0)
20401320:	00052a23          	sw	zero,20(a0)
20401324:	00052c23          	sw	zero,24(a0)
20401328:	4621                	li	a2,8
2040132a:	4581                	li	a1,0
2040132c:	05c50513          	addi	a0,a0,92
20401330:	24ed                	jal	2040161a <memset>
20401332:	00000797          	auipc	a5,0x0
20401336:	4aa78793          	addi	a5,a5,1194 # 204017dc <__sread>
2040133a:	d05c                	sw	a5,36(s0)
2040133c:	00000797          	auipc	a5,0x0
20401340:	4d078793          	addi	a5,a5,1232 # 2040180c <__swrite>
20401344:	d41c                	sw	a5,40(s0)
20401346:	00000797          	auipc	a5,0x0
2040134a:	51478793          	addi	a5,a5,1300 # 2040185a <__sseek>
2040134e:	d45c                	sw	a5,44(s0)
20401350:	00000797          	auipc	a5,0x0
20401354:	54078793          	addi	a5,a5,1344 # 20401890 <__sclose>
20401358:	d000                	sw	s0,32(s0)
2040135a:	d81c                	sw	a5,48(s0)
2040135c:	40b2                	lw	ra,12(sp)
2040135e:	4422                	lw	s0,8(sp)
20401360:	0141                	addi	sp,sp,16
20401362:	8082                	ret

20401364 <_cleanup_r>:
_cleanup_r():
20401364:	00000597          	auipc	a1,0x0
20401368:	f3458593          	addi	a1,a1,-204 # 20401298 <_fflush_r>
2040136c:	a2b9                	j	204014ba <_fwalk_reent>

2040136e <__sfmoreglue>:
__sfmoreglue():
2040136e:	1141                	addi	sp,sp,-16
20401370:	c226                	sw	s1,4(sp)
20401372:	06800613          	li	a2,104
20401376:	fff58493          	addi	s1,a1,-1
2040137a:	02c484b3          	mul	s1,s1,a2
2040137e:	c04a                	sw	s2,0(sp)
20401380:	892e                	mv	s2,a1
20401382:	c422                	sw	s0,8(sp)
20401384:	c606                	sw	ra,12(sp)
20401386:	07448593          	addi	a1,s1,116
2040138a:	26b1                	jal	204016d6 <_malloc_r>
2040138c:	842a                	mv	s0,a0
2040138e:	c919                	beqz	a0,204013a4 <__sfmoreglue+0x36>
20401390:	00052023          	sw	zero,0(a0)
20401394:	01252223          	sw	s2,4(a0)
20401398:	0531                	addi	a0,a0,12
2040139a:	c408                	sw	a0,8(s0)
2040139c:	06848613          	addi	a2,s1,104
204013a0:	4581                	li	a1,0
204013a2:	2ca5                	jal	2040161a <memset>
204013a4:	8522                	mv	a0,s0
204013a6:	40b2                	lw	ra,12(sp)
204013a8:	4422                	lw	s0,8(sp)
204013aa:	4492                	lw	s1,4(sp)
204013ac:	4902                	lw	s2,0(sp)
204013ae:	0141                	addi	sp,sp,16
204013b0:	8082                	ret

204013b2 <__sinit>:
__sinit():
204013b2:	4d1c                	lw	a5,24(a0)
204013b4:	e3bd                	bnez	a5,2040141a <__sinit+0x68>
204013b6:	1141                	addi	sp,sp,-16
204013b8:	c606                	sw	ra,12(sp)
204013ba:	c422                	sw	s0,8(sp)
204013bc:	00000797          	auipc	a5,0x0
204013c0:	fa878793          	addi	a5,a5,-88 # 20401364 <_cleanup_r>
204013c4:	d51c                	sw	a5,40(a0)
204013c6:	5fbff797          	auipc	a5,0x5fbff
204013ca:	6ae78793          	addi	a5,a5,1710 # 80000a74 <_global_impure_ptr>
204013ce:	439c                	lw	a5,0(a5)
204013d0:	04052423          	sw	zero,72(a0)
204013d4:	04052623          	sw	zero,76(a0)
204013d8:	04052823          	sw	zero,80(a0)
204013dc:	00f51463          	bne	a0,a5,204013e4 <__sinit+0x32>
204013e0:	4785                	li	a5,1
204013e2:	cd1c                	sw	a5,24(a0)
204013e4:	842a                	mv	s0,a0
204013e6:	281d                	jal	2040141c <__sfp>
204013e8:	c048                	sw	a0,4(s0)
204013ea:	8522                	mv	a0,s0
204013ec:	2805                	jal	2040141c <__sfp>
204013ee:	c408                	sw	a0,8(s0)
204013f0:	8522                	mv	a0,s0
204013f2:	202d                	jal	2040141c <__sfp>
204013f4:	c448                	sw	a0,12(s0)
204013f6:	4048                	lw	a0,4(s0)
204013f8:	4601                	li	a2,0
204013fa:	4591                	li	a1,4
204013fc:	3701                	jal	204012fc <std>
204013fe:	4408                	lw	a0,8(s0)
20401400:	4605                	li	a2,1
20401402:	45a5                	li	a1,9
20401404:	3de5                	jal	204012fc <std>
20401406:	4448                	lw	a0,12(s0)
20401408:	4609                	li	a2,2
2040140a:	45c9                	li	a1,18
2040140c:	3dc5                	jal	204012fc <std>
2040140e:	4785                	li	a5,1
20401410:	cc1c                	sw	a5,24(s0)
20401412:	40b2                	lw	ra,12(sp)
20401414:	4422                	lw	s0,8(sp)
20401416:	0141                	addi	sp,sp,16
20401418:	8082                	ret
2040141a:	8082                	ret

2040141c <__sfp>:
__sfp():
2040141c:	1141                	addi	sp,sp,-16
2040141e:	5fbff797          	auipc	a5,0x5fbff
20401422:	65678793          	addi	a5,a5,1622 # 80000a74 <_global_impure_ptr>
20401426:	c226                	sw	s1,4(sp)
20401428:	4384                	lw	s1,0(a5)
2040142a:	c04a                	sw	s2,0(sp)
2040142c:	c606                	sw	ra,12(sp)
2040142e:	4c9c                	lw	a5,24(s1)
20401430:	c422                	sw	s0,8(sp)
20401432:	892a                	mv	s2,a0
20401434:	e399                	bnez	a5,2040143a <__sfp+0x1e>
20401436:	8526                	mv	a0,s1
20401438:	3fad                	jal	204013b2 <__sinit>
2040143a:	04848493          	addi	s1,s1,72
2040143e:	4480                	lw	s0,8(s1)
20401440:	40dc                	lw	a5,4(s1)
20401442:	17fd                	addi	a5,a5,-1
20401444:	0007d663          	bgez	a5,20401450 <__sfp+0x34>
20401448:	409c                	lw	a5,0(s1)
2040144a:	cfb1                	beqz	a5,204014a6 <__sfp+0x8a>
2040144c:	4084                	lw	s1,0(s1)
2040144e:	bfc5                	j	2040143e <__sfp+0x22>
20401450:	00c41703          	lh	a4,12(s0)
20401454:	e731                	bnez	a4,204014a0 <__sfp+0x84>
20401456:	77c1                	lui	a5,0xffff0
20401458:	0785                	addi	a5,a5,1
2040145a:	06042223          	sw	zero,100(s0)
2040145e:	00042023          	sw	zero,0(s0)
20401462:	00042223          	sw	zero,4(s0)
20401466:	00042423          	sw	zero,8(s0)
2040146a:	c45c                	sw	a5,12(s0)
2040146c:	00042823          	sw	zero,16(s0)
20401470:	00042a23          	sw	zero,20(s0)
20401474:	00042c23          	sw	zero,24(s0)
20401478:	4621                	li	a2,8
2040147a:	4581                	li	a1,0
2040147c:	05c40513          	addi	a0,s0,92
20401480:	2a69                	jal	2040161a <memset>
20401482:	02042a23          	sw	zero,52(s0)
20401486:	02042c23          	sw	zero,56(s0)
2040148a:	04042423          	sw	zero,72(s0)
2040148e:	04042623          	sw	zero,76(s0)
20401492:	8522                	mv	a0,s0
20401494:	40b2                	lw	ra,12(sp)
20401496:	4422                	lw	s0,8(sp)
20401498:	4492                	lw	s1,4(sp)
2040149a:	4902                	lw	s2,0(sp)
2040149c:	0141                	addi	sp,sp,16
2040149e:	8082                	ret
204014a0:	06840413          	addi	s0,s0,104
204014a4:	bf79                	j	20401442 <__sfp+0x26>
204014a6:	4591                	li	a1,4
204014a8:	854a                	mv	a0,s2
204014aa:	35d1                	jal	2040136e <__sfmoreglue>
204014ac:	c088                	sw	a0,0(s1)
204014ae:	842a                	mv	s0,a0
204014b0:	fd51                	bnez	a0,2040144c <__sfp+0x30>
204014b2:	47b1                	li	a5,12
204014b4:	00f92023          	sw	a5,0(s2)
204014b8:	bfe9                	j	20401492 <__sfp+0x76>

204014ba <_fwalk_reent>:
_fwalk_reent():
204014ba:	7179                	addi	sp,sp,-48
204014bc:	d422                	sw	s0,40(sp)
204014be:	d04a                	sw	s2,32(sp)
204014c0:	cc52                	sw	s4,24(sp)
204014c2:	ca56                	sw	s5,20(sp)
204014c4:	c85a                	sw	s6,16(sp)
204014c6:	c65e                	sw	s7,12(sp)
204014c8:	d606                	sw	ra,44(sp)
204014ca:	d226                	sw	s1,36(sp)
204014cc:	ce4e                	sw	s3,28(sp)
204014ce:	8a2a                	mv	s4,a0
204014d0:	8aae                	mv	s5,a1
204014d2:	04850413          	addi	s0,a0,72
204014d6:	4901                	li	s2,0
204014d8:	4b05                	li	s6,1
204014da:	5bfd                	li	s7,-1
204014dc:	ec09                	bnez	s0,204014f6 <_fwalk_reent+0x3c>
204014de:	50b2                	lw	ra,44(sp)
204014e0:	5422                	lw	s0,40(sp)
204014e2:	854a                	mv	a0,s2
204014e4:	5492                	lw	s1,36(sp)
204014e6:	5902                	lw	s2,32(sp)
204014e8:	49f2                	lw	s3,28(sp)
204014ea:	4a62                	lw	s4,24(sp)
204014ec:	4ad2                	lw	s5,20(sp)
204014ee:	4b42                	lw	s6,16(sp)
204014f0:	4bb2                	lw	s7,12(sp)
204014f2:	6145                	addi	sp,sp,48
204014f4:	8082                	ret
204014f6:	4404                	lw	s1,8(s0)
204014f8:	00442983          	lw	s3,4(s0)
204014fc:	19fd                	addi	s3,s3,-1
204014fe:	0009d463          	bgez	s3,20401506 <_fwalk_reent+0x4c>
20401502:	4000                	lw	s0,0(s0)
20401504:	bfe1                	j	204014dc <_fwalk_reent+0x22>
20401506:	00c4d783          	lhu	a5,12(s1)
2040150a:	00fb7b63          	bgeu	s6,a5,20401520 <_fwalk_reent+0x66>
2040150e:	00e49783          	lh	a5,14(s1)
20401512:	01778763          	beq	a5,s7,20401520 <_fwalk_reent+0x66>
20401516:	85a6                	mv	a1,s1
20401518:	8552                	mv	a0,s4
2040151a:	9a82                	jalr	s5
2040151c:	00a96933          	or	s2,s2,a0
20401520:	06848493          	addi	s1,s1,104
20401524:	bfe1                	j	204014fc <_fwalk_reent+0x42>

20401526 <__swhatbuf_r>:
__swhatbuf_r():
20401526:	7119                	addi	sp,sp,-128
20401528:	daa6                	sw	s1,116(sp)
2040152a:	84ae                	mv	s1,a1
2040152c:	00e59583          	lh	a1,14(a1)
20401530:	dca2                	sw	s0,120(sp)
20401532:	de86                	sw	ra,124(sp)
20401534:	8432                	mv	s0,a2
20401536:	0005dc63          	bgez	a1,2040154e <__swhatbuf_r+0x28>
2040153a:	00c4d783          	lhu	a5,12(s1)
2040153e:	0006a023          	sw	zero,0(a3)
20401542:	0807f793          	andi	a5,a5,128
20401546:	e39d                	bnez	a5,2040156c <__swhatbuf_r+0x46>
20401548:	40000793          	li	a5,1024
2040154c:	a015                	j	20401570 <__swhatbuf_r+0x4a>
2040154e:	0830                	addi	a2,sp,24
20401550:	c636                	sw	a3,12(sp)
20401552:	2e61                	jal	204018ea <_fstat_r>
20401554:	46b2                	lw	a3,12(sp)
20401556:	fe0542e3          	bltz	a0,2040153a <__swhatbuf_r+0x14>
2040155a:	4772                	lw	a4,28(sp)
2040155c:	67bd                	lui	a5,0xf
2040155e:	8ff9                	and	a5,a5,a4
20401560:	7779                	lui	a4,0xffffe
20401562:	97ba                	add	a5,a5,a4
20401564:	0017b793          	seqz	a5,a5
20401568:	c29c                	sw	a5,0(a3)
2040156a:	bff9                	j	20401548 <__swhatbuf_r+0x22>
2040156c:	04000793          	li	a5,64
20401570:	c01c                	sw	a5,0(s0)
20401572:	50f6                	lw	ra,124(sp)
20401574:	5466                	lw	s0,120(sp)
20401576:	54d6                	lw	s1,116(sp)
20401578:	4501                	li	a0,0
2040157a:	6109                	addi	sp,sp,128
2040157c:	8082                	ret

2040157e <__smakebuf_r>:
__smakebuf_r():
2040157e:	00c5d783          	lhu	a5,12(a1)
20401582:	1101                	addi	sp,sp,-32
20401584:	cc22                	sw	s0,24(sp)
20401586:	ce06                	sw	ra,28(sp)
20401588:	ca26                	sw	s1,20(sp)
2040158a:	c84a                	sw	s2,16(sp)
2040158c:	8b89                	andi	a5,a5,2
2040158e:	842e                	mv	s0,a1
20401590:	cf89                	beqz	a5,204015aa <__smakebuf_r+0x2c>
20401592:	04740793          	addi	a5,s0,71
20401596:	c01c                	sw	a5,0(s0)
20401598:	c81c                	sw	a5,16(s0)
2040159a:	4785                	li	a5,1
2040159c:	c85c                	sw	a5,20(s0)
2040159e:	40f2                	lw	ra,28(sp)
204015a0:	4462                	lw	s0,24(sp)
204015a2:	44d2                	lw	s1,20(sp)
204015a4:	4942                	lw	s2,16(sp)
204015a6:	6105                	addi	sp,sp,32
204015a8:	8082                	ret
204015aa:	0074                	addi	a3,sp,12
204015ac:	0030                	addi	a2,sp,8
204015ae:	84aa                	mv	s1,a0
204015b0:	3f9d                	jal	20401526 <__swhatbuf_r>
204015b2:	45a2                	lw	a1,8(sp)
204015b4:	892a                	mv	s2,a0
204015b6:	8526                	mv	a0,s1
204015b8:	2a39                	jal	204016d6 <_malloc_r>
204015ba:	ed01                	bnez	a0,204015d2 <__smakebuf_r+0x54>
204015bc:	00c41783          	lh	a5,12(s0)
204015c0:	2007f713          	andi	a4,a5,512
204015c4:	ff69                	bnez	a4,2040159e <__smakebuf_r+0x20>
204015c6:	9bf1                	andi	a5,a5,-4
204015c8:	0027e793          	ori	a5,a5,2
204015cc:	00f41623          	sh	a5,12(s0)
204015d0:	b7c9                	j	20401592 <__smakebuf_r+0x14>
204015d2:	00000797          	auipc	a5,0x0
204015d6:	d9278793          	addi	a5,a5,-622 # 20401364 <_cleanup_r>
204015da:	d49c                	sw	a5,40(s1)
204015dc:	00c45783          	lhu	a5,12(s0)
204015e0:	c008                	sw	a0,0(s0)
204015e2:	c808                	sw	a0,16(s0)
204015e4:	0807e793          	ori	a5,a5,128
204015e8:	00f41623          	sh	a5,12(s0)
204015ec:	47a2                	lw	a5,8(sp)
204015ee:	c85c                	sw	a5,20(s0)
204015f0:	47b2                	lw	a5,12(sp)
204015f2:	cf89                	beqz	a5,2040160c <__smakebuf_r+0x8e>
204015f4:	00e41583          	lh	a1,14(s0)
204015f8:	8526                	mv	a0,s1
204015fa:	2e29                	jal	20401914 <_isatty_r>
204015fc:	c901                	beqz	a0,2040160c <__smakebuf_r+0x8e>
204015fe:	00c45783          	lhu	a5,12(s0)
20401602:	9bf1                	andi	a5,a5,-4
20401604:	0017e793          	ori	a5,a5,1
20401608:	00f41623          	sh	a5,12(s0)
2040160c:	00c45783          	lhu	a5,12(s0)
20401610:	00f96933          	or	s2,s2,a5
20401614:	01241623          	sh	s2,12(s0)
20401618:	b759                	j	2040159e <__smakebuf_r+0x20>

2040161a <memset>:
memset():
2040161a:	832a                	mv	t1,a0
2040161c:	c611                	beqz	a2,20401628 <memset+0xe>
2040161e:	00b30023          	sb	a1,0(t1)
20401622:	167d                	addi	a2,a2,-1
20401624:	0305                	addi	t1,t1,1
20401626:	fe65                	bnez	a2,2040161e <memset+0x4>
20401628:	8082                	ret

2040162a <_free_r>:
_free_r():
2040162a:	c5cd                	beqz	a1,204016d4 <_free_r+0xaa>
2040162c:	ffc5a783          	lw	a5,-4(a1)
20401630:	1141                	addi	sp,sp,-16
20401632:	c422                	sw	s0,8(sp)
20401634:	c606                	sw	ra,12(sp)
20401636:	c226                	sw	s1,4(sp)
20401638:	ffc58413          	addi	s0,a1,-4
2040163c:	0007d363          	bgez	a5,20401642 <_free_r+0x18>
20401640:	943e                	add	s0,s0,a5
20401642:	84aa                	mv	s1,a0
20401644:	2615                	jal	20401968 <__malloc_lock>
20401646:	5fbff797          	auipc	a5,0x5fbff
2040164a:	47a78793          	addi	a5,a5,1146 # 80000ac0 <__tls_base>
2040164e:	439c                	lw	a5,0(a5)
20401650:	ef89                	bnez	a5,2040166a <_free_r+0x40>
20401652:	00042223          	sw	zero,4(s0)
20401656:	5fbff797          	auipc	a5,0x5fbff
2040165a:	4687a523          	sw	s0,1130(a5) # 80000ac0 <__tls_base>
2040165e:	4422                	lw	s0,8(sp)
20401660:	40b2                	lw	ra,12(sp)
20401662:	8526                	mv	a0,s1
20401664:	4492                	lw	s1,4(sp)
20401666:	0141                	addi	sp,sp,16
20401668:	a609                	j	2040196a <__malloc_unlock>
2040166a:	00f47e63          	bgeu	s0,a5,20401686 <_free_r+0x5c>
2040166e:	4014                	lw	a3,0(s0)
20401670:	00d40733          	add	a4,s0,a3
20401674:	00e79663          	bne	a5,a4,20401680 <_free_r+0x56>
20401678:	4398                	lw	a4,0(a5)
2040167a:	43dc                	lw	a5,4(a5)
2040167c:	9736                	add	a4,a4,a3
2040167e:	c018                	sw	a4,0(s0)
20401680:	c05c                	sw	a5,4(s0)
20401682:	bfd1                	j	20401656 <_free_r+0x2c>
20401684:	87ba                	mv	a5,a4
20401686:	43d8                	lw	a4,4(a5)
20401688:	c319                	beqz	a4,2040168e <_free_r+0x64>
2040168a:	fee47de3          	bgeu	s0,a4,20401684 <_free_r+0x5a>
2040168e:	4394                	lw	a3,0(a5)
20401690:	00d78633          	add	a2,a5,a3
20401694:	00861f63          	bne	a2,s0,204016b2 <_free_r+0x88>
20401698:	4010                	lw	a2,0(s0)
2040169a:	96b2                	add	a3,a3,a2
2040169c:	c394                	sw	a3,0(a5)
2040169e:	00d78633          	add	a2,a5,a3
204016a2:	fac71ee3          	bne	a4,a2,2040165e <_free_r+0x34>
204016a6:	4310                	lw	a2,0(a4)
204016a8:	4358                	lw	a4,4(a4)
204016aa:	96b2                	add	a3,a3,a2
204016ac:	c394                	sw	a3,0(a5)
204016ae:	c3d8                	sw	a4,4(a5)
204016b0:	b77d                	j	2040165e <_free_r+0x34>
204016b2:	00c47563          	bgeu	s0,a2,204016bc <_free_r+0x92>
204016b6:	47b1                	li	a5,12
204016b8:	c09c                	sw	a5,0(s1)
204016ba:	b755                	j	2040165e <_free_r+0x34>
204016bc:	4010                	lw	a2,0(s0)
204016be:	00c406b3          	add	a3,s0,a2
204016c2:	00d71663          	bne	a4,a3,204016ce <_free_r+0xa4>
204016c6:	4314                	lw	a3,0(a4)
204016c8:	4358                	lw	a4,4(a4)
204016ca:	96b2                	add	a3,a3,a2
204016cc:	c014                	sw	a3,0(s0)
204016ce:	c058                	sw	a4,4(s0)
204016d0:	c3c0                	sw	s0,4(a5)
204016d2:	b771                	j	2040165e <_free_r+0x34>
204016d4:	8082                	ret

204016d6 <_malloc_r>:
_malloc_r():
204016d6:	1101                	addi	sp,sp,-32
204016d8:	ca26                	sw	s1,20(sp)
204016da:	00358493          	addi	s1,a1,3
204016de:	98f1                	andi	s1,s1,-4
204016e0:	ce06                	sw	ra,28(sp)
204016e2:	cc22                	sw	s0,24(sp)
204016e4:	c84a                	sw	s2,16(sp)
204016e6:	c64e                	sw	s3,12(sp)
204016e8:	04a1                	addi	s1,s1,8
204016ea:	47b1                	li	a5,12
204016ec:	04f4f763          	bgeu	s1,a5,2040173a <_malloc_r+0x64>
204016f0:	44b1                	li	s1,12
204016f2:	04b4e663          	bltu	s1,a1,2040173e <_malloc_r+0x68>
204016f6:	892a                	mv	s2,a0
204016f8:	2c85                	jal	20401968 <__malloc_lock>
204016fa:	5fbff797          	auipc	a5,0x5fbff
204016fe:	3c678793          	addi	a5,a5,966 # 80000ac0 <__tls_base>
20401702:	4398                	lw	a4,0(a5)
20401704:	843a                	mv	s0,a4
20401706:	e431                	bnez	s0,20401752 <_malloc_r+0x7c>
20401708:	5fbff797          	auipc	a5,0x5fbff
2040170c:	3bc78793          	addi	a5,a5,956 # 80000ac4 <__malloc_sbrk_start>
20401710:	439c                	lw	a5,0(a5)
20401712:	eb81                	bnez	a5,20401722 <_malloc_r+0x4c>
20401714:	4581                	li	a1,0
20401716:	854a                	mv	a0,s2
20401718:	2871                	jal	204017b4 <_sbrk_r>
2040171a:	5fbff797          	auipc	a5,0x5fbff
2040171e:	3aa7a523          	sw	a0,938(a5) # 80000ac4 <__malloc_sbrk_start>
20401722:	85a6                	mv	a1,s1
20401724:	854a                	mv	a0,s2
20401726:	2079                	jal	204017b4 <_sbrk_r>
20401728:	59fd                	li	s3,-1
2040172a:	07351963          	bne	a0,s3,2040179c <_malloc_r+0xc6>
2040172e:	47b1                	li	a5,12
20401730:	00f92023          	sw	a5,0(s2)
20401734:	854a                	mv	a0,s2
20401736:	2c15                	jal	2040196a <__malloc_unlock>
20401738:	a029                	j	20401742 <_malloc_r+0x6c>
2040173a:	fa04dce3          	bgez	s1,204016f2 <_malloc_r+0x1c>
2040173e:	47b1                	li	a5,12
20401740:	c11c                	sw	a5,0(a0)
20401742:	4501                	li	a0,0
20401744:	40f2                	lw	ra,28(sp)
20401746:	4462                	lw	s0,24(sp)
20401748:	44d2                	lw	s1,20(sp)
2040174a:	4942                	lw	s2,16(sp)
2040174c:	49b2                	lw	s3,12(sp)
2040174e:	6105                	addi	sp,sp,32
20401750:	8082                	ret
20401752:	401c                	lw	a5,0(s0)
20401754:	8f85                	sub	a5,a5,s1
20401756:	0407c063          	bltz	a5,20401796 <_malloc_r+0xc0>
2040175a:	46ad                	li	a3,11
2040175c:	00f6f663          	bgeu	a3,a5,20401768 <_malloc_r+0x92>
20401760:	c01c                	sw	a5,0(s0)
20401762:	943e                	add	s0,s0,a5
20401764:	c004                	sw	s1,0(s0)
20401766:	a801                	j	20401776 <_malloc_r+0xa0>
20401768:	405c                	lw	a5,4(s0)
2040176a:	02871463          	bne	a4,s0,20401792 <_malloc_r+0xbc>
2040176e:	5fbff717          	auipc	a4,0x5fbff
20401772:	34f72923          	sw	a5,850(a4) # 80000ac0 <__tls_base>
20401776:	854a                	mv	a0,s2
20401778:	2acd                	jal	2040196a <__malloc_unlock>
2040177a:	00b40513          	addi	a0,s0,11
2040177e:	00440793          	addi	a5,s0,4
20401782:	9961                	andi	a0,a0,-8
20401784:	40f50733          	sub	a4,a0,a5
20401788:	df55                	beqz	a4,20401744 <_malloc_r+0x6e>
2040178a:	943a                	add	s0,s0,a4
2040178c:	8f89                	sub	a5,a5,a0
2040178e:	c01c                	sw	a5,0(s0)
20401790:	bf55                	j	20401744 <_malloc_r+0x6e>
20401792:	c35c                	sw	a5,4(a4)
20401794:	b7cd                	j	20401776 <_malloc_r+0xa0>
20401796:	8722                	mv	a4,s0
20401798:	4040                	lw	s0,4(s0)
2040179a:	b7b5                	j	20401706 <_malloc_r+0x30>
2040179c:	00350413          	addi	s0,a0,3
204017a0:	9871                	andi	s0,s0,-4
204017a2:	fc8501e3          	beq	a0,s0,20401764 <_malloc_r+0x8e>
204017a6:	40a405b3          	sub	a1,s0,a0
204017aa:	854a                	mv	a0,s2
204017ac:	2021                	jal	204017b4 <_sbrk_r>
204017ae:	fb351be3          	bne	a0,s3,20401764 <_malloc_r+0x8e>
204017b2:	bfb5                	j	2040172e <_malloc_r+0x58>

204017b4 <_sbrk_r>:
_sbrk_r():
204017b4:	1141                	addi	sp,sp,-16
204017b6:	c422                	sw	s0,8(sp)
204017b8:	842a                	mv	s0,a0
204017ba:	852e                	mv	a0,a1
204017bc:	8e01a823          	sw	zero,-1808(gp) # 80000b60 <errno>
204017c0:	c606                	sw	ra,12(sp)
204017c2:	243d                	jal	204019f0 <_sbrk>
204017c4:	57fd                	li	a5,-1
204017c6:	00f51763          	bne	a0,a5,204017d4 <_sbrk_r+0x20>
204017ca:	8f018793          	addi	a5,gp,-1808 # 80000b60 <errno>
204017ce:	439c                	lw	a5,0(a5)
204017d0:	c391                	beqz	a5,204017d4 <_sbrk_r+0x20>
204017d2:	c01c                	sw	a5,0(s0)
204017d4:	40b2                	lw	ra,12(sp)
204017d6:	4422                	lw	s0,8(sp)
204017d8:	0141                	addi	sp,sp,16
204017da:	8082                	ret

204017dc <__sread>:
__sread():
204017dc:	1141                	addi	sp,sp,-16
204017de:	c422                	sw	s0,8(sp)
204017e0:	842e                	mv	s0,a1
204017e2:	00e59583          	lh	a1,14(a1)
204017e6:	c606                	sw	ra,12(sp)
204017e8:	2251                	jal	2040196c <_read_r>
204017ea:	00054963          	bltz	a0,204017fc <__sread+0x20>
204017ee:	487c                	lw	a5,84(s0)
204017f0:	97aa                	add	a5,a5,a0
204017f2:	c87c                	sw	a5,84(s0)
204017f4:	40b2                	lw	ra,12(sp)
204017f6:	4422                	lw	s0,8(sp)
204017f8:	0141                	addi	sp,sp,16
204017fa:	8082                	ret
204017fc:	00c45783          	lhu	a5,12(s0)
20401800:	777d                	lui	a4,0xfffff
20401802:	177d                	addi	a4,a4,-1
20401804:	8ff9                	and	a5,a5,a4
20401806:	00f41623          	sh	a5,12(s0)
2040180a:	b7ed                	j	204017f4 <__sread+0x18>

2040180c <__swrite>:
__swrite():
2040180c:	00c5d783          	lhu	a5,12(a1)
20401810:	1101                	addi	sp,sp,-32
20401812:	cc22                	sw	s0,24(sp)
20401814:	ca26                	sw	s1,20(sp)
20401816:	c84a                	sw	s2,16(sp)
20401818:	c64e                	sw	s3,12(sp)
2040181a:	ce06                	sw	ra,28(sp)
2040181c:	1007f793          	andi	a5,a5,256
20401820:	84aa                	mv	s1,a0
20401822:	842e                	mv	s0,a1
20401824:	8932                	mv	s2,a2
20401826:	89b6                	mv	s3,a3
20401828:	c791                	beqz	a5,20401834 <__swrite+0x28>
2040182a:	00e59583          	lh	a1,14(a1)
2040182e:	4689                	li	a3,2
20401830:	4601                	li	a2,0
20401832:	2229                	jal	2040193c <_lseek_r>
20401834:	00c45783          	lhu	a5,12(s0)
20401838:	777d                	lui	a4,0xfffff
2040183a:	177d                	addi	a4,a4,-1
2040183c:	8ff9                	and	a5,a5,a4
2040183e:	00f41623          	sh	a5,12(s0)
20401842:	00e41583          	lh	a1,14(s0)
20401846:	4462                	lw	s0,24(sp)
20401848:	40f2                	lw	ra,28(sp)
2040184a:	86ce                	mv	a3,s3
2040184c:	864a                	mv	a2,s2
2040184e:	49b2                	lw	s3,12(sp)
20401850:	4942                	lw	s2,16(sp)
20401852:	8526                	mv	a0,s1
20401854:	44d2                	lw	s1,20(sp)
20401856:	6105                	addi	sp,sp,32
20401858:	a83d                	j	20401896 <_write_r>

2040185a <__sseek>:
__sseek():
2040185a:	1141                	addi	sp,sp,-16
2040185c:	c422                	sw	s0,8(sp)
2040185e:	842e                	mv	s0,a1
20401860:	00e59583          	lh	a1,14(a1)
20401864:	c606                	sw	ra,12(sp)
20401866:	28d9                	jal	2040193c <_lseek_r>
20401868:	57fd                	li	a5,-1
2040186a:	00c45703          	lhu	a4,12(s0)
2040186e:	00f51b63          	bne	a0,a5,20401884 <__sseek+0x2a>
20401872:	77fd                	lui	a5,0xfffff
20401874:	17fd                	addi	a5,a5,-1
20401876:	8ff9                	and	a5,a5,a4
20401878:	00f41623          	sh	a5,12(s0)
2040187c:	40b2                	lw	ra,12(sp)
2040187e:	4422                	lw	s0,8(sp)
20401880:	0141                	addi	sp,sp,16
20401882:	8082                	ret
20401884:	6785                	lui	a5,0x1
20401886:	8fd9                	or	a5,a5,a4
20401888:	00f41623          	sh	a5,12(s0)
2040188c:	c868                	sw	a0,84(s0)
2040188e:	b7fd                	j	2040187c <__sseek+0x22>

20401890 <__sclose>:
__sclose():
20401890:	00e59583          	lh	a1,14(a1)
20401894:	a03d                	j	204018c2 <_close_r>

20401896 <_write_r>:
_write_r():
20401896:	1141                	addi	sp,sp,-16
20401898:	c422                	sw	s0,8(sp)
2040189a:	842a                	mv	s0,a0
2040189c:	852e                	mv	a0,a1
2040189e:	85b2                	mv	a1,a2
204018a0:	8636                	mv	a2,a3
204018a2:	8e01a823          	sw	zero,-1808(gp) # 80000b60 <errno>
204018a6:	c606                	sw	ra,12(sp)
204018a8:	2249                	jal	20401a2a <_write>
204018aa:	57fd                	li	a5,-1
204018ac:	00f51763          	bne	a0,a5,204018ba <_write_r+0x24>
204018b0:	8f018793          	addi	a5,gp,-1808 # 80000b60 <errno>
204018b4:	439c                	lw	a5,0(a5)
204018b6:	c391                	beqz	a5,204018ba <_write_r+0x24>
204018b8:	c01c                	sw	a5,0(s0)
204018ba:	40b2                	lw	ra,12(sp)
204018bc:	4422                	lw	s0,8(sp)
204018be:	0141                	addi	sp,sp,16
204018c0:	8082                	ret

204018c2 <_close_r>:
_close_r():
204018c2:	1141                	addi	sp,sp,-16
204018c4:	c422                	sw	s0,8(sp)
204018c6:	842a                	mv	s0,a0
204018c8:	852e                	mv	a0,a1
204018ca:	8e01a823          	sw	zero,-1808(gp) # 80000b60 <errno>
204018ce:	c606                	sw	ra,12(sp)
204018d0:	20e1                	jal	20401998 <_close>
204018d2:	57fd                	li	a5,-1
204018d4:	00f51763          	bne	a0,a5,204018e2 <_close_r+0x20>
204018d8:	8f018793          	addi	a5,gp,-1808 # 80000b60 <errno>
204018dc:	439c                	lw	a5,0(a5)
204018de:	c391                	beqz	a5,204018e2 <_close_r+0x20>
204018e0:	c01c                	sw	a5,0(s0)
204018e2:	40b2                	lw	ra,12(sp)
204018e4:	4422                	lw	s0,8(sp)
204018e6:	0141                	addi	sp,sp,16
204018e8:	8082                	ret

204018ea <_fstat_r>:
_fstat_r():
204018ea:	1141                	addi	sp,sp,-16
204018ec:	c422                	sw	s0,8(sp)
204018ee:	842a                	mv	s0,a0
204018f0:	852e                	mv	a0,a1
204018f2:	85b2                	mv	a1,a2
204018f4:	8e01a823          	sw	zero,-1808(gp) # 80000b60 <errno>
204018f8:	c606                	sw	ra,12(sp)
204018fa:	284d                	jal	204019ac <_fstat>
204018fc:	57fd                	li	a5,-1
204018fe:	00f51763          	bne	a0,a5,2040190c <_fstat_r+0x22>
20401902:	8f018793          	addi	a5,gp,-1808 # 80000b60 <errno>
20401906:	439c                	lw	a5,0(a5)
20401908:	c391                	beqz	a5,2040190c <_fstat_r+0x22>
2040190a:	c01c                	sw	a5,0(s0)
2040190c:	40b2                	lw	ra,12(sp)
2040190e:	4422                	lw	s0,8(sp)
20401910:	0141                	addi	sp,sp,16
20401912:	8082                	ret

20401914 <_isatty_r>:
_isatty_r():
20401914:	1141                	addi	sp,sp,-16
20401916:	c422                	sw	s0,8(sp)
20401918:	842a                	mv	s0,a0
2040191a:	852e                	mv	a0,a1
2040191c:	8e01a823          	sw	zero,-1808(gp) # 80000b60 <errno>
20401920:	c606                	sw	ra,12(sp)
20401922:	2879                	jal	204019c0 <_isatty>
20401924:	57fd                	li	a5,-1
20401926:	00f51763          	bne	a0,a5,20401934 <_isatty_r+0x20>
2040192a:	8f018793          	addi	a5,gp,-1808 # 80000b60 <errno>
2040192e:	439c                	lw	a5,0(a5)
20401930:	c391                	beqz	a5,20401934 <_isatty_r+0x20>
20401932:	c01c                	sw	a5,0(s0)
20401934:	40b2                	lw	ra,12(sp)
20401936:	4422                	lw	s0,8(sp)
20401938:	0141                	addi	sp,sp,16
2040193a:	8082                	ret

2040193c <_lseek_r>:
_lseek_r():
2040193c:	1141                	addi	sp,sp,-16
2040193e:	c422                	sw	s0,8(sp)
20401940:	842a                	mv	s0,a0
20401942:	852e                	mv	a0,a1
20401944:	85b2                	mv	a1,a2
20401946:	8636                	mv	a2,a3
20401948:	8e01a823          	sw	zero,-1808(gp) # 80000b60 <errno>
2040194c:	c606                	sw	ra,12(sp)
2040194e:	28ad                	jal	204019c8 <_lseek>
20401950:	57fd                	li	a5,-1
20401952:	00f51763          	bne	a0,a5,20401960 <_lseek_r+0x24>
20401956:	8f018793          	addi	a5,gp,-1808 # 80000b60 <errno>
2040195a:	439c                	lw	a5,0(a5)
2040195c:	c391                	beqz	a5,20401960 <_lseek_r+0x24>
2040195e:	c01c                	sw	a5,0(s0)
20401960:	40b2                	lw	ra,12(sp)
20401962:	4422                	lw	s0,8(sp)
20401964:	0141                	addi	sp,sp,16
20401966:	8082                	ret

20401968 <__malloc_lock>:
__malloc_lock():
20401968:	8082                	ret

2040196a <__malloc_unlock>:
__malloc_unlock():
2040196a:	8082                	ret

2040196c <_read_r>:
_read_r():
2040196c:	1141                	addi	sp,sp,-16
2040196e:	c422                	sw	s0,8(sp)
20401970:	842a                	mv	s0,a0
20401972:	852e                	mv	a0,a1
20401974:	85b2                	mv	a1,a2
20401976:	8636                	mv	a2,a3
20401978:	8e01a823          	sw	zero,-1808(gp) # 80000b60 <errno>
2040197c:	c606                	sw	ra,12(sp)
2040197e:	28b9                	jal	204019dc <_read>
20401980:	57fd                	li	a5,-1
20401982:	00f51763          	bne	a0,a5,20401990 <_read_r+0x24>
20401986:	8f018793          	addi	a5,gp,-1808 # 80000b60 <errno>
2040198a:	439c                	lw	a5,0(a5)
2040198c:	c391                	beqz	a5,20401990 <_read_r+0x24>
2040198e:	c01c                	sw	a5,0(s0)
20401990:	40b2                	lw	ra,12(sp)
20401992:	4422                	lw	s0,8(sp)
20401994:	0141                	addi	sp,sp,16
20401996:	8082                	ret

20401998 <_close>:
_close():
20401998:	1141                	addi	sp,sp,-16
2040199a:	c606                	sw	ra,12(sp)
2040199c:	28c9                	jal	20401a6e <__errno>
2040199e:	40b2                	lw	ra,12(sp)
204019a0:	05800793          	li	a5,88
204019a4:	c11c                	sw	a5,0(a0)
204019a6:	557d                	li	a0,-1
204019a8:	0141                	addi	sp,sp,16
204019aa:	8082                	ret

204019ac <_fstat>:
_fstat():
204019ac:	1141                	addi	sp,sp,-16
204019ae:	c606                	sw	ra,12(sp)
204019b0:	287d                	jal	20401a6e <__errno>
204019b2:	40b2                	lw	ra,12(sp)
204019b4:	fa800793          	li	a5,-88
204019b8:	c11c                	sw	a5,0(a0)
204019ba:	557d                	li	a0,-1
204019bc:	0141                	addi	sp,sp,16
204019be:	8082                	ret

204019c0 <_isatty>:
_isatty():
204019c0:	157d                	addi	a0,a0,-1
204019c2:	00153513          	seqz	a0,a0
204019c6:	8082                	ret

204019c8 <_lseek>:
_lseek():
204019c8:	1141                	addi	sp,sp,-16
204019ca:	c606                	sw	ra,12(sp)
204019cc:	204d                	jal	20401a6e <__errno>
204019ce:	40b2                	lw	ra,12(sp)
204019d0:	05800793          	li	a5,88
204019d4:	c11c                	sw	a5,0(a0)
204019d6:	557d                	li	a0,-1
204019d8:	0141                	addi	sp,sp,16
204019da:	8082                	ret

204019dc <_read>:
_read():
204019dc:	1141                	addi	sp,sp,-16
204019de:	c606                	sw	ra,12(sp)
204019e0:	2079                	jal	20401a6e <__errno>
204019e2:	40b2                	lw	ra,12(sp)
204019e4:	05800793          	li	a5,88
204019e8:	c11c                	sw	a5,0(a0)
204019ea:	557d                	li	a0,-1
204019ec:	0141                	addi	sp,sp,16
204019ee:	8082                	ret

204019f0 <_sbrk>:
_sbrk():
204019f0:	1141                	addi	sp,sp,-16
204019f2:	c606                	sw	ra,12(sp)
204019f4:	c422                	sw	s0,8(sp)
204019f6:	d0018793          	addi	a5,gp,-768 # 80000f70 <_sp>
204019fa:	50018713          	addi	a4,gp,1280 # 80001770 <metal_segment_heap_target_end>
204019fe:	02e78463          	beq	a5,a4,20401a26 <_sbrk+0x36>
20401a02:	80818793          	addi	a5,gp,-2040 # 80000a78 <__brk>
20401a06:	4380                	lw	s0,0(a5)
20401a08:	00a406b3          	add	a3,s0,a0
20401a0c:	00e6fc63          	bgeu	a3,a4,20401a24 <_sbrk+0x34>
20401a10:	85aa                	mv	a1,a0
20401a12:	8522                	mv	a0,s0
20401a14:	c394                	sw	a3,0(a5)
20401a16:	e7cfe0ef          	jal	ra,20400092 <metal_mem_scrub>
20401a1a:	8522                	mv	a0,s0
20401a1c:	40b2                	lw	ra,12(sp)
20401a1e:	4422                	lw	s0,8(sp)
20401a20:	0141                	addi	sp,sp,16
20401a22:	8082                	ret
20401a24:	c398                	sw	a4,0(a5)
20401a26:	547d                	li	s0,-1
20401a28:	bfcd                	j	20401a1a <_sbrk+0x2a>

20401a2a <_write>:
write():
20401a2a:	1141                	addi	sp,sp,-16
20401a2c:	c606                	sw	ra,12(sp)
20401a2e:	c422                	sw	s0,8(sp)
20401a30:	c226                	sw	s1,4(sp)
20401a32:	4785                	li	a5,1
20401a34:	00f51963          	bne	a0,a5,20401a46 <_write+0x1c>
20401a38:	842e                	mv	s0,a1
20401a3a:	00c584b3          	add	s1,a1,a2
20401a3e:	00941e63          	bne	s0,s1,20401a5a <_write+0x30>
20401a42:	4501                	li	a0,0
20401a44:	a031                	j	20401a50 <_write+0x26>
20401a46:	2025                	jal	20401a6e <__errno>
20401a48:	05800793          	li	a5,88
20401a4c:	c11c                	sw	a5,0(a0)
20401a4e:	557d                	li	a0,-1
20401a50:	40b2                	lw	ra,12(sp)
20401a52:	4422                	lw	s0,8(sp)
20401a54:	4492                	lw	s1,4(sp)
20401a56:	0141                	addi	sp,sp,16
20401a58:	8082                	ret
20401a5a:	00044503          	lbu	a0,0(s0)
20401a5e:	0405                	addi	s0,s0,1
20401a60:	24f1                	jal	20401d2c <metal_tty_putc>
20401a62:	bff1                	j	20401a3e <_write+0x14>

20401a64 <atexit>:
atexit():
20401a64:	85aa                	mv	a1,a0
20401a66:	4681                	li	a3,0
20401a68:	4601                	li	a2,0
20401a6a:	4501                	li	a0,0
20401a6c:	a8f1                	j	20401b48 <__register_exitproc>

20401a6e <__errno>:
__errno():
20401a6e:	5fbff797          	auipc	a5,0x5fbff
20401a72:	00278793          	addi	a5,a5,2 # 80000a70 <_impure_ptr>
20401a76:	4388                	lw	a0,0(a5)
20401a78:	8082                	ret

20401a7a <exit>:
exit():
20401a7a:	1141                	addi	sp,sp,-16
20401a7c:	c422                	sw	s0,8(sp)
20401a7e:	c606                	sw	ra,12(sp)
20401a80:	00000797          	auipc	a5,0x0
20401a84:	15078793          	addi	a5,a5,336 # 20401bd0 <__call_exitprocs>
20401a88:	842a                	mv	s0,a0
20401a8a:	c399                	beqz	a5,20401a90 <exit+0x16>
20401a8c:	4581                	li	a1,0
20401a8e:	2289                	jal	20401bd0 <__call_exitprocs>
20401a90:	5fbff797          	auipc	a5,0x5fbff
20401a94:	fe478793          	addi	a5,a5,-28 # 80000a74 <_global_impure_ptr>
20401a98:	4388                	lw	a0,0(a5)
20401a9a:	551c                	lw	a5,40(a0)
20401a9c:	c391                	beqz	a5,20401aa0 <exit+0x26>
20401a9e:	9782                	jalr	a5
20401aa0:	8522                	mv	a0,s0
20401aa2:	36a020ef          	jal	ra,20403e0c <_exit>

20401aa6 <__libc_fini_array>:
__libc_fini_array():
20401aa6:	1141                	addi	sp,sp,-16
20401aa8:	fffff797          	auipc	a5,0xfffff
20401aac:	84878793          	addi	a5,a5,-1976 # 204002f0 <__fini_array_end>
20401ab0:	c422                	sw	s0,8(sp)
20401ab2:	fffff417          	auipc	s0,0xfffff
20401ab6:	83e40413          	addi	s0,s0,-1986 # 204002f0 <__fini_array_end>
20401aba:	8c1d                	sub	s0,s0,a5
20401abc:	c226                	sw	s1,4(sp)
20401abe:	c606                	sw	ra,12(sp)
20401ac0:	8409                	srai	s0,s0,0x2
20401ac2:	84be                	mv	s1,a5
20401ac4:	e411                	bnez	s0,20401ad0 <__libc_fini_array+0x2a>
20401ac6:	40b2                	lw	ra,12(sp)
20401ac8:	4422                	lw	s0,8(sp)
20401aca:	4492                	lw	s1,4(sp)
20401acc:	0141                	addi	sp,sp,16
20401ace:	8082                	ret
20401ad0:	147d                	addi	s0,s0,-1
20401ad2:	00241793          	slli	a5,s0,0x2
20401ad6:	97a6                	add	a5,a5,s1
20401ad8:	439c                	lw	a5,0(a5)
20401ada:	9782                	jalr	a5
20401adc:	b7e5                	j	20401ac4 <__libc_fini_array+0x1e>

20401ade <__libc_init_array>:
__libc_init_array():
20401ade:	1141                	addi	sp,sp,-16
20401ae0:	fffff797          	auipc	a5,0xfffff
20401ae4:	80078793          	addi	a5,a5,-2048 # 204002e0 <_metal_tty_init_ptr>
20401ae8:	c422                	sw	s0,8(sp)
20401aea:	ffffe417          	auipc	s0,0xffffe
20401aee:	7f640413          	addi	s0,s0,2038 # 204002e0 <_metal_tty_init_ptr>
20401af2:	8c1d                	sub	s0,s0,a5
20401af4:	c226                	sw	s1,4(sp)
20401af6:	c04a                	sw	s2,0(sp)
20401af8:	c606                	sw	ra,12(sp)
20401afa:	8409                	srai	s0,s0,0x2
20401afc:	4481                	li	s1,0
20401afe:	893e                	mv	s2,a5
20401b00:	02849663          	bne	s1,s0,20401b2c <__libc_init_array+0x4e>
20401b04:	ffffe797          	auipc	a5,0xffffe
20401b08:	7dc78793          	addi	a5,a5,2012 # 204002e0 <_metal_tty_init_ptr>
20401b0c:	ffffe417          	auipc	s0,0xffffe
20401b10:	7d440413          	addi	s0,s0,2004 # 204002e0 <_metal_tty_init_ptr>
20401b14:	8c1d                	sub	s0,s0,a5
20401b16:	8409                	srai	s0,s0,0x2
20401b18:	4481                	li	s1,0
20401b1a:	893e                	mv	s2,a5
20401b1c:	00849f63          	bne	s1,s0,20401b3a <__libc_init_array+0x5c>
20401b20:	40b2                	lw	ra,12(sp)
20401b22:	4422                	lw	s0,8(sp)
20401b24:	4492                	lw	s1,4(sp)
20401b26:	4902                	lw	s2,0(sp)
20401b28:	0141                	addi	sp,sp,16
20401b2a:	8082                	ret
20401b2c:	00249793          	slli	a5,s1,0x2
20401b30:	97ca                	add	a5,a5,s2
20401b32:	439c                	lw	a5,0(a5)
20401b34:	0485                	addi	s1,s1,1
20401b36:	9782                	jalr	a5
20401b38:	b7e1                	j	20401b00 <__libc_init_array+0x22>
20401b3a:	00249793          	slli	a5,s1,0x2
20401b3e:	97ca                	add	a5,a5,s2
20401b40:	439c                	lw	a5,0(a5)
20401b42:	0485                	addi	s1,s1,1
20401b44:	9782                	jalr	a5
20401b46:	bfd9                	j	20401b1c <__libc_init_array+0x3e>

20401b48 <__register_exitproc>:
__register_exitproc():
20401b48:	5fbff797          	auipc	a5,0x5fbff
20401b4c:	f8078793          	addi	a5,a5,-128 # 80000ac8 <_global_atexit>
20401b50:	439c                	lw	a5,0(a5)
20401b52:	8e2a                	mv	t3,a0
20401b54:	e39d                	bnez	a5,20401b7a <__register_exitproc+0x32>
20401b56:	5fbff717          	auipc	a4,0x5fbff
20401b5a:	f7e70713          	addi	a4,a4,-130 # 80000ad4 <_global_atexit0>
20401b5e:	5fbff797          	auipc	a5,0x5fbff
20401b62:	f6e7a523          	sw	a4,-150(a5) # 80000ac8 <_global_atexit>
20401b66:	dfbfe517          	auipc	a0,0xdfbfe
20401b6a:	49a50513          	addi	a0,a0,1178 # 0 <__metal_boot_hart>
20401b6e:	87ba                	mv	a5,a4
20401b70:	c509                	beqz	a0,20401b7a <__register_exitproc+0x32>
20401b72:	411c                	lw	a5,0(a0)
20401b74:	8ef1a623          	sw	a5,-1812(gp) # 80000b5c <_global_atexit0+0x88>
20401b78:	87ba                	mv	a5,a4
20401b7a:	43d8                	lw	a4,4(a5)
20401b7c:	487d                	li	a6,31
20401b7e:	557d                	li	a0,-1
20401b80:	04e84763          	blt	a6,a4,20401bce <__register_exitproc+0x86>
20401b84:	020e0e63          	beqz	t3,20401bc0 <__register_exitproc+0x78>
20401b88:	0887a803          	lw	a6,136(a5)
20401b8c:	04080163          	beqz	a6,20401bce <__register_exitproc+0x86>
20401b90:	00271893          	slli	a7,a4,0x2
20401b94:	98c2                	add	a7,a7,a6
20401b96:	00c8a023          	sw	a2,0(a7)
20401b9a:	10082303          	lw	t1,256(a6)
20401b9e:	4605                	li	a2,1
20401ba0:	00e61633          	sll	a2,a2,a4
20401ba4:	00c36333          	or	t1,t1,a2
20401ba8:	10682023          	sw	t1,256(a6)
20401bac:	08d8a023          	sw	a3,128(a7)
20401bb0:	4689                	li	a3,2
20401bb2:	00de1763          	bne	t3,a3,20401bc0 <__register_exitproc+0x78>
20401bb6:	10482683          	lw	a3,260(a6)
20401bba:	8e55                	or	a2,a2,a3
20401bbc:	10c82223          	sw	a2,260(a6)
20401bc0:	00170693          	addi	a3,a4,1
20401bc4:	070a                	slli	a4,a4,0x2
20401bc6:	c3d4                	sw	a3,4(a5)
20401bc8:	97ba                	add	a5,a5,a4
20401bca:	c78c                	sw	a1,8(a5)
20401bcc:	4501                	li	a0,0
20401bce:	8082                	ret

20401bd0 <__call_exitprocs>:
__call_exitprocs():
20401bd0:	7179                	addi	sp,sp,-48
20401bd2:	cc52                	sw	s4,24(sp)
20401bd4:	ca56                	sw	s5,20(sp)
20401bd6:	c85a                	sw	s6,16(sp)
20401bd8:	c65e                	sw	s7,12(sp)
20401bda:	d606                	sw	ra,44(sp)
20401bdc:	d422                	sw	s0,40(sp)
20401bde:	d226                	sw	s1,36(sp)
20401be0:	d04a                	sw	s2,32(sp)
20401be2:	ce4e                	sw	s3,28(sp)
20401be4:	c462                	sw	s8,8(sp)
20401be6:	8b2a                	mv	s6,a0
20401be8:	8a2e                	mv	s4,a1
20401bea:	5fbffa97          	auipc	s5,0x5fbff
20401bee:	edea8a93          	addi	s5,s5,-290 # 80000ac8 <_global_atexit>
20401bf2:	4b85                	li	s7,1
20401bf4:	000aa403          	lw	s0,0(s5)
20401bf8:	c811                	beqz	s0,20401c0c <__call_exitprocs+0x3c>
20401bfa:	4044                	lw	s1,4(s0)
20401bfc:	08842983          	lw	s3,136(s0)
20401c00:	fff48913          	addi	s2,s1,-1
20401c04:	048a                	slli	s1,s1,0x2
20401c06:	94a2                	add	s1,s1,s0
20401c08:	00095e63          	bgez	s2,20401c24 <__call_exitprocs+0x54>
20401c0c:	50b2                	lw	ra,44(sp)
20401c0e:	5422                	lw	s0,40(sp)
20401c10:	5492                	lw	s1,36(sp)
20401c12:	5902                	lw	s2,32(sp)
20401c14:	49f2                	lw	s3,28(sp)
20401c16:	4a62                	lw	s4,24(sp)
20401c18:	4ad2                	lw	s5,20(sp)
20401c1a:	4b42                	lw	s6,16(sp)
20401c1c:	4bb2                	lw	s7,12(sp)
20401c1e:	4c22                	lw	s8,8(sp)
20401c20:	6145                	addi	sp,sp,48
20401c22:	8082                	ret
20401c24:	000a0e63          	beqz	s4,20401c40 <__call_exitprocs+0x70>
20401c28:	00099563          	bnez	s3,20401c32 <__call_exitprocs+0x62>
20401c2c:	197d                	addi	s2,s2,-1
20401c2e:	14f1                	addi	s1,s1,-4
20401c30:	bfe1                	j	20401c08 <__call_exitprocs+0x38>
20401c32:	00291793          	slli	a5,s2,0x2
20401c36:	97ce                	add	a5,a5,s3
20401c38:	0807a783          	lw	a5,128(a5)
20401c3c:	ff4798e3          	bne	a5,s4,20401c2c <__call_exitprocs+0x5c>
20401c40:	4058                	lw	a4,4(s0)
20401c42:	40dc                	lw	a5,4(s1)
20401c44:	177d                	addi	a4,a4,-1
20401c46:	03271863          	bne	a4,s2,20401c76 <__call_exitprocs+0xa6>
20401c4a:	01242223          	sw	s2,4(s0)
20401c4e:	dff9                	beqz	a5,20401c2c <__call_exitprocs+0x5c>
20401c50:	00442c03          	lw	s8,4(s0)
20401c54:	00098863          	beqz	s3,20401c64 <__call_exitprocs+0x94>
20401c58:	1009a683          	lw	a3,256(s3)
20401c5c:	012b9733          	sll	a4,s7,s2
20401c60:	8ef9                	and	a3,a3,a4
20401c62:	ee89                	bnez	a3,20401c7c <__call_exitprocs+0xac>
20401c64:	9782                	jalr	a5
20401c66:	4058                	lw	a4,4(s0)
20401c68:	000aa783          	lw	a5,0(s5)
20401c6c:	f98714e3          	bne	a4,s8,20401bf4 <__call_exitprocs+0x24>
20401c70:	faf40ee3          	beq	s0,a5,20401c2c <__call_exitprocs+0x5c>
20401c74:	b741                	j	20401bf4 <__call_exitprocs+0x24>
20401c76:	0004a223          	sw	zero,4(s1)
20401c7a:	bfd1                	j	20401c4e <__call_exitprocs+0x7e>
20401c7c:	00291693          	slli	a3,s2,0x2
20401c80:	96ce                	add	a3,a3,s3
20401c82:	428c                	lw	a1,0(a3)
20401c84:	1049a683          	lw	a3,260(s3)
20401c88:	8f75                	and	a4,a4,a3
20401c8a:	e701                	bnez	a4,20401c92 <__call_exitprocs+0xc2>
20401c8c:	855a                	mv	a0,s6
20401c8e:	9782                	jalr	a5
20401c90:	bfd9                	j	20401c66 <__call_exitprocs+0x96>
20401c92:	852e                	mv	a0,a1
20401c94:	9782                	jalr	a5
20401c96:	bfc1                	j	20401c66 <__call_exitprocs+0x96>

20401c98 <metal_init>:
metal_init():
20401c98:	800017b7          	lui	a5,0x80001
20401c9c:	ad078793          	addi	a5,a5,-1328 # 80000ad0 <metal_segment_heap_target_end+0xfffff360>
20401ca0:	4398                	lw	a4,0(a5)
20401ca2:	ef15                	bnez	a4,20401cde <metal_init+0x46>
20401ca4:	1141                	addi	sp,sp,-16
20401ca6:	c422                	sw	s0,8(sp)
20401ca8:	c226                	sw	s1,4(sp)
20401caa:	20400437          	lui	s0,0x20400
20401cae:	c606                	sw	ra,12(sp)
20401cb0:	4705                	li	a4,1
20401cb2:	204004b7          	lui	s1,0x20400
20401cb6:	c398                	sw	a4,0(a5)
20401cb8:	2ec48493          	addi	s1,s1,748 # 204002ec <metal_constructors_end>
20401cbc:	2e040793          	addi	a5,s0,736 # 204002e0 <_metal_tty_init_ptr>
20401cc0:	2e040413          	addi	s0,s0,736
20401cc4:	0097ea63          	bltu	a5,s1,20401cd8 <metal_init+0x40>
20401cc8:	40b2                	lw	ra,12(sp)
20401cca:	4422                	lw	s0,8(sp)
20401ccc:	4492                	lw	s1,4(sp)
20401cce:	0141                	addi	sp,sp,16
20401cd0:	8082                	ret
20401cd2:	401c                	lw	a5,0(s0)
20401cd4:	0411                	addi	s0,s0,4
20401cd6:	9782                	jalr	a5
20401cd8:	fe941de3          	bne	s0,s1,20401cd2 <metal_init+0x3a>
20401cdc:	b7f5                	j	20401cc8 <metal_init+0x30>
20401cde:	8082                	ret

20401ce0 <metal_fini>:
metal_fini():
20401ce0:	800017b7          	lui	a5,0x80001
20401ce4:	acc78793          	addi	a5,a5,-1332 # 80000acc <metal_segment_heap_target_end+0xfffff35c>
20401ce8:	4398                	lw	a4,0(a5)
20401cea:	ef15                	bnez	a4,20401d26 <metal_fini+0x46>
20401cec:	1141                	addi	sp,sp,-16
20401cee:	c422                	sw	s0,8(sp)
20401cf0:	c226                	sw	s1,4(sp)
20401cf2:	20400437          	lui	s0,0x20400
20401cf6:	c606                	sw	ra,12(sp)
20401cf8:	4705                	li	a4,1
20401cfa:	204004b7          	lui	s1,0x20400
20401cfe:	c398                	sw	a4,0(a5)
20401d00:	2f048493          	addi	s1,s1,752 # 204002f0 <__fini_array_end>
20401d04:	2f040793          	addi	a5,s0,752 # 204002f0 <__fini_array_end>
20401d08:	2f040413          	addi	s0,s0,752
20401d0c:	0097ea63          	bltu	a5,s1,20401d20 <metal_fini+0x40>
20401d10:	40b2                	lw	ra,12(sp)
20401d12:	4422                	lw	s0,8(sp)
20401d14:	4492                	lw	s1,4(sp)
20401d16:	0141                	addi	sp,sp,16
20401d18:	8082                	ret
20401d1a:	401c                	lw	a5,0(s0)
20401d1c:	0411                	addi	s0,s0,4
20401d1e:	9782                	jalr	a5
20401d20:	fe941de3          	bne	s0,s1,20401d1a <metal_fini+0x3a>
20401d24:	b7f5                	j	20401d10 <metal_fini+0x30>
20401d26:	8082                	ret

20401d28 <metal_init_run>:
metal_init_run():
20401d28:	bf85                	j	20401c98 <metal_init>

20401d2a <metal_fini_run>:
metal_fini_run():
20401d2a:	bf5d                	j	20401ce0 <metal_fini>

20401d2c <metal_tty_putc>:
metal_tty_putc():
20401d2c:	85aa                	mv	a1,a0
20401d2e:	80001537          	lui	a0,0x80001
20401d32:	a5050513          	addi	a0,a0,-1456 # 80000a50 <metal_segment_heap_target_end+0xfffff2e0>
20401d36:	a029                	j	20401d40 <metal_uart_putc>

20401d38 <metal_uart_init>:
metal_uart_init():
20401d38:	411c                	lw	a5,0(a0)
20401d3a:	0007a303          	lw	t1,0(a5)
20401d3e:	8302                	jr	t1

20401d40 <metal_uart_putc>:
metal_uart_putc():
20401d40:	411c                	lw	a5,0(a0)
20401d42:	0047a303          	lw	t1,4(a5)
20401d46:	8302                	jr	t1

20401d48 <metal_uart_set_baud_rate>:
metal_uart_set_baud_rate():
20401d48:	411c                	lw	a5,0(a0)
20401d4a:	0147a303          	lw	t1,20(a5)
20401d4e:	8302                	jr	t1

20401d50 <__metal_driver_riscv_clint0_mtimecmp_set>:
__metal_driver_riscv_clint0_mtimecmp_set():
20401d50:	800017b7          	lui	a5,0x80001
20401d54:	a7c78793          	addi	a5,a5,-1412 # 80000a7c <metal_segment_heap_target_end+0xfffff30c>
20401d58:	02000737          	lui	a4,0x2000
20401d5c:	00a78363          	beq	a5,a0,20401d62 <__metal_driver_riscv_clint0_mtimecmp_set+0x12>
20401d60:	4701                	li	a4,0
20401d62:	058e                	slli	a1,a1,0x3
20401d64:	95ba                	add	a1,a1,a4
20401d66:	6711                	lui	a4,0x4
20401d68:	00470793          	addi	a5,a4,4 # 4004 <__heap_size+0x3804>
20401d6c:	97ae                	add	a5,a5,a1
20401d6e:	557d                	li	a0,-1
20401d70:	c388                	sw	a0,0(a5)
20401d72:	95ba                	add	a1,a1,a4
20401d74:	c190                	sw	a2,0(a1)
20401d76:	c394                	sw	a3,0(a5)
20401d78:	4501                	li	a0,0
20401d7a:	8082                	ret

20401d7c <__metal_driver_riscv_clint0_vector_register>:
__metal_driver_riscv_clint0_vector_register():
20401d7c:	557d                	li	a0,-1
20401d7e:	8082                	ret

20401d80 <__metal_driver_riscv_clint0_get_vector_mode>:
__metal_driver_riscv_clint0_get_vector_mode():
20401d80:	7630006f          	j	20402ce2 <__metal_controller_interrupt_vector_mode>

20401d84 <_get_cpu_intc>:
_get_cpu_intc():
20401d84:	1141                	addi	sp,sp,-16
20401d86:	c606                	sw	ra,12(sp)
20401d88:	f1402573          	csrr	a0,mhartid
20401d8c:	6f3010ef          	jal	ra,20403c7e <metal_cpu_get>
20401d90:	40b2                	lw	ra,12(sp)
20401d92:	0141                	addi	sp,sp,16
20401d94:	6e30106f          	j	20403c76 <metal_cpu_interrupt_controller>

20401d98 <__metal_driver_riscv_clint0_set_vector_mode>:
__metal_driver_riscv_clint0_set_vector_mode():
20401d98:	1101                	addi	sp,sp,-32
20401d9a:	ce06                	sw	ra,28(sp)
20401d9c:	c62e                	sw	a1,12(sp)
20401d9e:	37dd                	jal	20401d84 <_get_cpu_intc>
20401da0:	c919                	beqz	a0,20401db6 <__metal_driver_riscv_clint0_set_vector_mode+0x1e>
20401da2:	45b2                	lw	a1,12(sp)
20401da4:	4705                	li	a4,1
20401da6:	00b76863          	bltu	a4,a1,20401db6 <__metal_driver_riscv_clint0_set_vector_mode+0x1e>
20401daa:	411c                	lw	a5,0(a0)
20401dac:	40f2                	lw	ra,28(sp)
20401dae:	0047a303          	lw	t1,4(a5)
20401db2:	6105                	addi	sp,sp,32
20401db4:	8302                	jr	t1
20401db6:	40f2                	lw	ra,28(sp)
20401db8:	557d                	li	a0,-1
20401dba:	6105                	addi	sp,sp,32
20401dbc:	8082                	ret

20401dbe <__metal_driver_riscv_clint0_init>:
__metal_driver_riscv_clint0_init():
20401dbe:	1101                	addi	sp,sp,-32
20401dc0:	800017b7          	lui	a5,0x80001
20401dc4:	c84a                	sw	s2,16(sp)
20401dc6:	ce06                	sw	ra,28(sp)
20401dc8:	cc22                	sw	s0,24(sp)
20401dca:	ca26                	sw	s1,20(sp)
20401dcc:	c64e                	sw	s3,12(sp)
20401dce:	a7c78793          	addi	a5,a5,-1412 # 80000a7c <metal_segment_heap_target_end+0xfffff30c>
20401dd2:	4901                	li	s2,0
20401dd4:	00f51363          	bne	a0,a5,20401dda <__metal_driver_riscv_clint0_init+0x1c>
20401dd8:	4909                	li	s2,2
20401dda:	4144                	lw	s1,4(a0)
20401ddc:	e881                	bnez	s1,20401dec <__metal_driver_riscv_clint0_init+0x2e>
20401dde:	842a                	mv	s0,a0
20401de0:	800009b7          	lui	s3,0x80000
20401de4:	01249b63          	bne	s1,s2,20401dfa <__metal_driver_riscv_clint0_init+0x3c>
20401de8:	4785                	li	a5,1
20401dea:	c05c                	sw	a5,4(s0)
20401dec:	40f2                	lw	ra,28(sp)
20401dee:	4462                	lw	s0,24(sp)
20401df0:	44d2                	lw	s1,20(sp)
20401df2:	4942                	lw	s2,16(sp)
20401df4:	49b2                	lw	s3,12(sp)
20401df6:	6105                	addi	sp,sp,32
20401df8:	8082                	ret
20401dfa:	458d                	li	a1,3
20401dfc:	c091                	beqz	s1,20401e00 <__metal_driver_riscv_clint0_init+0x42>
20401dfe:	459d                	li	a1,7
20401e00:	0a89a783          	lw	a5,168(s3) # 800000a8 <metal_segment_heap_target_end+0xffffe938>
20401e04:	86a2                	mv	a3,s0
20401e06:	4601                	li	a2,0
20401e08:	4fdc                	lw	a5,28(a5)
20401e0a:	0a898513          	addi	a0,s3,168
20401e0e:	0485                	addi	s1,s1,1
20401e10:	9782                	jalr	a5
20401e12:	bfc9                	j	20401de4 <__metal_driver_riscv_clint0_init+0x26>

20401e14 <__metal_driver_riscv_clint0_disable>:
__metal_driver_riscv_clint0_disable():
20401e14:	c5a9                	beqz	a1,20401e5e <__metal_driver_riscv_clint0_disable+0x4a>
20401e16:	1101                	addi	sp,sp,-32
20401e18:	cc22                	sw	s0,24(sp)
20401e1a:	c62e                	sw	a1,12(sp)
20401e1c:	ce06                	sw	ra,28(sp)
20401e1e:	842a                	mv	s0,a0
20401e20:	3795                	jal	20401d84 <_get_cpu_intc>
20401e22:	800017b7          	lui	a5,0x80001
20401e26:	a7c78793          	addi	a5,a5,-1412 # 80000a7c <metal_segment_heap_target_end+0xfffff30c>
20401e2a:	45b2                	lw	a1,12(sp)
20401e2c:	02f41463          	bne	s0,a5,20401e54 <__metal_driver_riscv_clint0_disable+0x40>
20401e30:	800007b7          	lui	a5,0x80000
20401e34:	0a878793          	addi	a5,a5,168 # 800000a8 <metal_segment_heap_target_end+0xffffe938>
20401e38:	00f51e63          	bne	a0,a5,20401e54 <__metal_driver_riscv_clint0_disable+0x40>
20401e3c:	ffb5f793          	andi	a5,a1,-5
20401e40:	468d                	li	a3,3
20401e42:	00d79963          	bne	a5,a3,20401e54 <__metal_driver_riscv_clint0_disable+0x40>
20401e46:	411c                	lw	a5,0(a0)
20401e48:	4462                	lw	s0,24(sp)
20401e4a:	40f2                	lw	ra,28(sp)
20401e4c:	0287a303          	lw	t1,40(a5)
20401e50:	6105                	addi	sp,sp,32
20401e52:	8302                	jr	t1
20401e54:	40f2                	lw	ra,28(sp)
20401e56:	4462                	lw	s0,24(sp)
20401e58:	557d                	li	a0,-1
20401e5a:	6105                	addi	sp,sp,32
20401e5c:	8082                	ret
20401e5e:	557d                	li	a0,-1
20401e60:	8082                	ret

20401e62 <__metal_driver_riscv_clint0_enable>:
__metal_driver_riscv_clint0_enable():
20401e62:	c5a9                	beqz	a1,20401eac <__metal_driver_riscv_clint0_enable+0x4a>
20401e64:	1101                	addi	sp,sp,-32
20401e66:	cc22                	sw	s0,24(sp)
20401e68:	c62e                	sw	a1,12(sp)
20401e6a:	ce06                	sw	ra,28(sp)
20401e6c:	842a                	mv	s0,a0
20401e6e:	3f19                	jal	20401d84 <_get_cpu_intc>
20401e70:	800017b7          	lui	a5,0x80001
20401e74:	a7c78793          	addi	a5,a5,-1412 # 80000a7c <metal_segment_heap_target_end+0xfffff30c>
20401e78:	45b2                	lw	a1,12(sp)
20401e7a:	02f41463          	bne	s0,a5,20401ea2 <__metal_driver_riscv_clint0_enable+0x40>
20401e7e:	800007b7          	lui	a5,0x80000
20401e82:	0a878793          	addi	a5,a5,168 # 800000a8 <metal_segment_heap_target_end+0xffffe938>
20401e86:	00f51e63          	bne	a0,a5,20401ea2 <__metal_driver_riscv_clint0_enable+0x40>
20401e8a:	ffb5f793          	andi	a5,a1,-5
20401e8e:	468d                	li	a3,3
20401e90:	00d79963          	bne	a5,a3,20401ea2 <__metal_driver_riscv_clint0_enable+0x40>
20401e94:	411c                	lw	a5,0(a0)
20401e96:	4462                	lw	s0,24(sp)
20401e98:	40f2                	lw	ra,28(sp)
20401e9a:	0247a303          	lw	t1,36(a5)
20401e9e:	6105                	addi	sp,sp,32
20401ea0:	8302                	jr	t1
20401ea2:	40f2                	lw	ra,28(sp)
20401ea4:	4462                	lw	s0,24(sp)
20401ea6:	557d                	li	a0,-1
20401ea8:	6105                	addi	sp,sp,32
20401eaa:	8082                	ret
20401eac:	557d                	li	a0,-1
20401eae:	8082                	ret

20401eb0 <__metal_driver_riscv_clint0_register>:
__metal_driver_riscv_clint0_register():
20401eb0:	1101                	addi	sp,sp,-32
20401eb2:	c62e                	sw	a1,12(sp)
20401eb4:	c432                	sw	a2,8(sp)
20401eb6:	c236                	sw	a3,4(sp)
20401eb8:	ce06                	sw	ra,28(sp)
20401eba:	cc22                	sw	s0,24(sp)
20401ebc:	ca26                	sw	s1,20(sp)
20401ebe:	84aa                	mv	s1,a0
20401ec0:	623000ef          	jal	ra,20402ce2 <__metal_controller_interrupt_vector_mode>
20401ec4:	842a                	mv	s0,a0
20401ec6:	3d7d                	jal	20401d84 <_get_cpu_intc>
20401ec8:	800017b7          	lui	a5,0x80001
20401ecc:	a7c78793          	addi	a5,a5,-1412 # 80000a7c <metal_segment_heap_target_end+0xfffff30c>
20401ed0:	4692                	lw	a3,4(sp)
20401ed2:	4622                	lw	a2,8(sp)
20401ed4:	45b2                	lw	a1,12(sp)
20401ed6:	00f49563          	bne	s1,a5,20401ee0 <__metal_driver_riscv_clint0_register+0x30>
20401eda:	4785                	li	a5,1
20401edc:	0087f863          	bgeu	a5,s0,20401eec <__metal_driver_riscv_clint0_register+0x3c>
20401ee0:	40f2                	lw	ra,28(sp)
20401ee2:	4462                	lw	s0,24(sp)
20401ee4:	44d2                	lw	s1,20(sp)
20401ee6:	557d                	li	a0,-1
20401ee8:	6105                	addi	sp,sp,32
20401eea:	8082                	ret
20401eec:	800007b7          	lui	a5,0x80000
20401ef0:	0a878793          	addi	a5,a5,168 # 800000a8 <metal_segment_heap_target_end+0xffffe938>
20401ef4:	872a                	mv	a4,a0
20401ef6:	fef515e3          	bne	a0,a5,20401ee0 <__metal_driver_riscv_clint0_register+0x30>
20401efa:	ffb5f793          	andi	a5,a1,-5
20401efe:	480d                	li	a6,3
20401f00:	ff0790e3          	bne	a5,a6,20401ee0 <__metal_driver_riscv_clint0_register+0x30>
20401f04:	431c                	lw	a5,0(a4)
20401f06:	4462                	lw	s0,24(sp)
20401f08:	40f2                	lw	ra,28(sp)
20401f0a:	44d2                	lw	s1,20(sp)
20401f0c:	01c7a303          	lw	t1,28(a5)
20401f10:	6105                	addi	sp,sp,32
20401f12:	8302                	jr	t1

20401f14 <__metal_clint0_mtime_get>:
__metal_clint0_mtime_get():
20401f14:	80001737          	lui	a4,0x80001
20401f18:	a7c70713          	addi	a4,a4,-1412 # 80000a7c <metal_segment_heap_target_end+0xfffff30c>
20401f1c:	020007b7          	lui	a5,0x2000
20401f20:	00a70363          	beq	a4,a0,20401f26 <__metal_clint0_mtime_get+0x12>
20401f24:	4781                	li	a5,0
20401f26:	66b1                	lui	a3,0xc
20401f28:	ffc68713          	addi	a4,a3,-4 # bffc <__heap_size+0xb7fc>
20401f2c:	16e1                	addi	a3,a3,-8
20401f2e:	973e                	add	a4,a4,a5
20401f30:	97b6                	add	a5,a5,a3
20401f32:	4314                	lw	a3,0(a4)
20401f34:	4388                	lw	a0,0(a5)
20401f36:	430c                	lw	a1,0(a4)
20401f38:	fed59de3          	bne	a1,a3,20401f32 <__metal_clint0_mtime_get+0x1e>
20401f3c:	8082                	ret

20401f3e <__metal_driver_riscv_clint0_command_request>:
__metal_driver_riscv_clint0_command_request():
20401f3e:	800017b7          	lui	a5,0x80001
20401f42:	a7c78793          	addi	a5,a5,-1412 # 80000a7c <metal_segment_heap_target_end+0xfffff30c>
20401f46:	4701                	li	a4,0
20401f48:	00f51463          	bne	a0,a5,20401f50 <__metal_driver_riscv_clint0_command_request+0x12>
20401f4c:	02000737          	lui	a4,0x2000
20401f50:	4789                	li	a5,2
20401f52:	04f58663          	beq	a1,a5,20401f9e <__metal_driver_riscv_clint0_command_request+0x60>
20401f56:	00b7c863          	blt	a5,a1,20401f66 <__metal_driver_riscv_clint0_command_request+0x28>
20401f5a:	4785                	li	a5,1
20401f5c:	02f58263          	beq	a1,a5,20401f80 <__metal_driver_riscv_clint0_command_request+0x42>
20401f60:	57fd                	li	a5,-1
20401f62:	853e                	mv	a0,a5
20401f64:	8082                	ret
20401f66:	478d                	li	a5,3
20401f68:	04f58463          	beq	a1,a5,20401fb0 <__metal_driver_riscv_clint0_command_request+0x72>
20401f6c:	4791                	li	a5,4
20401f6e:	fef599e3          	bne	a1,a5,20401f60 <__metal_driver_riscv_clint0_command_request+0x22>
20401f72:	4781                	li	a5,0
20401f74:	d67d                	beqz	a2,20401f62 <__metal_driver_riscv_clint0_command_request+0x24>
20401f76:	421c                	lw	a5,0(a2)
20401f78:	078a                	slli	a5,a5,0x2
20401f7a:	97ba                	add	a5,a5,a4
20401f7c:	439c                	lw	a5,0(a5)
20401f7e:	b7d5                	j	20401f62 <__metal_driver_riscv_clint0_command_request+0x24>
20401f80:	57fd                	li	a5,-1
20401f82:	d265                	beqz	a2,20401f62 <__metal_driver_riscv_clint0_command_request+0x24>
20401f84:	1141                	addi	sp,sp,-16
20401f86:	c422                	sw	s0,8(sp)
20401f88:	c606                	sw	ra,12(sp)
20401f8a:	8432                	mv	s0,a2
20401f8c:	3761                	jal	20401f14 <__metal_clint0_mtime_get>
20401f8e:	c008                	sw	a0,0(s0)
20401f90:	c04c                	sw	a1,4(s0)
20401f92:	40b2                	lw	ra,12(sp)
20401f94:	4422                	lw	s0,8(sp)
20401f96:	4781                	li	a5,0
20401f98:	853e                	mv	a0,a5
20401f9a:	0141                	addi	sp,sp,16
20401f9c:	8082                	ret
20401f9e:	57fd                	li	a5,-1
20401fa0:	d269                	beqz	a2,20401f62 <__metal_driver_riscv_clint0_command_request+0x24>
20401fa2:	421c                	lw	a5,0(a2)
20401fa4:	078a                	slli	a5,a5,0x2
20401fa6:	97ba                	add	a5,a5,a4
20401fa8:	0007a023          	sw	zero,0(a5)
20401fac:	4781                	li	a5,0
20401fae:	bf55                	j	20401f62 <__metal_driver_riscv_clint0_command_request+0x24>
20401fb0:	57fd                	li	a5,-1
20401fb2:	da45                	beqz	a2,20401f62 <__metal_driver_riscv_clint0_command_request+0x24>
20401fb4:	421c                	lw	a5,0(a2)
20401fb6:	078a                	slli	a5,a5,0x2
20401fb8:	97ba                	add	a5,a5,a4
20401fba:	4705                	li	a4,1
20401fbc:	c398                	sw	a4,0(a5)
20401fbe:	0480000f          	fence	o,i
20401fc2:	439c                	lw	a5,0(a5)
20401fc4:	b7e5                	j	20401fac <__metal_driver_riscv_clint0_command_request+0x6e>

20401fc6 <__metal_driver_riscv_clint0_clear_interrupt>:
__metal_driver_riscv_clint0_clear_interrupt():
20401fc6:	1101                	addi	sp,sp,-32
20401fc8:	ce06                	sw	ra,28(sp)
20401fca:	cc22                	sw	s0,24(sp)
20401fcc:	842a                	mv	s0,a0
20401fce:	4bd010ef          	jal	ra,20403c8a <metal_cpu_get_current_hartid>
20401fd2:	c62a                	sw	a0,12(sp)
20401fd4:	0070                	addi	a2,sp,12
20401fd6:	8522                	mv	a0,s0
20401fd8:	4589                	li	a1,2
20401fda:	3795                	jal	20401f3e <__metal_driver_riscv_clint0_command_request>
20401fdc:	40f2                	lw	ra,28(sp)
20401fde:	4462                	lw	s0,24(sp)
20401fe0:	6105                	addi	sp,sp,32
20401fe2:	8082                	ret

20401fe4 <__metal_driver_riscv_clint0_set_interrupt>:
__metal_driver_riscv_clint0_set_interrupt():
20401fe4:	1101                	addi	sp,sp,-32
20401fe6:	ce06                	sw	ra,28(sp)
20401fe8:	cc22                	sw	s0,24(sp)
20401fea:	842a                	mv	s0,a0
20401fec:	49f010ef          	jal	ra,20403c8a <metal_cpu_get_current_hartid>
20401ff0:	c62a                	sw	a0,12(sp)
20401ff2:	0070                	addi	a2,sp,12
20401ff4:	8522                	mv	a0,s0
20401ff6:	458d                	li	a1,3
20401ff8:	3799                	jal	20401f3e <__metal_driver_riscv_clint0_command_request>
20401ffa:	40f2                	lw	ra,28(sp)
20401ffc:	4462                	lw	s0,24(sp)
20401ffe:	6105                	addi	sp,sp,32
20402000:	8082                	ret

20402002 <__metal_default_sw_handler>:
__metal_default_sw_handler():
20402002:	85aa                	mv	a1,a0
20402004:	f14027f3          	csrr	a5,mhartid
20402008:	00279713          	slli	a4,a5,0x2
2040200c:	82418793          	addi	a5,gp,-2012 # 80000a94 <__metal_dt_prci_10008000+0x4>
20402010:	97ba                	add	a5,a5,a4
20402012:	4388                	lw	a0,0(a5)
20402014:	342027f3          	csrr	a5,mcause
20402018:	c50d                	beqz	a0,20402042 <__metal_default_sw_handler+0x40>
2040201a:	3ff7f793          	andi	a5,a5,1023
2040201e:	81418713          	addi	a4,gp,-2028 # 80000a84 <__metal_dt_cpu_0>
20402022:	0e878793          	addi	a5,a5,232
20402026:	00e51b63          	bne	a0,a4,2040203c <__metal_default_sw_handler+0x3a>
2040202a:	80000737          	lui	a4,0x80000
2040202e:	078a                	slli	a5,a5,0x2
20402030:	0a870713          	addi	a4,a4,168 # 800000a8 <metal_segment_heap_target_end+0xffffe938>
20402034:	97ba                	add	a5,a5,a4
20402036:	0007a303          	lw	t1,0(a5)
2040203a:	8302                	jr	t1
2040203c:	078a                	slli	a5,a5,0x2
2040203e:	439c                	lw	a5,0(a5)
20402040:	9002                	ebreak
20402042:	8082                	ret

20402044 <__metal_default_beu_handler>:
__metal_default_beu_handler():
20402044:	8082                	ret
	...

20402080 <__metal_exception_handler>:
__metal_exception_handler():
20402080:	7139                	addi	sp,sp,-64
20402082:	de06                	sw	ra,60(sp)
20402084:	dc16                	sw	t0,56(sp)
20402086:	da1a                	sw	t1,52(sp)
20402088:	d81e                	sw	t2,48(sp)
2040208a:	d62a                	sw	a0,44(sp)
2040208c:	d42e                	sw	a1,40(sp)
2040208e:	d232                	sw	a2,36(sp)
20402090:	d036                	sw	a3,32(sp)
20402092:	ce3a                	sw	a4,28(sp)
20402094:	cc3e                	sw	a5,24(sp)
20402096:	ca42                	sw	a6,20(sp)
20402098:	c846                	sw	a7,16(sp)
2040209a:	c672                	sw	t3,12(sp)
2040209c:	c476                	sw	t4,8(sp)
2040209e:	c27a                	sw	t5,4(sp)
204020a0:	c07e                	sw	t6,0(sp)
204020a2:	f14027f3          	csrr	a5,mhartid
204020a6:	00279713          	slli	a4,a5,0x2
204020aa:	82418793          	addi	a5,gp,-2012 # 80000a94 <__metal_dt_prci_10008000+0x4>
204020ae:	97ba                	add	a5,a5,a4
204020b0:	4394                	lw	a3,0(a5)
204020b2:	34202673          	csrr	a2,mcause
204020b6:	341027f3          	csrr	a5,mepc
204020ba:	343027f3          	csrr	a5,mtval
204020be:	30502773          	csrr	a4,mtvec
204020c2:	c68d                	beqz	a3,204020ec <__metal_exception_handler+0x6c>
204020c4:	81418793          	addi	a5,gp,-2028 # 80000a84 <__metal_dt_cpu_0>
204020c8:	04f68563          	beq	a3,a5,20402112 <__metal_exception_handler+0x92>
204020cc:	4781                	li	a5,0
204020ce:	3ff67513          	andi	a0,a2,1023
204020d2:	06065d63          	bgez	a2,2040214c <__metal_exception_handler+0xcc>
204020d6:	08000693          	li	a3,128
204020da:	04d51163          	bne	a0,a3,2040211c <__metal_exception_handler+0x9c>
204020de:	3907a703          	lw	a4,912(a5)
204020e2:	3987a583          	lw	a1,920(a5)
204020e6:	08000513          	li	a0,128
204020ea:	9702                	jalr	a4
204020ec:	50f2                	lw	ra,60(sp)
204020ee:	52e2                	lw	t0,56(sp)
204020f0:	5352                	lw	t1,52(sp)
204020f2:	53c2                	lw	t2,48(sp)
204020f4:	5532                	lw	a0,44(sp)
204020f6:	55a2                	lw	a1,40(sp)
204020f8:	5612                	lw	a2,36(sp)
204020fa:	5682                	lw	a3,32(sp)
204020fc:	4772                	lw	a4,28(sp)
204020fe:	47e2                	lw	a5,24(sp)
20402100:	4852                	lw	a6,20(sp)
20402102:	48c2                	lw	a7,16(sp)
20402104:	4e32                	lw	t3,12(sp)
20402106:	4ea2                	lw	t4,8(sp)
20402108:	4f12                	lw	t5,4(sp)
2040210a:	4f82                	lw	t6,0(sp)
2040210c:	6121                	addi	sp,sp,64
2040210e:	30200073          	mret
20402112:	800007b7          	lui	a5,0x80000
20402116:	0a878793          	addi	a5,a5,168 # 800000a8 <metal_segment_heap_target_end+0xffffe938>
2040211a:	bf55                	j	204020ce <__metal_exception_handler+0x4e>
2040211c:	46ad                	li	a3,11
2040211e:	00a6d563          	bge	a3,a0,20402128 <__metal_exception_handler+0xa8>
20402122:	03f77713          	andi	a4,a4,63
20402126:	eb11                	bnez	a4,2040213a <__metal_exception_handler+0xba>
20402128:	4761                	li	a4,24
2040212a:	02e50733          	mul	a4,a0,a4
2040212e:	97ba                	add	a5,a5,a4
20402130:	0907a703          	lw	a4,144(a5)
20402134:	0987a583          	lw	a1,152(a5)
20402138:	bf4d                	j	204020ea <__metal_exception_handler+0x6a>
2040213a:	4689                	li	a3,2
2040213c:	fad718e3          	bne	a4,a3,204020ec <__metal_exception_handler+0x6c>
20402140:	30702773          	csrr	a4,mtvt
20402144:	4318                	lw	a4,0(a4)
20402146:	0dc7a583          	lw	a1,220(a5)
2040214a:	b745                	j	204020ea <__metal_exception_handler+0x6a>
2040214c:	0e850713          	addi	a4,a0,232
20402150:	070a                	slli	a4,a4,0x2
20402152:	97ba                	add	a5,a5,a4
20402154:	439c                	lw	a5,0(a5)
20402156:	85aa                	mv	a1,a0
20402158:	8536                	mv	a0,a3
2040215a:	9782                	jalr	a5
2040215c:	bf41                	j	204020ec <__metal_exception_handler+0x6c>
	...

2040217a <__metal_driver_riscv_cpu_controller_command_request>:
__metal_driver_riscv_cpu_controller_command_request():
2040217a:	4501                	li	a0,0
2040217c:	8082                	ret

2040217e <__metal_driver_cpu_mcycle_get>:
__metal_driver_cpu_mcycle_get():
2040217e:	b80025f3          	csrr	a1,mcycleh
20402182:	b0002573          	csrr	a0,mcycle
20402186:	b80027f3          	csrr	a5,mcycleh
2040218a:	fef59ae3          	bne	a1,a5,2040217e <__metal_driver_cpu_mcycle_get>
2040218e:	8082                	ret

20402190 <__metal_driver_cpu_timebase_get>:
__metal_driver_cpu_timebase_get():
20402190:	cd11                	beqz	a0,204021ac <__metal_driver_cpu_timebase_get+0x1c>
20402192:	81418793          	addi	a5,gp,-2028 # 80000a84 <__metal_dt_cpu_0>
20402196:	00f50663          	beq	a0,a5,204021a2 <__metal_driver_cpu_timebase_get+0x12>
2040219a:	4501                	li	a0,0
2040219c:	41f55593          	srai	a1,a0,0x1f
204021a0:	8082                	ret
204021a2:	000f4537          	lui	a0,0xf4
204021a6:	24050513          	addi	a0,a0,576 # f4240 <__heap_size+0xf3a40>
204021aa:	bfcd                	j	2040219c <__metal_driver_cpu_timebase_get+0xc>
204021ac:	4501                	li	a0,0
204021ae:	4581                	li	a1,0
204021b0:	8082                	ret

204021b2 <__metal_driver_cpu_mtime_get>:
__metal_driver_cpu_mtime_get():
204021b2:	1101                	addi	sp,sp,-32
204021b4:	4781                	li	a5,0
204021b6:	4801                	li	a6,0
204021b8:	c43e                	sw	a5,8(sp)
204021ba:	ce06                	sw	ra,28(sp)
204021bc:	c642                	sw	a6,12(sp)
204021be:	81418793          	addi	a5,gp,-2028 # 80000a84 <__metal_dt_cpu_0>
204021c2:	00a79c63          	bne	a5,a0,204021da <__metal_driver_cpu_mtime_get+0x28>
204021c6:	800007b7          	lui	a5,0x80000
204021ca:	1e47a503          	lw	a0,484(a5) # 800001e4 <metal_segment_heap_target_end+0xffffea74>
204021ce:	c511                	beqz	a0,204021da <__metal_driver_cpu_mtime_get+0x28>
204021d0:	411c                	lw	a5,0(a0)
204021d2:	0030                	addi	a2,sp,8
204021d4:	4585                	li	a1,1
204021d6:	47fc                	lw	a5,76(a5)
204021d8:	9782                	jalr	a5
204021da:	40f2                	lw	ra,28(sp)
204021dc:	4522                	lw	a0,8(sp)
204021de:	45b2                	lw	a1,12(sp)
204021e0:	6105                	addi	sp,sp,32
204021e2:	8082                	ret

204021e4 <__metal_driver_cpu_timer_controller_interrupt>:
__metal_driver_cpu_timer_controller_interrupt():
204021e4:	80001537          	lui	a0,0x80001
204021e8:	a7c50513          	addi	a0,a0,-1412 # 80000a7c <metal_segment_heap_target_end+0xfffff30c>
204021ec:	8082                	ret

204021ee <__metal_driver_cpu_get_timer_interrupt_id>:
__metal_driver_cpu_get_timer_interrupt_id():
204021ee:	451d                	li	a0,7
204021f0:	8082                	ret

204021f2 <__metal_driver_cpu_get_sw_interrupt_id>:
__metal_driver_cpu_get_sw_interrupt_id():
204021f2:	450d                	li	a0,3
204021f4:	8082                	ret

204021f6 <__metal_driver_cpu_set_sw_ipi>:
__metal_driver_cpu_set_sw_ipi():
204021f6:	1101                	addi	sp,sp,-32
204021f8:	ce06                	sw	ra,28(sp)
204021fa:	c62e                	sw	a1,12(sp)
204021fc:	81418793          	addi	a5,gp,-2028 # 80000a84 <__metal_dt_cpu_0>
20402200:	02a79163          	bne	a5,a0,20402222 <__metal_driver_cpu_set_sw_ipi+0x2c>
20402204:	800007b7          	lui	a5,0x80000
20402208:	1847a783          	lw	a5,388(a5) # 80000184 <metal_segment_heap_target_end+0xffffea14>
2040220c:	557d                	li	a0,-1
2040220e:	c799                	beqz	a5,2040221c <__metal_driver_cpu_set_sw_ipi+0x26>
20402210:	4398                	lw	a4,0(a5)
20402212:	0070                	addi	a2,sp,12
20402214:	458d                	li	a1,3
20402216:	4778                	lw	a4,76(a4)
20402218:	853e                	mv	a0,a5
2040221a:	9702                	jalr	a4
2040221c:	40f2                	lw	ra,28(sp)
2040221e:	6105                	addi	sp,sp,32
20402220:	8082                	ret
20402222:	557d                	li	a0,-1
20402224:	bfe5                	j	2040221c <__metal_driver_cpu_set_sw_ipi+0x26>

20402226 <__metal_driver_cpu_clear_sw_ipi>:
__metal_driver_cpu_clear_sw_ipi():
20402226:	1101                	addi	sp,sp,-32
20402228:	ce06                	sw	ra,28(sp)
2040222a:	c62e                	sw	a1,12(sp)
2040222c:	81418793          	addi	a5,gp,-2028 # 80000a84 <__metal_dt_cpu_0>
20402230:	02a79163          	bne	a5,a0,20402252 <__metal_driver_cpu_clear_sw_ipi+0x2c>
20402234:	800007b7          	lui	a5,0x80000
20402238:	1847a783          	lw	a5,388(a5) # 80000184 <metal_segment_heap_target_end+0xffffea14>
2040223c:	557d                	li	a0,-1
2040223e:	c799                	beqz	a5,2040224c <__metal_driver_cpu_clear_sw_ipi+0x26>
20402240:	4398                	lw	a4,0(a5)
20402242:	0070                	addi	a2,sp,12
20402244:	4589                	li	a1,2
20402246:	4778                	lw	a4,76(a4)
20402248:	853e                	mv	a0,a5
2040224a:	9702                	jalr	a4
2040224c:	40f2                	lw	ra,28(sp)
2040224e:	6105                	addi	sp,sp,32
20402250:	8082                	ret
20402252:	557d                	li	a0,-1
20402254:	bfe5                	j	2040224c <__metal_driver_cpu_clear_sw_ipi+0x26>

20402256 <__metal_driver_cpu_get_msip>:
__metal_driver_cpu_get_msip():
20402256:	1101                	addi	sp,sp,-32
20402258:	ce06                	sw	ra,28(sp)
2040225a:	c62e                	sw	a1,12(sp)
2040225c:	81418793          	addi	a5,gp,-2028 # 80000a84 <__metal_dt_cpu_0>
20402260:	02a79163          	bne	a5,a0,20402282 <__metal_driver_cpu_get_msip+0x2c>
20402264:	800007b7          	lui	a5,0x80000
20402268:	1847a783          	lw	a5,388(a5) # 80000184 <metal_segment_heap_target_end+0xffffea14>
2040226c:	4501                	li	a0,0
2040226e:	c799                	beqz	a5,2040227c <__metal_driver_cpu_get_msip+0x26>
20402270:	4398                	lw	a4,0(a5)
20402272:	0070                	addi	a2,sp,12
20402274:	4591                	li	a1,4
20402276:	4778                	lw	a4,76(a4)
20402278:	853e                	mv	a0,a5
2040227a:	9702                	jalr	a4
2040227c:	40f2                	lw	ra,28(sp)
2040227e:	6105                	addi	sp,sp,32
20402280:	8082                	ret
20402282:	4501                	li	a0,0
20402284:	bfe5                	j	2040227c <__metal_driver_cpu_get_msip+0x26>

20402286 <__metal_driver_cpu_controller_interrupt>:
__metal_driver_cpu_controller_interrupt():
20402286:	81418793          	addi	a5,gp,-2028 # 80000a84 <__metal_dt_cpu_0>
2040228a:	00a78463          	beq	a5,a0,20402292 <__metal_driver_cpu_controller_interrupt+0xc>
2040228e:	4501                	li	a0,0
20402290:	8082                	ret
20402292:	80000537          	lui	a0,0x80000
20402296:	0a850513          	addi	a0,a0,168 # 800000a8 <metal_segment_heap_target_end+0xffffe938>
2040229a:	8082                	ret

2040229c <__metal_driver_cpu_get_instruction_length>:
__metal_driver_cpu_get_instruction_length():
2040229c:	0005d783          	lhu	a5,0(a1)
204022a0:	470d                	li	a4,3
204022a2:	4511                	li	a0,4
204022a4:	8b8d                	andi	a5,a5,3
204022a6:	00e78363          	beq	a5,a4,204022ac <__metal_driver_cpu_get_instruction_length+0x10>
204022aa:	4509                	li	a0,2
204022ac:	8082                	ret

204022ae <__metal_driver_cpu_get_exception_pc>:
__metal_driver_cpu_get_exception_pc():
204022ae:	34102573          	csrr	a0,mepc
204022b2:	8082                	ret

204022b4 <__metal_driver_cpu_set_exception_pc>:
__metal_driver_cpu_set_exception_pc():
204022b4:	34159073          	csrw	mepc,a1
204022b8:	4501                	li	a0,0
204022ba:	8082                	ret

204022bc <__metal_driver_cpu_get_buserror>:
__metal_driver_cpu_get_buserror():
204022bc:	4501                	li	a0,0
204022be:	8082                	ret

204022c0 <__metal_default_exception_handler>:
__metal_default_exception_handler():
204022c0:	1141                	addi	sp,sp,-16
204022c2:	06400513          	li	a0,100
204022c6:	c606                	sw	ra,12(sp)
204022c8:	1c9010ef          	jal	ra,20403c90 <metal_shutdown>

204022cc <__metal_default_interrupt_handler>:
__metal_default_interrupt_handler():
204022cc:	1141                	addi	sp,sp,-16
204022ce:	0c800513          	li	a0,200
204022d2:	c606                	sw	ra,12(sp)
204022d4:	1bd010ef          	jal	ra,20403c90 <metal_shutdown>

204022d8 <__metal_driver_cpu_mtimecmp_set>:
__metal_driver_cpu_mtimecmp_set():
204022d8:	81418793          	addi	a5,gp,-2028 # 80000a84 <__metal_dt_cpu_0>
204022dc:	86b2                	mv	a3,a2
204022de:	862e                	mv	a2,a1
204022e0:	00a79c63          	bne	a5,a0,204022f8 <__metal_driver_cpu_mtimecmp_set+0x20>
204022e4:	800007b7          	lui	a5,0x80000
204022e8:	1e47a503          	lw	a0,484(a5) # 800001e4 <metal_segment_heap_target_end+0xffffea74>
204022ec:	c511                	beqz	a0,204022f8 <__metal_driver_cpu_mtimecmp_set+0x20>
204022ee:	411c                	lw	a5,0(a0)
204022f0:	4581                	li	a1,0
204022f2:	0507a303          	lw	t1,80(a5)
204022f6:	8302                	jr	t1
204022f8:	557d                	li	a0,-1
204022fa:	8082                	ret

204022fc <__metal_default_timer_handler>:
__metal_default_timer_handler():
204022fc:	1141                	addi	sp,sp,-16
204022fe:	c606                	sw	ra,12(sp)
20402300:	c422                	sw	s0,8(sp)
20402302:	f14027f3          	csrr	a5,mhartid
20402306:	4401                	li	s0,0
20402308:	00f04863          	bgtz	a5,20402318 <__metal_default_timer_handler+0x1c>
2040230c:	00279713          	slli	a4,a5,0x2
20402310:	82418793          	addi	a5,gp,-2012 # 80000a94 <__metal_dt_prci_10008000+0x4>
20402314:	97ba                	add	a5,a5,a4
20402316:	4380                	lw	s0,0(a5)
20402318:	8522                	mv	a0,s0
2040231a:	3d61                	jal	204021b2 <__metal_driver_cpu_mtime_get>
2040231c:	00a50793          	addi	a5,a0,10
20402320:	00a7b533          	sltu	a0,a5,a0
20402324:	00b50633          	add	a2,a0,a1
20402328:	8522                	mv	a0,s0
2040232a:	4422                	lw	s0,8(sp)
2040232c:	40b2                	lw	ra,12(sp)
2040232e:	85be                	mv	a1,a5
20402330:	0141                	addi	sp,sp,16
20402332:	b75d                	j	204022d8 <__metal_driver_cpu_mtimecmp_set>

20402334 <__metal_driver_riscv_cpu_controller_interrupt_init>:
__metal_driver_riscv_cpu_controller_interrupt_init():
20402334:	415c                	lw	a5,4(a0)
20402336:	efa9                	bnez	a5,20402390 <__metal_driver_riscv_cpu_controller_interrupt_init+0x5c>
20402338:	09050793          	addi	a5,a0,144
2040233c:	39050713          	addi	a4,a0,912
20402340:	0007a023          	sw	zero,0(a5)
20402344:	0007a223          	sw	zero,4(a5)
20402348:	0007a423          	sw	zero,8(a5)
2040234c:	07e1                	addi	a5,a5,24
2040234e:	fee799e3          	bne	a5,a4,20402340 <__metal_driver_riscv_cpu_controller_interrupt_init+0xc>
20402352:	20402737          	lui	a4,0x20402
20402356:	3a050793          	addi	a5,a0,928
2040235a:	3d050693          	addi	a3,a0,976
2040235e:	2c070713          	addi	a4,a4,704 # 204022c0 <__metal_default_exception_handler>
20402362:	c398                	sw	a4,0(a5)
20402364:	0791                	addi	a5,a5,4
20402366:	fef69ee3          	bne	a3,a5,20402362 <__metal_driver_riscv_cpu_controller_interrupt_init+0x2e>
2040236a:	30502773          	csrr	a4,mtvec
2040236e:	204007b7          	lui	a5,0x20400
20402372:	13c78793          	addi	a5,a5,316 # 2040013c <early_trap_vector>
20402376:	00f71b63          	bne	a4,a5,2040238c <__metal_driver_riscv_cpu_controller_interrupt_init+0x58>
2040237a:	305027f3          	csrr	a5,mtvec
2040237e:	204027b7          	lui	a5,0x20402
20402382:	08078793          	addi	a5,a5,128 # 20402080 <__metal_exception_handler>
20402386:	9bf1                	andi	a5,a5,-4
20402388:	30579073          	csrw	mtvec,a5
2040238c:	4785                	li	a5,1
2040238e:	c15c                	sw	a5,4(a0)
20402390:	8082                	ret

20402392 <__metal_driver_cpu_exception_register>:
__metal_driver_cpu_exception_register():
20402392:	81418793          	addi	a5,gp,-2028 # 80000a84 <__metal_dt_cpu_0>
20402396:	02a79263          	bne	a5,a0,204023ba <__metal_driver_cpu_exception_register+0x28>
2040239a:	47ad                	li	a5,11
2040239c:	557d                	li	a0,-1
2040239e:	00b7cf63          	blt	a5,a1,204023bc <__metal_driver_cpu_exception_register+0x2a>
204023a2:	ce09                	beqz	a2,204023bc <__metal_driver_cpu_exception_register+0x2a>
204023a4:	800007b7          	lui	a5,0x80000
204023a8:	0e858593          	addi	a1,a1,232
204023ac:	0a878793          	addi	a5,a5,168 # 800000a8 <metal_segment_heap_target_end+0xffffe938>
204023b0:	058a                	slli	a1,a1,0x2
204023b2:	95be                	add	a1,a1,a5
204023b4:	c190                	sw	a2,0(a1)
204023b6:	4501                	li	a0,0
204023b8:	8082                	ret
204023ba:	557d                	li	a0,-1
204023bc:	8082                	ret

204023be <__metal_driver_cpu_sw_controller_interrupt>:
__metal_driver_cpu_sw_controller_interrupt():
204023be:	80001537          	lui	a0,0x80001
204023c2:	a7c50513          	addi	a0,a0,-1412 # 80000a7c <metal_segment_heap_target_end+0xfffff30c>
204023c6:	8082                	ret

204023c8 <__metal_driver_riscv_cpu_controller_set_vector_mode>:
__metal_driver_riscv_cpu_controller_set_vector_mode():
204023c8:	ed81                	bnez	a1,204023e0 <__metal_driver_riscv_cpu_controller_set_vector_mode+0x18>
204023ca:	305027f3          	csrr	a5,mtvec
204023ce:	204027b7          	lui	a5,0x20402
204023d2:	08078793          	addi	a5,a5,128 # 20402080 <__metal_exception_handler>
204023d6:	9bf1                	andi	a5,a5,-4
204023d8:	30579073          	csrw	mtvec,a5
204023dc:	4501                	li	a0,0
204023de:	8082                	ret
204023e0:	4785                	li	a5,1
204023e2:	557d                	li	a0,-1
204023e4:	fef59de3          	bne	a1,a5,204023de <__metal_driver_riscv_cpu_controller_set_vector_mode+0x16>
204023e8:	305027f3          	csrr	a5,mtvec
204023ec:	204047b7          	lui	a5,0x20404
204023f0:	d0078793          	addi	a5,a5,-768 # 20403d00 <__metal_vector_table>
204023f4:	0017e793          	ori	a5,a5,1
204023f8:	b7c5                	j	204023d8 <__metal_driver_riscv_cpu_controller_set_vector_mode+0x10>

204023fa <__metal_myhart_id>:
__metal_myhart_id():
204023fa:	f1402573          	csrr	a0,mhartid
204023fe:	8082                	ret

20402400 <metal_interrupt_vector_handler>:
metal_interrupt_vector_handler():
20402400:	7139                	addi	sp,sp,-64
20402402:	d62a                	sw	a0,44(sp)
20402404:	12c00513          	li	a0,300
20402408:	de06                	sw	ra,60(sp)
2040240a:	dc16                	sw	t0,56(sp)
2040240c:	da1a                	sw	t1,52(sp)
2040240e:	d81e                	sw	t2,48(sp)
20402410:	d42e                	sw	a1,40(sp)
20402412:	d232                	sw	a2,36(sp)
20402414:	d036                	sw	a3,32(sp)
20402416:	ce3a                	sw	a4,28(sp)
20402418:	cc3e                	sw	a5,24(sp)
2040241a:	ca42                	sw	a6,20(sp)
2040241c:	c846                	sw	a7,16(sp)
2040241e:	c672                	sw	t3,12(sp)
20402420:	c476                	sw	t4,8(sp)
20402422:	c27a                	sw	t5,4(sp)
20402424:	c07e                	sw	t6,0(sp)
20402426:	06b010ef          	jal	ra,20403c90 <metal_shutdown>

2040242a <metal_software_interrupt_vector_handler>:
metal_software_interrupt_vector_handler():
2040242a:	7139                	addi	sp,sp,-64
2040242c:	de06                	sw	ra,60(sp)
2040242e:	dc16                	sw	t0,56(sp)
20402430:	da1a                	sw	t1,52(sp)
20402432:	d81e                	sw	t2,48(sp)
20402434:	d62a                	sw	a0,44(sp)
20402436:	d42e                	sw	a1,40(sp)
20402438:	d232                	sw	a2,36(sp)
2040243a:	d036                	sw	a3,32(sp)
2040243c:	ce3a                	sw	a4,28(sp)
2040243e:	cc3e                	sw	a5,24(sp)
20402440:	ca42                	sw	a6,20(sp)
20402442:	c846                	sw	a7,16(sp)
20402444:	c672                	sw	t3,12(sp)
20402446:	c476                	sw	t4,8(sp)
20402448:	c27a                	sw	t5,4(sp)
2040244a:	c07e                	sw	t6,0(sp)
2040244c:	f14027f3          	csrr	a5,mhartid
20402450:	00279713          	slli	a4,a5,0x2
20402454:	82418793          	addi	a5,gp,-2012 # 80000a94 <__metal_dt_prci_10008000+0x4>
20402458:	97ba                	add	a5,a5,a4
2040245a:	4398                	lw	a4,0(a5)
2040245c:	cf19                	beqz	a4,2040247a <metal_software_interrupt_vector_handler+0x50>
2040245e:	81418793          	addi	a5,gp,-2028 # 80000a84 <__metal_dt_cpu_0>
20402462:	02f71f63          	bne	a4,a5,204024a0 <metal_software_interrupt_vector_handler+0x76>
20402466:	800007b7          	lui	a5,0x80000
2040246a:	0a878793          	addi	a5,a5,168 # 800000a8 <metal_segment_heap_target_end+0xffffe938>
2040246e:	0d87a703          	lw	a4,216(a5)
20402472:	0e07a583          	lw	a1,224(a5)
20402476:	450d                	li	a0,3
20402478:	9702                	jalr	a4
2040247a:	50f2                	lw	ra,60(sp)
2040247c:	52e2                	lw	t0,56(sp)
2040247e:	5352                	lw	t1,52(sp)
20402480:	53c2                	lw	t2,48(sp)
20402482:	5532                	lw	a0,44(sp)
20402484:	55a2                	lw	a1,40(sp)
20402486:	5612                	lw	a2,36(sp)
20402488:	5682                	lw	a3,32(sp)
2040248a:	4772                	lw	a4,28(sp)
2040248c:	47e2                	lw	a5,24(sp)
2040248e:	4852                	lw	a6,20(sp)
20402490:	48c2                	lw	a7,16(sp)
20402492:	4e32                	lw	t3,12(sp)
20402494:	4ea2                	lw	t4,8(sp)
20402496:	4f12                	lw	t5,4(sp)
20402498:	4f82                	lw	t6,0(sp)
2040249a:	6121                	addi	sp,sp,64
2040249c:	30200073          	mret
204024a0:	0e002783          	lw	a5,224(zero) # e0 <__metal_chicken_bit+0xdf>
204024a4:	9002                	ebreak

204024a6 <metal_timer_interrupt_vector_handler>:
metal_timer_interrupt_vector_handler():
204024a6:	7139                	addi	sp,sp,-64
204024a8:	de06                	sw	ra,60(sp)
204024aa:	dc16                	sw	t0,56(sp)
204024ac:	da1a                	sw	t1,52(sp)
204024ae:	d81e                	sw	t2,48(sp)
204024b0:	d62a                	sw	a0,44(sp)
204024b2:	d42e                	sw	a1,40(sp)
204024b4:	d232                	sw	a2,36(sp)
204024b6:	d036                	sw	a3,32(sp)
204024b8:	ce3a                	sw	a4,28(sp)
204024ba:	cc3e                	sw	a5,24(sp)
204024bc:	ca42                	sw	a6,20(sp)
204024be:	c846                	sw	a7,16(sp)
204024c0:	c672                	sw	t3,12(sp)
204024c2:	c476                	sw	t4,8(sp)
204024c4:	c27a                	sw	t5,4(sp)
204024c6:	c07e                	sw	t6,0(sp)
204024c8:	f14027f3          	csrr	a5,mhartid
204024cc:	00279713          	slli	a4,a5,0x2
204024d0:	82418793          	addi	a5,gp,-2012 # 80000a94 <__metal_dt_prci_10008000+0x4>
204024d4:	97ba                	add	a5,a5,a4
204024d6:	4398                	lw	a4,0(a5)
204024d8:	cf19                	beqz	a4,204024f6 <metal_timer_interrupt_vector_handler+0x50>
204024da:	81418793          	addi	a5,gp,-2028 # 80000a84 <__metal_dt_cpu_0>
204024de:	02f71f63          	bne	a4,a5,2040251c <metal_timer_interrupt_vector_handler+0x76>
204024e2:	800007b7          	lui	a5,0x80000
204024e6:	0a878793          	addi	a5,a5,168 # 800000a8 <metal_segment_heap_target_end+0xffffe938>
204024ea:	1387a703          	lw	a4,312(a5)
204024ee:	1407a583          	lw	a1,320(a5)
204024f2:	451d                	li	a0,7
204024f4:	9702                	jalr	a4
204024f6:	50f2                	lw	ra,60(sp)
204024f8:	52e2                	lw	t0,56(sp)
204024fa:	5352                	lw	t1,52(sp)
204024fc:	53c2                	lw	t2,48(sp)
204024fe:	5532                	lw	a0,44(sp)
20402500:	55a2                	lw	a1,40(sp)
20402502:	5612                	lw	a2,36(sp)
20402504:	5682                	lw	a3,32(sp)
20402506:	4772                	lw	a4,28(sp)
20402508:	47e2                	lw	a5,24(sp)
2040250a:	4852                	lw	a6,20(sp)
2040250c:	48c2                	lw	a7,16(sp)
2040250e:	4e32                	lw	t3,12(sp)
20402510:	4ea2                	lw	t4,8(sp)
20402512:	4f12                	lw	t5,4(sp)
20402514:	4f82                	lw	t6,0(sp)
20402516:	6121                	addi	sp,sp,64
20402518:	30200073          	mret
2040251c:	14002783          	lw	a5,320(zero) # 140 <__metal_chicken_bit+0x13f>
20402520:	9002                	ebreak

20402522 <metal_lc0_interrupt_vector_handler>:
metal_lc0_interrupt_vector_handler():
20402522:	7139                	addi	sp,sp,-64
20402524:	de06                	sw	ra,60(sp)
20402526:	dc16                	sw	t0,56(sp)
20402528:	da1a                	sw	t1,52(sp)
2040252a:	d81e                	sw	t2,48(sp)
2040252c:	d62a                	sw	a0,44(sp)
2040252e:	d42e                	sw	a1,40(sp)
20402530:	d232                	sw	a2,36(sp)
20402532:	d036                	sw	a3,32(sp)
20402534:	ce3a                	sw	a4,28(sp)
20402536:	cc3e                	sw	a5,24(sp)
20402538:	ca42                	sw	a6,20(sp)
2040253a:	c846                	sw	a7,16(sp)
2040253c:	c672                	sw	t3,12(sp)
2040253e:	c476                	sw	t4,8(sp)
20402540:	c27a                	sw	t5,4(sp)
20402542:	c07e                	sw	t6,0(sp)
20402544:	f14027f3          	csrr	a5,mhartid
20402548:	00279713          	slli	a4,a5,0x2
2040254c:	82418793          	addi	a5,gp,-2012 # 80000a94 <__metal_dt_prci_10008000+0x4>
20402550:	97ba                	add	a5,a5,a4
20402552:	4398                	lw	a4,0(a5)
20402554:	cf19                	beqz	a4,20402572 <metal_lc0_interrupt_vector_handler+0x50>
20402556:	81418793          	addi	a5,gp,-2028 # 80000a84 <__metal_dt_cpu_0>
2040255a:	02f71f63          	bne	a4,a5,20402598 <metal_lc0_interrupt_vector_handler+0x76>
2040255e:	800007b7          	lui	a5,0x80000
20402562:	0a878793          	addi	a5,a5,168 # 800000a8 <metal_segment_heap_target_end+0xffffe938>
20402566:	2107a703          	lw	a4,528(a5)
2040256a:	2187a583          	lw	a1,536(a5)
2040256e:	4541                	li	a0,16
20402570:	9702                	jalr	a4
20402572:	50f2                	lw	ra,60(sp)
20402574:	52e2                	lw	t0,56(sp)
20402576:	5352                	lw	t1,52(sp)
20402578:	53c2                	lw	t2,48(sp)
2040257a:	5532                	lw	a0,44(sp)
2040257c:	55a2                	lw	a1,40(sp)
2040257e:	5612                	lw	a2,36(sp)
20402580:	5682                	lw	a3,32(sp)
20402582:	4772                	lw	a4,28(sp)
20402584:	47e2                	lw	a5,24(sp)
20402586:	4852                	lw	a6,20(sp)
20402588:	48c2                	lw	a7,16(sp)
2040258a:	4e32                	lw	t3,12(sp)
2040258c:	4ea2                	lw	t4,8(sp)
2040258e:	4f12                	lw	t5,4(sp)
20402590:	4f82                	lw	t6,0(sp)
20402592:	6121                	addi	sp,sp,64
20402594:	30200073          	mret
20402598:	21802783          	lw	a5,536(zero) # 218 <__metal_chicken_bit+0x217>
2040259c:	9002                	ebreak

2040259e <metal_lc1_interrupt_vector_handler>:
metal_lc1_interrupt_vector_handler():
2040259e:	7139                	addi	sp,sp,-64
204025a0:	de06                	sw	ra,60(sp)
204025a2:	dc16                	sw	t0,56(sp)
204025a4:	da1a                	sw	t1,52(sp)
204025a6:	d81e                	sw	t2,48(sp)
204025a8:	d62a                	sw	a0,44(sp)
204025aa:	d42e                	sw	a1,40(sp)
204025ac:	d232                	sw	a2,36(sp)
204025ae:	d036                	sw	a3,32(sp)
204025b0:	ce3a                	sw	a4,28(sp)
204025b2:	cc3e                	sw	a5,24(sp)
204025b4:	ca42                	sw	a6,20(sp)
204025b6:	c846                	sw	a7,16(sp)
204025b8:	c672                	sw	t3,12(sp)
204025ba:	c476                	sw	t4,8(sp)
204025bc:	c27a                	sw	t5,4(sp)
204025be:	c07e                	sw	t6,0(sp)
204025c0:	f14027f3          	csrr	a5,mhartid
204025c4:	00279713          	slli	a4,a5,0x2
204025c8:	82418793          	addi	a5,gp,-2012 # 80000a94 <__metal_dt_prci_10008000+0x4>
204025cc:	97ba                	add	a5,a5,a4
204025ce:	4398                	lw	a4,0(a5)
204025d0:	cf19                	beqz	a4,204025ee <metal_lc1_interrupt_vector_handler+0x50>
204025d2:	81418793          	addi	a5,gp,-2028 # 80000a84 <__metal_dt_cpu_0>
204025d6:	02f71f63          	bne	a4,a5,20402614 <metal_lc1_interrupt_vector_handler+0x76>
204025da:	800007b7          	lui	a5,0x80000
204025de:	0a878793          	addi	a5,a5,168 # 800000a8 <metal_segment_heap_target_end+0xffffe938>
204025e2:	2287a703          	lw	a4,552(a5)
204025e6:	2307a583          	lw	a1,560(a5)
204025ea:	4545                	li	a0,17
204025ec:	9702                	jalr	a4
204025ee:	50f2                	lw	ra,60(sp)
204025f0:	52e2                	lw	t0,56(sp)
204025f2:	5352                	lw	t1,52(sp)
204025f4:	53c2                	lw	t2,48(sp)
204025f6:	5532                	lw	a0,44(sp)
204025f8:	55a2                	lw	a1,40(sp)
204025fa:	5612                	lw	a2,36(sp)
204025fc:	5682                	lw	a3,32(sp)
204025fe:	4772                	lw	a4,28(sp)
20402600:	47e2                	lw	a5,24(sp)
20402602:	4852                	lw	a6,20(sp)
20402604:	48c2                	lw	a7,16(sp)
20402606:	4e32                	lw	t3,12(sp)
20402608:	4ea2                	lw	t4,8(sp)
2040260a:	4f12                	lw	t5,4(sp)
2040260c:	4f82                	lw	t6,0(sp)
2040260e:	6121                	addi	sp,sp,64
20402610:	30200073          	mret
20402614:	23002783          	lw	a5,560(zero) # 230 <__metal_chicken_bit+0x22f>
20402618:	9002                	ebreak

2040261a <metal_lc2_interrupt_vector_handler>:
metal_lc2_interrupt_vector_handler():
2040261a:	7139                	addi	sp,sp,-64
2040261c:	de06                	sw	ra,60(sp)
2040261e:	dc16                	sw	t0,56(sp)
20402620:	da1a                	sw	t1,52(sp)
20402622:	d81e                	sw	t2,48(sp)
20402624:	d62a                	sw	a0,44(sp)
20402626:	d42e                	sw	a1,40(sp)
20402628:	d232                	sw	a2,36(sp)
2040262a:	d036                	sw	a3,32(sp)
2040262c:	ce3a                	sw	a4,28(sp)
2040262e:	cc3e                	sw	a5,24(sp)
20402630:	ca42                	sw	a6,20(sp)
20402632:	c846                	sw	a7,16(sp)
20402634:	c672                	sw	t3,12(sp)
20402636:	c476                	sw	t4,8(sp)
20402638:	c27a                	sw	t5,4(sp)
2040263a:	c07e                	sw	t6,0(sp)
2040263c:	f14027f3          	csrr	a5,mhartid
20402640:	00279713          	slli	a4,a5,0x2
20402644:	82418793          	addi	a5,gp,-2012 # 80000a94 <__metal_dt_prci_10008000+0x4>
20402648:	97ba                	add	a5,a5,a4
2040264a:	4398                	lw	a4,0(a5)
2040264c:	cf19                	beqz	a4,2040266a <metal_lc2_interrupt_vector_handler+0x50>
2040264e:	81418793          	addi	a5,gp,-2028 # 80000a84 <__metal_dt_cpu_0>
20402652:	02f71f63          	bne	a4,a5,20402690 <metal_lc2_interrupt_vector_handler+0x76>
20402656:	800007b7          	lui	a5,0x80000
2040265a:	0a878793          	addi	a5,a5,168 # 800000a8 <metal_segment_heap_target_end+0xffffe938>
2040265e:	2407a703          	lw	a4,576(a5)
20402662:	2487a583          	lw	a1,584(a5)
20402666:	4549                	li	a0,18
20402668:	9702                	jalr	a4
2040266a:	50f2                	lw	ra,60(sp)
2040266c:	52e2                	lw	t0,56(sp)
2040266e:	5352                	lw	t1,52(sp)
20402670:	53c2                	lw	t2,48(sp)
20402672:	5532                	lw	a0,44(sp)
20402674:	55a2                	lw	a1,40(sp)
20402676:	5612                	lw	a2,36(sp)
20402678:	5682                	lw	a3,32(sp)
2040267a:	4772                	lw	a4,28(sp)
2040267c:	47e2                	lw	a5,24(sp)
2040267e:	4852                	lw	a6,20(sp)
20402680:	48c2                	lw	a7,16(sp)
20402682:	4e32                	lw	t3,12(sp)
20402684:	4ea2                	lw	t4,8(sp)
20402686:	4f12                	lw	t5,4(sp)
20402688:	4f82                	lw	t6,0(sp)
2040268a:	6121                	addi	sp,sp,64
2040268c:	30200073          	mret
20402690:	24802783          	lw	a5,584(zero) # 248 <__metal_chicken_bit+0x247>
20402694:	9002                	ebreak

20402696 <metal_lc3_interrupt_vector_handler>:
metal_lc3_interrupt_vector_handler():
20402696:	7139                	addi	sp,sp,-64
20402698:	de06                	sw	ra,60(sp)
2040269a:	dc16                	sw	t0,56(sp)
2040269c:	da1a                	sw	t1,52(sp)
2040269e:	d81e                	sw	t2,48(sp)
204026a0:	d62a                	sw	a0,44(sp)
204026a2:	d42e                	sw	a1,40(sp)
204026a4:	d232                	sw	a2,36(sp)
204026a6:	d036                	sw	a3,32(sp)
204026a8:	ce3a                	sw	a4,28(sp)
204026aa:	cc3e                	sw	a5,24(sp)
204026ac:	ca42                	sw	a6,20(sp)
204026ae:	c846                	sw	a7,16(sp)
204026b0:	c672                	sw	t3,12(sp)
204026b2:	c476                	sw	t4,8(sp)
204026b4:	c27a                	sw	t5,4(sp)
204026b6:	c07e                	sw	t6,0(sp)
204026b8:	f14027f3          	csrr	a5,mhartid
204026bc:	00279713          	slli	a4,a5,0x2
204026c0:	82418793          	addi	a5,gp,-2012 # 80000a94 <__metal_dt_prci_10008000+0x4>
204026c4:	97ba                	add	a5,a5,a4
204026c6:	4398                	lw	a4,0(a5)
204026c8:	cf19                	beqz	a4,204026e6 <metal_lc3_interrupt_vector_handler+0x50>
204026ca:	81418793          	addi	a5,gp,-2028 # 80000a84 <__metal_dt_cpu_0>
204026ce:	02f71f63          	bne	a4,a5,2040270c <metal_lc3_interrupt_vector_handler+0x76>
204026d2:	800007b7          	lui	a5,0x80000
204026d6:	0a878793          	addi	a5,a5,168 # 800000a8 <metal_segment_heap_target_end+0xffffe938>
204026da:	2587a703          	lw	a4,600(a5)
204026de:	2607a583          	lw	a1,608(a5)
204026e2:	454d                	li	a0,19
204026e4:	9702                	jalr	a4
204026e6:	50f2                	lw	ra,60(sp)
204026e8:	52e2                	lw	t0,56(sp)
204026ea:	5352                	lw	t1,52(sp)
204026ec:	53c2                	lw	t2,48(sp)
204026ee:	5532                	lw	a0,44(sp)
204026f0:	55a2                	lw	a1,40(sp)
204026f2:	5612                	lw	a2,36(sp)
204026f4:	5682                	lw	a3,32(sp)
204026f6:	4772                	lw	a4,28(sp)
204026f8:	47e2                	lw	a5,24(sp)
204026fa:	4852                	lw	a6,20(sp)
204026fc:	48c2                	lw	a7,16(sp)
204026fe:	4e32                	lw	t3,12(sp)
20402700:	4ea2                	lw	t4,8(sp)
20402702:	4f12                	lw	t5,4(sp)
20402704:	4f82                	lw	t6,0(sp)
20402706:	6121                	addi	sp,sp,64
20402708:	30200073          	mret
2040270c:	26002783          	lw	a5,608(zero) # 260 <__metal_chicken_bit+0x25f>
20402710:	9002                	ebreak

20402712 <metal_lc4_interrupt_vector_handler>:
metal_lc4_interrupt_vector_handler():
20402712:	7139                	addi	sp,sp,-64
20402714:	de06                	sw	ra,60(sp)
20402716:	dc16                	sw	t0,56(sp)
20402718:	da1a                	sw	t1,52(sp)
2040271a:	d81e                	sw	t2,48(sp)
2040271c:	d62a                	sw	a0,44(sp)
2040271e:	d42e                	sw	a1,40(sp)
20402720:	d232                	sw	a2,36(sp)
20402722:	d036                	sw	a3,32(sp)
20402724:	ce3a                	sw	a4,28(sp)
20402726:	cc3e                	sw	a5,24(sp)
20402728:	ca42                	sw	a6,20(sp)
2040272a:	c846                	sw	a7,16(sp)
2040272c:	c672                	sw	t3,12(sp)
2040272e:	c476                	sw	t4,8(sp)
20402730:	c27a                	sw	t5,4(sp)
20402732:	c07e                	sw	t6,0(sp)
20402734:	f14027f3          	csrr	a5,mhartid
20402738:	00279713          	slli	a4,a5,0x2
2040273c:	82418793          	addi	a5,gp,-2012 # 80000a94 <__metal_dt_prci_10008000+0x4>
20402740:	97ba                	add	a5,a5,a4
20402742:	4398                	lw	a4,0(a5)
20402744:	cf19                	beqz	a4,20402762 <metal_lc4_interrupt_vector_handler+0x50>
20402746:	81418793          	addi	a5,gp,-2028 # 80000a84 <__metal_dt_cpu_0>
2040274a:	02f71f63          	bne	a4,a5,20402788 <metal_lc4_interrupt_vector_handler+0x76>
2040274e:	800007b7          	lui	a5,0x80000
20402752:	0a878793          	addi	a5,a5,168 # 800000a8 <metal_segment_heap_target_end+0xffffe938>
20402756:	2707a703          	lw	a4,624(a5)
2040275a:	2787a583          	lw	a1,632(a5)
2040275e:	4551                	li	a0,20
20402760:	9702                	jalr	a4
20402762:	50f2                	lw	ra,60(sp)
20402764:	52e2                	lw	t0,56(sp)
20402766:	5352                	lw	t1,52(sp)
20402768:	53c2                	lw	t2,48(sp)
2040276a:	5532                	lw	a0,44(sp)
2040276c:	55a2                	lw	a1,40(sp)
2040276e:	5612                	lw	a2,36(sp)
20402770:	5682                	lw	a3,32(sp)
20402772:	4772                	lw	a4,28(sp)
20402774:	47e2                	lw	a5,24(sp)
20402776:	4852                	lw	a6,20(sp)
20402778:	48c2                	lw	a7,16(sp)
2040277a:	4e32                	lw	t3,12(sp)
2040277c:	4ea2                	lw	t4,8(sp)
2040277e:	4f12                	lw	t5,4(sp)
20402780:	4f82                	lw	t6,0(sp)
20402782:	6121                	addi	sp,sp,64
20402784:	30200073          	mret
20402788:	27802783          	lw	a5,632(zero) # 278 <__metal_chicken_bit+0x277>
2040278c:	9002                	ebreak

2040278e <metal_lc5_interrupt_vector_handler>:
metal_lc5_interrupt_vector_handler():
2040278e:	7139                	addi	sp,sp,-64
20402790:	de06                	sw	ra,60(sp)
20402792:	dc16                	sw	t0,56(sp)
20402794:	da1a                	sw	t1,52(sp)
20402796:	d81e                	sw	t2,48(sp)
20402798:	d62a                	sw	a0,44(sp)
2040279a:	d42e                	sw	a1,40(sp)
2040279c:	d232                	sw	a2,36(sp)
2040279e:	d036                	sw	a3,32(sp)
204027a0:	ce3a                	sw	a4,28(sp)
204027a2:	cc3e                	sw	a5,24(sp)
204027a4:	ca42                	sw	a6,20(sp)
204027a6:	c846                	sw	a7,16(sp)
204027a8:	c672                	sw	t3,12(sp)
204027aa:	c476                	sw	t4,8(sp)
204027ac:	c27a                	sw	t5,4(sp)
204027ae:	c07e                	sw	t6,0(sp)
204027b0:	f14027f3          	csrr	a5,mhartid
204027b4:	00279713          	slli	a4,a5,0x2
204027b8:	82418793          	addi	a5,gp,-2012 # 80000a94 <__metal_dt_prci_10008000+0x4>
204027bc:	97ba                	add	a5,a5,a4
204027be:	4398                	lw	a4,0(a5)
204027c0:	cf19                	beqz	a4,204027de <metal_lc5_interrupt_vector_handler+0x50>
204027c2:	81418793          	addi	a5,gp,-2028 # 80000a84 <__metal_dt_cpu_0>
204027c6:	02f71f63          	bne	a4,a5,20402804 <metal_lc5_interrupt_vector_handler+0x76>
204027ca:	800007b7          	lui	a5,0x80000
204027ce:	0a878793          	addi	a5,a5,168 # 800000a8 <metal_segment_heap_target_end+0xffffe938>
204027d2:	2887a703          	lw	a4,648(a5)
204027d6:	2907a583          	lw	a1,656(a5)
204027da:	4555                	li	a0,21
204027dc:	9702                	jalr	a4
204027de:	50f2                	lw	ra,60(sp)
204027e0:	52e2                	lw	t0,56(sp)
204027e2:	5352                	lw	t1,52(sp)
204027e4:	53c2                	lw	t2,48(sp)
204027e6:	5532                	lw	a0,44(sp)
204027e8:	55a2                	lw	a1,40(sp)
204027ea:	5612                	lw	a2,36(sp)
204027ec:	5682                	lw	a3,32(sp)
204027ee:	4772                	lw	a4,28(sp)
204027f0:	47e2                	lw	a5,24(sp)
204027f2:	4852                	lw	a6,20(sp)
204027f4:	48c2                	lw	a7,16(sp)
204027f6:	4e32                	lw	t3,12(sp)
204027f8:	4ea2                	lw	t4,8(sp)
204027fa:	4f12                	lw	t5,4(sp)
204027fc:	4f82                	lw	t6,0(sp)
204027fe:	6121                	addi	sp,sp,64
20402800:	30200073          	mret
20402804:	29002783          	lw	a5,656(zero) # 290 <__metal_chicken_bit+0x28f>
20402808:	9002                	ebreak

2040280a <metal_lc6_interrupt_vector_handler>:
metal_lc6_interrupt_vector_handler():
2040280a:	7139                	addi	sp,sp,-64
2040280c:	de06                	sw	ra,60(sp)
2040280e:	dc16                	sw	t0,56(sp)
20402810:	da1a                	sw	t1,52(sp)
20402812:	d81e                	sw	t2,48(sp)
20402814:	d62a                	sw	a0,44(sp)
20402816:	d42e                	sw	a1,40(sp)
20402818:	d232                	sw	a2,36(sp)
2040281a:	d036                	sw	a3,32(sp)
2040281c:	ce3a                	sw	a4,28(sp)
2040281e:	cc3e                	sw	a5,24(sp)
20402820:	ca42                	sw	a6,20(sp)
20402822:	c846                	sw	a7,16(sp)
20402824:	c672                	sw	t3,12(sp)
20402826:	c476                	sw	t4,8(sp)
20402828:	c27a                	sw	t5,4(sp)
2040282a:	c07e                	sw	t6,0(sp)
2040282c:	f14027f3          	csrr	a5,mhartid
20402830:	00279713          	slli	a4,a5,0x2
20402834:	82418793          	addi	a5,gp,-2012 # 80000a94 <__metal_dt_prci_10008000+0x4>
20402838:	97ba                	add	a5,a5,a4
2040283a:	4398                	lw	a4,0(a5)
2040283c:	cf19                	beqz	a4,2040285a <metal_lc6_interrupt_vector_handler+0x50>
2040283e:	81418793          	addi	a5,gp,-2028 # 80000a84 <__metal_dt_cpu_0>
20402842:	02f71f63          	bne	a4,a5,20402880 <metal_lc6_interrupt_vector_handler+0x76>
20402846:	800007b7          	lui	a5,0x80000
2040284a:	0a878793          	addi	a5,a5,168 # 800000a8 <metal_segment_heap_target_end+0xffffe938>
2040284e:	2a07a703          	lw	a4,672(a5)
20402852:	2a87a583          	lw	a1,680(a5)
20402856:	4559                	li	a0,22
20402858:	9702                	jalr	a4
2040285a:	50f2                	lw	ra,60(sp)
2040285c:	52e2                	lw	t0,56(sp)
2040285e:	5352                	lw	t1,52(sp)
20402860:	53c2                	lw	t2,48(sp)
20402862:	5532                	lw	a0,44(sp)
20402864:	55a2                	lw	a1,40(sp)
20402866:	5612                	lw	a2,36(sp)
20402868:	5682                	lw	a3,32(sp)
2040286a:	4772                	lw	a4,28(sp)
2040286c:	47e2                	lw	a5,24(sp)
2040286e:	4852                	lw	a6,20(sp)
20402870:	48c2                	lw	a7,16(sp)
20402872:	4e32                	lw	t3,12(sp)
20402874:	4ea2                	lw	t4,8(sp)
20402876:	4f12                	lw	t5,4(sp)
20402878:	4f82                	lw	t6,0(sp)
2040287a:	6121                	addi	sp,sp,64
2040287c:	30200073          	mret
20402880:	2a802783          	lw	a5,680(zero) # 2a8 <__metal_chicken_bit+0x2a7>
20402884:	9002                	ebreak

20402886 <metal_lc7_interrupt_vector_handler>:
metal_lc7_interrupt_vector_handler():
20402886:	7139                	addi	sp,sp,-64
20402888:	de06                	sw	ra,60(sp)
2040288a:	dc16                	sw	t0,56(sp)
2040288c:	da1a                	sw	t1,52(sp)
2040288e:	d81e                	sw	t2,48(sp)
20402890:	d62a                	sw	a0,44(sp)
20402892:	d42e                	sw	a1,40(sp)
20402894:	d232                	sw	a2,36(sp)
20402896:	d036                	sw	a3,32(sp)
20402898:	ce3a                	sw	a4,28(sp)
2040289a:	cc3e                	sw	a5,24(sp)
2040289c:	ca42                	sw	a6,20(sp)
2040289e:	c846                	sw	a7,16(sp)
204028a0:	c672                	sw	t3,12(sp)
204028a2:	c476                	sw	t4,8(sp)
204028a4:	c27a                	sw	t5,4(sp)
204028a6:	c07e                	sw	t6,0(sp)
204028a8:	f14027f3          	csrr	a5,mhartid
204028ac:	00279713          	slli	a4,a5,0x2
204028b0:	82418793          	addi	a5,gp,-2012 # 80000a94 <__metal_dt_prci_10008000+0x4>
204028b4:	97ba                	add	a5,a5,a4
204028b6:	4398                	lw	a4,0(a5)
204028b8:	cf19                	beqz	a4,204028d6 <metal_lc7_interrupt_vector_handler+0x50>
204028ba:	81418793          	addi	a5,gp,-2028 # 80000a84 <__metal_dt_cpu_0>
204028be:	02f71f63          	bne	a4,a5,204028fc <metal_lc7_interrupt_vector_handler+0x76>
204028c2:	800007b7          	lui	a5,0x80000
204028c6:	0a878793          	addi	a5,a5,168 # 800000a8 <metal_segment_heap_target_end+0xffffe938>
204028ca:	2b87a703          	lw	a4,696(a5)
204028ce:	2c07a583          	lw	a1,704(a5)
204028d2:	455d                	li	a0,23
204028d4:	9702                	jalr	a4
204028d6:	50f2                	lw	ra,60(sp)
204028d8:	52e2                	lw	t0,56(sp)
204028da:	5352                	lw	t1,52(sp)
204028dc:	53c2                	lw	t2,48(sp)
204028de:	5532                	lw	a0,44(sp)
204028e0:	55a2                	lw	a1,40(sp)
204028e2:	5612                	lw	a2,36(sp)
204028e4:	5682                	lw	a3,32(sp)
204028e6:	4772                	lw	a4,28(sp)
204028e8:	47e2                	lw	a5,24(sp)
204028ea:	4852                	lw	a6,20(sp)
204028ec:	48c2                	lw	a7,16(sp)
204028ee:	4e32                	lw	t3,12(sp)
204028f0:	4ea2                	lw	t4,8(sp)
204028f2:	4f12                	lw	t5,4(sp)
204028f4:	4f82                	lw	t6,0(sp)
204028f6:	6121                	addi	sp,sp,64
204028f8:	30200073          	mret
204028fc:	2c002783          	lw	a5,704(zero) # 2c0 <__metal_chicken_bit+0x2bf>
20402900:	9002                	ebreak

20402902 <metal_lc8_interrupt_vector_handler>:
metal_lc8_interrupt_vector_handler():
20402902:	7139                	addi	sp,sp,-64
20402904:	de06                	sw	ra,60(sp)
20402906:	dc16                	sw	t0,56(sp)
20402908:	da1a                	sw	t1,52(sp)
2040290a:	d81e                	sw	t2,48(sp)
2040290c:	d62a                	sw	a0,44(sp)
2040290e:	d42e                	sw	a1,40(sp)
20402910:	d232                	sw	a2,36(sp)
20402912:	d036                	sw	a3,32(sp)
20402914:	ce3a                	sw	a4,28(sp)
20402916:	cc3e                	sw	a5,24(sp)
20402918:	ca42                	sw	a6,20(sp)
2040291a:	c846                	sw	a7,16(sp)
2040291c:	c672                	sw	t3,12(sp)
2040291e:	c476                	sw	t4,8(sp)
20402920:	c27a                	sw	t5,4(sp)
20402922:	c07e                	sw	t6,0(sp)
20402924:	f14027f3          	csrr	a5,mhartid
20402928:	00279713          	slli	a4,a5,0x2
2040292c:	82418793          	addi	a5,gp,-2012 # 80000a94 <__metal_dt_prci_10008000+0x4>
20402930:	97ba                	add	a5,a5,a4
20402932:	4398                	lw	a4,0(a5)
20402934:	cf19                	beqz	a4,20402952 <metal_lc8_interrupt_vector_handler+0x50>
20402936:	81418793          	addi	a5,gp,-2028 # 80000a84 <__metal_dt_cpu_0>
2040293a:	02f71f63          	bne	a4,a5,20402978 <metal_lc8_interrupt_vector_handler+0x76>
2040293e:	800007b7          	lui	a5,0x80000
20402942:	0a878793          	addi	a5,a5,168 # 800000a8 <metal_segment_heap_target_end+0xffffe938>
20402946:	2d07a703          	lw	a4,720(a5)
2040294a:	2d87a583          	lw	a1,728(a5)
2040294e:	4561                	li	a0,24
20402950:	9702                	jalr	a4
20402952:	50f2                	lw	ra,60(sp)
20402954:	52e2                	lw	t0,56(sp)
20402956:	5352                	lw	t1,52(sp)
20402958:	53c2                	lw	t2,48(sp)
2040295a:	5532                	lw	a0,44(sp)
2040295c:	55a2                	lw	a1,40(sp)
2040295e:	5612                	lw	a2,36(sp)
20402960:	5682                	lw	a3,32(sp)
20402962:	4772                	lw	a4,28(sp)
20402964:	47e2                	lw	a5,24(sp)
20402966:	4852                	lw	a6,20(sp)
20402968:	48c2                	lw	a7,16(sp)
2040296a:	4e32                	lw	t3,12(sp)
2040296c:	4ea2                	lw	t4,8(sp)
2040296e:	4f12                	lw	t5,4(sp)
20402970:	4f82                	lw	t6,0(sp)
20402972:	6121                	addi	sp,sp,64
20402974:	30200073          	mret
20402978:	2d802783          	lw	a5,728(zero) # 2d8 <__metal_chicken_bit+0x2d7>
2040297c:	9002                	ebreak

2040297e <metal_lc9_interrupt_vector_handler>:
metal_lc9_interrupt_vector_handler():
2040297e:	7139                	addi	sp,sp,-64
20402980:	de06                	sw	ra,60(sp)
20402982:	dc16                	sw	t0,56(sp)
20402984:	da1a                	sw	t1,52(sp)
20402986:	d81e                	sw	t2,48(sp)
20402988:	d62a                	sw	a0,44(sp)
2040298a:	d42e                	sw	a1,40(sp)
2040298c:	d232                	sw	a2,36(sp)
2040298e:	d036                	sw	a3,32(sp)
20402990:	ce3a                	sw	a4,28(sp)
20402992:	cc3e                	sw	a5,24(sp)
20402994:	ca42                	sw	a6,20(sp)
20402996:	c846                	sw	a7,16(sp)
20402998:	c672                	sw	t3,12(sp)
2040299a:	c476                	sw	t4,8(sp)
2040299c:	c27a                	sw	t5,4(sp)
2040299e:	c07e                	sw	t6,0(sp)
204029a0:	f14027f3          	csrr	a5,mhartid
204029a4:	00279713          	slli	a4,a5,0x2
204029a8:	82418793          	addi	a5,gp,-2012 # 80000a94 <__metal_dt_prci_10008000+0x4>
204029ac:	97ba                	add	a5,a5,a4
204029ae:	4398                	lw	a4,0(a5)
204029b0:	cf19                	beqz	a4,204029ce <metal_lc9_interrupt_vector_handler+0x50>
204029b2:	81418793          	addi	a5,gp,-2028 # 80000a84 <__metal_dt_cpu_0>
204029b6:	02f71f63          	bne	a4,a5,204029f4 <metal_lc9_interrupt_vector_handler+0x76>
204029ba:	800007b7          	lui	a5,0x80000
204029be:	0a878793          	addi	a5,a5,168 # 800000a8 <metal_segment_heap_target_end+0xffffe938>
204029c2:	2e87a703          	lw	a4,744(a5)
204029c6:	2f07a583          	lw	a1,752(a5)
204029ca:	4565                	li	a0,25
204029cc:	9702                	jalr	a4
204029ce:	50f2                	lw	ra,60(sp)
204029d0:	52e2                	lw	t0,56(sp)
204029d2:	5352                	lw	t1,52(sp)
204029d4:	53c2                	lw	t2,48(sp)
204029d6:	5532                	lw	a0,44(sp)
204029d8:	55a2                	lw	a1,40(sp)
204029da:	5612                	lw	a2,36(sp)
204029dc:	5682                	lw	a3,32(sp)
204029de:	4772                	lw	a4,28(sp)
204029e0:	47e2                	lw	a5,24(sp)
204029e2:	4852                	lw	a6,20(sp)
204029e4:	48c2                	lw	a7,16(sp)
204029e6:	4e32                	lw	t3,12(sp)
204029e8:	4ea2                	lw	t4,8(sp)
204029ea:	4f12                	lw	t5,4(sp)
204029ec:	4f82                	lw	t6,0(sp)
204029ee:	6121                	addi	sp,sp,64
204029f0:	30200073          	mret
204029f4:	2f002783          	lw	a5,752(zero) # 2f0 <__metal_chicken_bit+0x2ef>
204029f8:	9002                	ebreak

204029fa <metal_lc10_interrupt_vector_handler>:
metal_lc10_interrupt_vector_handler():
204029fa:	7139                	addi	sp,sp,-64
204029fc:	de06                	sw	ra,60(sp)
204029fe:	dc16                	sw	t0,56(sp)
20402a00:	da1a                	sw	t1,52(sp)
20402a02:	d81e                	sw	t2,48(sp)
20402a04:	d62a                	sw	a0,44(sp)
20402a06:	d42e                	sw	a1,40(sp)
20402a08:	d232                	sw	a2,36(sp)
20402a0a:	d036                	sw	a3,32(sp)
20402a0c:	ce3a                	sw	a4,28(sp)
20402a0e:	cc3e                	sw	a5,24(sp)
20402a10:	ca42                	sw	a6,20(sp)
20402a12:	c846                	sw	a7,16(sp)
20402a14:	c672                	sw	t3,12(sp)
20402a16:	c476                	sw	t4,8(sp)
20402a18:	c27a                	sw	t5,4(sp)
20402a1a:	c07e                	sw	t6,0(sp)
20402a1c:	f14027f3          	csrr	a5,mhartid
20402a20:	00279713          	slli	a4,a5,0x2
20402a24:	82418793          	addi	a5,gp,-2012 # 80000a94 <__metal_dt_prci_10008000+0x4>
20402a28:	97ba                	add	a5,a5,a4
20402a2a:	4398                	lw	a4,0(a5)
20402a2c:	cf19                	beqz	a4,20402a4a <metal_lc10_interrupt_vector_handler+0x50>
20402a2e:	81418793          	addi	a5,gp,-2028 # 80000a84 <__metal_dt_cpu_0>
20402a32:	02f71f63          	bne	a4,a5,20402a70 <metal_lc10_interrupt_vector_handler+0x76>
20402a36:	800007b7          	lui	a5,0x80000
20402a3a:	0a878793          	addi	a5,a5,168 # 800000a8 <metal_segment_heap_target_end+0xffffe938>
20402a3e:	3007a703          	lw	a4,768(a5)
20402a42:	3087a583          	lw	a1,776(a5)
20402a46:	4569                	li	a0,26
20402a48:	9702                	jalr	a4
20402a4a:	50f2                	lw	ra,60(sp)
20402a4c:	52e2                	lw	t0,56(sp)
20402a4e:	5352                	lw	t1,52(sp)
20402a50:	53c2                	lw	t2,48(sp)
20402a52:	5532                	lw	a0,44(sp)
20402a54:	55a2                	lw	a1,40(sp)
20402a56:	5612                	lw	a2,36(sp)
20402a58:	5682                	lw	a3,32(sp)
20402a5a:	4772                	lw	a4,28(sp)
20402a5c:	47e2                	lw	a5,24(sp)
20402a5e:	4852                	lw	a6,20(sp)
20402a60:	48c2                	lw	a7,16(sp)
20402a62:	4e32                	lw	t3,12(sp)
20402a64:	4ea2                	lw	t4,8(sp)
20402a66:	4f12                	lw	t5,4(sp)
20402a68:	4f82                	lw	t6,0(sp)
20402a6a:	6121                	addi	sp,sp,64
20402a6c:	30200073          	mret
20402a70:	30802783          	lw	a5,776(zero) # 308 <__metal_chicken_bit+0x307>
20402a74:	9002                	ebreak

20402a76 <metal_lc11_interrupt_vector_handler>:
metal_lc11_interrupt_vector_handler():
20402a76:	7139                	addi	sp,sp,-64
20402a78:	de06                	sw	ra,60(sp)
20402a7a:	dc16                	sw	t0,56(sp)
20402a7c:	da1a                	sw	t1,52(sp)
20402a7e:	d81e                	sw	t2,48(sp)
20402a80:	d62a                	sw	a0,44(sp)
20402a82:	d42e                	sw	a1,40(sp)
20402a84:	d232                	sw	a2,36(sp)
20402a86:	d036                	sw	a3,32(sp)
20402a88:	ce3a                	sw	a4,28(sp)
20402a8a:	cc3e                	sw	a5,24(sp)
20402a8c:	ca42                	sw	a6,20(sp)
20402a8e:	c846                	sw	a7,16(sp)
20402a90:	c672                	sw	t3,12(sp)
20402a92:	c476                	sw	t4,8(sp)
20402a94:	c27a                	sw	t5,4(sp)
20402a96:	c07e                	sw	t6,0(sp)
20402a98:	f14027f3          	csrr	a5,mhartid
20402a9c:	00279713          	slli	a4,a5,0x2
20402aa0:	82418793          	addi	a5,gp,-2012 # 80000a94 <__metal_dt_prci_10008000+0x4>
20402aa4:	97ba                	add	a5,a5,a4
20402aa6:	4398                	lw	a4,0(a5)
20402aa8:	cf19                	beqz	a4,20402ac6 <metal_lc11_interrupt_vector_handler+0x50>
20402aaa:	81418793          	addi	a5,gp,-2028 # 80000a84 <__metal_dt_cpu_0>
20402aae:	02f71f63          	bne	a4,a5,20402aec <metal_lc11_interrupt_vector_handler+0x76>
20402ab2:	800007b7          	lui	a5,0x80000
20402ab6:	0a878793          	addi	a5,a5,168 # 800000a8 <metal_segment_heap_target_end+0xffffe938>
20402aba:	3187a703          	lw	a4,792(a5)
20402abe:	3207a583          	lw	a1,800(a5)
20402ac2:	456d                	li	a0,27
20402ac4:	9702                	jalr	a4
20402ac6:	50f2                	lw	ra,60(sp)
20402ac8:	52e2                	lw	t0,56(sp)
20402aca:	5352                	lw	t1,52(sp)
20402acc:	53c2                	lw	t2,48(sp)
20402ace:	5532                	lw	a0,44(sp)
20402ad0:	55a2                	lw	a1,40(sp)
20402ad2:	5612                	lw	a2,36(sp)
20402ad4:	5682                	lw	a3,32(sp)
20402ad6:	4772                	lw	a4,28(sp)
20402ad8:	47e2                	lw	a5,24(sp)
20402ada:	4852                	lw	a6,20(sp)
20402adc:	48c2                	lw	a7,16(sp)
20402ade:	4e32                	lw	t3,12(sp)
20402ae0:	4ea2                	lw	t4,8(sp)
20402ae2:	4f12                	lw	t5,4(sp)
20402ae4:	4f82                	lw	t6,0(sp)
20402ae6:	6121                	addi	sp,sp,64
20402ae8:	30200073          	mret
20402aec:	32002783          	lw	a5,800(zero) # 320 <__metal_chicken_bit+0x31f>
20402af0:	9002                	ebreak

20402af2 <metal_lc12_interrupt_vector_handler>:
metal_lc12_interrupt_vector_handler():
20402af2:	7139                	addi	sp,sp,-64
20402af4:	de06                	sw	ra,60(sp)
20402af6:	dc16                	sw	t0,56(sp)
20402af8:	da1a                	sw	t1,52(sp)
20402afa:	d81e                	sw	t2,48(sp)
20402afc:	d62a                	sw	a0,44(sp)
20402afe:	d42e                	sw	a1,40(sp)
20402b00:	d232                	sw	a2,36(sp)
20402b02:	d036                	sw	a3,32(sp)
20402b04:	ce3a                	sw	a4,28(sp)
20402b06:	cc3e                	sw	a5,24(sp)
20402b08:	ca42                	sw	a6,20(sp)
20402b0a:	c846                	sw	a7,16(sp)
20402b0c:	c672                	sw	t3,12(sp)
20402b0e:	c476                	sw	t4,8(sp)
20402b10:	c27a                	sw	t5,4(sp)
20402b12:	c07e                	sw	t6,0(sp)
20402b14:	f14027f3          	csrr	a5,mhartid
20402b18:	00279713          	slli	a4,a5,0x2
20402b1c:	82418793          	addi	a5,gp,-2012 # 80000a94 <__metal_dt_prci_10008000+0x4>
20402b20:	97ba                	add	a5,a5,a4
20402b22:	4398                	lw	a4,0(a5)
20402b24:	cf19                	beqz	a4,20402b42 <metal_lc12_interrupt_vector_handler+0x50>
20402b26:	81418793          	addi	a5,gp,-2028 # 80000a84 <__metal_dt_cpu_0>
20402b2a:	02f71f63          	bne	a4,a5,20402b68 <metal_lc12_interrupt_vector_handler+0x76>
20402b2e:	800007b7          	lui	a5,0x80000
20402b32:	0a878793          	addi	a5,a5,168 # 800000a8 <metal_segment_heap_target_end+0xffffe938>
20402b36:	3307a703          	lw	a4,816(a5)
20402b3a:	3387a583          	lw	a1,824(a5)
20402b3e:	4571                	li	a0,28
20402b40:	9702                	jalr	a4
20402b42:	50f2                	lw	ra,60(sp)
20402b44:	52e2                	lw	t0,56(sp)
20402b46:	5352                	lw	t1,52(sp)
20402b48:	53c2                	lw	t2,48(sp)
20402b4a:	5532                	lw	a0,44(sp)
20402b4c:	55a2                	lw	a1,40(sp)
20402b4e:	5612                	lw	a2,36(sp)
20402b50:	5682                	lw	a3,32(sp)
20402b52:	4772                	lw	a4,28(sp)
20402b54:	47e2                	lw	a5,24(sp)
20402b56:	4852                	lw	a6,20(sp)
20402b58:	48c2                	lw	a7,16(sp)
20402b5a:	4e32                	lw	t3,12(sp)
20402b5c:	4ea2                	lw	t4,8(sp)
20402b5e:	4f12                	lw	t5,4(sp)
20402b60:	4f82                	lw	t6,0(sp)
20402b62:	6121                	addi	sp,sp,64
20402b64:	30200073          	mret
20402b68:	33802783          	lw	a5,824(zero) # 338 <__metal_chicken_bit+0x337>
20402b6c:	9002                	ebreak

20402b6e <metal_lc13_interrupt_vector_handler>:
metal_lc13_interrupt_vector_handler():
20402b6e:	7139                	addi	sp,sp,-64
20402b70:	de06                	sw	ra,60(sp)
20402b72:	dc16                	sw	t0,56(sp)
20402b74:	da1a                	sw	t1,52(sp)
20402b76:	d81e                	sw	t2,48(sp)
20402b78:	d62a                	sw	a0,44(sp)
20402b7a:	d42e                	sw	a1,40(sp)
20402b7c:	d232                	sw	a2,36(sp)
20402b7e:	d036                	sw	a3,32(sp)
20402b80:	ce3a                	sw	a4,28(sp)
20402b82:	cc3e                	sw	a5,24(sp)
20402b84:	ca42                	sw	a6,20(sp)
20402b86:	c846                	sw	a7,16(sp)
20402b88:	c672                	sw	t3,12(sp)
20402b8a:	c476                	sw	t4,8(sp)
20402b8c:	c27a                	sw	t5,4(sp)
20402b8e:	c07e                	sw	t6,0(sp)
20402b90:	f14027f3          	csrr	a5,mhartid
20402b94:	00279713          	slli	a4,a5,0x2
20402b98:	82418793          	addi	a5,gp,-2012 # 80000a94 <__metal_dt_prci_10008000+0x4>
20402b9c:	97ba                	add	a5,a5,a4
20402b9e:	4398                	lw	a4,0(a5)
20402ba0:	cf19                	beqz	a4,20402bbe <metal_lc13_interrupt_vector_handler+0x50>
20402ba2:	81418793          	addi	a5,gp,-2028 # 80000a84 <__metal_dt_cpu_0>
20402ba6:	02f71f63          	bne	a4,a5,20402be4 <metal_lc13_interrupt_vector_handler+0x76>
20402baa:	800007b7          	lui	a5,0x80000
20402bae:	0a878793          	addi	a5,a5,168 # 800000a8 <metal_segment_heap_target_end+0xffffe938>
20402bb2:	3487a703          	lw	a4,840(a5)
20402bb6:	3507a583          	lw	a1,848(a5)
20402bba:	4575                	li	a0,29
20402bbc:	9702                	jalr	a4
20402bbe:	50f2                	lw	ra,60(sp)
20402bc0:	52e2                	lw	t0,56(sp)
20402bc2:	5352                	lw	t1,52(sp)
20402bc4:	53c2                	lw	t2,48(sp)
20402bc6:	5532                	lw	a0,44(sp)
20402bc8:	55a2                	lw	a1,40(sp)
20402bca:	5612                	lw	a2,36(sp)
20402bcc:	5682                	lw	a3,32(sp)
20402bce:	4772                	lw	a4,28(sp)
20402bd0:	47e2                	lw	a5,24(sp)
20402bd2:	4852                	lw	a6,20(sp)
20402bd4:	48c2                	lw	a7,16(sp)
20402bd6:	4e32                	lw	t3,12(sp)
20402bd8:	4ea2                	lw	t4,8(sp)
20402bda:	4f12                	lw	t5,4(sp)
20402bdc:	4f82                	lw	t6,0(sp)
20402bde:	6121                	addi	sp,sp,64
20402be0:	30200073          	mret
20402be4:	35002783          	lw	a5,848(zero) # 350 <__metal_chicken_bit+0x34f>
20402be8:	9002                	ebreak

20402bea <metal_lc14_interrupt_vector_handler>:
metal_lc14_interrupt_vector_handler():
20402bea:	7139                	addi	sp,sp,-64
20402bec:	de06                	sw	ra,60(sp)
20402bee:	dc16                	sw	t0,56(sp)
20402bf0:	da1a                	sw	t1,52(sp)
20402bf2:	d81e                	sw	t2,48(sp)
20402bf4:	d62a                	sw	a0,44(sp)
20402bf6:	d42e                	sw	a1,40(sp)
20402bf8:	d232                	sw	a2,36(sp)
20402bfa:	d036                	sw	a3,32(sp)
20402bfc:	ce3a                	sw	a4,28(sp)
20402bfe:	cc3e                	sw	a5,24(sp)
20402c00:	ca42                	sw	a6,20(sp)
20402c02:	c846                	sw	a7,16(sp)
20402c04:	c672                	sw	t3,12(sp)
20402c06:	c476                	sw	t4,8(sp)
20402c08:	c27a                	sw	t5,4(sp)
20402c0a:	c07e                	sw	t6,0(sp)
20402c0c:	f14027f3          	csrr	a5,mhartid
20402c10:	00279713          	slli	a4,a5,0x2
20402c14:	82418793          	addi	a5,gp,-2012 # 80000a94 <__metal_dt_prci_10008000+0x4>
20402c18:	97ba                	add	a5,a5,a4
20402c1a:	4398                	lw	a4,0(a5)
20402c1c:	cf19                	beqz	a4,20402c3a <metal_lc14_interrupt_vector_handler+0x50>
20402c1e:	81418793          	addi	a5,gp,-2028 # 80000a84 <__metal_dt_cpu_0>
20402c22:	02f71f63          	bne	a4,a5,20402c60 <metal_lc14_interrupt_vector_handler+0x76>
20402c26:	800007b7          	lui	a5,0x80000
20402c2a:	0a878793          	addi	a5,a5,168 # 800000a8 <metal_segment_heap_target_end+0xffffe938>
20402c2e:	3607a703          	lw	a4,864(a5)
20402c32:	3687a583          	lw	a1,872(a5)
20402c36:	4579                	li	a0,30
20402c38:	9702                	jalr	a4
20402c3a:	50f2                	lw	ra,60(sp)
20402c3c:	52e2                	lw	t0,56(sp)
20402c3e:	5352                	lw	t1,52(sp)
20402c40:	53c2                	lw	t2,48(sp)
20402c42:	5532                	lw	a0,44(sp)
20402c44:	55a2                	lw	a1,40(sp)
20402c46:	5612                	lw	a2,36(sp)
20402c48:	5682                	lw	a3,32(sp)
20402c4a:	4772                	lw	a4,28(sp)
20402c4c:	47e2                	lw	a5,24(sp)
20402c4e:	4852                	lw	a6,20(sp)
20402c50:	48c2                	lw	a7,16(sp)
20402c52:	4e32                	lw	t3,12(sp)
20402c54:	4ea2                	lw	t4,8(sp)
20402c56:	4f12                	lw	t5,4(sp)
20402c58:	4f82                	lw	t6,0(sp)
20402c5a:	6121                	addi	sp,sp,64
20402c5c:	30200073          	mret
20402c60:	36802783          	lw	a5,872(zero) # 368 <__metal_chicken_bit+0x367>
20402c64:	9002                	ebreak

20402c66 <metal_lc15_interrupt_vector_handler>:
metal_lc15_interrupt_vector_handler():
20402c66:	7139                	addi	sp,sp,-64
20402c68:	de06                	sw	ra,60(sp)
20402c6a:	dc16                	sw	t0,56(sp)
20402c6c:	da1a                	sw	t1,52(sp)
20402c6e:	d81e                	sw	t2,48(sp)
20402c70:	d62a                	sw	a0,44(sp)
20402c72:	d42e                	sw	a1,40(sp)
20402c74:	d232                	sw	a2,36(sp)
20402c76:	d036                	sw	a3,32(sp)
20402c78:	ce3a                	sw	a4,28(sp)
20402c7a:	cc3e                	sw	a5,24(sp)
20402c7c:	ca42                	sw	a6,20(sp)
20402c7e:	c846                	sw	a7,16(sp)
20402c80:	c672                	sw	t3,12(sp)
20402c82:	c476                	sw	t4,8(sp)
20402c84:	c27a                	sw	t5,4(sp)
20402c86:	c07e                	sw	t6,0(sp)
20402c88:	f14027f3          	csrr	a5,mhartid
20402c8c:	00279713          	slli	a4,a5,0x2
20402c90:	82418793          	addi	a5,gp,-2012 # 80000a94 <__metal_dt_prci_10008000+0x4>
20402c94:	97ba                	add	a5,a5,a4
20402c96:	4398                	lw	a4,0(a5)
20402c98:	cf19                	beqz	a4,20402cb6 <metal_lc15_interrupt_vector_handler+0x50>
20402c9a:	81418793          	addi	a5,gp,-2028 # 80000a84 <__metal_dt_cpu_0>
20402c9e:	02f71f63          	bne	a4,a5,20402cdc <metal_lc15_interrupt_vector_handler+0x76>
20402ca2:	800007b7          	lui	a5,0x80000
20402ca6:	0a878793          	addi	a5,a5,168 # 800000a8 <metal_segment_heap_target_end+0xffffe938>
20402caa:	3787a703          	lw	a4,888(a5)
20402cae:	3807a583          	lw	a1,896(a5)
20402cb2:	457d                	li	a0,31
20402cb4:	9702                	jalr	a4
20402cb6:	50f2                	lw	ra,60(sp)
20402cb8:	52e2                	lw	t0,56(sp)
20402cba:	5352                	lw	t1,52(sp)
20402cbc:	53c2                	lw	t2,48(sp)
20402cbe:	5532                	lw	a0,44(sp)
20402cc0:	55a2                	lw	a1,40(sp)
20402cc2:	5612                	lw	a2,36(sp)
20402cc4:	5682                	lw	a3,32(sp)
20402cc6:	4772                	lw	a4,28(sp)
20402cc8:	47e2                	lw	a5,24(sp)
20402cca:	4852                	lw	a6,20(sp)
20402ccc:	48c2                	lw	a7,16(sp)
20402cce:	4e32                	lw	t3,12(sp)
20402cd0:	4ea2                	lw	t4,8(sp)
20402cd2:	4f12                	lw	t5,4(sp)
20402cd4:	4f82                	lw	t6,0(sp)
20402cd6:	6121                	addi	sp,sp,64
20402cd8:	30200073          	mret
20402cdc:	38002783          	lw	a5,896(zero) # 380 <__metal_chicken_bit+0x37f>
20402ce0:	9002                	ebreak

20402ce2 <__metal_controller_interrupt_vector_mode>:
__metal_controller_interrupt_vector_mode():
20402ce2:	305027f3          	csrr	a5,mtvec
20402ce6:	03f7f793          	andi	a5,a5,63
20402cea:	17fd                	addi	a5,a5,-1
20402cec:	4709                	li	a4,2
20402cee:	4501                	li	a0,0
20402cf0:	00f76763          	bltu	a4,a5,20402cfe <__metal_controller_interrupt_vector_mode+0x1c>
20402cf4:	82818713          	addi	a4,gp,-2008 # 80000a98 <CSWTCH.18>
20402cf8:	97ba                	add	a5,a5,a4
20402cfa:	0007c503          	lbu	a0,0(a5)
20402cfe:	8082                	ret

20402d00 <__metal_driver_riscv_cpu_controller_get_vector_mode>:
__metal_driver_riscv_cpu_controller_get_vector_mode():
20402d00:	b7cd                	j	20402ce2 <__metal_controller_interrupt_vector_mode>

20402d02 <__metal_valid_interrupt_id>:
__metal_valid_interrupt_id():
20402d02:	47ad                	li	a5,11
20402d04:	02f50863          	beq	a0,a5,20402d34 <__metal_valid_interrupt_id+0x32>
20402d08:	00a7cb63          	blt	a5,a0,20402d1e <__metal_valid_interrupt_id+0x1c>
20402d0c:	470d                	li	a4,3
20402d0e:	4785                	li	a5,1
20402d10:	00e50563          	beq	a0,a4,20402d1a <__metal_valid_interrupt_id+0x18>
20402d14:	1565                	addi	a0,a0,-7
20402d16:	00153793          	seqz	a5,a0
20402d1a:	853e                	mv	a0,a5
20402d1c:	8082                	ret
20402d1e:	4741                	li	a4,16
20402d20:	4781                	li	a5,0
20402d22:	fee54ce3          	blt	a0,a4,20402d1a <__metal_valid_interrupt_id+0x18>
20402d26:	477d                	li	a4,31
20402d28:	4785                	li	a5,1
20402d2a:	fea758e3          	bge	a4,a0,20402d1a <__metal_valid_interrupt_id+0x18>
20402d2e:	f8050513          	addi	a0,a0,-128
20402d32:	b7d5                	j	20402d16 <__metal_valid_interrupt_id+0x14>
20402d34:	4785                	li	a5,1
20402d36:	b7d5                	j	20402d1a <__metal_valid_interrupt_id+0x18>

20402d38 <__metal_driver_riscv_cpu_controller_interrupt_register>:
__metal_driver_riscv_cpu_controller_interrupt_register():
20402d38:	1101                	addi	sp,sp,-32
20402d3a:	cc22                	sw	s0,24(sp)
20402d3c:	842a                	mv	s0,a0
20402d3e:	852e                	mv	a0,a1
20402d40:	ca26                	sw	s1,20(sp)
20402d42:	c84a                	sw	s2,16(sp)
20402d44:	c64e                	sw	s3,12(sp)
20402d46:	ce06                	sw	ra,28(sp)
20402d48:	84ae                	mv	s1,a1
20402d4a:	89b2                	mv	s3,a2
20402d4c:	8936                	mv	s2,a3
20402d4e:	3f55                	jal	20402d02 <__metal_valid_interrupt_id>
20402d50:	57d5                	li	a5,-11
20402d52:	c901                	beqz	a0,20402d62 <__metal_driver_riscv_cpu_controller_interrupt_register+0x2a>
20402d54:	08000793          	li	a5,128
20402d58:	08f49a63          	bne	s1,a5,20402dec <__metal_driver_riscv_cpu_controller_interrupt_register+0xb4>
20402d5c:	3759                	jal	20402ce2 <__metal_controller_interrupt_vector_mode>
20402d5e:	57cd                	li	a5,-13
20402d60:	cd2d                	beqz	a0,20402dda <__metal_driver_riscv_cpu_controller_interrupt_register+0xa2>
20402d62:	40f2                	lw	ra,28(sp)
20402d64:	4462                	lw	s0,24(sp)
20402d66:	44d2                	lw	s1,20(sp)
20402d68:	4942                	lw	s2,16(sp)
20402d6a:	49b2                	lw	s3,12(sp)
20402d6c:	853e                	mv	a0,a5
20402d6e:	6105                	addi	sp,sp,32
20402d70:	8082                	ret
20402d72:	39342823          	sw	s3,912(s0)
20402d76:	39242c23          	sw	s2,920(s0)
20402d7a:	a809                	j	20402d8c <__metal_driver_riscv_cpu_controller_interrupt_register+0x54>
20402d7c:	45e1                	li	a1,24
20402d7e:	02b484b3          	mul	s1,s1,a1
20402d82:	9426                	add	s0,s0,s1
20402d84:	09342823          	sw	s3,144(s0)
20402d88:	09242c23          	sw	s2,152(s0)
20402d8c:	4781                	li	a5,0
20402d8e:	bfd1                	j	20402d62 <__metal_driver_riscv_cpu_controller_interrupt_register+0x2a>
20402d90:	ff048713          	addi	a4,s1,-16
20402d94:	46bd                	li	a3,15
20402d96:	57d1                	li	a5,-12
20402d98:	fce6e5e3          	bltu	a3,a4,20402d62 <__metal_driver_riscv_cpu_controller_interrupt_register+0x2a>
20402d9c:	45e1                	li	a1,24
20402d9e:	02b484b3          	mul	s1,s1,a1
20402da2:	204027b7          	lui	a5,0x20402
20402da6:	2cc78793          	addi	a5,a5,716 # 204022cc <__metal_default_interrupt_handler>
20402daa:	9426                	add	s0,s0,s1
20402dac:	08f42823          	sw	a5,144(s0)
20402db0:	09242a23          	sw	s2,148(s0)
20402db4:	bfe1                	j	20402d8c <__metal_driver_riscv_cpu_controller_interrupt_register+0x54>
20402db6:	204027b7          	lui	a5,0x20402
20402dba:	00278793          	addi	a5,a5,2 # 20402002 <__metal_default_sw_handler>
20402dbe:	0cf42c23          	sw	a5,216(s0)
20402dc2:	0d242e23          	sw	s2,220(s0)
20402dc6:	b7d9                	j	20402d8c <__metal_driver_riscv_cpu_controller_interrupt_register+0x54>
20402dc8:	204027b7          	lui	a5,0x20402
20402dcc:	2fc78793          	addi	a5,a5,764 # 204022fc <__metal_default_timer_handler>
20402dd0:	12f42c23          	sw	a5,312(s0)
20402dd4:	13242e23          	sw	s2,316(s0)
20402dd8:	bf55                	j	20402d8c <__metal_driver_riscv_cpu_controller_interrupt_register+0x54>
20402dda:	f8099ce3          	bnez	s3,20402d72 <__metal_driver_riscv_cpu_controller_interrupt_register+0x3a>
20402dde:	204027b7          	lui	a5,0x20402
20402de2:	04478793          	addi	a5,a5,68 # 20402044 <__metal_default_beu_handler>
20402de6:	38f42823          	sw	a5,912(s0)
20402dea:	b771                	j	20402d76 <__metal_driver_riscv_cpu_controller_interrupt_register+0x3e>
20402dec:	f80998e3          	bnez	s3,20402d7c <__metal_driver_riscv_cpu_controller_interrupt_register+0x44>
20402df0:	47ad                	li	a5,11
20402df2:	faf485e3          	beq	s1,a5,20402d9c <__metal_driver_riscv_cpu_controller_interrupt_register+0x64>
20402df6:	f897cde3          	blt	a5,s1,20402d90 <__metal_driver_riscv_cpu_controller_interrupt_register+0x58>
20402dfa:	478d                	li	a5,3
20402dfc:	faf48de3          	beq	s1,a5,20402db6 <__metal_driver_riscv_cpu_controller_interrupt_register+0x7e>
20402e00:	479d                	li	a5,7
20402e02:	fcf483e3          	beq	s1,a5,20402dc8 <__metal_driver_riscv_cpu_controller_interrupt_register+0x90>
20402e06:	57d1                	li	a5,-12
20402e08:	bfa9                	j	20402d62 <__metal_driver_riscv_cpu_controller_interrupt_register+0x2a>

20402e0a <__metal_local_interrupt_enable>:
__metal_local_interrupt_enable():
20402e0a:	c911                	beqz	a0,20402e1e <__metal_local_interrupt_enable+0x14>
20402e0c:	479d                	li	a5,7
20402e0e:	04f58a63          	beq	a1,a5,20402e62 <__metal_local_interrupt_enable+0x58>
20402e12:	00b7e863          	bltu	a5,a1,20402e22 <__metal_local_interrupt_enable+0x18>
20402e16:	c59d                	beqz	a1,20402e44 <__metal_local_interrupt_enable+0x3a>
20402e18:	478d                	li	a5,3
20402e1a:	02f58f63          	beq	a1,a5,20402e58 <__metal_local_interrupt_enable+0x4e>
20402e1e:	567d                	li	a2,-1
20402e20:	a815                	j	20402e54 <__metal_local_interrupt_enable+0x4a>
20402e22:	47ad                	li	a5,11
20402e24:	04f58263          	beq	a1,a5,20402e68 <__metal_local_interrupt_enable+0x5e>
20402e28:	fef5ebe3          	bltu	a1,a5,20402e1e <__metal_local_interrupt_enable+0x14>
20402e2c:	ff058793          	addi	a5,a1,-16
20402e30:	473d                	li	a4,15
20402e32:	fef766e3          	bltu	a4,a5,20402e1e <__metal_local_interrupt_enable+0x14>
20402e36:	4785                	li	a5,1
20402e38:	00b795b3          	sll	a1,a5,a1
20402e3c:	ce0d                	beqz	a2,20402e76 <__metal_local_interrupt_enable+0x6c>
20402e3e:	3045a5f3          	csrrs	a1,mie,a1
20402e42:	a029                	j	20402e4c <__metal_local_interrupt_enable+0x42>
20402e44:	47a1                	li	a5,8
20402e46:	c609                	beqz	a2,20402e50 <__metal_local_interrupt_enable+0x46>
20402e48:	3007a7f3          	csrrs	a5,mstatus,a5
20402e4c:	4601                	li	a2,0
20402e4e:	a019                	j	20402e54 <__metal_local_interrupt_enable+0x4a>
20402e50:	3007b7f3          	csrrc	a5,mstatus,a5
20402e54:	8532                	mv	a0,a2
20402e56:	8082                	ret
20402e58:	47a1                	li	a5,8
20402e5a:	ca19                	beqz	a2,20402e70 <__metal_local_interrupt_enable+0x66>
20402e5c:	3047a7f3          	csrrs	a5,mie,a5
20402e60:	b7f5                	j	20402e4c <__metal_local_interrupt_enable+0x42>
20402e62:	08000793          	li	a5,128
20402e66:	bfd5                	j	20402e5a <__metal_local_interrupt_enable+0x50>
20402e68:	6785                	lui	a5,0x1
20402e6a:	80078793          	addi	a5,a5,-2048 # 800 <__heap_size>
20402e6e:	b7f5                	j	20402e5a <__metal_local_interrupt_enable+0x50>
20402e70:	3047b7f3          	csrrc	a5,mie,a5
20402e74:	b7c5                	j	20402e54 <__metal_local_interrupt_enable+0x4a>
20402e76:	3045b5f3          	csrrc	a1,mie,a1
20402e7a:	bfe9                	j	20402e54 <__metal_local_interrupt_enable+0x4a>

20402e7c <__metal_driver_riscv_cpu_controller_interrupt_enable>:
__metal_driver_riscv_cpu_controller_interrupt_enable():
20402e7c:	4605                	li	a2,1
20402e7e:	b771                	j	20402e0a <__metal_local_interrupt_enable>

20402e80 <__metal_driver_riscv_cpu_controller_interrupt_disable>:
__metal_driver_riscv_cpu_controller_interrupt_disable():
20402e80:	4601                	li	a2,0
20402e82:	b761                	j	20402e0a <__metal_local_interrupt_enable>

20402e84 <__metal_driver_riscv_plic0_set_priority>:
__metal_driver_riscv_plic0_set_priority():
20402e84:	800007b7          	lui	a5,0x80000
20402e88:	47878793          	addi	a5,a5,1144 # 80000478 <metal_segment_heap_target_end+0xffffed08>
20402e8c:	00a79d63          	bne	a5,a0,20402ea6 <__metal_driver_riscv_plic0_set_priority+0x22>
20402e90:	4799                	li	a5,6
20402e92:	557d                	li	a0,-1
20402e94:	00c7ea63          	bltu	a5,a2,20402ea8 <__metal_driver_riscv_plic0_set_priority+0x24>
20402e98:	0c0007b7          	lui	a5,0xc000
20402e9c:	058a                	slli	a1,a1,0x2
20402e9e:	95be                	add	a1,a1,a5
20402ea0:	c190                	sw	a2,0(a1)
20402ea2:	4501                	li	a0,0
20402ea4:	8082                	ret
20402ea6:	557d                	li	a0,-1
20402ea8:	8082                	ret

20402eaa <__metal_driver_riscv_plic0_get_priority>:
__metal_driver_riscv_plic0_get_priority():
20402eaa:	800007b7          	lui	a5,0x80000
20402eae:	47878793          	addi	a5,a5,1144 # 80000478 <metal_segment_heap_target_end+0xffffed08>
20402eb2:	00a78763          	beq	a5,a0,20402ec0 <__metal_driver_riscv_plic0_get_priority+0x16>
20402eb6:	4781                	li	a5,0
20402eb8:	058a                	slli	a1,a1,0x2
20402eba:	95be                	add	a1,a1,a5
20402ebc:	4188                	lw	a0,0(a1)
20402ebe:	8082                	ret
20402ec0:	0c0007b7          	lui	a5,0xc000
20402ec4:	bfd5                	j	20402eb8 <__metal_driver_riscv_plic0_get_priority+0xe>

20402ec6 <__metal_plic0_default_handler>:
__metal_plic0_default_handler():
20402ec6:	1141                	addi	sp,sp,-16
20402ec8:	12c00513          	li	a0,300
20402ecc:	c606                	sw	ra,12(sp)
20402ece:	5c3000ef          	jal	ra,20403c90 <metal_shutdown>

20402ed2 <__metal_driver_riscv_plic0_register>:
__metal_driver_riscv_plic0_register():
20402ed2:	1101                	addi	sp,sp,-32
20402ed4:	800007b7          	lui	a5,0x80000
20402ed8:	cc22                	sw	s0,24(sp)
20402eda:	ce06                	sw	ra,28(sp)
20402edc:	ca26                	sw	s1,20(sp)
20402ede:	c84a                	sw	s2,16(sp)
20402ee0:	c64e                	sw	s3,12(sp)
20402ee2:	c452                	sw	s4,8(sp)
20402ee4:	47878793          	addi	a5,a5,1144 # 80000478 <metal_segment_heap_target_end+0xffffed08>
20402ee8:	842a                	mv	s0,a0
20402eea:	4701                	li	a4,0
20402eec:	00f51463          	bne	a0,a5,20402ef4 <__metal_driver_riscv_plic0_register+0x22>
20402ef0:	03500713          	li	a4,53
20402ef4:	557d                	li	a0,-1
20402ef6:	02e5d563          	bge	a1,a4,20402f20 <__metal_driver_riscv_plic0_register+0x4e>
20402efa:	89b6                	mv	s3,a3
20402efc:	8a32                	mv	s4,a2
20402efe:	84ae                	mv	s1,a1
20402f00:	00259913          	slli	s2,a1,0x2
20402f04:	c615                	beqz	a2,20402f30 <__metal_driver_riscv_plic0_register+0x5e>
20402f06:	8522                	mv	a0,s0
20402f08:	4609                	li	a2,2
20402f0a:	3fad                	jal	20402e84 <__metal_driver_riscv_plic0_set_priority>
20402f0c:	45e1                	li	a1,24
20402f0e:	02b484b3          	mul	s1,s1,a1
20402f12:	9922                	add	s2,s2,s0
20402f14:	01492423          	sw	s4,8(s2)
20402f18:	9426                	add	s0,s0,s1
20402f1a:	0f342823          	sw	s3,240(s0)
20402f1e:	4501                	li	a0,0
20402f20:	40f2                	lw	ra,28(sp)
20402f22:	4462                	lw	s0,24(sp)
20402f24:	44d2                	lw	s1,20(sp)
20402f26:	4942                	lw	s2,16(sp)
20402f28:	49b2                	lw	s3,12(sp)
20402f2a:	4a22                	lw	s4,8(sp)
20402f2c:	6105                	addi	sp,sp,32
20402f2e:	8082                	ret
20402f30:	8522                	mv	a0,s0
20402f32:	4605                	li	a2,1
20402f34:	3f81                	jal	20402e84 <__metal_driver_riscv_plic0_set_priority>
20402f36:	45e1                	li	a1,24
20402f38:	02b484b3          	mul	s1,s1,a1
20402f3c:	204037b7          	lui	a5,0x20403
20402f40:	9922                	add	s2,s2,s0
20402f42:	ec678793          	addi	a5,a5,-314 # 20402ec6 <__metal_plic0_default_handler>
20402f46:	00f92423          	sw	a5,8(s2)
20402f4a:	9426                	add	s0,s0,s1
20402f4c:	0f342623          	sw	s3,236(s0)
20402f50:	b7f9                	j	20402f1e <__metal_driver_riscv_plic0_register+0x4c>

20402f52 <__metal_plic0_claim_interrupt>:
__metal_plic0_claim_interrupt():
20402f52:	800007b7          	lui	a5,0x80000
20402f56:	47878793          	addi	a5,a5,1144 # 80000478 <metal_segment_heap_target_end+0xffffed08>
20402f5a:	4701                	li	a4,0
20402f5c:	00a79463          	bne	a5,a0,20402f64 <__metal_plic0_claim_interrupt+0x12>
20402f60:	0c000737          	lui	a4,0xc000
20402f64:	002007b7          	lui	a5,0x200
20402f68:	0791                	addi	a5,a5,4
20402f6a:	05b2                	slli	a1,a1,0xc
20402f6c:	95be                	add	a1,a1,a5
20402f6e:	95ba                	add	a1,a1,a4
20402f70:	4188                	lw	a0,0(a1)
20402f72:	8082                	ret

20402f74 <__metal_plic0_complete_interrupt>:
__metal_plic0_complete_interrupt():
20402f74:	800007b7          	lui	a5,0x80000
20402f78:	47878793          	addi	a5,a5,1144 # 80000478 <metal_segment_heap_target_end+0xffffed08>
20402f7c:	0c000737          	lui	a4,0xc000
20402f80:	00a78363          	beq	a5,a0,20402f86 <__metal_plic0_complete_interrupt+0x12>
20402f84:	4701                	li	a4,0
20402f86:	002007b7          	lui	a5,0x200
20402f8a:	05b2                	slli	a1,a1,0xc
20402f8c:	0791                	addi	a5,a5,4
20402f8e:	95be                	add	a1,a1,a5
20402f90:	95ba                	add	a1,a1,a4
20402f92:	c190                	sw	a2,0(a1)
20402f94:	8082                	ret

20402f96 <__metal_plic0_handler>:
__metal_plic0_handler():
20402f96:	1101                	addi	sp,sp,-32
20402f98:	ce06                	sw	ra,28(sp)
20402f9a:	cc22                	sw	s0,24(sp)
20402f9c:	ca26                	sw	s1,20(sp)
20402f9e:	842e                	mv	s0,a1
20402fa0:	c5aff0ef          	jal	ra,204023fa <__metal_myhart_id>
20402fa4:	00a03533          	snez	a0,a0
20402fa8:	40a004b3          	neg	s1,a0
20402fac:	85a6                	mv	a1,s1
20402fae:	8522                	mv	a0,s0
20402fb0:	374d                	jal	20402f52 <__metal_plic0_claim_interrupt>
20402fb2:	800007b7          	lui	a5,0x80000
20402fb6:	47878793          	addi	a5,a5,1144 # 80000478 <metal_segment_heap_target_end+0xffffed08>
20402fba:	862a                	mv	a2,a0
20402fbc:	02f41463          	bne	s0,a5,20402fe4 <__metal_plic0_handler+0x4e>
20402fc0:	03400793          	li	a5,52
20402fc4:	02a7e063          	bltu	a5,a0,20402fe4 <__metal_plic0_handler+0x4e>
20402fc8:	00251793          	slli	a5,a0,0x2
20402fcc:	97a2                	add	a5,a5,s0
20402fce:	4798                	lw	a4,8(a5)
20402fd0:	cb11                	beqz	a4,20402fe4 <__metal_plic0_handler+0x4e>
20402fd2:	47e1                	li	a5,24
20402fd4:	02f507b3          	mul	a5,a0,a5
20402fd8:	c62a                	sw	a0,12(sp)
20402fda:	97a2                	add	a5,a5,s0
20402fdc:	0f07a583          	lw	a1,240(a5)
20402fe0:	9702                	jalr	a4
20402fe2:	4632                	lw	a2,12(sp)
20402fe4:	8522                	mv	a0,s0
20402fe6:	4462                	lw	s0,24(sp)
20402fe8:	40f2                	lw	ra,28(sp)
20402fea:	85a6                	mv	a1,s1
20402fec:	44d2                	lw	s1,20(sp)
20402fee:	6105                	addi	sp,sp,32
20402ff0:	b751                	j	20402f74 <__metal_plic0_complete_interrupt>

20402ff2 <__metal_plic0_set_threshold>:
__metal_plic0_set_threshold():
20402ff2:	800007b7          	lui	a5,0x80000
20402ff6:	47878793          	addi	a5,a5,1144 # 80000478 <metal_segment_heap_target_end+0xffffed08>
20402ffa:	0c000737          	lui	a4,0xc000
20402ffe:	00a78363          	beq	a5,a0,20403004 <__metal_plic0_set_threshold+0x12>
20403002:	4701                	li	a4,0
20403004:	002007b7          	lui	a5,0x200
20403008:	05b2                	slli	a1,a1,0xc
2040300a:	95be                	add	a1,a1,a5
2040300c:	95ba                	add	a1,a1,a4
2040300e:	c190                	sw	a2,0(a1)
20403010:	4501                	li	a0,0
20403012:	8082                	ret

20403014 <__metal_driver_riscv_plic0_set_threshold>:
__metal_driver_riscv_plic0_set_threshold():
20403014:	1101                	addi	sp,sp,-32
20403016:	cc22                	sw	s0,24(sp)
20403018:	ce06                	sw	ra,28(sp)
2040301a:	842a                	mv	s0,a0
2040301c:	c62e                	sw	a1,12(sp)
2040301e:	bdcff0ef          	jal	ra,204023fa <__metal_myhart_id>
20403022:	85aa                	mv	a1,a0
20403024:	8522                	mv	a0,s0
20403026:	4462                	lw	s0,24(sp)
20403028:	4632                	lw	a2,12(sp)
2040302a:	40f2                	lw	ra,28(sp)
2040302c:	6105                	addi	sp,sp,32
2040302e:	b7d1                	j	20402ff2 <__metal_plic0_set_threshold>

20403030 <__metal_driver_riscv_plic0_affinity_set_threshold>:
__metal_driver_riscv_plic0_affinity_set_threshold():
20403030:	1101                	addi	sp,sp,-32
20403032:	cc22                	sw	s0,24(sp)
20403034:	ca26                	sw	s1,20(sp)
20403036:	c84a                	sw	s2,16(sp)
20403038:	c64e                	sw	s3,12(sp)
2040303a:	c452                	sw	s4,8(sp)
2040303c:	ce06                	sw	ra,28(sp)
2040303e:	89aa                	mv	s3,a0
20403040:	8a32                	mv	s4,a2
20403042:	892e                	mv	s2,a1
20403044:	4481                	li	s1,0
20403046:	4401                	li	s0,0
20403048:	00091b63          	bnez	s2,2040305e <__metal_driver_riscv_plic0_affinity_set_threshold+0x2e>
2040304c:	40f2                	lw	ra,28(sp)
2040304e:	4462                	lw	s0,24(sp)
20403050:	8526                	mv	a0,s1
20403052:	4942                	lw	s2,16(sp)
20403054:	44d2                	lw	s1,20(sp)
20403056:	49b2                	lw	s3,12(sp)
20403058:	4a22                	lw	s4,8(sp)
2040305a:	6105                	addi	sp,sp,32
2040305c:	8082                	ret
2040305e:	c809                	beqz	s0,20403070 <__metal_driver_riscv_plic0_affinity_set_threshold+0x40>
20403060:	8652                	mv	a2,s4
20403062:	85a2                	mv	a1,s0
20403064:	854e                	mv	a0,s3
20403066:	3771                	jal	20402ff2 <__metal_plic0_set_threshold>
20403068:	8905                	andi	a0,a0,1
2040306a:	00851533          	sll	a0,a0,s0
2040306e:	8cc9                	or	s1,s1,a0
20403070:	0405                	addi	s0,s0,1
20403072:	00195913          	srli	s2,s2,0x1
20403076:	bfc9                	j	20403048 <__metal_driver_riscv_plic0_affinity_set_threshold+0x18>

20403078 <__metal_plic0_get_threshold>:
__metal_plic0_get_threshold():
20403078:	800007b7          	lui	a5,0x80000
2040307c:	47878793          	addi	a5,a5,1144 # 80000478 <metal_segment_heap_target_end+0xffffed08>
20403080:	00a78a63          	beq	a5,a0,20403094 <__metal_plic0_get_threshold+0x1c>
20403084:	4781                	li	a5,0
20403086:	00200737          	lui	a4,0x200
2040308a:	05b2                	slli	a1,a1,0xc
2040308c:	95ba                	add	a1,a1,a4
2040308e:	95be                	add	a1,a1,a5
20403090:	4188                	lw	a0,0(a1)
20403092:	8082                	ret
20403094:	0c0007b7          	lui	a5,0xc000
20403098:	b7fd                	j	20403086 <__metal_plic0_get_threshold+0xe>

2040309a <__metal_driver_riscv_plic0_get_threshold>:
__metal_driver_riscv_plic0_get_threshold():
2040309a:	1141                	addi	sp,sp,-16
2040309c:	c422                	sw	s0,8(sp)
2040309e:	c606                	sw	ra,12(sp)
204030a0:	842a                	mv	s0,a0
204030a2:	b58ff0ef          	jal	ra,204023fa <__metal_myhart_id>
204030a6:	85aa                	mv	a1,a0
204030a8:	8522                	mv	a0,s0
204030aa:	4422                	lw	s0,8(sp)
204030ac:	40b2                	lw	ra,12(sp)
204030ae:	0141                	addi	sp,sp,16
204030b0:	b7e1                	j	20403078 <__metal_plic0_get_threshold>

204030b2 <__metal_driver_riscv_plic0_affinity_get_threshold>:
__metal_driver_riscv_plic0_affinity_get_threshold():
204030b2:	1141                	addi	sp,sp,-16
204030b4:	c606                	sw	ra,12(sp)
204030b6:	37c9                	jal	20403078 <__metal_plic0_get_threshold>
204030b8:	40b2                	lw	ra,12(sp)
204030ba:	4501                	li	a0,0
204030bc:	0141                	addi	sp,sp,16
204030be:	8082                	ret

204030c0 <__metal_plic0_enable>:
__metal_plic0_enable():
204030c0:	80000737          	lui	a4,0x80000
204030c4:	47870713          	addi	a4,a4,1144 # 80000478 <metal_segment_heap_target_end+0xffffed08>
204030c8:	0c000837          	lui	a6,0xc000
204030cc:	00a70363          	beq	a4,a0,204030d2 <__metal_plic0_enable+0x12>
204030d0:	4801                	li	a6,0
204030d2:	40565713          	srai	a4,a2,0x5
204030d6:	070a                	slli	a4,a4,0x2
204030d8:	00759793          	slli	a5,a1,0x7
204030dc:	97ba                	add	a5,a5,a4
204030de:	6709                	lui	a4,0x2
204030e0:	97ba                	add	a5,a5,a4
204030e2:	97c2                	add	a5,a5,a6
204030e4:	438c                	lw	a1,0(a5)
204030e6:	4705                	li	a4,1
204030e8:	00c71633          	sll	a2,a4,a2
204030ec:	c689                	beqz	a3,204030f6 <__metal_plic0_enable+0x36>
204030ee:	8e4d                	or	a2,a2,a1
204030f0:	c390                	sw	a2,0(a5)
204030f2:	4501                	li	a0,0
204030f4:	8082                	ret
204030f6:	fff64613          	not	a2,a2
204030fa:	8e6d                	and	a2,a2,a1
204030fc:	bfd5                	j	204030f0 <__metal_plic0_enable+0x30>

204030fe <__metal_driver_riscv_plic0_init>:
__metal_driver_riscv_plic0_init():
204030fe:	1101                	addi	sp,sp,-32
20403100:	ca26                	sw	s1,20(sp)
20403102:	4144                	lw	s1,4(a0)
20403104:	ce06                	sw	ra,28(sp)
20403106:	cc22                	sw	s0,24(sp)
20403108:	c84a                	sw	s2,16(sp)
2040310a:	c64e                	sw	s3,12(sp)
2040310c:	c452                	sw	s4,8(sp)
2040310e:	c256                	sw	s5,4(sp)
20403110:	c05a                	sw	s6,0(sp)
20403112:	c899                	beqz	s1,20403128 <__metal_driver_riscv_plic0_init+0x2a>
20403114:	40f2                	lw	ra,28(sp)
20403116:	4462                	lw	s0,24(sp)
20403118:	44d2                	lw	s1,20(sp)
2040311a:	4942                	lw	s2,16(sp)
2040311c:	49b2                	lw	s3,12(sp)
2040311e:	4a22                	lw	s4,8(sp)
20403120:	4a92                	lw	s5,4(sp)
20403122:	4b02                	lw	s6,0(sp)
20403124:	6105                	addi	sp,sp,32
20403126:	8082                	ret
20403128:	800007b7          	lui	a5,0x80000
2040312c:	47878793          	addi	a5,a5,1144 # 80000478 <metal_segment_heap_target_end+0xffffed08>
20403130:	03500a93          	li	s5,53
20403134:	00f50363          	beq	a0,a5,2040313a <__metal_driver_riscv_plic0_init+0x3c>
20403138:	4a81                	li	s5,0
2040313a:	80000937          	lui	s2,0x80000
2040313e:	0a892783          	lw	a5,168(s2) # 800000a8 <metal_segment_heap_target_end+0xffffe938>
20403142:	842a                	mv	s0,a0
20403144:	0a890513          	addi	a0,s2,168
20403148:	439c                	lw	a5,0(a5)
2040314a:	0ec40993          	addi	s3,s0,236
2040314e:	0a890a13          	addi	s4,s2,168
20403152:	9782                	jalr	a5
20403154:	40000b13          	li	s6,1024
20403158:	4681                	li	a3,0
2040315a:	8626                	mv	a2,s1
2040315c:	4581                	li	a1,0
2040315e:	8522                	mv	a0,s0
20403160:	3785                	jal	204030c0 <__metal_plic0_enable>
20403162:	0154df63          	bge	s1,s5,20403180 <__metal_driver_riscv_plic0_init+0x82>
20403166:	4601                	li	a2,0
20403168:	85a6                	mv	a1,s1
2040316a:	8522                	mv	a0,s0
2040316c:	3b21                	jal	20402e84 <__metal_driver_riscv_plic0_set_priority>
2040316e:	00249793          	slli	a5,s1,0x2
20403172:	97a2                	add	a5,a5,s0
20403174:	0007a423          	sw	zero,8(a5)
20403178:	0009a023          	sw	zero,0(s3)
2040317c:	0009a223          	sw	zero,4(s3)
20403180:	0485                	addi	s1,s1,1
20403182:	09e1                	addi	s3,s3,24
20403184:	fd649ae3          	bne	s1,s6,20403158 <__metal_driver_riscv_plic0_init+0x5a>
20403188:	4601                	li	a2,0
2040318a:	4581                	li	a1,0
2040318c:	8522                	mv	a0,s0
2040318e:	3595                	jal	20402ff2 <__metal_plic0_set_threshold>
20403190:	000a2783          	lw	a5,0(s4)
20403194:	86a2                	mv	a3,s0
20403196:	4601                	li	a2,0
20403198:	4fdc                	lw	a5,28(a5)
2040319a:	45ad                	li	a1,11
2040319c:	0a890513          	addi	a0,s2,168
204031a0:	9782                	jalr	a5
204031a2:	000a2783          	lw	a5,0(s4)
204031a6:	20403637          	lui	a2,0x20403
204031aa:	86a2                	mv	a3,s0
204031ac:	4fdc                	lw	a5,28(a5)
204031ae:	f9660613          	addi	a2,a2,-106 # 20402f96 <__metal_plic0_handler>
204031b2:	45ad                	li	a1,11
204031b4:	0a890513          	addi	a0,s2,168
204031b8:	9782                	jalr	a5
204031ba:	000a2783          	lw	a5,0(s4)
204031be:	45ad                	li	a1,11
204031c0:	0a890513          	addi	a0,s2,168
204031c4:	53dc                	lw	a5,36(a5)
204031c6:	9782                	jalr	a5
204031c8:	4785                	li	a5,1
204031ca:	c05c                	sw	a5,4(s0)
204031cc:	b7a1                	j	20403114 <__metal_driver_riscv_plic0_init+0x16>

204031ce <__metal_driver_riscv_plic0_enable>:
__metal_driver_riscv_plic0_enable():
204031ce:	800007b7          	lui	a5,0x80000
204031d2:	47878793          	addi	a5,a5,1144 # 80000478 <metal_segment_heap_target_end+0xffffed08>
204031d6:	4701                	li	a4,0
204031d8:	00f51463          	bne	a0,a5,204031e0 <__metal_driver_riscv_plic0_enable+0x12>
204031dc:	03500713          	li	a4,53
204031e0:	57fd                	li	a5,-1
204031e2:	02e5d463          	bge	a1,a4,2040320a <__metal_driver_riscv_plic0_enable+0x3c>
204031e6:	1101                	addi	sp,sp,-32
204031e8:	ce06                	sw	ra,28(sp)
204031ea:	cc22                	sw	s0,24(sp)
204031ec:	c62e                	sw	a1,12(sp)
204031ee:	842a                	mv	s0,a0
204031f0:	a0aff0ef          	jal	ra,204023fa <__metal_myhart_id>
204031f4:	4632                	lw	a2,12(sp)
204031f6:	85aa                	mv	a1,a0
204031f8:	4685                	li	a3,1
204031fa:	8522                	mv	a0,s0
204031fc:	35d1                	jal	204030c0 <__metal_plic0_enable>
204031fe:	40f2                	lw	ra,28(sp)
20403200:	4462                	lw	s0,24(sp)
20403202:	4781                	li	a5,0
20403204:	853e                	mv	a0,a5
20403206:	6105                	addi	sp,sp,32
20403208:	8082                	ret
2040320a:	853e                	mv	a0,a5
2040320c:	8082                	ret

2040320e <__metal_driver_riscv_plic0_disable>:
__metal_driver_riscv_plic0_disable():
2040320e:	800007b7          	lui	a5,0x80000
20403212:	47878793          	addi	a5,a5,1144 # 80000478 <metal_segment_heap_target_end+0xffffed08>
20403216:	4701                	li	a4,0
20403218:	00f51463          	bne	a0,a5,20403220 <__metal_driver_riscv_plic0_disable+0x12>
2040321c:	03500713          	li	a4,53
20403220:	57fd                	li	a5,-1
20403222:	02e5d463          	bge	a1,a4,2040324a <__metal_driver_riscv_plic0_disable+0x3c>
20403226:	1101                	addi	sp,sp,-32
20403228:	ce06                	sw	ra,28(sp)
2040322a:	cc22                	sw	s0,24(sp)
2040322c:	c62e                	sw	a1,12(sp)
2040322e:	842a                	mv	s0,a0
20403230:	9caff0ef          	jal	ra,204023fa <__metal_myhart_id>
20403234:	4632                	lw	a2,12(sp)
20403236:	85aa                	mv	a1,a0
20403238:	4681                	li	a3,0
2040323a:	8522                	mv	a0,s0
2040323c:	3551                	jal	204030c0 <__metal_plic0_enable>
2040323e:	40f2                	lw	ra,28(sp)
20403240:	4462                	lw	s0,24(sp)
20403242:	4781                	li	a5,0
20403244:	853e                	mv	a0,a5
20403246:	6105                	addi	sp,sp,32
20403248:	8082                	ret
2040324a:	853e                	mv	a0,a5
2040324c:	8082                	ret

2040324e <__metal_driver_riscv_plic0_affinity_enable>:
__metal_driver_riscv_plic0_affinity_enable():
2040324e:	1101                	addi	sp,sp,-32
20403250:	800007b7          	lui	a5,0x80000
20403254:	ce06                	sw	ra,28(sp)
20403256:	cc22                	sw	s0,24(sp)
20403258:	ca26                	sw	s1,20(sp)
2040325a:	c84a                	sw	s2,16(sp)
2040325c:	c64e                	sw	s3,12(sp)
2040325e:	c452                	sw	s4,8(sp)
20403260:	47878793          	addi	a5,a5,1144 # 80000478 <metal_segment_heap_target_end+0xffffed08>
20403264:	4701                	li	a4,0
20403266:	00f51463          	bne	a0,a5,2040326e <__metal_driver_riscv_plic0_affinity_enable+0x20>
2040326a:	03500713          	li	a4,53
2040326e:	54fd                	li	s1,-1
20403270:	00e65863          	bge	a2,a4,20403280 <__metal_driver_riscv_plic0_affinity_enable+0x32>
20403274:	8a32                	mv	s4,a2
20403276:	89aa                	mv	s3,a0
20403278:	842e                	mv	s0,a1
2040327a:	4481                	li	s1,0
2040327c:	4901                	li	s2,0
2040327e:	e811                	bnez	s0,20403292 <__metal_driver_riscv_plic0_affinity_enable+0x44>
20403280:	40f2                	lw	ra,28(sp)
20403282:	4462                	lw	s0,24(sp)
20403284:	8526                	mv	a0,s1
20403286:	4942                	lw	s2,16(sp)
20403288:	44d2                	lw	s1,20(sp)
2040328a:	49b2                	lw	s3,12(sp)
2040328c:	4a22                	lw	s4,8(sp)
2040328e:	6105                	addi	sp,sp,32
20403290:	8082                	ret
20403292:	00090b63          	beqz	s2,204032a8 <__metal_driver_riscv_plic0_affinity_enable+0x5a>
20403296:	4685                	li	a3,1
20403298:	8652                	mv	a2,s4
2040329a:	85ca                	mv	a1,s2
2040329c:	854e                	mv	a0,s3
2040329e:	350d                	jal	204030c0 <__metal_plic0_enable>
204032a0:	8905                	andi	a0,a0,1
204032a2:	01251533          	sll	a0,a0,s2
204032a6:	8cc9                	or	s1,s1,a0
204032a8:	0905                	addi	s2,s2,1
204032aa:	8005                	srli	s0,s0,0x1
204032ac:	bfc9                	j	2040327e <__metal_driver_riscv_plic0_affinity_enable+0x30>

204032ae <__metal_driver_riscv_plic0_affinity_disable>:
__metal_driver_riscv_plic0_affinity_disable():
204032ae:	1101                	addi	sp,sp,-32
204032b0:	800007b7          	lui	a5,0x80000
204032b4:	ce06                	sw	ra,28(sp)
204032b6:	cc22                	sw	s0,24(sp)
204032b8:	ca26                	sw	s1,20(sp)
204032ba:	c84a                	sw	s2,16(sp)
204032bc:	c64e                	sw	s3,12(sp)
204032be:	c452                	sw	s4,8(sp)
204032c0:	47878793          	addi	a5,a5,1144 # 80000478 <metal_segment_heap_target_end+0xffffed08>
204032c4:	4701                	li	a4,0
204032c6:	00f51463          	bne	a0,a5,204032ce <__metal_driver_riscv_plic0_affinity_disable+0x20>
204032ca:	03500713          	li	a4,53
204032ce:	54fd                	li	s1,-1
204032d0:	00e65863          	bge	a2,a4,204032e0 <__metal_driver_riscv_plic0_affinity_disable+0x32>
204032d4:	8a32                	mv	s4,a2
204032d6:	89aa                	mv	s3,a0
204032d8:	842e                	mv	s0,a1
204032da:	4481                	li	s1,0
204032dc:	4901                	li	s2,0
204032de:	e811                	bnez	s0,204032f2 <__metal_driver_riscv_plic0_affinity_disable+0x44>
204032e0:	40f2                	lw	ra,28(sp)
204032e2:	4462                	lw	s0,24(sp)
204032e4:	8526                	mv	a0,s1
204032e6:	4942                	lw	s2,16(sp)
204032e8:	44d2                	lw	s1,20(sp)
204032ea:	49b2                	lw	s3,12(sp)
204032ec:	4a22                	lw	s4,8(sp)
204032ee:	6105                	addi	sp,sp,32
204032f0:	8082                	ret
204032f2:	00090b63          	beqz	s2,20403308 <__metal_driver_riscv_plic0_affinity_disable+0x5a>
204032f6:	4681                	li	a3,0
204032f8:	8652                	mv	a2,s4
204032fa:	85ca                	mv	a1,s2
204032fc:	854e                	mv	a0,s3
204032fe:	33c9                	jal	204030c0 <__metal_plic0_enable>
20403300:	8905                	andi	a0,a0,1
20403302:	01251533          	sll	a0,a0,s2
20403306:	8cc9                	or	s1,s1,a0
20403308:	0905                	addi	s2,s2,1
2040330a:	8005                	srli	s0,s0,0x1
2040330c:	bfc9                	j	204032de <__metal_driver_riscv_plic0_affinity_disable+0x30>

2040330e <__metal_driver_sifive_fe310_g000_hfrosc_get_rate_hz>:
__metal_driver_sifive_fe310_g000_hfrosc_get_rate_hz():
2040330e:	83c1a783          	lw	a5,-1988(gp) # 80000aac <__metal_driver_vtable_sifive_fe310_g000_prci>
20403312:	1141                	addi	sp,sp,-16
20403314:	c422                	sw	s0,8(sp)
20403316:	c606                	sw	ra,12(sp)
20403318:	4581                	li	a1,0
2040331a:	82018513          	addi	a0,gp,-2016 # 80000a90 <__metal_dt_prci_10008000>
2040331e:	9782                	jalr	a5
20403320:	842a                	mv	s0,a0
20403322:	00141793          	slli	a5,s0,0x1
20403326:	557d                	li	a0,-1
20403328:	0007df63          	bgez	a5,20403346 <__metal_driver_sifive_fe310_g000_hfrosc_get_rate_hz+0x38>
2040332c:	00045d63          	bgez	s0,20403346 <__metal_driver_sifive_fe310_g000_hfrosc_get_rate_hz+0x38>
20403330:	80000537          	lui	a0,0x80000
20403334:	07850513          	addi	a0,a0,120 # 80000078 <metal_segment_heap_target_end+0xffffe908>
20403338:	03f47413          	andi	s0,s0,63
2040333c:	107000ef          	jal	ra,20403c42 <metal_clock_get_rate_hz>
20403340:	0405                	addi	s0,s0,1
20403342:	02855533          	divu	a0,a0,s0
20403346:	40b2                	lw	ra,12(sp)
20403348:	4422                	lw	s0,8(sp)
2040334a:	0141                	addi	sp,sp,16
2040334c:	8082                	ret

2040334e <__metal_driver_sifive_fe310_g000_hfrosc_set_rate_hz>:
__metal_driver_sifive_fe310_g000_hfrosc_set_rate_hz():
2040334e:	b7c1                	j	2040330e <__metal_driver_sifive_fe310_g000_hfrosc_get_rate_hz>

20403350 <__metal_driver_sifive_fe310_g000_hfxosc_get_rate_hz>:
__metal_driver_sifive_fe310_g000_hfxosc_get_rate_hz():
20403350:	83c1a783          	lw	a5,-1988(gp) # 80000aac <__metal_driver_vtable_sifive_fe310_g000_prci>
20403354:	1141                	addi	sp,sp,-16
20403356:	c606                	sw	ra,12(sp)
20403358:	4591                	li	a1,4
2040335a:	82018513          	addi	a0,gp,-2016 # 80000a90 <__metal_dt_prci_10008000>
2040335e:	9782                	jalr	a5
20403360:	00151793          	slli	a5,a0,0x1
20403364:	0007dc63          	bgez	a5,2040337c <__metal_driver_sifive_fe310_g000_hfxosc_get_rate_hz+0x2c>
20403368:	00055a63          	bgez	a0,2040337c <__metal_driver_sifive_fe310_g000_hfxosc_get_rate_hz+0x2c>
2040336c:	40b2                	lw	ra,12(sp)
2040336e:	80000537          	lui	a0,0x80000
20403372:	06050513          	addi	a0,a0,96 # 80000060 <metal_segment_heap_target_end+0xffffe8f0>
20403376:	0141                	addi	sp,sp,16
20403378:	0cb0006f          	j	20403c42 <metal_clock_get_rate_hz>
2040337c:	40b2                	lw	ra,12(sp)
2040337e:	557d                	li	a0,-1
20403380:	0141                	addi	sp,sp,16
20403382:	8082                	ret

20403384 <__metal_driver_sifive_fe310_g000_hfxosc_set_rate_hz>:
__metal_driver_sifive_fe310_g000_hfxosc_set_rate_hz():
20403384:	b7f1                	j	20403350 <__metal_driver_sifive_fe310_g000_hfxosc_get_rate_hz>

20403386 <__metal_driver_sifive_fe310_g000_pll_config_base>:
__metal_driver_sifive_fe310_g000_pll_config_base():
20403386:	82018513          	addi	a0,gp,-2016 # 80000a90 <__metal_dt_prci_10008000>
2040338a:	8082                	ret

2040338c <__metal_driver_sifive_fe310_g000_pll_config_offset>:
__metal_driver_sifive_fe310_g000_pll_config_offset():
2040338c:	4521                	li	a0,8
2040338e:	8082                	ret

20403390 <__metal_driver_sifive_fe310_g000_pll_init>:
__metal_driver_sifive_fe310_g000_pll_init():
20403390:	1141                	addi	sp,sp,-16
20403392:	c422                	sw	s0,8(sp)
20403394:	842a                	mv	s0,a0
20403396:	4148                	lw	a0,4(a0)
20403398:	c606                	sw	ra,12(sp)
2040339a:	075000ef          	jal	ra,20403c0e <_metal_clock_call_all_callbacks>
2040339e:	100087b7          	lui	a5,0x10008
204033a2:	4798                	lw	a4,8(a5)
204033a4:	00f71693          	slli	a3,a4,0xf
204033a8:	0006d763          	bgez	a3,204033b6 <__metal_driver_sifive_fe310_g000_pll_init+0x26>
204033ac:	4798                	lw	a4,8(a5)
204033ae:	76c1                	lui	a3,0xffff0
204033b0:	16fd                	addi	a3,a3,-1
204033b2:	8f75                	and	a4,a4,a3
204033b4:	c798                	sw	a4,8(a5)
204033b6:	10008737          	lui	a4,0x10008
204033ba:	471c                	lw	a5,8(a4)
204033bc:	000206b7          	lui	a3,0x20
204033c0:	00f425b7          	lui	a1,0xf42
204033c4:	8fd5                	or	a5,a5,a3
204033c6:	c71c                	sw	a5,8(a4)
204033c8:	401c                	lw	a5,0(s0)
204033ca:	8522                	mv	a0,s0
204033cc:	40058593          	addi	a1,a1,1024 # f42400 <__heap_size+0xf41c00>
204033d0:	43dc                	lw	a5,4(a5)
204033d2:	9782                	jalr	a5
204033d4:	4408                	lw	a0,8(s0)
204033d6:	4422                	lw	s0,8(sp)
204033d8:	40b2                	lw	ra,12(sp)
204033da:	0141                	addi	sp,sp,16
204033dc:	0330006f          	j	20403c0e <_metal_clock_call_all_callbacks>

204033e0 <__metal_driver_sifive_fe310_g000_pll_get_rate_hz>:
__metal_driver_sifive_fe310_g000_pll_get_rate_hz():
204033e0:	1101                	addi	sp,sp,-32
204033e2:	ce06                	sw	ra,28(sp)
204033e4:	cc22                	sw	s0,24(sp)
204033e6:	ca26                	sw	s1,20(sp)
204033e8:	842a                	mv	s0,a0
204033ea:	374d                	jal	2040338c <__metal_driver_sifive_fe310_g000_pll_config_offset>
204033ec:	c62a                	sw	a0,12(sp)
204033ee:	8522                	mv	a0,s0
204033f0:	3f59                	jal	20403386 <__metal_driver_sifive_fe310_g000_pll_config_base>
204033f2:	83c1a483          	lw	s1,-1988(gp) # 80000aac <__metal_driver_vtable_sifive_fe310_g000_prci>
204033f6:	45b2                	lw	a1,12(sp)
204033f8:	9482                	jalr	s1
204033fa:	842a                	mv	s0,a0
204033fc:	45b1                	li	a1,12
204033fe:	82018513          	addi	a0,gp,-2016 # 80000a90 <__metal_dt_prci_10008000>
20403402:	9482                	jalr	s1
20403404:	00f41793          	slli	a5,s0,0xf
20403408:	0007cc63          	bltz	a5,20403420 <__metal_driver_sifive_fe310_g000_pll_get_rate_hz+0x40>
2040340c:	4462                	lw	s0,24(sp)
2040340e:	40f2                	lw	ra,28(sp)
20403410:	44d2                	lw	s1,20(sp)
20403412:	80000537          	lui	a0,0x80000
20403416:	08450513          	addi	a0,a0,132 # 80000084 <metal_segment_heap_target_end+0xffffe914>
2040341a:	6105                	addi	sp,sp,32
2040341c:	0270006f          	j	20403c42 <metal_clock_get_rate_hz>
20403420:	00e41793          	slli	a5,s0,0xe
20403424:	84aa                	mv	s1,a0
20403426:	0607c563          	bltz	a5,20403490 <__metal_driver_sifive_fe310_g000_pll_get_rate_hz+0xb0>
2040342a:	80000537          	lui	a0,0x80000
2040342e:	08450513          	addi	a0,a0,132 # 80000084 <metal_segment_heap_target_end+0xffffe914>
20403432:	011000ef          	jal	ra,20403c42 <metal_clock_get_rate_hz>
20403436:	00d41793          	slli	a5,s0,0xd
2040343a:	0407c663          	bltz	a5,20403486 <__metal_driver_sifive_fe310_g000_pll_get_rate_hz+0xa6>
2040343e:	00445793          	srli	a5,s0,0x4
20403442:	6685                	lui	a3,0x1
20403444:	c0068693          	addi	a3,a3,-1024 # c00 <__heap_size+0x400>
20403448:	03f7f793          	andi	a5,a5,63
2040344c:	00747713          	andi	a4,s0,7
20403450:	0785                	addi	a5,a5,1
20403452:	8c75                	and	s0,s0,a3
20403454:	3ff00693          	li	a3,1023
20403458:	0705                	addi	a4,a4,1
2040345a:	0786                	slli	a5,a5,0x1
2040345c:	0286ff63          	bgeu	a3,s0,2040349a <__metal_driver_sifive_fe310_g000_pll_get_rate_hz+0xba>
20403460:	02e54533          	div	a0,a0,a4
20403464:	8029                	srli	s0,s0,0xa
20403466:	02f50533          	mul	a0,a0,a5
2040346a:	4785                	li	a5,1
2040346c:	00879433          	sll	s0,a5,s0
20403470:	1004f793          	andi	a5,s1,256
20403474:	02854533          	div	a0,a0,s0
20403478:	e799                	bnez	a5,20403486 <__metal_driver_sifive_fe310_g000_pll_get_rate_hz+0xa6>
2040347a:	03f4f493          	andi	s1,s1,63
2040347e:	0485                	addi	s1,s1,1
20403480:	0486                	slli	s1,s1,0x1
20403482:	02955533          	divu	a0,a0,s1
20403486:	40f2                	lw	ra,28(sp)
20403488:	4462                	lw	s0,24(sp)
2040348a:	44d2                	lw	s1,20(sp)
2040348c:	6105                	addi	sp,sp,32
2040348e:	8082                	ret
20403490:	80000537          	lui	a0,0x80000
20403494:	06c50513          	addi	a0,a0,108 # 8000006c <metal_segment_heap_target_end+0xffffe8fc>
20403498:	bf69                	j	20403432 <__metal_driver_sifive_fe310_g000_pll_get_rate_hz+0x52>
2040349a:	557d                	li	a0,-1
2040349c:	b7ed                	j	20403486 <__metal_driver_sifive_fe310_g000_pll_get_rate_hz+0xa6>

2040349e <__metal_driver_sifive_fe310_g000_pll_set_rate_hz>:
__metal_driver_sifive_fe310_g000_pll_set_rate_hz():
2040349e:	7179                	addi	sp,sp,-48
204034a0:	d422                	sw	s0,40(sp)
204034a2:	d226                	sw	s1,36(sp)
204034a4:	d04a                	sw	s2,32(sp)
204034a6:	d606                	sw	ra,44(sp)
204034a8:	ce4e                	sw	s3,28(sp)
204034aa:	cc52                	sw	s4,24(sp)
204034ac:	84aa                	mv	s1,a0
204034ae:	892e                	mv	s2,a1
204034b0:	10008437          	lui	s0,0x10008
204034b4:	3de1                	jal	2040338c <__metal_driver_sifive_fe310_g000_pll_config_offset>
204034b6:	942a                	add	s0,s0,a0
204034b8:	401c                	lw	a5,0(s0)
204034ba:	00f79713          	slli	a4,a5,0xf
204034be:	00075763          	bgez	a4,204034cc <__metal_driver_sifive_fe310_g000_pll_set_rate_hz+0x2e>
204034c2:	401c                	lw	a5,0(s0)
204034c4:	7741                	lui	a4,0xffff0
204034c6:	177d                	addi	a4,a4,-1
204034c8:	8ff9                	and	a5,a5,a4
204034ca:	c01c                	sw	a5,0(s0)
204034cc:	401c                	lw	a5,0(s0)
204034ce:	00e79713          	slli	a4,a5,0xe
204034d2:	02074c63          	bltz	a4,2040350a <__metal_driver_sifive_fe310_g000_pll_set_rate_hz+0x6c>
204034d6:	80000537          	lui	a0,0x80000
204034da:	08450513          	addi	a0,a0,132 # 80000084 <metal_segment_heap_target_end+0xffffe914>
204034de:	2795                	jal	20403c42 <metal_clock_get_rate_hz>
204034e0:	470d                	li	a4,3
204034e2:	02e50733          	mul	a4,a0,a4
204034e6:	4691                	li	a3,4
204034e8:	02d74733          	div	a4,a4,a3
204034ec:	02e94463          	blt	s2,a4,20403514 <__metal_driver_sifive_fe310_g000_pll_set_rate_hz+0x76>
204034f0:	4795                	li	a5,5
204034f2:	02f507b3          	mul	a5,a0,a5
204034f6:	02d7c7b3          	div	a5,a5,a3
204034fa:	0127cd63          	blt	a5,s2,20403514 <__metal_driver_sifive_fe310_g000_pll_set_rate_hz+0x76>
204034fe:	401c                	lw	a5,0(s0)
20403500:	00040737          	lui	a4,0x40
20403504:	8fd9                	or	a5,a5,a4
20403506:	c01c                	sw	a5,0(s0)
20403508:	aa21                	j	20403620 <__metal_driver_sifive_fe310_g000_pll_set_rate_hz+0x182>
2040350a:	80000537          	lui	a0,0x80000
2040350e:	06c50513          	addi	a0,a0,108 # 8000006c <metal_segment_heap_target_end+0xffffe8fc>
20403512:	b7f1                	j	204034de <__metal_driver_sifive_fe310_g000_pll_set_rate_hz+0x40>
20403514:	20401737          	lui	a4,0x20401
20403518:	80000837          	lui	a6,0x80000
2040351c:	d8070713          	addi	a4,a4,-640 # 20400d80 <pll_configs+0x860>
20403520:	56fd                	li	a3,-1
20403522:	fff84813          	not	a6,a6
20403526:	04300613          	li	a2,67
2040352a:	55fd                	li	a1,-1
2040352c:	471c                	lw	a5,8(a4)
2040352e:	02f56a63          	bltu	a0,a5,20403562 <__metal_driver_sifive_fe310_g000_pll_set_rate_hz+0xc4>
20403532:	475c                	lw	a5,12(a4)
20403534:	02a7e763          	bltu	a5,a0,20403562 <__metal_driver_sifive_fe310_g000_pll_set_rate_hz+0xc4>
20403538:	431c                	lw	a5,0(a4)
2040353a:	00472883          	lw	a7,4(a4)
2040353e:	02f507b3          	mul	a5,a0,a5
20403542:	0317d7b3          	divu	a5,a5,a7
20403546:	00b78e63          	beq	a5,a1,20403562 <__metal_driver_sifive_fe310_g000_pll_set_rate_hz+0xc4>
2040354a:	412787b3          	sub	a5,a5,s2
2040354e:	41f7d893          	srai	a7,a5,0x1f
20403552:	00f8c7b3          	xor	a5,a7,a5
20403556:	411787b3          	sub	a5,a5,a7
2040355a:	0107d463          	bge	a5,a6,20403562 <__metal_driver_sifive_fe310_g000_pll_set_rate_hz+0xc4>
2040355e:	883e                	mv	a6,a5
20403560:	86b2                	mv	a3,a2
20403562:	167d                	addi	a2,a2,-1
20403564:	1701                	addi	a4,a4,-32
20403566:	fcb613e3          	bne	a2,a1,2040352c <__metal_driver_sifive_fe310_g000_pll_set_rate_hz+0x8e>
2040356a:	401c                	lw	a5,0(s0)
2040356c:	f8c68ae3          	beq	a3,a2,20403500 <__metal_driver_sifive_fe310_g000_pll_set_rate_hz+0x62>
20403570:	9be1                	andi	a5,a5,-8
20403572:	c01c                	sw	a5,0(s0)
20403574:	204007b7          	lui	a5,0x20400
20403578:	0696                	slli	a3,a3,0x5
2040357a:	52078793          	addi	a5,a5,1312 # 20400520 <pll_configs>
2040357e:	97b6                	add	a5,a5,a3
20403580:	4b98                	lw	a4,16(a5)
20403582:	4010                	lw	a2,0(s0)
20403584:	8b1d                	andi	a4,a4,7
20403586:	8f51                	or	a4,a4,a2
20403588:	c018                	sw	a4,0(s0)
2040358a:	4018                	lw	a4,0(s0)
2040358c:	c0f77713          	andi	a4,a4,-1009
20403590:	c018                	sw	a4,0(s0)
20403592:	4bd8                	lw	a4,20(a5)
20403594:	4014                	lw	a3,0(s0)
20403596:	0712                	slli	a4,a4,0x4
20403598:	3f077713          	andi	a4,a4,1008
2040359c:	8f55                	or	a4,a4,a3
2040359e:	c018                	sw	a4,0(s0)
204035a0:	4018                	lw	a4,0(s0)
204035a2:	76fd                	lui	a3,0xfffff
204035a4:	3ff68693          	addi	a3,a3,1023 # fffff3ff <metal_segment_heap_target_end+0x7fffdc8f>
204035a8:	8f75                	and	a4,a4,a3
204035aa:	c018                	sw	a4,0(s0)
204035ac:	4f98                	lw	a4,24(a5)
204035ae:	4010                	lw	a2,0(s0)
204035b0:	6685                	lui	a3,0x1
204035b2:	072a                	slli	a4,a4,0xa
204035b4:	c0068693          	addi	a3,a3,-1024 # c00 <__heap_size+0x400>
204035b8:	8f75                	and	a4,a4,a3
204035ba:	8f51                	or	a4,a4,a2
204035bc:	c018                	sw	a4,0(s0)
204035be:	4fd8                	lw	a4,28(a5)
204035c0:	100087b7          	lui	a5,0x10008
204035c4:	06075c63          	bgez	a4,2040363c <__metal_driver_sifive_fe310_g000_pll_set_rate_hz+0x19e>
204035c8:	47d8                	lw	a4,12(a5)
204035ca:	10076713          	ori	a4,a4,256
204035ce:	c7d8                	sw	a4,12(a5)
204035d0:	47d8                	lw	a4,12(a5)
204035d2:	fc077713          	andi	a4,a4,-64
204035d6:	c7d8                	sw	a4,12(a5)
204035d8:	47d8                	lw	a4,12(a5)
204035da:	00176713          	ori	a4,a4,1
204035de:	c7d8                	sw	a4,12(a5)
204035e0:	401c                	lw	a5,0(s0)
204035e2:	fffc0737          	lui	a4,0xfffc0
204035e6:	177d                	addi	a4,a4,-1
204035e8:	8ff9                	and	a5,a5,a4
204035ea:	800019b7          	lui	s3,0x80001
204035ee:	c01c                	sw	a5,0(s0)
204035f0:	0030                	addi	a2,sp,8
204035f2:	4585                	li	a1,1
204035f4:	a7c98513          	addi	a0,s3,-1412 # 80000a7c <metal_segment_heap_target_end+0xfffff30c>
204035f8:	947fe0ef          	jal	ra,20401f3e <__metal_driver_riscv_clint0_command_request>
204035fc:	4922                	lw	s2,8(sp)
204035fe:	47b2                	lw	a5,12(sp)
20403600:	00490a13          	addi	s4,s2,4
20403604:	012a3933          	sltu	s2,s4,s2
20403608:	993e                	add	s2,s2,a5
2040360a:	47b2                	lw	a5,12(sp)
2040360c:	00f96763          	bltu	s2,a5,2040361a <__metal_driver_sifive_fe310_g000_pll_set_rate_hz+0x17c>
20403610:	05279363          	bne	a5,s2,20403656 <__metal_driver_sifive_fe310_g000_pll_set_rate_hz+0x1b8>
20403614:	47a2                	lw	a5,8(sp)
20403616:	04fa7063          	bgeu	s4,a5,20403656 <__metal_driver_sifive_fe310_g000_pll_set_rate_hz+0x1b8>
2040361a:	401c                	lw	a5,0(s0)
2040361c:	fe07dfe3          	bgez	a5,2040361a <__metal_driver_sifive_fe310_g000_pll_set_rate_hz+0x17c>
20403620:	401c                	lw	a5,0(s0)
20403622:	6741                	lui	a4,0x10
20403624:	8526                	mv	a0,s1
20403626:	8fd9                	or	a5,a5,a4
20403628:	c01c                	sw	a5,0(s0)
2040362a:	3b5d                	jal	204033e0 <__metal_driver_sifive_fe310_g000_pll_get_rate_hz>
2040362c:	50b2                	lw	ra,44(sp)
2040362e:	5422                	lw	s0,40(sp)
20403630:	5492                	lw	s1,36(sp)
20403632:	5902                	lw	s2,32(sp)
20403634:	49f2                	lw	s3,28(sp)
20403636:	4a62                	lw	s4,24(sp)
20403638:	6145                	addi	sp,sp,48
2040363a:	8082                	ret
2040363c:	47d4                	lw	a3,12(a5)
2040363e:	03f77713          	andi	a4,a4,63
20403642:	eff6f693          	andi	a3,a3,-257
20403646:	c7d4                	sw	a3,12(a5)
20403648:	47d4                	lw	a3,12(a5)
2040364a:	fc06f693          	andi	a3,a3,-64
2040364e:	c7d4                	sw	a3,12(a5)
20403650:	47d4                	lw	a3,12(a5)
20403652:	8f55                	or	a4,a4,a3
20403654:	b769                	j	204035de <__metal_driver_sifive_fe310_g000_pll_set_rate_hz+0x140>
20403656:	0030                	addi	a2,sp,8
20403658:	4585                	li	a1,1
2040365a:	a7c98513          	addi	a0,s3,-1412
2040365e:	8e1fe0ef          	jal	ra,20401f3e <__metal_driver_riscv_clint0_command_request>
20403662:	b765                	j	2040360a <__metal_driver_sifive_fe310_g000_pll_set_rate_hz+0x16c>

20403664 <__metal_driver_sifive_fe310_g000_prci_get_reg>:
__metal_driver_sifive_fe310_g000_prci_get_reg():
20403664:	100087b7          	lui	a5,0x10008
20403668:	95be                	add	a1,a1,a5
2040366a:	4188                	lw	a0,0(a1)
2040366c:	8082                	ret

2040366e <__metal_driver_sifive_fe310_g000_prci_set_reg>:
__metal_driver_sifive_fe310_g000_prci_set_reg():
2040366e:	100087b7          	lui	a5,0x10008
20403672:	95be                	add	a1,a1,a5
20403674:	c190                	sw	a2,0(a1)
20403676:	8532                	mv	a0,a2
20403678:	8082                	ret

2040367a <__metal_driver_sifive_gpio0_enable_input>:
__metal_driver_sifive_gpio0_enable_input():
2040367a:	81c18713          	addi	a4,gp,-2020 # 80000a8c <__metal_dt_gpio_10012000>
2040367e:	100127b7          	lui	a5,0x10012
20403682:	00a70363          	beq	a4,a0,20403688 <__metal_driver_sifive_gpio0_enable_input+0xe>
20403686:	4781                	li	a5,0
20403688:	43d8                	lw	a4,4(a5)
2040368a:	4501                	li	a0,0
2040368c:	8dd9                	or	a1,a1,a4
2040368e:	c3cc                	sw	a1,4(a5)
20403690:	8082                	ret

20403692 <__metal_driver_sifive_gpio0_disable_input>:
__metal_driver_sifive_gpio0_disable_input():
20403692:	81c18713          	addi	a4,gp,-2020 # 80000a8c <__metal_dt_gpio_10012000>
20403696:	100127b7          	lui	a5,0x10012
2040369a:	00a70363          	beq	a4,a0,204036a0 <__metal_driver_sifive_gpio0_disable_input+0xe>
2040369e:	4781                	li	a5,0
204036a0:	43d8                	lw	a4,4(a5)
204036a2:	fff5c593          	not	a1,a1
204036a6:	4501                	li	a0,0
204036a8:	8df9                	and	a1,a1,a4
204036aa:	c3cc                	sw	a1,4(a5)
204036ac:	8082                	ret

204036ae <__metal_driver_sifive_gpio0_input>:
__metal_driver_sifive_gpio0_input():
204036ae:	81c18793          	addi	a5,gp,-2020 # 80000a8c <__metal_dt_gpio_10012000>
204036b2:	00a78563          	beq	a5,a0,204036bc <__metal_driver_sifive_gpio0_input+0xe>
204036b6:	4781                	li	a5,0
204036b8:	4388                	lw	a0,0(a5)
204036ba:	8082                	ret
204036bc:	100127b7          	lui	a5,0x10012
204036c0:	bfe5                	j	204036b8 <__metal_driver_sifive_gpio0_input+0xa>

204036c2 <__metal_driver_sifive_gpio0_output>:
__metal_driver_sifive_gpio0_output():
204036c2:	81c18793          	addi	a5,gp,-2020 # 80000a8c <__metal_dt_gpio_10012000>
204036c6:	00a78563          	beq	a5,a0,204036d0 <__metal_driver_sifive_gpio0_output+0xe>
204036ca:	4781                	li	a5,0
204036cc:	47c8                	lw	a0,12(a5)
204036ce:	8082                	ret
204036d0:	100127b7          	lui	a5,0x10012
204036d4:	bfe5                	j	204036cc <__metal_driver_sifive_gpio0_output+0xa>

204036d6 <__metal_driver_sifive_gpio0_disable_output>:
__metal_driver_sifive_gpio0_disable_output():
204036d6:	81c18713          	addi	a4,gp,-2020 # 80000a8c <__metal_dt_gpio_10012000>
204036da:	100127b7          	lui	a5,0x10012
204036de:	00a70363          	beq	a4,a0,204036e4 <__metal_driver_sifive_gpio0_disable_output+0xe>
204036e2:	4781                	li	a5,0
204036e4:	4798                	lw	a4,8(a5)
204036e6:	fff5c593          	not	a1,a1
204036ea:	4501                	li	a0,0
204036ec:	8df9                	and	a1,a1,a4
204036ee:	c78c                	sw	a1,8(a5)
204036f0:	8082                	ret

204036f2 <__metal_driver_sifive_gpio0_enable_output>:
__metal_driver_sifive_gpio0_enable_output():
204036f2:	81c18713          	addi	a4,gp,-2020 # 80000a8c <__metal_dt_gpio_10012000>
204036f6:	100127b7          	lui	a5,0x10012
204036fa:	00a70363          	beq	a4,a0,20403700 <__metal_driver_sifive_gpio0_enable_output+0xe>
204036fe:	4781                	li	a5,0
20403700:	4798                	lw	a4,8(a5)
20403702:	4501                	li	a0,0
20403704:	8dd9                	or	a1,a1,a4
20403706:	c78c                	sw	a1,8(a5)
20403708:	8082                	ret

2040370a <__metal_driver_sifive_gpio0_output_set>:
__metal_driver_sifive_gpio0_output_set():
2040370a:	81c18713          	addi	a4,gp,-2020 # 80000a8c <__metal_dt_gpio_10012000>
2040370e:	100127b7          	lui	a5,0x10012
20403712:	00a70363          	beq	a4,a0,20403718 <__metal_driver_sifive_gpio0_output_set+0xe>
20403716:	4781                	li	a5,0
20403718:	47d8                	lw	a4,12(a5)
2040371a:	4501                	li	a0,0
2040371c:	8dd9                	or	a1,a1,a4
2040371e:	c7cc                	sw	a1,12(a5)
20403720:	8082                	ret

20403722 <__metal_driver_sifive_gpio0_output_clear>:
__metal_driver_sifive_gpio0_output_clear():
20403722:	81c18713          	addi	a4,gp,-2020 # 80000a8c <__metal_dt_gpio_10012000>
20403726:	100127b7          	lui	a5,0x10012
2040372a:	00a70363          	beq	a4,a0,20403730 <__metal_driver_sifive_gpio0_output_clear+0xe>
2040372e:	4781                	li	a5,0
20403730:	47d8                	lw	a4,12(a5)
20403732:	fff5c593          	not	a1,a1
20403736:	4501                	li	a0,0
20403738:	8df9                	and	a1,a1,a4
2040373a:	c7cc                	sw	a1,12(a5)
2040373c:	8082                	ret

2040373e <__metal_driver_sifive_gpio0_output_toggle>:
__metal_driver_sifive_gpio0_output_toggle():
2040373e:	81c18713          	addi	a4,gp,-2020 # 80000a8c <__metal_dt_gpio_10012000>
20403742:	100127b7          	lui	a5,0x10012
20403746:	00a70363          	beq	a4,a0,2040374c <__metal_driver_sifive_gpio0_output_toggle+0xe>
2040374a:	4781                	li	a5,0
2040374c:	47d8                	lw	a4,12(a5)
2040374e:	4501                	li	a0,0
20403750:	8db9                	xor	a1,a1,a4
20403752:	c7cc                	sw	a1,12(a5)
20403754:	8082                	ret

20403756 <__metal_driver_sifive_gpio0_enable_io>:
__metal_driver_sifive_gpio0_enable_io():
20403756:	81c18713          	addi	a4,gp,-2020 # 80000a8c <__metal_dt_gpio_10012000>
2040375a:	100127b7          	lui	a5,0x10012
2040375e:	00a70363          	beq	a4,a0,20403764 <__metal_driver_sifive_gpio0_enable_io+0xe>
20403762:	4781                	li	a5,0
20403764:	5fd8                	lw	a4,60(a5)
20403766:	4501                	li	a0,0
20403768:	8dd9                	or	a1,a1,a4
2040376a:	dfcc                	sw	a1,60(a5)
2040376c:	5f98                	lw	a4,56(a5)
2040376e:	8e59                	or	a2,a2,a4
20403770:	df90                	sw	a2,56(a5)
20403772:	8082                	ret

20403774 <__metal_driver_sifive_gpio0_disable_io>:
__metal_driver_sifive_gpio0_disable_io():
20403774:	81c18713          	addi	a4,gp,-2020 # 80000a8c <__metal_dt_gpio_10012000>
20403778:	100127b7          	lui	a5,0x10012
2040377c:	00a70363          	beq	a4,a0,20403782 <__metal_driver_sifive_gpio0_disable_io+0xe>
20403780:	4781                	li	a5,0
20403782:	5f98                	lw	a4,56(a5)
20403784:	fff5c593          	not	a1,a1
20403788:	4501                	li	a0,0
2040378a:	8df9                	and	a1,a1,a4
2040378c:	df8c                	sw	a1,56(a5)
2040378e:	8082                	ret

20403790 <__metal_driver_sifive_gpio0_config_int>:
__metal_driver_sifive_gpio0_config_int():
20403790:	81c18713          	addi	a4,gp,-2020 # 80000a8c <__metal_dt_gpio_10012000>
20403794:	100127b7          	lui	a5,0x10012
20403798:	00a70363          	beq	a4,a0,2040379e <__metal_driver_sifive_gpio0_config_int+0xe>
2040379c:	4781                	li	a5,0
2040379e:	471d                	li	a4,7
204037a0:	02c76c63          	bltu	a4,a2,204037d8 <__metal_driver_sifive_gpio0_config_int+0x48>
204037a4:	20401737          	lui	a4,0x20401
204037a8:	da070713          	addi	a4,a4,-608 # 20400da0 <pll_configs+0x880>
204037ac:	060a                	slli	a2,a2,0x2
204037ae:	963a                	add	a2,a2,a4
204037b0:	4218                	lw	a4,0(a2)
204037b2:	8702                	jr	a4
204037b4:	4f98                	lw	a4,24(a5)
204037b6:	fff5c593          	not	a1,a1
204037ba:	8f6d                	and	a4,a4,a1
204037bc:	cf98                	sw	a4,24(a5)
204037be:	5398                	lw	a4,32(a5)
204037c0:	8f6d                	and	a4,a4,a1
204037c2:	d398                	sw	a4,32(a5)
204037c4:	5798                	lw	a4,40(a5)
204037c6:	8f6d                	and	a4,a4,a1
204037c8:	d798                	sw	a4,40(a5)
204037ca:	5b98                	lw	a4,48(a5)
204037cc:	8df9                	and	a1,a1,a4
204037ce:	db8c                	sw	a1,48(a5)
204037d0:	a021                	j	204037d8 <__metal_driver_sifive_gpio0_config_int+0x48>
204037d2:	4f98                	lw	a4,24(a5)
204037d4:	8dd9                	or	a1,a1,a4
204037d6:	cf8c                	sw	a1,24(a5)
204037d8:	4501                	li	a0,0
204037da:	8082                	ret
204037dc:	4f98                	lw	a4,24(a5)
204037de:	8f4d                	or	a4,a4,a1
204037e0:	cf98                	sw	a4,24(a5)
204037e2:	5398                	lw	a4,32(a5)
204037e4:	8dd9                	or	a1,a1,a4
204037e6:	d38c                	sw	a1,32(a5)
204037e8:	bfc5                	j	204037d8 <__metal_driver_sifive_gpio0_config_int+0x48>
204037ea:	5798                	lw	a4,40(a5)
204037ec:	8dd9                	or	a1,a1,a4
204037ee:	d78c                	sw	a1,40(a5)
204037f0:	b7e5                	j	204037d8 <__metal_driver_sifive_gpio0_config_int+0x48>
204037f2:	4f98                	lw	a4,24(a5)
204037f4:	8f4d                	or	a4,a4,a1
204037f6:	cf98                	sw	a4,24(a5)
204037f8:	5398                	lw	a4,32(a5)
204037fa:	8f4d                	or	a4,a4,a1
204037fc:	d398                	sw	a4,32(a5)
204037fe:	5798                	lw	a4,40(a5)
20403800:	8f4d                	or	a4,a4,a1
20403802:	d798                	sw	a4,40(a5)
20403804:	5b98                	lw	a4,48(a5)
20403806:	8dd9                	or	a1,a1,a4
20403808:	b7d9                	j	204037ce <__metal_driver_sifive_gpio0_config_int+0x3e>

2040380a <__metal_driver_sifive_gpio0_clear_int>:
__metal_driver_sifive_gpio0_clear_int():
2040380a:	81c18713          	addi	a4,gp,-2020 # 80000a8c <__metal_dt_gpio_10012000>
2040380e:	100127b7          	lui	a5,0x10012
20403812:	00a70363          	beq	a4,a0,20403818 <__metal_driver_sifive_gpio0_clear_int+0xe>
20403816:	4781                	li	a5,0
20403818:	167d                	addi	a2,a2,-1
2040381a:	4719                	li	a4,6
2040381c:	00c76d63          	bltu	a4,a2,20403836 <__metal_driver_sifive_gpio0_clear_int+0x2c>
20403820:	20401737          	lui	a4,0x20401
20403824:	dc070713          	addi	a4,a4,-576 # 20400dc0 <pll_configs+0x8a0>
20403828:	060a                	slli	a2,a2,0x2
2040382a:	963a                	add	a2,a2,a4
2040382c:	4218                	lw	a4,0(a2)
2040382e:	8702                	jr	a4
20403830:	4fd8                	lw	a4,28(a5)
20403832:	8dd9                	or	a1,a1,a4
20403834:	cfcc                	sw	a1,28(a5)
20403836:	4501                	li	a0,0
20403838:	8082                	ret
2040383a:	4fd8                	lw	a4,28(a5)
2040383c:	8f4d                	or	a4,a4,a1
2040383e:	cfd8                	sw	a4,28(a5)
20403840:	53d8                	lw	a4,36(a5)
20403842:	8dd9                	or	a1,a1,a4
20403844:	d3cc                	sw	a1,36(a5)
20403846:	bfc5                	j	20403836 <__metal_driver_sifive_gpio0_clear_int+0x2c>
20403848:	57d8                	lw	a4,44(a5)
2040384a:	8dd9                	or	a1,a1,a4
2040384c:	d7cc                	sw	a1,44(a5)
2040384e:	b7e5                	j	20403836 <__metal_driver_sifive_gpio0_clear_int+0x2c>
20403850:	4fd8                	lw	a4,28(a5)
20403852:	8f4d                	or	a4,a4,a1
20403854:	cfd8                	sw	a4,28(a5)
20403856:	53d8                	lw	a4,36(a5)
20403858:	8f4d                	or	a4,a4,a1
2040385a:	d3d8                	sw	a4,36(a5)
2040385c:	57d8                	lw	a4,44(a5)
2040385e:	8f4d                	or	a4,a4,a1
20403860:	d7d8                	sw	a4,44(a5)
20403862:	5bd8                	lw	a4,52(a5)
20403864:	8dd9                	or	a1,a1,a4
20403866:	dbcc                	sw	a1,52(a5)
20403868:	b7f9                	j	20403836 <__metal_driver_sifive_gpio0_clear_int+0x2c>

2040386a <__metal_driver_gpio_interrupt_controller>:
__metal_driver_gpio_interrupt_controller():
2040386a:	81c18793          	addi	a5,gp,-2020 # 80000a8c <__metal_dt_gpio_10012000>
2040386e:	00a78463          	beq	a5,a0,20403876 <__metal_driver_gpio_interrupt_controller+0xc>
20403872:	4501                	li	a0,0
20403874:	8082                	ret
20403876:	80000537          	lui	a0,0x80000
2040387a:	47850513          	addi	a0,a0,1144 # 80000478 <metal_segment_heap_target_end+0xffffed08>
2040387e:	8082                	ret

20403880 <__metal_driver_gpio_get_interrupt_id>:
__metal_driver_gpio_get_interrupt_id():
20403880:	81c18793          	addi	a5,gp,-2020 # 80000a8c <__metal_dt_gpio_10012000>
20403884:	08a79263          	bne	a5,a0,20403908 <__metal_driver_gpio_get_interrupt_id+0x88>
20403888:	451d                	li	a0,7
2040388a:	c1c1                	beqz	a1,2040390a <__metal_driver_gpio_get_interrupt_id+0x8a>
2040388c:	4785                	li	a5,1
2040388e:	4521                	li	a0,8
20403890:	06f58d63          	beq	a1,a5,2040390a <__metal_driver_gpio_get_interrupt_id+0x8a>
20403894:	4789                	li	a5,2
20403896:	4525                	li	a0,9
20403898:	06f58963          	beq	a1,a5,2040390a <__metal_driver_gpio_get_interrupt_id+0x8a>
2040389c:	478d                	li	a5,3
2040389e:	4529                	li	a0,10
204038a0:	06f58563          	beq	a1,a5,2040390a <__metal_driver_gpio_get_interrupt_id+0x8a>
204038a4:	4791                	li	a5,4
204038a6:	452d                	li	a0,11
204038a8:	06f58163          	beq	a1,a5,2040390a <__metal_driver_gpio_get_interrupt_id+0x8a>
204038ac:	4795                	li	a5,5
204038ae:	4531                	li	a0,12
204038b0:	04f58d63          	beq	a1,a5,2040390a <__metal_driver_gpio_get_interrupt_id+0x8a>
204038b4:	4799                	li	a5,6
204038b6:	4535                	li	a0,13
204038b8:	04f58963          	beq	a1,a5,2040390a <__metal_driver_gpio_get_interrupt_id+0x8a>
204038bc:	479d                	li	a5,7
204038be:	4539                	li	a0,14
204038c0:	04f58563          	beq	a1,a5,2040390a <__metal_driver_gpio_get_interrupt_id+0x8a>
204038c4:	47a1                	li	a5,8
204038c6:	453d                	li	a0,15
204038c8:	04f58163          	beq	a1,a5,2040390a <__metal_driver_gpio_get_interrupt_id+0x8a>
204038cc:	47a5                	li	a5,9
204038ce:	4541                	li	a0,16
204038d0:	02f58d63          	beq	a1,a5,2040390a <__metal_driver_gpio_get_interrupt_id+0x8a>
204038d4:	47a9                	li	a5,10
204038d6:	4545                	li	a0,17
204038d8:	02f58963          	beq	a1,a5,2040390a <__metal_driver_gpio_get_interrupt_id+0x8a>
204038dc:	47ad                	li	a5,11
204038de:	4549                	li	a0,18
204038e0:	02f58563          	beq	a1,a5,2040390a <__metal_driver_gpio_get_interrupt_id+0x8a>
204038e4:	47b1                	li	a5,12
204038e6:	454d                	li	a0,19
204038e8:	02f58163          	beq	a1,a5,2040390a <__metal_driver_gpio_get_interrupt_id+0x8a>
204038ec:	47b5                	li	a5,13
204038ee:	4551                	li	a0,20
204038f0:	00f58d63          	beq	a1,a5,2040390a <__metal_driver_gpio_get_interrupt_id+0x8a>
204038f4:	47b9                	li	a5,14
204038f6:	4555                	li	a0,21
204038f8:	00f58963          	beq	a1,a5,2040390a <__metal_driver_gpio_get_interrupt_id+0x8a>
204038fc:	47bd                	li	a5,15
204038fe:	4501                	li	a0,0
20403900:	00f59563          	bne	a1,a5,2040390a <__metal_driver_gpio_get_interrupt_id+0x8a>
20403904:	4559                	li	a0,22
20403906:	8082                	ret
20403908:	4501                	li	a0,0
2040390a:	8082                	ret

2040390c <__metal_driver_sifive_uart0_interrupt_controller>:
__metal_driver_sifive_uart0_interrupt_controller():
2040390c:	800017b7          	lui	a5,0x80001
20403910:	a5078793          	addi	a5,a5,-1456 # 80000a50 <metal_segment_heap_target_end+0xfffff2e0>
20403914:	00a78463          	beq	a5,a0,2040391c <__metal_driver_sifive_uart0_interrupt_controller+0x10>
20403918:	4501                	li	a0,0
2040391a:	8082                	ret
2040391c:	80000537          	lui	a0,0x80000
20403920:	47850513          	addi	a0,a0,1144 # 80000478 <metal_segment_heap_target_end+0xffffed08>
20403924:	8082                	ret

20403926 <__metal_driver_sifive_uart0_get_interrupt_id>:
__metal_driver_sifive_uart0_get_interrupt_id():
20403926:	800017b7          	lui	a5,0x80001
2040392a:	a5078793          	addi	a5,a5,-1456 # 80000a50 <metal_segment_heap_target_end+0xfffff2e0>
2040392e:	00a78463          	beq	a5,a0,20403936 <__metal_driver_sifive_uart0_get_interrupt_id+0x10>
20403932:	4501                	li	a0,0
20403934:	8082                	ret
20403936:	4515                	li	a0,5
20403938:	8082                	ret

2040393a <__metal_driver_sifive_uart0_tx_interrupt_enable>:
__metal_driver_sifive_uart0_tx_interrupt_enable():
2040393a:	80001737          	lui	a4,0x80001
2040393e:	a5070713          	addi	a4,a4,-1456 # 80000a50 <metal_segment_heap_target_end+0xfffff2e0>
20403942:	100137b7          	lui	a5,0x10013
20403946:	00a70363          	beq	a4,a0,2040394c <__metal_driver_sifive_uart0_tx_interrupt_enable+0x12>
2040394a:	4781                	li	a5,0
2040394c:	4b98                	lw	a4,16(a5)
2040394e:	4501                	li	a0,0
20403950:	00176713          	ori	a4,a4,1
20403954:	cb98                	sw	a4,16(a5)
20403956:	8082                	ret

20403958 <__metal_driver_sifive_uart0_tx_interrupt_disable>:
__metal_driver_sifive_uart0_tx_interrupt_disable():
20403958:	80001737          	lui	a4,0x80001
2040395c:	a5070713          	addi	a4,a4,-1456 # 80000a50 <metal_segment_heap_target_end+0xfffff2e0>
20403960:	100137b7          	lui	a5,0x10013
20403964:	00a70363          	beq	a4,a0,2040396a <__metal_driver_sifive_uart0_tx_interrupt_disable+0x12>
20403968:	4781                	li	a5,0
2040396a:	4b98                	lw	a4,16(a5)
2040396c:	4501                	li	a0,0
2040396e:	9b79                	andi	a4,a4,-2
20403970:	cb98                	sw	a4,16(a5)
20403972:	8082                	ret

20403974 <__metal_driver_sifive_uart0_rx_interrupt_enable>:
__metal_driver_sifive_uart0_rx_interrupt_enable():
20403974:	80001737          	lui	a4,0x80001
20403978:	a5070713          	addi	a4,a4,-1456 # 80000a50 <metal_segment_heap_target_end+0xfffff2e0>
2040397c:	100137b7          	lui	a5,0x10013
20403980:	00a70363          	beq	a4,a0,20403986 <__metal_driver_sifive_uart0_rx_interrupt_enable+0x12>
20403984:	4781                	li	a5,0
20403986:	4b98                	lw	a4,16(a5)
20403988:	4501                	li	a0,0
2040398a:	00276713          	ori	a4,a4,2
2040398e:	cb98                	sw	a4,16(a5)
20403990:	8082                	ret

20403992 <__metal_driver_sifive_uart0_rx_interrupt_disable>:
__metal_driver_sifive_uart0_rx_interrupt_disable():
20403992:	80001737          	lui	a4,0x80001
20403996:	a5070713          	addi	a4,a4,-1456 # 80000a50 <metal_segment_heap_target_end+0xfffff2e0>
2040399a:	100137b7          	lui	a5,0x10013
2040399e:	00a70363          	beq	a4,a0,204039a4 <__metal_driver_sifive_uart0_rx_interrupt_disable+0x12>
204039a2:	4781                	li	a5,0
204039a4:	4b98                	lw	a4,16(a5)
204039a6:	4501                	li	a0,0
204039a8:	9b75                	andi	a4,a4,-3
204039aa:	cb98                	sw	a4,16(a5)
204039ac:	8082                	ret

204039ae <__metal_driver_sifive_uart0_txready>:
__metal_driver_sifive_uart0_txready():
204039ae:	800017b7          	lui	a5,0x80001
204039b2:	a5078793          	addi	a5,a5,-1456 # 80000a50 <metal_segment_heap_target_end+0xfffff2e0>
204039b6:	00a78663          	beq	a5,a0,204039c2 <__metal_driver_sifive_uart0_txready+0x14>
204039ba:	4781                	li	a5,0
204039bc:	4388                	lw	a0,0(a5)
204039be:	817d                	srli	a0,a0,0x1f
204039c0:	8082                	ret
204039c2:	100137b7          	lui	a5,0x10013
204039c6:	bfdd                	j	204039bc <__metal_driver_sifive_uart0_txready+0xe>

204039c8 <__metal_driver_sifive_uart0_set_tx_watermark>:
__metal_driver_sifive_uart0_set_tx_watermark():
204039c8:	80001737          	lui	a4,0x80001
204039cc:	a5070713          	addi	a4,a4,-1456 # 80000a50 <metal_segment_heap_target_end+0xfffff2e0>
204039d0:	100137b7          	lui	a5,0x10013
204039d4:	00a70363          	beq	a4,a0,204039da <__metal_driver_sifive_uart0_set_tx_watermark+0x12>
204039d8:	4781                	li	a5,0
204039da:	4798                	lw	a4,8(a5)
204039dc:	000706b7          	lui	a3,0x70
204039e0:	05c2                	slli	a1,a1,0x10
204039e2:	8df5                	and	a1,a1,a3
204039e4:	8dd9                	or	a1,a1,a4
204039e6:	c78c                	sw	a1,8(a5)
204039e8:	4501                	li	a0,0
204039ea:	8082                	ret

204039ec <__metal_driver_sifive_uart0_get_tx_watermark>:
__metal_driver_sifive_uart0_get_tx_watermark():
204039ec:	800017b7          	lui	a5,0x80001
204039f0:	a5078793          	addi	a5,a5,-1456 # 80000a50 <metal_segment_heap_target_end+0xfffff2e0>
204039f4:	00a78763          	beq	a5,a0,20403a02 <__metal_driver_sifive_uart0_get_tx_watermark+0x16>
204039f8:	4781                	li	a5,0
204039fa:	4788                	lw	a0,8(a5)
204039fc:	8141                	srli	a0,a0,0x10
204039fe:	891d                	andi	a0,a0,7
20403a00:	8082                	ret
20403a02:	100137b7          	lui	a5,0x10013
20403a06:	bfd5                	j	204039fa <__metal_driver_sifive_uart0_get_tx_watermark+0xe>

20403a08 <__metal_driver_sifive_uart0_set_rx_watermark>:
__metal_driver_sifive_uart0_set_rx_watermark():
20403a08:	80001737          	lui	a4,0x80001
20403a0c:	a5070713          	addi	a4,a4,-1456 # 80000a50 <metal_segment_heap_target_end+0xfffff2e0>
20403a10:	100137b7          	lui	a5,0x10013
20403a14:	00a70363          	beq	a4,a0,20403a1a <__metal_driver_sifive_uart0_set_rx_watermark+0x12>
20403a18:	4781                	li	a5,0
20403a1a:	47d8                	lw	a4,12(a5)
20403a1c:	000706b7          	lui	a3,0x70
20403a20:	05c2                	slli	a1,a1,0x10
20403a22:	8df5                	and	a1,a1,a3
20403a24:	8dd9                	or	a1,a1,a4
20403a26:	c7cc                	sw	a1,12(a5)
20403a28:	4501                	li	a0,0
20403a2a:	8082                	ret

20403a2c <__metal_driver_sifive_uart0_get_rx_watermark>:
__metal_driver_sifive_uart0_get_rx_watermark():
20403a2c:	800017b7          	lui	a5,0x80001
20403a30:	a5078793          	addi	a5,a5,-1456 # 80000a50 <metal_segment_heap_target_end+0xfffff2e0>
20403a34:	00a78763          	beq	a5,a0,20403a42 <__metal_driver_sifive_uart0_get_rx_watermark+0x16>
20403a38:	4781                	li	a5,0
20403a3a:	47c8                	lw	a0,12(a5)
20403a3c:	8141                	srli	a0,a0,0x10
20403a3e:	891d                	andi	a0,a0,7
20403a40:	8082                	ret
20403a42:	100137b7          	lui	a5,0x10013
20403a46:	bfd5                	j	20403a3a <__metal_driver_sifive_uart0_get_rx_watermark+0xe>

20403a48 <__metal_driver_sifive_uart0_putc>:
__metal_driver_sifive_uart0_putc():
20403a48:	1101                	addi	sp,sp,-32
20403a4a:	800017b7          	lui	a5,0x80001
20403a4e:	cc22                	sw	s0,24(sp)
20403a50:	ca26                	sw	s1,20(sp)
20403a52:	ce06                	sw	ra,28(sp)
20403a54:	a5078793          	addi	a5,a5,-1456 # 80000a50 <metal_segment_heap_target_end+0xfffff2e0>
20403a58:	84aa                	mv	s1,a0
20403a5a:	10013437          	lui	s0,0x10013
20403a5e:	00f50363          	beq	a0,a5,20403a64 <__metal_driver_sifive_uart0_putc+0x1c>
20403a62:	4401                	li	s0,0
20403a64:	8526                	mv	a0,s1
20403a66:	c62e                	sw	a1,12(sp)
20403a68:	3799                	jal	204039ae <__metal_driver_sifive_uart0_txready>
20403a6a:	45b2                	lw	a1,12(sp)
20403a6c:	fd65                	bnez	a0,20403a64 <__metal_driver_sifive_uart0_putc+0x1c>
20403a6e:	c00c                	sw	a1,0(s0)
20403a70:	40f2                	lw	ra,28(sp)
20403a72:	4462                	lw	s0,24(sp)
20403a74:	44d2                	lw	s1,20(sp)
20403a76:	6105                	addi	sp,sp,32
20403a78:	8082                	ret

20403a7a <__metal_driver_sifive_uart0_getc>:
__metal_driver_sifive_uart0_getc():
20403a7a:	800017b7          	lui	a5,0x80001
20403a7e:	a5078793          	addi	a5,a5,-1456 # 80000a50 <metal_segment_heap_target_end+0xfffff2e0>
20403a82:	10013737          	lui	a4,0x10013
20403a86:	00a78363          	beq	a5,a0,20403a8c <__metal_driver_sifive_uart0_getc+0x12>
20403a8a:	4701                	li	a4,0
20403a8c:	4358                	lw	a4,4(a4)
20403a8e:	57fd                	li	a5,-1
20403a90:	00074463          	bltz	a4,20403a98 <__metal_driver_sifive_uart0_getc+0x1e>
20403a94:	0ff77793          	andi	a5,a4,255
20403a98:	c19c                	sw	a5,0(a1)
20403a9a:	4501                	li	a0,0
20403a9c:	8082                	ret

20403a9e <__metal_driver_sifive_uart0_get_baud_rate>:
__metal_driver_sifive_uart0_get_baud_rate():
20403a9e:	4148                	lw	a0,4(a0)
20403aa0:	8082                	ret

20403aa2 <__metal_driver_sifive_uart0_set_baud_rate>:
__metal_driver_sifive_uart0_set_baud_rate():
20403aa2:	800017b7          	lui	a5,0x80001
20403aa6:	a5078793          	addi	a5,a5,-1456 # 80000a50 <metal_segment_heap_target_end+0xfffff2e0>
20403aaa:	00f50563          	beq	a0,a5,20403ab4 <__metal_driver_sifive_uart0_set_baud_rate+0x12>
20403aae:	c14c                	sw	a1,4(a0)
20403ab0:	4501                	li	a0,0
20403ab2:	8082                	ret
20403ab4:	1141                	addi	sp,sp,-16
20403ab6:	c422                	sw	s0,8(sp)
20403ab8:	c606                	sw	ra,12(sp)
20403aba:	c14c                	sw	a1,4(a0)
20403abc:	80000537          	lui	a0,0x80000
20403ac0:	09052783          	lw	a5,144(a0) # 80000090 <metal_segment_heap_target_end+0xffffe920>
20403ac4:	09050513          	addi	a0,a0,144
20403ac8:	842e                	mv	s0,a1
20403aca:	439c                	lw	a5,0(a5)
20403acc:	9782                	jalr	a5
20403ace:	02854533          	div	a0,a0,s0
20403ad2:	100137b7          	lui	a5,0x10013
20403ad6:	40b2                	lw	ra,12(sp)
20403ad8:	4422                	lw	s0,8(sp)
20403ada:	157d                	addi	a0,a0,-1
20403adc:	cf88                	sw	a0,24(a5)
20403ade:	4798                	lw	a4,8(a5)
20403ae0:	4501                	li	a0,0
20403ae2:	00176713          	ori	a4,a4,1
20403ae6:	c798                	sw	a4,8(a5)
20403ae8:	47d8                	lw	a4,12(a5)
20403aea:	00176713          	ori	a4,a4,1
20403aee:	c7d8                	sw	a4,12(a5)
20403af0:	0141                	addi	sp,sp,16
20403af2:	8082                	ret

20403af4 <pre_rate_change_callback_func>:
pre_rate_change_callback_func():
20403af4:	1101                	addi	sp,sp,-32
20403af6:	800017b7          	lui	a5,0x80001
20403afa:	ca26                	sw	s1,20(sp)
20403afc:	ce06                	sw	ra,28(sp)
20403afe:	cc22                	sw	s0,24(sp)
20403b00:	a5078793          	addi	a5,a5,-1456 # 80000a50 <metal_segment_heap_target_end+0xfffff2e0>
20403b04:	84aa                	mv	s1,a0
20403b06:	04f50963          	beq	a0,a5,20403b58 <pre_rate_change_callback_func+0x64>
20403b0a:	4781                	li	a5,0
20403b0c:	4501                	li	a0,0
20403b0e:	4798                	lw	a4,8(a5)
20403b10:	fff906b7          	lui	a3,0xfff90
20403b14:	16fd                	addi	a3,a3,-1
20403b16:	8f75                	and	a4,a4,a3
20403b18:	c798                	sw	a4,8(a5)
20403b1a:	4798                	lw	a4,8(a5)
20403b1c:	66c1                	lui	a3,0x10
20403b1e:	00878613          	addi	a2,a5,8
20403b22:	8f55                	or	a4,a4,a3
20403b24:	c798                	sw	a4,8(a5)
20403b26:	4bd8                	lw	a4,20(a5)
20403b28:	8b05                	andi	a4,a4,1
20403b2a:	df75                	beqz	a4,20403b26 <pre_rate_change_callback_func+0x32>
20403b2c:	411c                	lw	a5,0(a0)
20403b2e:	4200                	lw	s0,0(a2)
20403b30:	439c                	lw	a5,0(a5)
20403b32:	8809                	andi	s0,s0,2
20403b34:	00143413          	seqz	s0,s0
20403b38:	9782                	jalr	a5
20403b3a:	0425                	addi	s0,s0,9
20403b3c:	02a40533          	mul	a0,s0,a0
20403b40:	40c0                	lw	s0,4(s1)
20403b42:	c602                	sw	zero,12(sp)
20403b44:	02855533          	divu	a0,a0,s0
20403b48:	47b2                	lw	a5,12(sp)
20403b4a:	00a7ce63          	blt	a5,a0,20403b66 <pre_rate_change_callback_func+0x72>
20403b4e:	40f2                	lw	ra,28(sp)
20403b50:	4462                	lw	s0,24(sp)
20403b52:	44d2                	lw	s1,20(sp)
20403b54:	6105                	addi	sp,sp,32
20403b56:	8082                	ret
20403b58:	80000537          	lui	a0,0x80000
20403b5c:	100137b7          	lui	a5,0x10013
20403b60:	09050513          	addi	a0,a0,144 # 80000090 <metal_segment_heap_target_end+0xffffe920>
20403b64:	b76d                	j	20403b0e <pre_rate_change_callback_func+0x1a>
20403b66:	0001                	nop
20403b68:	47b2                	lw	a5,12(sp)
20403b6a:	0785                	addi	a5,a5,1
20403b6c:	c63e                	sw	a5,12(sp)
20403b6e:	bfe9                	j	20403b48 <pre_rate_change_callback_func+0x54>

20403b70 <post_rate_change_callback_func>:
post_rate_change_callback_func():
20403b70:	414c                	lw	a1,4(a0)
20403b72:	9d6fe06f          	j	20401d48 <metal_uart_set_baud_rate>

20403b76 <__metal_driver_sifive_uart0_init>:
__metal_driver_sifive_uart0_init():
20403b76:	1101                	addi	sp,sp,-32
20403b78:	c84a                	sw	s2,16(sp)
20403b7a:	80001937          	lui	s2,0x80001
20403b7e:	cc22                	sw	s0,24(sp)
20403b80:	ca26                	sw	s1,20(sp)
20403b82:	c452                	sw	s4,8(sp)
20403b84:	ce06                	sw	ra,28(sp)
20403b86:	c64e                	sw	s3,12(sp)
20403b88:	a5090913          	addi	s2,s2,-1456 # 80000a50 <metal_segment_heap_target_end+0xfffff2e0>
20403b8c:	842a                	mv	s0,a0
20403b8e:	8a2e                	mv	s4,a1
20403b90:	4481                	li	s1,0
20403b92:	03251f63          	bne	a0,s2,20403bd0 <__metal_driver_sifive_uart0_init+0x5a>
20403b96:	204047b7          	lui	a5,0x20404
20403b9a:	af478793          	addi	a5,a5,-1292 # 20403af4 <pre_rate_change_callback_func>
20403b9e:	800004b7          	lui	s1,0x80000
20403ba2:	09048493          	addi	s1,s1,144 # 80000090 <metal_segment_heap_target_end+0xffffe920>
20403ba6:	c51c                	sw	a5,8(a0)
20403ba8:	c448                	sw	a0,12(s0)
20403baa:	00850993          	addi	s3,a0,8
20403bae:	40c8                	lw	a0,4(s1)
20403bb0:	85ce                	mv	a1,s3
20403bb2:	28a5                	jal	20403c2a <_metal_clock_append_to_callbacks>
20403bb4:	c0c8                	sw	a0,4(s1)
20403bb6:	204047b7          	lui	a5,0x20404
20403bba:	4488                	lw	a0,8(s1)
20403bbc:	b7078793          	addi	a5,a5,-1168 # 20403b70 <post_rate_change_callback_func>
20403bc0:	c85c                	sw	a5,20(s0)
20403bc2:	cc00                	sw	s0,24(s0)
20403bc4:	01440593          	addi	a1,s0,20 # 10013014 <__heap_size+0x10012814>
20403bc8:	208d                	jal	20403c2a <_metal_clock_append_to_callbacks>
20403bca:	c488                	sw	a0,8(s1)
20403bcc:	81c18493          	addi	s1,gp,-2020 # 80000a8c <__metal_dt_gpio_10012000>
20403bd0:	85d2                	mv	a1,s4
20403bd2:	8522                	mv	a0,s0
20403bd4:	974fe0ef          	jal	ra,20401d48 <metal_uart_set_baud_rate>
20403bd8:	c09d                	beqz	s1,20403bfe <__metal_driver_sifive_uart0_init+0x88>
20403bda:	00030637          	lui	a2,0x30
20403bde:	01240363          	beq	s0,s2,20403be4 <__metal_driver_sifive_uart0_init+0x6e>
20403be2:	4601                	li	a2,0
20403be4:	409c                	lw	a5,0(s1)
20403be6:	4462                	lw	s0,24(sp)
20403be8:	40f2                	lw	ra,28(sp)
20403bea:	4942                	lw	s2,16(sp)
20403bec:	49b2                	lw	s3,12(sp)
20403bee:	4a22                	lw	s4,8(sp)
20403bf0:	0247a303          	lw	t1,36(a5)
20403bf4:	8526                	mv	a0,s1
20403bf6:	44d2                	lw	s1,20(sp)
20403bf8:	4581                	li	a1,0
20403bfa:	6105                	addi	sp,sp,32
20403bfc:	8302                	jr	t1
20403bfe:	40f2                	lw	ra,28(sp)
20403c00:	4462                	lw	s0,24(sp)
20403c02:	44d2                	lw	s1,20(sp)
20403c04:	4942                	lw	s2,16(sp)
20403c06:	49b2                	lw	s3,12(sp)
20403c08:	4a22                	lw	s4,8(sp)
20403c0a:	6105                	addi	sp,sp,32
20403c0c:	8082                	ret

20403c0e <_metal_clock_call_all_callbacks>:
_metal_clock_call_all_callbacks():
20403c0e:	1141                	addi	sp,sp,-16
20403c10:	c422                	sw	s0,8(sp)
20403c12:	c606                	sw	ra,12(sp)
20403c14:	842a                	mv	s0,a0
20403c16:	e409                	bnez	s0,20403c20 <_metal_clock_call_all_callbacks+0x12>
20403c18:	40b2                	lw	ra,12(sp)
20403c1a:	4422                	lw	s0,8(sp)
20403c1c:	0141                	addi	sp,sp,16
20403c1e:	8082                	ret
20403c20:	401c                	lw	a5,0(s0)
20403c22:	4048                	lw	a0,4(s0)
20403c24:	9782                	jalr	a5
20403c26:	4400                	lw	s0,8(s0)
20403c28:	b7fd                	j	20403c16 <_metal_clock_call_all_callbacks+0x8>

20403c2a <_metal_clock_append_to_callbacks>:
_metal_clock_append_to_callbacks():
20403c2a:	0005a423          	sw	zero,8(a1)
20403c2e:	87aa                	mv	a5,a0
20403c30:	e501                	bnez	a0,20403c38 <_metal_clock_append_to_callbacks+0xe>
20403c32:	852e                	mv	a0,a1
20403c34:	8082                	ret
20403c36:	87ba                	mv	a5,a4
20403c38:	4798                	lw	a4,8(a5)
20403c3a:	ff75                	bnez	a4,20403c36 <_metal_clock_append_to_callbacks+0xc>
20403c3c:	c78c                	sw	a1,8(a5)
20403c3e:	85aa                	mv	a1,a0
20403c40:	bfcd                	j	20403c32 <_metal_clock_append_to_callbacks+0x8>

20403c42 <metal_clock_get_rate_hz>:
metal_clock_get_rate_hz():
20403c42:	411c                	lw	a5,0(a0)
20403c44:	0007a303          	lw	t1,0(a5)
20403c48:	8302                	jr	t1

20403c4a <metal_clock_set_rate_hz>:
metal_clock_set_rate_hz():
20403c4a:	1101                	addi	sp,sp,-32
20403c4c:	cc22                	sw	s0,24(sp)
20403c4e:	842a                	mv	s0,a0
20403c50:	4148                	lw	a0,4(a0)
20403c52:	ce06                	sw	ra,28(sp)
20403c54:	ca26                	sw	s1,20(sp)
20403c56:	c62e                	sw	a1,12(sp)
20403c58:	3f5d                	jal	20403c0e <_metal_clock_call_all_callbacks>
20403c5a:	401c                	lw	a5,0(s0)
20403c5c:	45b2                	lw	a1,12(sp)
20403c5e:	8522                	mv	a0,s0
20403c60:	43dc                	lw	a5,4(a5)
20403c62:	9782                	jalr	a5
20403c64:	84aa                	mv	s1,a0
20403c66:	4408                	lw	a0,8(s0)
20403c68:	375d                	jal	20403c0e <_metal_clock_call_all_callbacks>
20403c6a:	40f2                	lw	ra,28(sp)
20403c6c:	4462                	lw	s0,24(sp)
20403c6e:	8526                	mv	a0,s1
20403c70:	44d2                	lw	s1,20(sp)
20403c72:	6105                	addi	sp,sp,32
20403c74:	8082                	ret

20403c76 <metal_cpu_interrupt_controller>:
metal_cpu_interrupt_controller():
20403c76:	411c                	lw	a5,0(a0)
20403c78:	02c7a303          	lw	t1,44(a5)
20403c7c:	8302                	jr	t1

20403c7e <metal_cpu_get>:
metal_cpu_get():
20403c7e:	e501                	bnez	a0,20403c86 <metal_cpu_get+0x8>
20403c80:	8441a503          	lw	a0,-1980(gp) # 80000ab4 <__metal_driver_vtable_sifive_fe310_g000_prci+0x8>
20403c84:	8082                	ret
20403c86:	4501                	li	a0,0
20403c88:	8082                	ret

20403c8a <metal_cpu_get_current_hartid>:
metal_cpu_get_current_hartid():
20403c8a:	f1402573          	csrr	a0,mhartid
20403c8e:	8082                	ret

20403c90 <metal_shutdown>:
metal_shutdown():
20403c90:	0001                	nop
20403c92:	bffd                	j	20403c90 <metal_shutdown>
	...

20403d00 <__metal_vector_table>:
IRQ_0():
20403d00:	f00fe06f          	j	20402400 <metal_interrupt_vector_handler>

20403d04 <IRQ_1>:
IRQ_1():
20403d04:	efcfe06f          	j	20402400 <metal_interrupt_vector_handler>

20403d08 <IRQ_2>:
IRQ_2():
20403d08:	ef8fe06f          	j	20402400 <metal_interrupt_vector_handler>

20403d0c <IRQ_3>:
IRQ_3():
20403d0c:	f1efe06f          	j	2040242a <metal_software_interrupt_vector_handler>

20403d10 <IRQ_4>:
IRQ_4():
20403d10:	ef0fe06f          	j	20402400 <metal_interrupt_vector_handler>

20403d14 <IRQ_5>:
IRQ_5():
20403d14:	eecfe06f          	j	20402400 <metal_interrupt_vector_handler>

20403d18 <IRQ_6>:
IRQ_6():
20403d18:	ee8fe06f          	j	20402400 <metal_interrupt_vector_handler>

20403d1c <IRQ_7>:
IRQ_7():
20403d1c:	f8afe06f          	j	204024a6 <metal_timer_interrupt_vector_handler>

20403d20 <IRQ_8>:
IRQ_8():
20403d20:	ee0fe06f          	j	20402400 <metal_interrupt_vector_handler>

20403d24 <IRQ_9>:
IRQ_9():
20403d24:	edcfe06f          	j	20402400 <metal_interrupt_vector_handler>

20403d28 <IRQ_10>:
IRQ_10():
20403d28:	ed8fe06f          	j	20402400 <metal_interrupt_vector_handler>

20403d2c <IRQ_11>:
IRQ_11():
20403d2c:	ed4fe06f          	j	20402400 <metal_interrupt_vector_handler>

20403d30 <IRQ_12>:
IRQ_12():
20403d30:	ed0fe06f          	j	20402400 <metal_interrupt_vector_handler>

20403d34 <IRQ_13>:
IRQ_13():
20403d34:	eccfe06f          	j	20402400 <metal_interrupt_vector_handler>

20403d38 <IRQ_14>:
IRQ_14():
20403d38:	ec8fe06f          	j	20402400 <metal_interrupt_vector_handler>

20403d3c <IRQ_15>:
IRQ_15():
20403d3c:	ec4fe06f          	j	20402400 <metal_interrupt_vector_handler>

20403d40 <IRQ_LC0>:
IRQ_LC0():
20403d40:	fe2fe06f          	j	20402522 <metal_lc0_interrupt_vector_handler>

20403d44 <IRQ_LC1>:
IRQ_LC1():
20403d44:	85bfe06f          	j	2040259e <metal_lc1_interrupt_vector_handler>

20403d48 <IRQ_LC2>:
IRQ_LC2():
20403d48:	8d3fe06f          	j	2040261a <metal_lc2_interrupt_vector_handler>

20403d4c <IRQ_LC3>:
IRQ_LC3():
20403d4c:	94bfe06f          	j	20402696 <metal_lc3_interrupt_vector_handler>

20403d50 <IRQ_LC4>:
IRQ_LC4():
20403d50:	9c3fe06f          	j	20402712 <metal_lc4_interrupt_vector_handler>

20403d54 <IRQ_LC5>:
IRQ_LC5():
20403d54:	a3bfe06f          	j	2040278e <metal_lc5_interrupt_vector_handler>

20403d58 <IRQ_LC6>:
IRQ_LC6():
20403d58:	ab3fe06f          	j	2040280a <metal_lc6_interrupt_vector_handler>

20403d5c <IRQ_LC7>:
IRQ_LC7():
20403d5c:	b2bfe06f          	j	20402886 <metal_lc7_interrupt_vector_handler>

20403d60 <IRQ_LC8>:
IRQ_LC8():
20403d60:	ba3fe06f          	j	20402902 <metal_lc8_interrupt_vector_handler>

20403d64 <IRQ_LC9>:
IRQ_LC9():
20403d64:	c1bfe06f          	j	2040297e <metal_lc9_interrupt_vector_handler>

20403d68 <IRQ_LC10>:
IRQ_LC10():
20403d68:	c93fe06f          	j	204029fa <metal_lc10_interrupt_vector_handler>

20403d6c <IRQ_LC11>:
IRQ_LC11():
20403d6c:	d0bfe06f          	j	20402a76 <metal_lc11_interrupt_vector_handler>

20403d70 <IRQ_LC12>:
IRQ_LC12():
20403d70:	d83fe06f          	j	20402af2 <metal_lc12_interrupt_vector_handler>

20403d74 <IRQ_LC13>:
IRQ_LC13():
20403d74:	dfbfe06f          	j	20402b6e <metal_lc13_interrupt_vector_handler>

20403d78 <IRQ_LC14>:
IRQ_LC14():
20403d78:	e73fe06f          	j	20402bea <metal_lc14_interrupt_vector_handler>

20403d7c <IRQ_LC15>:
IRQ_LC15():
20403d7c:	eebfe06f          	j	20402c66 <metal_lc15_interrupt_vector_handler>

20403d80 <__metal_driver_fixed_clock_get_rate_hz>:
__metal_driver_fixed_clock_get_rate_hz():
20403d80:	800007b7          	lui	a5,0x80000
20403d84:	06078793          	addi	a5,a5,96 # 80000060 <metal_segment_heap_target_end+0xffffe8f0>
20403d88:	02f50063          	beq	a0,a5,20403da8 <__metal_driver_fixed_clock_get_rate_hz+0x28>
20403d8c:	800007b7          	lui	a5,0x80000
20403d90:	07878793          	addi	a5,a5,120 # 80000078 <metal_segment_heap_target_end+0xffffe908>
20403d94:	00f50f63          	beq	a0,a5,20403db2 <__metal_driver_fixed_clock_get_rate_hz+0x32>
20403d98:	800007b7          	lui	a5,0x80000
20403d9c:	09c78793          	addi	a5,a5,156 # 8000009c <metal_segment_heap_target_end+0xffffe92c>
20403da0:	00f50e63          	beq	a0,a5,20403dbc <__metal_driver_fixed_clock_get_rate_hz+0x3c>
20403da4:	4501                	li	a0,0
20403da6:	8082                	ret
20403da8:	00f42537          	lui	a0,0xf42
20403dac:	40050513          	addi	a0,a0,1024 # f42400 <__heap_size+0xf41c00>
20403db0:	8082                	ret
20403db2:	044aa537          	lui	a0,0x44aa
20403db6:	20050513          	addi	a0,a0,512 # 44aa200 <__heap_size+0x44a9a00>
20403dba:	8082                	ret
20403dbc:	01e85537          	lui	a0,0x1e85
20403dc0:	80050513          	addi	a0,a0,-2048 # 1e84800 <__heap_size+0x1e84000>
20403dc4:	8082                	ret

20403dc6 <__metal_driver_fixed_clock_set_rate_hz>:
__metal_driver_fixed_clock_set_rate_hz():
20403dc6:	800007b7          	lui	a5,0x80000
20403dca:	06078793          	addi	a5,a5,96 # 80000060 <metal_segment_heap_target_end+0xffffe8f0>
20403dce:	02f50063          	beq	a0,a5,20403dee <__metal_driver_fixed_clock_set_rate_hz+0x28>
20403dd2:	800007b7          	lui	a5,0x80000
20403dd6:	07878793          	addi	a5,a5,120 # 80000078 <metal_segment_heap_target_end+0xffffe908>
20403dda:	00f50f63          	beq	a0,a5,20403df8 <__metal_driver_fixed_clock_set_rate_hz+0x32>
20403dde:	800007b7          	lui	a5,0x80000
20403de2:	09c78793          	addi	a5,a5,156 # 8000009c <metal_segment_heap_target_end+0xffffe92c>
20403de6:	00f50e63          	beq	a0,a5,20403e02 <__metal_driver_fixed_clock_set_rate_hz+0x3c>
20403dea:	4501                	li	a0,0
20403dec:	8082                	ret
20403dee:	00f42537          	lui	a0,0xf42
20403df2:	40050513          	addi	a0,a0,1024 # f42400 <__heap_size+0xf41c00>
20403df6:	8082                	ret
20403df8:	044aa537          	lui	a0,0x44aa
20403dfc:	20050513          	addi	a0,a0,512 # 44aa200 <__heap_size+0x44a9a00>
20403e00:	8082                	ret
20403e02:	01e85537          	lui	a0,0x1e85
20403e06:	80050513          	addi	a0,a0,-2048 # 1e84800 <__heap_size+0x1e84000>
20403e0a:	8082                	ret

20403e0c <_exit>:
_exit():
20403e0c:	1141                	addi	sp,sp,-16
20403e0e:	c606                	sw	ra,12(sp)
20403e10:	3541                	jal	20403c90 <metal_shutdown>
