ARM GAS  /tmp/ccd0mmyh.s 			page 1


   1              		.syntax unified
   2              		.cpu cortex-m7
   3              		.eabi_attribute 28, 1
   4              		.fpu fpv5-d16
   5              		.eabi_attribute 20, 1
   6              		.eabi_attribute 21, 1
   7              		.eabi_attribute 23, 3
   8              		.eabi_attribute 24, 1
   9              		.eabi_attribute 25, 1
  10              		.eabi_attribute 26, 1
  11              		.eabi_attribute 30, 1
  12              		.eabi_attribute 34, 1
  13              		.eabi_attribute 18, 4
  14              		.thumb
  15              		.file	"stm32f7xx_hal_flash_ex.c"
  16              		.text
  17              	.Ltext0:
  18              		.cfi_sections	.debug_frame
  19              		.section	.text.FLASH_MassErase,"ax",%progbits
  20              		.align	2
  21              		.thumb
  22              		.thumb_func
  24              	FLASH_MassErase:
  25              	.LFB144:
  26              		.file 1 "Drivers/STM32F7xx_HAL_Driver/Src/stm32f7xx_hal_flash_ex.c"
   1:Drivers/STM32F7xx_HAL_Driver/Src/stm32f7xx_hal_flash_ex.c **** /**
   2:Drivers/STM32F7xx_HAL_Driver/Src/stm32f7xx_hal_flash_ex.c ****   ******************************************************************************
   3:Drivers/STM32F7xx_HAL_Driver/Src/stm32f7xx_hal_flash_ex.c ****   * @file    stm32f7xx_hal_flash_ex.c
   4:Drivers/STM32F7xx_HAL_Driver/Src/stm32f7xx_hal_flash_ex.c ****   * @author  MCD Application Team
   5:Drivers/STM32F7xx_HAL_Driver/Src/stm32f7xx_hal_flash_ex.c ****   * @brief   Extended FLASH HAL module driver.
   6:Drivers/STM32F7xx_HAL_Driver/Src/stm32f7xx_hal_flash_ex.c ****   *          This file provides firmware functions to manage the following 
   7:Drivers/STM32F7xx_HAL_Driver/Src/stm32f7xx_hal_flash_ex.c ****   *          functionalities of the FLASH extension peripheral:
   8:Drivers/STM32F7xx_HAL_Driver/Src/stm32f7xx_hal_flash_ex.c ****   *           + Extended programming operations functions
   9:Drivers/STM32F7xx_HAL_Driver/Src/stm32f7xx_hal_flash_ex.c ****   *  
  10:Drivers/STM32F7xx_HAL_Driver/Src/stm32f7xx_hal_flash_ex.c ****   @verbatim
  11:Drivers/STM32F7xx_HAL_Driver/Src/stm32f7xx_hal_flash_ex.c ****   ==============================================================================
  12:Drivers/STM32F7xx_HAL_Driver/Src/stm32f7xx_hal_flash_ex.c ****                    ##### Flash Extension features #####
  13:Drivers/STM32F7xx_HAL_Driver/Src/stm32f7xx_hal_flash_ex.c ****   ==============================================================================
  14:Drivers/STM32F7xx_HAL_Driver/Src/stm32f7xx_hal_flash_ex.c ****            
  15:Drivers/STM32F7xx_HAL_Driver/Src/stm32f7xx_hal_flash_ex.c ****   [..] Comparing to other previous devices, the FLASH interface for STM32F76xx/STM32F77xx 
  16:Drivers/STM32F7xx_HAL_Driver/Src/stm32f7xx_hal_flash_ex.c ****        devices contains the following additional features 
  17:Drivers/STM32F7xx_HAL_Driver/Src/stm32f7xx_hal_flash_ex.c ****        
  18:Drivers/STM32F7xx_HAL_Driver/Src/stm32f7xx_hal_flash_ex.c ****        (+) Capacity up to 2 Mbyte with dual bank architecture supporting read-while-write
  19:Drivers/STM32F7xx_HAL_Driver/Src/stm32f7xx_hal_flash_ex.c ****            capability (RWW)
  20:Drivers/STM32F7xx_HAL_Driver/Src/stm32f7xx_hal_flash_ex.c ****        (+) Dual bank memory organization       
  21:Drivers/STM32F7xx_HAL_Driver/Src/stm32f7xx_hal_flash_ex.c ****        (+) Dual boot mode
  22:Drivers/STM32F7xx_HAL_Driver/Src/stm32f7xx_hal_flash_ex.c ****    
  23:Drivers/STM32F7xx_HAL_Driver/Src/stm32f7xx_hal_flash_ex.c ****                       ##### How to use this driver #####
  24:Drivers/STM32F7xx_HAL_Driver/Src/stm32f7xx_hal_flash_ex.c ****   ==============================================================================
  25:Drivers/STM32F7xx_HAL_Driver/Src/stm32f7xx_hal_flash_ex.c ****   [..] This driver provides functions to configure and program the FLASH memory 
  26:Drivers/STM32F7xx_HAL_Driver/Src/stm32f7xx_hal_flash_ex.c ****        of all STM32F7xx devices. It includes
  27:Drivers/STM32F7xx_HAL_Driver/Src/stm32f7xx_hal_flash_ex.c ****       (#) FLASH Memory Erase functions: 
  28:Drivers/STM32F7xx_HAL_Driver/Src/stm32f7xx_hal_flash_ex.c ****            (++) Lock and Unlock the FLASH interface using HAL_FLASH_Unlock() and 
  29:Drivers/STM32F7xx_HAL_Driver/Src/stm32f7xx_hal_flash_ex.c ****                 HAL_FLASH_Lock() functions
  30:Drivers/STM32F7xx_HAL_Driver/Src/stm32f7xx_hal_flash_ex.c ****            (++) Erase function: Erase sector, erase all sectors
  31:Drivers/STM32F7xx_HAL_Driver/Src/stm32f7xx_hal_flash_ex.c ****            (++) There are two modes of erase :
  32:Drivers/STM32F7xx_HAL_Driver/Src/stm32f7xx_hal_flash_ex.c ****              (+++) Polling Mode using HAL_FLASHEx_Erase()
ARM GAS  /tmp/ccd0mmyh.s 			page 2


  33:Drivers/STM32F7xx_HAL_Driver/Src/stm32f7xx_hal_flash_ex.c ****              (+++) Interrupt Mode using HAL_FLASHEx_Erase_IT()
  34:Drivers/STM32F7xx_HAL_Driver/Src/stm32f7xx_hal_flash_ex.c ****              
  35:Drivers/STM32F7xx_HAL_Driver/Src/stm32f7xx_hal_flash_ex.c ****       (#) Option Bytes Programming functions: Use HAL_FLASHEx_OBProgram() to :
  36:Drivers/STM32F7xx_HAL_Driver/Src/stm32f7xx_hal_flash_ex.c ****            (++) Set/Reset the write protection
  37:Drivers/STM32F7xx_HAL_Driver/Src/stm32f7xx_hal_flash_ex.c ****            (++) Set the Read protection Level
  38:Drivers/STM32F7xx_HAL_Driver/Src/stm32f7xx_hal_flash_ex.c ****            (++) Set the BOR level
  39:Drivers/STM32F7xx_HAL_Driver/Src/stm32f7xx_hal_flash_ex.c ****            (++) Program the user Option Bytes
  40:Drivers/STM32F7xx_HAL_Driver/Src/stm32f7xx_hal_flash_ex.c ****   
  41:Drivers/STM32F7xx_HAL_Driver/Src/stm32f7xx_hal_flash_ex.c ****   @endverbatim
  42:Drivers/STM32F7xx_HAL_Driver/Src/stm32f7xx_hal_flash_ex.c ****   ******************************************************************************
  43:Drivers/STM32F7xx_HAL_Driver/Src/stm32f7xx_hal_flash_ex.c ****   * @attention
  44:Drivers/STM32F7xx_HAL_Driver/Src/stm32f7xx_hal_flash_ex.c ****   *
  45:Drivers/STM32F7xx_HAL_Driver/Src/stm32f7xx_hal_flash_ex.c ****   * <h2><center>&copy; COPYRIGHT(c) 2017 STMicroelectronics</center></h2>
  46:Drivers/STM32F7xx_HAL_Driver/Src/stm32f7xx_hal_flash_ex.c ****   *
  47:Drivers/STM32F7xx_HAL_Driver/Src/stm32f7xx_hal_flash_ex.c ****   * Redistribution and use in source and binary forms, with or without modification,
  48:Drivers/STM32F7xx_HAL_Driver/Src/stm32f7xx_hal_flash_ex.c ****   * are permitted provided that the following conditions are met:
  49:Drivers/STM32F7xx_HAL_Driver/Src/stm32f7xx_hal_flash_ex.c ****   *   1. Redistributions of source code must retain the above copyright notice,
  50:Drivers/STM32F7xx_HAL_Driver/Src/stm32f7xx_hal_flash_ex.c ****   *      this list of conditions and the following disclaimer.
  51:Drivers/STM32F7xx_HAL_Driver/Src/stm32f7xx_hal_flash_ex.c ****   *   2. Redistributions in binary form must reproduce the above copyright notice,
  52:Drivers/STM32F7xx_HAL_Driver/Src/stm32f7xx_hal_flash_ex.c ****   *      this list of conditions and the following disclaimer in the documentation
  53:Drivers/STM32F7xx_HAL_Driver/Src/stm32f7xx_hal_flash_ex.c ****   *      and/or other materials provided with the distribution.
  54:Drivers/STM32F7xx_HAL_Driver/Src/stm32f7xx_hal_flash_ex.c ****   *   3. Neither the name of STMicroelectronics nor the names of its contributors
  55:Drivers/STM32F7xx_HAL_Driver/Src/stm32f7xx_hal_flash_ex.c ****   *      may be used to endorse or promote products derived from this software
  56:Drivers/STM32F7xx_HAL_Driver/Src/stm32f7xx_hal_flash_ex.c ****   *      without specific prior written permission.
  57:Drivers/STM32F7xx_HAL_Driver/Src/stm32f7xx_hal_flash_ex.c ****   *
  58:Drivers/STM32F7xx_HAL_Driver/Src/stm32f7xx_hal_flash_ex.c ****   * THIS SOFTWARE IS PROVIDED BY THE COPYRIGHT HOLDERS AND CONTRIBUTORS "AS IS"
  59:Drivers/STM32F7xx_HAL_Driver/Src/stm32f7xx_hal_flash_ex.c ****   * AND ANY EXPRESS OR IMPLIED WARRANTIES, INCLUDING, BUT NOT LIMITED TO, THE
  60:Drivers/STM32F7xx_HAL_Driver/Src/stm32f7xx_hal_flash_ex.c ****   * IMPLIED WARRANTIES OF MERCHANTABILITY AND FITNESS FOR A PARTICULAR PURPOSE ARE
  61:Drivers/STM32F7xx_HAL_Driver/Src/stm32f7xx_hal_flash_ex.c ****   * DISCLAIMED. IN NO EVENT SHALL THE COPYRIGHT HOLDER OR CONTRIBUTORS BE LIABLE
  62:Drivers/STM32F7xx_HAL_Driver/Src/stm32f7xx_hal_flash_ex.c ****   * FOR ANY DIRECT, INDIRECT, INCIDENTAL, SPECIAL, EXEMPLARY, OR CONSEQUENTIAL
  63:Drivers/STM32F7xx_HAL_Driver/Src/stm32f7xx_hal_flash_ex.c ****   * DAMAGES (INCLUDING, BUT NOT LIMITED TO, PROCUREMENT OF SUBSTITUTE GOODS OR
  64:Drivers/STM32F7xx_HAL_Driver/Src/stm32f7xx_hal_flash_ex.c ****   * SERVICES; LOSS OF USE, DATA, OR PROFITS; OR BUSINESS INTERRUPTION) HOWEVER
  65:Drivers/STM32F7xx_HAL_Driver/Src/stm32f7xx_hal_flash_ex.c ****   * CAUSED AND ON ANY THEORY OF LIABILITY, WHETHER IN CONTRACT, STRICT LIABILITY,
  66:Drivers/STM32F7xx_HAL_Driver/Src/stm32f7xx_hal_flash_ex.c ****   * OR TORT (INCLUDING NEGLIGENCE OR OTHERWISE) ARISING IN ANY WAY OUT OF THE USE
  67:Drivers/STM32F7xx_HAL_Driver/Src/stm32f7xx_hal_flash_ex.c ****   * OF THIS SOFTWARE, EVEN IF ADVISED OF THE POSSIBILITY OF SUCH DAMAGE.
  68:Drivers/STM32F7xx_HAL_Driver/Src/stm32f7xx_hal_flash_ex.c ****   *
  69:Drivers/STM32F7xx_HAL_Driver/Src/stm32f7xx_hal_flash_ex.c ****   ******************************************************************************
  70:Drivers/STM32F7xx_HAL_Driver/Src/stm32f7xx_hal_flash_ex.c ****   */ 
  71:Drivers/STM32F7xx_HAL_Driver/Src/stm32f7xx_hal_flash_ex.c **** 
  72:Drivers/STM32F7xx_HAL_Driver/Src/stm32f7xx_hal_flash_ex.c **** /* Includes ------------------------------------------------------------------*/
  73:Drivers/STM32F7xx_HAL_Driver/Src/stm32f7xx_hal_flash_ex.c **** #include "stm32f7xx_hal.h"
  74:Drivers/STM32F7xx_HAL_Driver/Src/stm32f7xx_hal_flash_ex.c **** 
  75:Drivers/STM32F7xx_HAL_Driver/Src/stm32f7xx_hal_flash_ex.c **** /** @addtogroup STM32F7xx_HAL_Driver
  76:Drivers/STM32F7xx_HAL_Driver/Src/stm32f7xx_hal_flash_ex.c ****   * @{
  77:Drivers/STM32F7xx_HAL_Driver/Src/stm32f7xx_hal_flash_ex.c ****   */
  78:Drivers/STM32F7xx_HAL_Driver/Src/stm32f7xx_hal_flash_ex.c **** 
  79:Drivers/STM32F7xx_HAL_Driver/Src/stm32f7xx_hal_flash_ex.c **** /** @defgroup FLASHEx FLASHEx
  80:Drivers/STM32F7xx_HAL_Driver/Src/stm32f7xx_hal_flash_ex.c ****   * @brief FLASH HAL Extension module driver
  81:Drivers/STM32F7xx_HAL_Driver/Src/stm32f7xx_hal_flash_ex.c ****   * @{
  82:Drivers/STM32F7xx_HAL_Driver/Src/stm32f7xx_hal_flash_ex.c ****   */
  83:Drivers/STM32F7xx_HAL_Driver/Src/stm32f7xx_hal_flash_ex.c **** 
  84:Drivers/STM32F7xx_HAL_Driver/Src/stm32f7xx_hal_flash_ex.c **** #ifdef HAL_FLASH_MODULE_ENABLED
  85:Drivers/STM32F7xx_HAL_Driver/Src/stm32f7xx_hal_flash_ex.c **** 
  86:Drivers/STM32F7xx_HAL_Driver/Src/stm32f7xx_hal_flash_ex.c **** /* Private typedef -----------------------------------------------------------*/
  87:Drivers/STM32F7xx_HAL_Driver/Src/stm32f7xx_hal_flash_ex.c **** /* Private define ------------------------------------------------------------*/
  88:Drivers/STM32F7xx_HAL_Driver/Src/stm32f7xx_hal_flash_ex.c **** /** @addtogroup FLASHEx_Private_Constants
  89:Drivers/STM32F7xx_HAL_Driver/Src/stm32f7xx_hal_flash_ex.c ****   * @{
ARM GAS  /tmp/ccd0mmyh.s 			page 3


  90:Drivers/STM32F7xx_HAL_Driver/Src/stm32f7xx_hal_flash_ex.c ****   */    
  91:Drivers/STM32F7xx_HAL_Driver/Src/stm32f7xx_hal_flash_ex.c **** #define SECTOR_MASK               0xFFFFFF07U
  92:Drivers/STM32F7xx_HAL_Driver/Src/stm32f7xx_hal_flash_ex.c **** #define FLASH_TIMEOUT_VALUE       50000U/* 50 s */
  93:Drivers/STM32F7xx_HAL_Driver/Src/stm32f7xx_hal_flash_ex.c **** /**
  94:Drivers/STM32F7xx_HAL_Driver/Src/stm32f7xx_hal_flash_ex.c ****   * @}
  95:Drivers/STM32F7xx_HAL_Driver/Src/stm32f7xx_hal_flash_ex.c ****   */
  96:Drivers/STM32F7xx_HAL_Driver/Src/stm32f7xx_hal_flash_ex.c ****     
  97:Drivers/STM32F7xx_HAL_Driver/Src/stm32f7xx_hal_flash_ex.c **** /* Private macro -------------------------------------------------------------*/
  98:Drivers/STM32F7xx_HAL_Driver/Src/stm32f7xx_hal_flash_ex.c **** /* Private variables ---------------------------------------------------------*/
  99:Drivers/STM32F7xx_HAL_Driver/Src/stm32f7xx_hal_flash_ex.c **** /** @addtogroup FLASHEx_Private_Variables
 100:Drivers/STM32F7xx_HAL_Driver/Src/stm32f7xx_hal_flash_ex.c ****   * @{
 101:Drivers/STM32F7xx_HAL_Driver/Src/stm32f7xx_hal_flash_ex.c ****   */    
 102:Drivers/STM32F7xx_HAL_Driver/Src/stm32f7xx_hal_flash_ex.c **** extern FLASH_ProcessTypeDef pFlash;
 103:Drivers/STM32F7xx_HAL_Driver/Src/stm32f7xx_hal_flash_ex.c **** /**
 104:Drivers/STM32F7xx_HAL_Driver/Src/stm32f7xx_hal_flash_ex.c ****   * @}
 105:Drivers/STM32F7xx_HAL_Driver/Src/stm32f7xx_hal_flash_ex.c ****   */
 106:Drivers/STM32F7xx_HAL_Driver/Src/stm32f7xx_hal_flash_ex.c **** 
 107:Drivers/STM32F7xx_HAL_Driver/Src/stm32f7xx_hal_flash_ex.c **** /* Private function prototypes -----------------------------------------------*/
 108:Drivers/STM32F7xx_HAL_Driver/Src/stm32f7xx_hal_flash_ex.c **** /** @addtogroup FLASHEx_Private_Functions
 109:Drivers/STM32F7xx_HAL_Driver/Src/stm32f7xx_hal_flash_ex.c ****   * @{
 110:Drivers/STM32F7xx_HAL_Driver/Src/stm32f7xx_hal_flash_ex.c ****   */
 111:Drivers/STM32F7xx_HAL_Driver/Src/stm32f7xx_hal_flash_ex.c **** /* Option bytes control */
 112:Drivers/STM32F7xx_HAL_Driver/Src/stm32f7xx_hal_flash_ex.c **** static HAL_StatusTypeDef  FLASH_OB_EnableWRP(uint32_t WRPSector);
 113:Drivers/STM32F7xx_HAL_Driver/Src/stm32f7xx_hal_flash_ex.c **** static HAL_StatusTypeDef  FLASH_OB_DisableWRP(uint32_t WRPSector);
 114:Drivers/STM32F7xx_HAL_Driver/Src/stm32f7xx_hal_flash_ex.c **** static HAL_StatusTypeDef  FLASH_OB_RDP_LevelConfig(uint8_t Level);
 115:Drivers/STM32F7xx_HAL_Driver/Src/stm32f7xx_hal_flash_ex.c **** static HAL_StatusTypeDef  FLASH_OB_BOR_LevelConfig(uint8_t Level);
 116:Drivers/STM32F7xx_HAL_Driver/Src/stm32f7xx_hal_flash_ex.c **** static HAL_StatusTypeDef  FLASH_OB_BootAddressConfig(uint32_t BootOption, uint32_t Address);
 117:Drivers/STM32F7xx_HAL_Driver/Src/stm32f7xx_hal_flash_ex.c **** static uint32_t           FLASH_OB_GetUser(void);
 118:Drivers/STM32F7xx_HAL_Driver/Src/stm32f7xx_hal_flash_ex.c **** static uint32_t           FLASH_OB_GetWRP(void);
 119:Drivers/STM32F7xx_HAL_Driver/Src/stm32f7xx_hal_flash_ex.c **** static uint8_t            FLASH_OB_GetRDP(void);
 120:Drivers/STM32F7xx_HAL_Driver/Src/stm32f7xx_hal_flash_ex.c **** static uint32_t           FLASH_OB_GetBOR(void);
 121:Drivers/STM32F7xx_HAL_Driver/Src/stm32f7xx_hal_flash_ex.c **** static uint32_t           FLASH_OB_GetBootAddress(uint32_t BootOption);
 122:Drivers/STM32F7xx_HAL_Driver/Src/stm32f7xx_hal_flash_ex.c **** 
 123:Drivers/STM32F7xx_HAL_Driver/Src/stm32f7xx_hal_flash_ex.c **** #if defined (FLASH_OPTCR_nDBANK)
 124:Drivers/STM32F7xx_HAL_Driver/Src/stm32f7xx_hal_flash_ex.c **** static void               FLASH_MassErase(uint8_t VoltageRange, uint32_t Banks);
 125:Drivers/STM32F7xx_HAL_Driver/Src/stm32f7xx_hal_flash_ex.c **** static HAL_StatusTypeDef  FLASH_OB_UserConfig(uint32_t Wwdg, uint32_t Iwdg, uint32_t Stop, uint32_t
 126:Drivers/STM32F7xx_HAL_Driver/Src/stm32f7xx_hal_flash_ex.c ****                                               uint32_t Iwdgstdby, uint32_t NDBank, uint32_t NDBoot)
 127:Drivers/STM32F7xx_HAL_Driver/Src/stm32f7xx_hal_flash_ex.c **** #else
 128:Drivers/STM32F7xx_HAL_Driver/Src/stm32f7xx_hal_flash_ex.c **** static void               FLASH_MassErase(uint8_t VoltageRange);
 129:Drivers/STM32F7xx_HAL_Driver/Src/stm32f7xx_hal_flash_ex.c **** static HAL_StatusTypeDef  FLASH_OB_UserConfig(uint32_t Wwdg, uint32_t Iwdg, uint32_t Stop, uint32_t
 130:Drivers/STM32F7xx_HAL_Driver/Src/stm32f7xx_hal_flash_ex.c **** #endif /* FLASH_OPTCR_nDBANK */
 131:Drivers/STM32F7xx_HAL_Driver/Src/stm32f7xx_hal_flash_ex.c **** 
 132:Drivers/STM32F7xx_HAL_Driver/Src/stm32f7xx_hal_flash_ex.c **** #if defined (FLASH_OPTCR2_PCROP)
 133:Drivers/STM32F7xx_HAL_Driver/Src/stm32f7xx_hal_flash_ex.c **** static HAL_StatusTypeDef  FLASH_OB_PCROP_Config(uint32_t PCROPSector);
 134:Drivers/STM32F7xx_HAL_Driver/Src/stm32f7xx_hal_flash_ex.c **** static HAL_StatusTypeDef  FLASH_OB_PCROP_RDP_Config(uint32_t Pcrop_Rdp);
 135:Drivers/STM32F7xx_HAL_Driver/Src/stm32f7xx_hal_flash_ex.c **** static uint32_t           FLASH_OB_GetPCROP(void);
 136:Drivers/STM32F7xx_HAL_Driver/Src/stm32f7xx_hal_flash_ex.c **** static uint32_t           FLASH_OB_GetPCROPRDP(void);
 137:Drivers/STM32F7xx_HAL_Driver/Src/stm32f7xx_hal_flash_ex.c **** #endif /* FLASH_OPTCR2_PCROP */
 138:Drivers/STM32F7xx_HAL_Driver/Src/stm32f7xx_hal_flash_ex.c **** 
 139:Drivers/STM32F7xx_HAL_Driver/Src/stm32f7xx_hal_flash_ex.c **** extern HAL_StatusTypeDef  FLASH_WaitForLastOperation(uint32_t Timeout);
 140:Drivers/STM32F7xx_HAL_Driver/Src/stm32f7xx_hal_flash_ex.c **** /**
 141:Drivers/STM32F7xx_HAL_Driver/Src/stm32f7xx_hal_flash_ex.c ****   * @}
 142:Drivers/STM32F7xx_HAL_Driver/Src/stm32f7xx_hal_flash_ex.c ****   */
 143:Drivers/STM32F7xx_HAL_Driver/Src/stm32f7xx_hal_flash_ex.c **** 
 144:Drivers/STM32F7xx_HAL_Driver/Src/stm32f7xx_hal_flash_ex.c **** /* Exported functions --------------------------------------------------------*/
 145:Drivers/STM32F7xx_HAL_Driver/Src/stm32f7xx_hal_flash_ex.c **** /** @defgroup FLASHEx_Exported_Functions FLASHEx Exported Functions
 146:Drivers/STM32F7xx_HAL_Driver/Src/stm32f7xx_hal_flash_ex.c ****   * @{
ARM GAS  /tmp/ccd0mmyh.s 			page 4


 147:Drivers/STM32F7xx_HAL_Driver/Src/stm32f7xx_hal_flash_ex.c ****   */
 148:Drivers/STM32F7xx_HAL_Driver/Src/stm32f7xx_hal_flash_ex.c **** 
 149:Drivers/STM32F7xx_HAL_Driver/Src/stm32f7xx_hal_flash_ex.c **** /** @defgroup FLASHEx_Exported_Functions_Group1 Extended IO operation functions
 150:Drivers/STM32F7xx_HAL_Driver/Src/stm32f7xx_hal_flash_ex.c ****  *  @brief   Extended IO operation functions 
 151:Drivers/STM32F7xx_HAL_Driver/Src/stm32f7xx_hal_flash_ex.c ****  *
 152:Drivers/STM32F7xx_HAL_Driver/Src/stm32f7xx_hal_flash_ex.c **** @verbatim   
 153:Drivers/STM32F7xx_HAL_Driver/Src/stm32f7xx_hal_flash_ex.c ****  ===============================================================================
 154:Drivers/STM32F7xx_HAL_Driver/Src/stm32f7xx_hal_flash_ex.c ****                 ##### Extended programming operation functions #####
 155:Drivers/STM32F7xx_HAL_Driver/Src/stm32f7xx_hal_flash_ex.c ****  ===============================================================================  
 156:Drivers/STM32F7xx_HAL_Driver/Src/stm32f7xx_hal_flash_ex.c ****     [..]
 157:Drivers/STM32F7xx_HAL_Driver/Src/stm32f7xx_hal_flash_ex.c ****     This subsection provides a set of functions allowing to manage the Extension FLASH 
 158:Drivers/STM32F7xx_HAL_Driver/Src/stm32f7xx_hal_flash_ex.c ****     programming operations Operations.
 159:Drivers/STM32F7xx_HAL_Driver/Src/stm32f7xx_hal_flash_ex.c **** 
 160:Drivers/STM32F7xx_HAL_Driver/Src/stm32f7xx_hal_flash_ex.c **** @endverbatim
 161:Drivers/STM32F7xx_HAL_Driver/Src/stm32f7xx_hal_flash_ex.c ****   * @{
 162:Drivers/STM32F7xx_HAL_Driver/Src/stm32f7xx_hal_flash_ex.c ****   */
 163:Drivers/STM32F7xx_HAL_Driver/Src/stm32f7xx_hal_flash_ex.c **** /**
 164:Drivers/STM32F7xx_HAL_Driver/Src/stm32f7xx_hal_flash_ex.c ****   * @brief  Perform a mass erase or erase the specified FLASH memory sectors 
 165:Drivers/STM32F7xx_HAL_Driver/Src/stm32f7xx_hal_flash_ex.c ****   * @param[in]  pEraseInit pointer to an FLASH_EraseInitTypeDef structure that
 166:Drivers/STM32F7xx_HAL_Driver/Src/stm32f7xx_hal_flash_ex.c ****   *         contains the configuration information for the erasing.
 167:Drivers/STM32F7xx_HAL_Driver/Src/stm32f7xx_hal_flash_ex.c ****   * 
 168:Drivers/STM32F7xx_HAL_Driver/Src/stm32f7xx_hal_flash_ex.c ****   * @param[out]  SectorError pointer to variable  that
 169:Drivers/STM32F7xx_HAL_Driver/Src/stm32f7xx_hal_flash_ex.c ****   *         contains the configuration information on faulty sector in case of error 
 170:Drivers/STM32F7xx_HAL_Driver/Src/stm32f7xx_hal_flash_ex.c ****   *         (0xFFFFFFFF means that all the sectors have been correctly erased)
 171:Drivers/STM32F7xx_HAL_Driver/Src/stm32f7xx_hal_flash_ex.c ****   * 
 172:Drivers/STM32F7xx_HAL_Driver/Src/stm32f7xx_hal_flash_ex.c ****   * @retval HAL Status
 173:Drivers/STM32F7xx_HAL_Driver/Src/stm32f7xx_hal_flash_ex.c ****   */
 174:Drivers/STM32F7xx_HAL_Driver/Src/stm32f7xx_hal_flash_ex.c **** HAL_StatusTypeDef HAL_FLASHEx_Erase(FLASH_EraseInitTypeDef *pEraseInit, uint32_t *SectorError)
 175:Drivers/STM32F7xx_HAL_Driver/Src/stm32f7xx_hal_flash_ex.c **** {
 176:Drivers/STM32F7xx_HAL_Driver/Src/stm32f7xx_hal_flash_ex.c ****   HAL_StatusTypeDef status = HAL_ERROR;
 177:Drivers/STM32F7xx_HAL_Driver/Src/stm32f7xx_hal_flash_ex.c ****   uint32_t index = 0;
 178:Drivers/STM32F7xx_HAL_Driver/Src/stm32f7xx_hal_flash_ex.c ****   
 179:Drivers/STM32F7xx_HAL_Driver/Src/stm32f7xx_hal_flash_ex.c ****   /* Process Locked */
 180:Drivers/STM32F7xx_HAL_Driver/Src/stm32f7xx_hal_flash_ex.c ****   __HAL_LOCK(&pFlash);
 181:Drivers/STM32F7xx_HAL_Driver/Src/stm32f7xx_hal_flash_ex.c **** 
 182:Drivers/STM32F7xx_HAL_Driver/Src/stm32f7xx_hal_flash_ex.c ****   /* Check the parameters */
 183:Drivers/STM32F7xx_HAL_Driver/Src/stm32f7xx_hal_flash_ex.c ****   assert_param(IS_FLASH_TYPEERASE(pEraseInit->TypeErase));
 184:Drivers/STM32F7xx_HAL_Driver/Src/stm32f7xx_hal_flash_ex.c **** 
 185:Drivers/STM32F7xx_HAL_Driver/Src/stm32f7xx_hal_flash_ex.c ****   /* Wait for last operation to be completed */
 186:Drivers/STM32F7xx_HAL_Driver/Src/stm32f7xx_hal_flash_ex.c ****   status = FLASH_WaitForLastOperation((uint32_t)FLASH_TIMEOUT_VALUE);
 187:Drivers/STM32F7xx_HAL_Driver/Src/stm32f7xx_hal_flash_ex.c **** 
 188:Drivers/STM32F7xx_HAL_Driver/Src/stm32f7xx_hal_flash_ex.c ****   if(status == HAL_OK)
 189:Drivers/STM32F7xx_HAL_Driver/Src/stm32f7xx_hal_flash_ex.c ****   {
 190:Drivers/STM32F7xx_HAL_Driver/Src/stm32f7xx_hal_flash_ex.c ****     /*Initialization of SectorError variable*/
 191:Drivers/STM32F7xx_HAL_Driver/Src/stm32f7xx_hal_flash_ex.c ****     *SectorError = 0xFFFFFFFFU;
 192:Drivers/STM32F7xx_HAL_Driver/Src/stm32f7xx_hal_flash_ex.c ****     
 193:Drivers/STM32F7xx_HAL_Driver/Src/stm32f7xx_hal_flash_ex.c ****     if(pEraseInit->TypeErase == FLASH_TYPEERASE_MASSERASE)
 194:Drivers/STM32F7xx_HAL_Driver/Src/stm32f7xx_hal_flash_ex.c ****     {
 195:Drivers/STM32F7xx_HAL_Driver/Src/stm32f7xx_hal_flash_ex.c ****       /*Mass erase to be done*/
 196:Drivers/STM32F7xx_HAL_Driver/Src/stm32f7xx_hal_flash_ex.c **** #if defined (FLASH_OPTCR_nDBANK)      
 197:Drivers/STM32F7xx_HAL_Driver/Src/stm32f7xx_hal_flash_ex.c ****       FLASH_MassErase((uint8_t) pEraseInit->VoltageRange, pEraseInit->Banks);
 198:Drivers/STM32F7xx_HAL_Driver/Src/stm32f7xx_hal_flash_ex.c **** #else
 199:Drivers/STM32F7xx_HAL_Driver/Src/stm32f7xx_hal_flash_ex.c ****       FLASH_MassErase((uint8_t) pEraseInit->VoltageRange);      
 200:Drivers/STM32F7xx_HAL_Driver/Src/stm32f7xx_hal_flash_ex.c **** #endif /* FLASH_OPTCR_nDBANK */
 201:Drivers/STM32F7xx_HAL_Driver/Src/stm32f7xx_hal_flash_ex.c ****                       
 202:Drivers/STM32F7xx_HAL_Driver/Src/stm32f7xx_hal_flash_ex.c ****       /* Wait for last operation to be completed */
 203:Drivers/STM32F7xx_HAL_Driver/Src/stm32f7xx_hal_flash_ex.c ****       status = FLASH_WaitForLastOperation((uint32_t)FLASH_TIMEOUT_VALUE);
ARM GAS  /tmp/ccd0mmyh.s 			page 5


 204:Drivers/STM32F7xx_HAL_Driver/Src/stm32f7xx_hal_flash_ex.c ****       
 205:Drivers/STM32F7xx_HAL_Driver/Src/stm32f7xx_hal_flash_ex.c ****       /* if the erase operation is completed, disable the MER Bit */
 206:Drivers/STM32F7xx_HAL_Driver/Src/stm32f7xx_hal_flash_ex.c ****       FLASH->CR &= (~FLASH_MER_BIT);
 207:Drivers/STM32F7xx_HAL_Driver/Src/stm32f7xx_hal_flash_ex.c ****     }
 208:Drivers/STM32F7xx_HAL_Driver/Src/stm32f7xx_hal_flash_ex.c ****     else
 209:Drivers/STM32F7xx_HAL_Driver/Src/stm32f7xx_hal_flash_ex.c ****     {
 210:Drivers/STM32F7xx_HAL_Driver/Src/stm32f7xx_hal_flash_ex.c ****       /* Check the parameters */
 211:Drivers/STM32F7xx_HAL_Driver/Src/stm32f7xx_hal_flash_ex.c ****       assert_param(IS_FLASH_NBSECTORS(pEraseInit->NbSectors + pEraseInit->Sector));
 212:Drivers/STM32F7xx_HAL_Driver/Src/stm32f7xx_hal_flash_ex.c **** 
 213:Drivers/STM32F7xx_HAL_Driver/Src/stm32f7xx_hal_flash_ex.c ****       /* Erase by sector by sector to be done*/
 214:Drivers/STM32F7xx_HAL_Driver/Src/stm32f7xx_hal_flash_ex.c ****       for(index = pEraseInit->Sector; index < (pEraseInit->NbSectors + pEraseInit->Sector); index++
 215:Drivers/STM32F7xx_HAL_Driver/Src/stm32f7xx_hal_flash_ex.c ****       {
 216:Drivers/STM32F7xx_HAL_Driver/Src/stm32f7xx_hal_flash_ex.c ****         FLASH_Erase_Sector(index, (uint8_t) pEraseInit->VoltageRange);
 217:Drivers/STM32F7xx_HAL_Driver/Src/stm32f7xx_hal_flash_ex.c **** 
 218:Drivers/STM32F7xx_HAL_Driver/Src/stm32f7xx_hal_flash_ex.c ****         /* Wait for last operation to be completed */
 219:Drivers/STM32F7xx_HAL_Driver/Src/stm32f7xx_hal_flash_ex.c ****         status = FLASH_WaitForLastOperation((uint32_t)FLASH_TIMEOUT_VALUE);
 220:Drivers/STM32F7xx_HAL_Driver/Src/stm32f7xx_hal_flash_ex.c ****         
 221:Drivers/STM32F7xx_HAL_Driver/Src/stm32f7xx_hal_flash_ex.c ****         /* If the erase operation is completed, disable the SER Bit and SNB Bits */
 222:Drivers/STM32F7xx_HAL_Driver/Src/stm32f7xx_hal_flash_ex.c ****         CLEAR_BIT(FLASH->CR, (FLASH_CR_SER | FLASH_CR_SNB)); 
 223:Drivers/STM32F7xx_HAL_Driver/Src/stm32f7xx_hal_flash_ex.c **** 
 224:Drivers/STM32F7xx_HAL_Driver/Src/stm32f7xx_hal_flash_ex.c ****         if(status != HAL_OK) 
 225:Drivers/STM32F7xx_HAL_Driver/Src/stm32f7xx_hal_flash_ex.c ****         {
 226:Drivers/STM32F7xx_HAL_Driver/Src/stm32f7xx_hal_flash_ex.c ****           /* In case of error, stop erase procedure and return the faulty sector*/
 227:Drivers/STM32F7xx_HAL_Driver/Src/stm32f7xx_hal_flash_ex.c ****           *SectorError = index;
 228:Drivers/STM32F7xx_HAL_Driver/Src/stm32f7xx_hal_flash_ex.c ****           break;
 229:Drivers/STM32F7xx_HAL_Driver/Src/stm32f7xx_hal_flash_ex.c ****         }
 230:Drivers/STM32F7xx_HAL_Driver/Src/stm32f7xx_hal_flash_ex.c ****       }
 231:Drivers/STM32F7xx_HAL_Driver/Src/stm32f7xx_hal_flash_ex.c ****     }
 232:Drivers/STM32F7xx_HAL_Driver/Src/stm32f7xx_hal_flash_ex.c ****   }
 233:Drivers/STM32F7xx_HAL_Driver/Src/stm32f7xx_hal_flash_ex.c **** 
 234:Drivers/STM32F7xx_HAL_Driver/Src/stm32f7xx_hal_flash_ex.c ****   /* Process Unlocked */
 235:Drivers/STM32F7xx_HAL_Driver/Src/stm32f7xx_hal_flash_ex.c ****   __HAL_UNLOCK(&pFlash);
 236:Drivers/STM32F7xx_HAL_Driver/Src/stm32f7xx_hal_flash_ex.c **** 
 237:Drivers/STM32F7xx_HAL_Driver/Src/stm32f7xx_hal_flash_ex.c ****   return status;
 238:Drivers/STM32F7xx_HAL_Driver/Src/stm32f7xx_hal_flash_ex.c **** }
 239:Drivers/STM32F7xx_HAL_Driver/Src/stm32f7xx_hal_flash_ex.c **** 
 240:Drivers/STM32F7xx_HAL_Driver/Src/stm32f7xx_hal_flash_ex.c **** /**
 241:Drivers/STM32F7xx_HAL_Driver/Src/stm32f7xx_hal_flash_ex.c ****   * @brief  Perform a mass erase or erase the specified FLASH memory sectors  with interrupt enable
 242:Drivers/STM32F7xx_HAL_Driver/Src/stm32f7xx_hal_flash_ex.c ****   * @param  pEraseInit pointer to an FLASH_EraseInitTypeDef structure that
 243:Drivers/STM32F7xx_HAL_Driver/Src/stm32f7xx_hal_flash_ex.c ****   *         contains the configuration information for the erasing.
 244:Drivers/STM32F7xx_HAL_Driver/Src/stm32f7xx_hal_flash_ex.c ****   * 
 245:Drivers/STM32F7xx_HAL_Driver/Src/stm32f7xx_hal_flash_ex.c ****   * @retval HAL Status
 246:Drivers/STM32F7xx_HAL_Driver/Src/stm32f7xx_hal_flash_ex.c ****   */
 247:Drivers/STM32F7xx_HAL_Driver/Src/stm32f7xx_hal_flash_ex.c **** HAL_StatusTypeDef HAL_FLASHEx_Erase_IT(FLASH_EraseInitTypeDef *pEraseInit)
 248:Drivers/STM32F7xx_HAL_Driver/Src/stm32f7xx_hal_flash_ex.c **** {
 249:Drivers/STM32F7xx_HAL_Driver/Src/stm32f7xx_hal_flash_ex.c ****   HAL_StatusTypeDef status = HAL_OK;
 250:Drivers/STM32F7xx_HAL_Driver/Src/stm32f7xx_hal_flash_ex.c **** 
 251:Drivers/STM32F7xx_HAL_Driver/Src/stm32f7xx_hal_flash_ex.c ****   /* Process Locked */
 252:Drivers/STM32F7xx_HAL_Driver/Src/stm32f7xx_hal_flash_ex.c ****   __HAL_LOCK(&pFlash);
 253:Drivers/STM32F7xx_HAL_Driver/Src/stm32f7xx_hal_flash_ex.c **** 
 254:Drivers/STM32F7xx_HAL_Driver/Src/stm32f7xx_hal_flash_ex.c ****   /* Check the parameters */
 255:Drivers/STM32F7xx_HAL_Driver/Src/stm32f7xx_hal_flash_ex.c ****   assert_param(IS_FLASH_TYPEERASE(pEraseInit->TypeErase));
 256:Drivers/STM32F7xx_HAL_Driver/Src/stm32f7xx_hal_flash_ex.c **** 
 257:Drivers/STM32F7xx_HAL_Driver/Src/stm32f7xx_hal_flash_ex.c ****   /* Enable End of FLASH Operation interrupt */
 258:Drivers/STM32F7xx_HAL_Driver/Src/stm32f7xx_hal_flash_ex.c ****   __HAL_FLASH_ENABLE_IT(FLASH_IT_EOP);
 259:Drivers/STM32F7xx_HAL_Driver/Src/stm32f7xx_hal_flash_ex.c ****   
 260:Drivers/STM32F7xx_HAL_Driver/Src/stm32f7xx_hal_flash_ex.c ****   /* Enable Error source interrupt */
ARM GAS  /tmp/ccd0mmyh.s 			page 6


 261:Drivers/STM32F7xx_HAL_Driver/Src/stm32f7xx_hal_flash_ex.c ****   __HAL_FLASH_ENABLE_IT(FLASH_IT_ERR);
 262:Drivers/STM32F7xx_HAL_Driver/Src/stm32f7xx_hal_flash_ex.c ****   
 263:Drivers/STM32F7xx_HAL_Driver/Src/stm32f7xx_hal_flash_ex.c ****   /* Clear pending flags (if any) */  
 264:Drivers/STM32F7xx_HAL_Driver/Src/stm32f7xx_hal_flash_ex.c ****   __HAL_FLASH_CLEAR_FLAG(FLASH_FLAG_EOP    | FLASH_FLAG_OPERR | FLASH_FLAG_WRPERR |\
 265:Drivers/STM32F7xx_HAL_Driver/Src/stm32f7xx_hal_flash_ex.c ****                          FLASH_FLAG_PGAERR | FLASH_FLAG_PGPERR| FLASH_FLAG_ERSERR);  
 266:Drivers/STM32F7xx_HAL_Driver/Src/stm32f7xx_hal_flash_ex.c ****   
 267:Drivers/STM32F7xx_HAL_Driver/Src/stm32f7xx_hal_flash_ex.c ****   if(pEraseInit->TypeErase == FLASH_TYPEERASE_MASSERASE)
 268:Drivers/STM32F7xx_HAL_Driver/Src/stm32f7xx_hal_flash_ex.c ****   {
 269:Drivers/STM32F7xx_HAL_Driver/Src/stm32f7xx_hal_flash_ex.c ****     /*Mass erase to be done*/
 270:Drivers/STM32F7xx_HAL_Driver/Src/stm32f7xx_hal_flash_ex.c ****     pFlash.ProcedureOnGoing = FLASH_PROC_MASSERASE;
 271:Drivers/STM32F7xx_HAL_Driver/Src/stm32f7xx_hal_flash_ex.c **** #if defined (FLASH_OPTCR_nDBANK)    
 272:Drivers/STM32F7xx_HAL_Driver/Src/stm32f7xx_hal_flash_ex.c ****     FLASH_MassErase((uint8_t) pEraseInit->VoltageRange, pEraseInit->Banks);
 273:Drivers/STM32F7xx_HAL_Driver/Src/stm32f7xx_hal_flash_ex.c **** #else
 274:Drivers/STM32F7xx_HAL_Driver/Src/stm32f7xx_hal_flash_ex.c ****     FLASH_MassErase((uint8_t) pEraseInit->VoltageRange);      
 275:Drivers/STM32F7xx_HAL_Driver/Src/stm32f7xx_hal_flash_ex.c **** #endif /* FLASH_OPTCR_nDBANK */    
 276:Drivers/STM32F7xx_HAL_Driver/Src/stm32f7xx_hal_flash_ex.c ****   }
 277:Drivers/STM32F7xx_HAL_Driver/Src/stm32f7xx_hal_flash_ex.c ****   else
 278:Drivers/STM32F7xx_HAL_Driver/Src/stm32f7xx_hal_flash_ex.c ****   {
 279:Drivers/STM32F7xx_HAL_Driver/Src/stm32f7xx_hal_flash_ex.c ****     /* Erase by sector to be done*/
 280:Drivers/STM32F7xx_HAL_Driver/Src/stm32f7xx_hal_flash_ex.c **** 
 281:Drivers/STM32F7xx_HAL_Driver/Src/stm32f7xx_hal_flash_ex.c ****     /* Check the parameters */
 282:Drivers/STM32F7xx_HAL_Driver/Src/stm32f7xx_hal_flash_ex.c ****     assert_param(IS_FLASH_NBSECTORS(pEraseInit->NbSectors + pEraseInit->Sector));
 283:Drivers/STM32F7xx_HAL_Driver/Src/stm32f7xx_hal_flash_ex.c **** 
 284:Drivers/STM32F7xx_HAL_Driver/Src/stm32f7xx_hal_flash_ex.c ****     pFlash.ProcedureOnGoing = FLASH_PROC_SECTERASE;
 285:Drivers/STM32F7xx_HAL_Driver/Src/stm32f7xx_hal_flash_ex.c ****     pFlash.NbSectorsToErase = pEraseInit->NbSectors;
 286:Drivers/STM32F7xx_HAL_Driver/Src/stm32f7xx_hal_flash_ex.c ****     pFlash.Sector = pEraseInit->Sector;
 287:Drivers/STM32F7xx_HAL_Driver/Src/stm32f7xx_hal_flash_ex.c ****     pFlash.VoltageForErase = (uint8_t)pEraseInit->VoltageRange;
 288:Drivers/STM32F7xx_HAL_Driver/Src/stm32f7xx_hal_flash_ex.c **** 
 289:Drivers/STM32F7xx_HAL_Driver/Src/stm32f7xx_hal_flash_ex.c ****     /*Erase 1st sector and wait for IT*/
 290:Drivers/STM32F7xx_HAL_Driver/Src/stm32f7xx_hal_flash_ex.c ****     FLASH_Erase_Sector(pEraseInit->Sector, pEraseInit->VoltageRange);
 291:Drivers/STM32F7xx_HAL_Driver/Src/stm32f7xx_hal_flash_ex.c ****   }
 292:Drivers/STM32F7xx_HAL_Driver/Src/stm32f7xx_hal_flash_ex.c **** 
 293:Drivers/STM32F7xx_HAL_Driver/Src/stm32f7xx_hal_flash_ex.c ****   return status;
 294:Drivers/STM32F7xx_HAL_Driver/Src/stm32f7xx_hal_flash_ex.c **** }
 295:Drivers/STM32F7xx_HAL_Driver/Src/stm32f7xx_hal_flash_ex.c **** 
 296:Drivers/STM32F7xx_HAL_Driver/Src/stm32f7xx_hal_flash_ex.c **** /**
 297:Drivers/STM32F7xx_HAL_Driver/Src/stm32f7xx_hal_flash_ex.c ****   * @brief  Program option bytes
 298:Drivers/STM32F7xx_HAL_Driver/Src/stm32f7xx_hal_flash_ex.c ****   * @param  pOBInit pointer to an FLASH_OBInitStruct structure that
 299:Drivers/STM32F7xx_HAL_Driver/Src/stm32f7xx_hal_flash_ex.c ****   *         contains the configuration information for the programming.
 300:Drivers/STM32F7xx_HAL_Driver/Src/stm32f7xx_hal_flash_ex.c ****   * 
 301:Drivers/STM32F7xx_HAL_Driver/Src/stm32f7xx_hal_flash_ex.c ****   * @retval HAL Status
 302:Drivers/STM32F7xx_HAL_Driver/Src/stm32f7xx_hal_flash_ex.c ****   */
 303:Drivers/STM32F7xx_HAL_Driver/Src/stm32f7xx_hal_flash_ex.c **** HAL_StatusTypeDef HAL_FLASHEx_OBProgram(FLASH_OBProgramInitTypeDef *pOBInit)
 304:Drivers/STM32F7xx_HAL_Driver/Src/stm32f7xx_hal_flash_ex.c **** {
 305:Drivers/STM32F7xx_HAL_Driver/Src/stm32f7xx_hal_flash_ex.c ****   HAL_StatusTypeDef status = HAL_ERROR;
 306:Drivers/STM32F7xx_HAL_Driver/Src/stm32f7xx_hal_flash_ex.c ****   
 307:Drivers/STM32F7xx_HAL_Driver/Src/stm32f7xx_hal_flash_ex.c ****   /* Process Locked */
 308:Drivers/STM32F7xx_HAL_Driver/Src/stm32f7xx_hal_flash_ex.c ****   __HAL_LOCK(&pFlash);
 309:Drivers/STM32F7xx_HAL_Driver/Src/stm32f7xx_hal_flash_ex.c **** 
 310:Drivers/STM32F7xx_HAL_Driver/Src/stm32f7xx_hal_flash_ex.c ****   /* Check the parameters */
 311:Drivers/STM32F7xx_HAL_Driver/Src/stm32f7xx_hal_flash_ex.c ****   assert_param(IS_OPTIONBYTE(pOBInit->OptionType));
 312:Drivers/STM32F7xx_HAL_Driver/Src/stm32f7xx_hal_flash_ex.c **** 
 313:Drivers/STM32F7xx_HAL_Driver/Src/stm32f7xx_hal_flash_ex.c ****   /* Write protection configuration */
 314:Drivers/STM32F7xx_HAL_Driver/Src/stm32f7xx_hal_flash_ex.c ****   if((pOBInit->OptionType & OPTIONBYTE_WRP) == OPTIONBYTE_WRP)
 315:Drivers/STM32F7xx_HAL_Driver/Src/stm32f7xx_hal_flash_ex.c ****   {
 316:Drivers/STM32F7xx_HAL_Driver/Src/stm32f7xx_hal_flash_ex.c ****     assert_param(IS_WRPSTATE(pOBInit->WRPState));
 317:Drivers/STM32F7xx_HAL_Driver/Src/stm32f7xx_hal_flash_ex.c ****     if(pOBInit->WRPState == OB_WRPSTATE_ENABLE)
ARM GAS  /tmp/ccd0mmyh.s 			page 7


 318:Drivers/STM32F7xx_HAL_Driver/Src/stm32f7xx_hal_flash_ex.c ****     {
 319:Drivers/STM32F7xx_HAL_Driver/Src/stm32f7xx_hal_flash_ex.c ****       /*Enable of Write protection on the selected Sector*/
 320:Drivers/STM32F7xx_HAL_Driver/Src/stm32f7xx_hal_flash_ex.c ****       status = FLASH_OB_EnableWRP(pOBInit->WRPSector);
 321:Drivers/STM32F7xx_HAL_Driver/Src/stm32f7xx_hal_flash_ex.c ****     }
 322:Drivers/STM32F7xx_HAL_Driver/Src/stm32f7xx_hal_flash_ex.c ****     else
 323:Drivers/STM32F7xx_HAL_Driver/Src/stm32f7xx_hal_flash_ex.c ****     {
 324:Drivers/STM32F7xx_HAL_Driver/Src/stm32f7xx_hal_flash_ex.c ****       /*Disable of Write protection on the selected Sector*/
 325:Drivers/STM32F7xx_HAL_Driver/Src/stm32f7xx_hal_flash_ex.c ****       status = FLASH_OB_DisableWRP(pOBInit->WRPSector);
 326:Drivers/STM32F7xx_HAL_Driver/Src/stm32f7xx_hal_flash_ex.c ****     }
 327:Drivers/STM32F7xx_HAL_Driver/Src/stm32f7xx_hal_flash_ex.c ****   }
 328:Drivers/STM32F7xx_HAL_Driver/Src/stm32f7xx_hal_flash_ex.c **** 
 329:Drivers/STM32F7xx_HAL_Driver/Src/stm32f7xx_hal_flash_ex.c ****   /* Read protection configuration */
 330:Drivers/STM32F7xx_HAL_Driver/Src/stm32f7xx_hal_flash_ex.c ****   if((pOBInit->OptionType & OPTIONBYTE_RDP) == OPTIONBYTE_RDP)
 331:Drivers/STM32F7xx_HAL_Driver/Src/stm32f7xx_hal_flash_ex.c ****   {
 332:Drivers/STM32F7xx_HAL_Driver/Src/stm32f7xx_hal_flash_ex.c ****     status = FLASH_OB_RDP_LevelConfig(pOBInit->RDPLevel);
 333:Drivers/STM32F7xx_HAL_Driver/Src/stm32f7xx_hal_flash_ex.c ****   }
 334:Drivers/STM32F7xx_HAL_Driver/Src/stm32f7xx_hal_flash_ex.c **** 
 335:Drivers/STM32F7xx_HAL_Driver/Src/stm32f7xx_hal_flash_ex.c ****   /* USER  configuration */
 336:Drivers/STM32F7xx_HAL_Driver/Src/stm32f7xx_hal_flash_ex.c ****   if((pOBInit->OptionType & OPTIONBYTE_USER) == OPTIONBYTE_USER)
 337:Drivers/STM32F7xx_HAL_Driver/Src/stm32f7xx_hal_flash_ex.c ****   {
 338:Drivers/STM32F7xx_HAL_Driver/Src/stm32f7xx_hal_flash_ex.c **** #if defined (FLASH_OPTCR_nDBANK)
 339:Drivers/STM32F7xx_HAL_Driver/Src/stm32f7xx_hal_flash_ex.c ****     status = FLASH_OB_UserConfig(pOBInit->USERConfig & OB_WWDG_SW, 
 340:Drivers/STM32F7xx_HAL_Driver/Src/stm32f7xx_hal_flash_ex.c ****                                  pOBInit->USERConfig & OB_IWDG_SW,
 341:Drivers/STM32F7xx_HAL_Driver/Src/stm32f7xx_hal_flash_ex.c ****                                  pOBInit->USERConfig & OB_STOP_NO_RST,
 342:Drivers/STM32F7xx_HAL_Driver/Src/stm32f7xx_hal_flash_ex.c ****                                  pOBInit->USERConfig & OB_STDBY_NO_RST, 
 343:Drivers/STM32F7xx_HAL_Driver/Src/stm32f7xx_hal_flash_ex.c ****                                  pOBInit->USERConfig & OB_IWDG_STOP_ACTIVE,
 344:Drivers/STM32F7xx_HAL_Driver/Src/stm32f7xx_hal_flash_ex.c ****                                  pOBInit->USERConfig & OB_IWDG_STDBY_ACTIVE,
 345:Drivers/STM32F7xx_HAL_Driver/Src/stm32f7xx_hal_flash_ex.c ****                                  pOBInit->USERConfig & OB_NDBANK_SINGLE_BANK,
 346:Drivers/STM32F7xx_HAL_Driver/Src/stm32f7xx_hal_flash_ex.c ****                                  pOBInit->USERConfig & OB_DUAL_BOOT_DISABLE);
 347:Drivers/STM32F7xx_HAL_Driver/Src/stm32f7xx_hal_flash_ex.c **** #else
 348:Drivers/STM32F7xx_HAL_Driver/Src/stm32f7xx_hal_flash_ex.c ****     status = FLASH_OB_UserConfig(pOBInit->USERConfig & OB_WWDG_SW, 
 349:Drivers/STM32F7xx_HAL_Driver/Src/stm32f7xx_hal_flash_ex.c ****                                  pOBInit->USERConfig & OB_IWDG_SW,
 350:Drivers/STM32F7xx_HAL_Driver/Src/stm32f7xx_hal_flash_ex.c ****                                  pOBInit->USERConfig & OB_STOP_NO_RST,
 351:Drivers/STM32F7xx_HAL_Driver/Src/stm32f7xx_hal_flash_ex.c ****                                  pOBInit->USERConfig & OB_STDBY_NO_RST, 
 352:Drivers/STM32F7xx_HAL_Driver/Src/stm32f7xx_hal_flash_ex.c ****                                  pOBInit->USERConfig & OB_IWDG_STOP_ACTIVE,
 353:Drivers/STM32F7xx_HAL_Driver/Src/stm32f7xx_hal_flash_ex.c ****                                  pOBInit->USERConfig & OB_IWDG_STDBY_ACTIVE);    
 354:Drivers/STM32F7xx_HAL_Driver/Src/stm32f7xx_hal_flash_ex.c **** #endif /* FLASH_OPTCR_nDBANK */
 355:Drivers/STM32F7xx_HAL_Driver/Src/stm32f7xx_hal_flash_ex.c ****   }
 356:Drivers/STM32F7xx_HAL_Driver/Src/stm32f7xx_hal_flash_ex.c ****   
 357:Drivers/STM32F7xx_HAL_Driver/Src/stm32f7xx_hal_flash_ex.c ****   /* BOR Level  configuration */
 358:Drivers/STM32F7xx_HAL_Driver/Src/stm32f7xx_hal_flash_ex.c ****   if((pOBInit->OptionType & OPTIONBYTE_BOR) == OPTIONBYTE_BOR)
 359:Drivers/STM32F7xx_HAL_Driver/Src/stm32f7xx_hal_flash_ex.c ****   {
 360:Drivers/STM32F7xx_HAL_Driver/Src/stm32f7xx_hal_flash_ex.c ****     status = FLASH_OB_BOR_LevelConfig(pOBInit->BORLevel);
 361:Drivers/STM32F7xx_HAL_Driver/Src/stm32f7xx_hal_flash_ex.c ****   }
 362:Drivers/STM32F7xx_HAL_Driver/Src/stm32f7xx_hal_flash_ex.c ****   
 363:Drivers/STM32F7xx_HAL_Driver/Src/stm32f7xx_hal_flash_ex.c ****   /* Boot 0 Address configuration */
 364:Drivers/STM32F7xx_HAL_Driver/Src/stm32f7xx_hal_flash_ex.c ****   if((pOBInit->OptionType & OPTIONBYTE_BOOTADDR_0) == OPTIONBYTE_BOOTADDR_0)
 365:Drivers/STM32F7xx_HAL_Driver/Src/stm32f7xx_hal_flash_ex.c ****   {
 366:Drivers/STM32F7xx_HAL_Driver/Src/stm32f7xx_hal_flash_ex.c ****     status = FLASH_OB_BootAddressConfig(OPTIONBYTE_BOOTADDR_0, pOBInit->BootAddr0);
 367:Drivers/STM32F7xx_HAL_Driver/Src/stm32f7xx_hal_flash_ex.c ****   }
 368:Drivers/STM32F7xx_HAL_Driver/Src/stm32f7xx_hal_flash_ex.c ****   
 369:Drivers/STM32F7xx_HAL_Driver/Src/stm32f7xx_hal_flash_ex.c ****   /* Boot 1 Address configuration */
 370:Drivers/STM32F7xx_HAL_Driver/Src/stm32f7xx_hal_flash_ex.c ****   if((pOBInit->OptionType & OPTIONBYTE_BOOTADDR_1) == OPTIONBYTE_BOOTADDR_1)
 371:Drivers/STM32F7xx_HAL_Driver/Src/stm32f7xx_hal_flash_ex.c ****   {
 372:Drivers/STM32F7xx_HAL_Driver/Src/stm32f7xx_hal_flash_ex.c ****     status = FLASH_OB_BootAddressConfig(OPTIONBYTE_BOOTADDR_1, pOBInit->BootAddr1);
 373:Drivers/STM32F7xx_HAL_Driver/Src/stm32f7xx_hal_flash_ex.c ****   }
 374:Drivers/STM32F7xx_HAL_Driver/Src/stm32f7xx_hal_flash_ex.c ****   
ARM GAS  /tmp/ccd0mmyh.s 			page 8


 375:Drivers/STM32F7xx_HAL_Driver/Src/stm32f7xx_hal_flash_ex.c **** #if defined (FLASH_OPTCR2_PCROP)
 376:Drivers/STM32F7xx_HAL_Driver/Src/stm32f7xx_hal_flash_ex.c ****   /* PCROP configuration */
 377:Drivers/STM32F7xx_HAL_Driver/Src/stm32f7xx_hal_flash_ex.c ****   if((pOBInit->OptionType & OPTIONBYTE_PCROP) == OPTIONBYTE_PCROP)
 378:Drivers/STM32F7xx_HAL_Driver/Src/stm32f7xx_hal_flash_ex.c ****   {
 379:Drivers/STM32F7xx_HAL_Driver/Src/stm32f7xx_hal_flash_ex.c ****     status = FLASH_OB_PCROP_Config(pOBInit->PCROPSector);
 380:Drivers/STM32F7xx_HAL_Driver/Src/stm32f7xx_hal_flash_ex.c ****   }
 381:Drivers/STM32F7xx_HAL_Driver/Src/stm32f7xx_hal_flash_ex.c ****   
 382:Drivers/STM32F7xx_HAL_Driver/Src/stm32f7xx_hal_flash_ex.c ****   /* PCROP_RDP configuration */
 383:Drivers/STM32F7xx_HAL_Driver/Src/stm32f7xx_hal_flash_ex.c ****   if((pOBInit->OptionType & OPTIONBYTE_PCROP_RDP) == OPTIONBYTE_PCROP_RDP)
 384:Drivers/STM32F7xx_HAL_Driver/Src/stm32f7xx_hal_flash_ex.c ****   {
 385:Drivers/STM32F7xx_HAL_Driver/Src/stm32f7xx_hal_flash_ex.c ****     status = FLASH_OB_PCROP_RDP_Config(pOBInit->PCROPRdp);
 386:Drivers/STM32F7xx_HAL_Driver/Src/stm32f7xx_hal_flash_ex.c ****   }
 387:Drivers/STM32F7xx_HAL_Driver/Src/stm32f7xx_hal_flash_ex.c **** #endif /* FLASH_OPTCR2_PCROP */
 388:Drivers/STM32F7xx_HAL_Driver/Src/stm32f7xx_hal_flash_ex.c **** 
 389:Drivers/STM32F7xx_HAL_Driver/Src/stm32f7xx_hal_flash_ex.c ****   /* Process Unlocked */
 390:Drivers/STM32F7xx_HAL_Driver/Src/stm32f7xx_hal_flash_ex.c ****   __HAL_UNLOCK(&pFlash);
 391:Drivers/STM32F7xx_HAL_Driver/Src/stm32f7xx_hal_flash_ex.c **** 
 392:Drivers/STM32F7xx_HAL_Driver/Src/stm32f7xx_hal_flash_ex.c ****   return status;
 393:Drivers/STM32F7xx_HAL_Driver/Src/stm32f7xx_hal_flash_ex.c **** }
 394:Drivers/STM32F7xx_HAL_Driver/Src/stm32f7xx_hal_flash_ex.c **** 
 395:Drivers/STM32F7xx_HAL_Driver/Src/stm32f7xx_hal_flash_ex.c **** /**
 396:Drivers/STM32F7xx_HAL_Driver/Src/stm32f7xx_hal_flash_ex.c ****   * @brief  Get the Option byte configuration
 397:Drivers/STM32F7xx_HAL_Driver/Src/stm32f7xx_hal_flash_ex.c ****   * @param  pOBInit pointer to an FLASH_OBInitStruct structure that
 398:Drivers/STM32F7xx_HAL_Driver/Src/stm32f7xx_hal_flash_ex.c ****   *         contains the configuration information for the programming.
 399:Drivers/STM32F7xx_HAL_Driver/Src/stm32f7xx_hal_flash_ex.c ****   * 
 400:Drivers/STM32F7xx_HAL_Driver/Src/stm32f7xx_hal_flash_ex.c ****   * @retval None
 401:Drivers/STM32F7xx_HAL_Driver/Src/stm32f7xx_hal_flash_ex.c ****   */
 402:Drivers/STM32F7xx_HAL_Driver/Src/stm32f7xx_hal_flash_ex.c **** void HAL_FLASHEx_OBGetConfig(FLASH_OBProgramInitTypeDef *pOBInit)
 403:Drivers/STM32F7xx_HAL_Driver/Src/stm32f7xx_hal_flash_ex.c **** {
 404:Drivers/STM32F7xx_HAL_Driver/Src/stm32f7xx_hal_flash_ex.c ****   pOBInit->OptionType = OPTIONBYTE_WRP | OPTIONBYTE_RDP | OPTIONBYTE_USER |\
 405:Drivers/STM32F7xx_HAL_Driver/Src/stm32f7xx_hal_flash_ex.c **** 	                OPTIONBYTE_BOR | OPTIONBYTE_BOOTADDR_0 | OPTIONBYTE_BOOTADDR_1;
 406:Drivers/STM32F7xx_HAL_Driver/Src/stm32f7xx_hal_flash_ex.c **** 
 407:Drivers/STM32F7xx_HAL_Driver/Src/stm32f7xx_hal_flash_ex.c ****   /*Get WRP*/
 408:Drivers/STM32F7xx_HAL_Driver/Src/stm32f7xx_hal_flash_ex.c ****   pOBInit->WRPSector = FLASH_OB_GetWRP();
 409:Drivers/STM32F7xx_HAL_Driver/Src/stm32f7xx_hal_flash_ex.c **** 
 410:Drivers/STM32F7xx_HAL_Driver/Src/stm32f7xx_hal_flash_ex.c ****   /*Get RDP Level*/
 411:Drivers/STM32F7xx_HAL_Driver/Src/stm32f7xx_hal_flash_ex.c ****   pOBInit->RDPLevel = FLASH_OB_GetRDP();
 412:Drivers/STM32F7xx_HAL_Driver/Src/stm32f7xx_hal_flash_ex.c **** 
 413:Drivers/STM32F7xx_HAL_Driver/Src/stm32f7xx_hal_flash_ex.c ****   /*Get USER*/
 414:Drivers/STM32F7xx_HAL_Driver/Src/stm32f7xx_hal_flash_ex.c ****   pOBInit->USERConfig = FLASH_OB_GetUser();
 415:Drivers/STM32F7xx_HAL_Driver/Src/stm32f7xx_hal_flash_ex.c **** 
 416:Drivers/STM32F7xx_HAL_Driver/Src/stm32f7xx_hal_flash_ex.c ****   /*Get BOR Level*/
 417:Drivers/STM32F7xx_HAL_Driver/Src/stm32f7xx_hal_flash_ex.c ****   pOBInit->BORLevel = FLASH_OB_GetBOR();
 418:Drivers/STM32F7xx_HAL_Driver/Src/stm32f7xx_hal_flash_ex.c ****   
 419:Drivers/STM32F7xx_HAL_Driver/Src/stm32f7xx_hal_flash_ex.c ****   /*Get Boot Address when Boot pin = 0 */
 420:Drivers/STM32F7xx_HAL_Driver/Src/stm32f7xx_hal_flash_ex.c ****   pOBInit->BootAddr0 = FLASH_OB_GetBootAddress(OPTIONBYTE_BOOTADDR_0);
 421:Drivers/STM32F7xx_HAL_Driver/Src/stm32f7xx_hal_flash_ex.c ****   
 422:Drivers/STM32F7xx_HAL_Driver/Src/stm32f7xx_hal_flash_ex.c ****   /*Get Boot Address when Boot pin = 1 */
 423:Drivers/STM32F7xx_HAL_Driver/Src/stm32f7xx_hal_flash_ex.c ****   pOBInit->BootAddr1 = FLASH_OB_GetBootAddress(OPTIONBYTE_BOOTADDR_1);
 424:Drivers/STM32F7xx_HAL_Driver/Src/stm32f7xx_hal_flash_ex.c **** 
 425:Drivers/STM32F7xx_HAL_Driver/Src/stm32f7xx_hal_flash_ex.c **** #if defined (FLASH_OPTCR2_PCROP)
 426:Drivers/STM32F7xx_HAL_Driver/Src/stm32f7xx_hal_flash_ex.c ****   /*Get PCROP Sectors */
 427:Drivers/STM32F7xx_HAL_Driver/Src/stm32f7xx_hal_flash_ex.c ****   pOBInit->PCROPSector = FLASH_OB_GetPCROP();
 428:Drivers/STM32F7xx_HAL_Driver/Src/stm32f7xx_hal_flash_ex.c ****   
 429:Drivers/STM32F7xx_HAL_Driver/Src/stm32f7xx_hal_flash_ex.c ****   /*Get PCROP_RDP Value */
 430:Drivers/STM32F7xx_HAL_Driver/Src/stm32f7xx_hal_flash_ex.c ****   pOBInit->PCROPRdp = FLASH_OB_GetPCROPRDP();
 431:Drivers/STM32F7xx_HAL_Driver/Src/stm32f7xx_hal_flash_ex.c **** #endif /* FLASH_OPTCR2_PCROP */
ARM GAS  /tmp/ccd0mmyh.s 			page 9


 432:Drivers/STM32F7xx_HAL_Driver/Src/stm32f7xx_hal_flash_ex.c **** }
 433:Drivers/STM32F7xx_HAL_Driver/Src/stm32f7xx_hal_flash_ex.c **** /**
 434:Drivers/STM32F7xx_HAL_Driver/Src/stm32f7xx_hal_flash_ex.c ****   * @}
 435:Drivers/STM32F7xx_HAL_Driver/Src/stm32f7xx_hal_flash_ex.c ****   */
 436:Drivers/STM32F7xx_HAL_Driver/Src/stm32f7xx_hal_flash_ex.c **** 
 437:Drivers/STM32F7xx_HAL_Driver/Src/stm32f7xx_hal_flash_ex.c **** #if defined (FLASH_OPTCR_nDBANK)
 438:Drivers/STM32F7xx_HAL_Driver/Src/stm32f7xx_hal_flash_ex.c **** /**
 439:Drivers/STM32F7xx_HAL_Driver/Src/stm32f7xx_hal_flash_ex.c ****   * @brief  Full erase of FLASH memory sectors 
 440:Drivers/STM32F7xx_HAL_Driver/Src/stm32f7xx_hal_flash_ex.c ****   * @param  VoltageRange The device voltage range which defines the erase parallelism.  
 441:Drivers/STM32F7xx_HAL_Driver/Src/stm32f7xx_hal_flash_ex.c ****   *          This parameter can be one of the following values:
 442:Drivers/STM32F7xx_HAL_Driver/Src/stm32f7xx_hal_flash_ex.c ****   *            @arg VOLTAGE_RANGE_1: when the device voltage range is 1.8V to 2.1V, 
 443:Drivers/STM32F7xx_HAL_Driver/Src/stm32f7xx_hal_flash_ex.c ****   *                                  the operation will be done by byte (8-bit) 
 444:Drivers/STM32F7xx_HAL_Driver/Src/stm32f7xx_hal_flash_ex.c ****   *            @arg VOLTAGE_RANGE_2: when the device voltage range is 2.1V to 2.7V,
 445:Drivers/STM32F7xx_HAL_Driver/Src/stm32f7xx_hal_flash_ex.c ****   *                                  the operation will be done by half word (16-bit)
 446:Drivers/STM32F7xx_HAL_Driver/Src/stm32f7xx_hal_flash_ex.c ****   *            @arg VOLTAGE_RANGE_3: when the device voltage range is 2.7V to 3.6V,
 447:Drivers/STM32F7xx_HAL_Driver/Src/stm32f7xx_hal_flash_ex.c ****   *                                  the operation will be done by word (32-bit)
 448:Drivers/STM32F7xx_HAL_Driver/Src/stm32f7xx_hal_flash_ex.c ****   *            @arg VOLTAGE_RANGE_4: when the device voltage range is 2.7V to 3.6V + External Vpp, 
 449:Drivers/STM32F7xx_HAL_Driver/Src/stm32f7xx_hal_flash_ex.c ****   *                                  the operation will be done by double word (64-bit)
 450:Drivers/STM32F7xx_HAL_Driver/Src/stm32f7xx_hal_flash_ex.c ****   * @param  Banks Banks to be erased
 451:Drivers/STM32F7xx_HAL_Driver/Src/stm32f7xx_hal_flash_ex.c ****   *          This parameter can be one of the following values:
 452:Drivers/STM32F7xx_HAL_Driver/Src/stm32f7xx_hal_flash_ex.c ****   *            @arg FLASH_BANK_1: Bank1 to be erased
 453:Drivers/STM32F7xx_HAL_Driver/Src/stm32f7xx_hal_flash_ex.c ****   *            @arg FLASH_BANK_2: Bank2 to be erased
 454:Drivers/STM32F7xx_HAL_Driver/Src/stm32f7xx_hal_flash_ex.c ****   *            @arg FLASH_BANK_BOTH: Bank1 and Bank2 to be erased
 455:Drivers/STM32F7xx_HAL_Driver/Src/stm32f7xx_hal_flash_ex.c ****   *
 456:Drivers/STM32F7xx_HAL_Driver/Src/stm32f7xx_hal_flash_ex.c ****   * @retval HAL Status
 457:Drivers/STM32F7xx_HAL_Driver/Src/stm32f7xx_hal_flash_ex.c ****   */
 458:Drivers/STM32F7xx_HAL_Driver/Src/stm32f7xx_hal_flash_ex.c **** static void FLASH_MassErase(uint8_t VoltageRange, uint32_t Banks)
 459:Drivers/STM32F7xx_HAL_Driver/Src/stm32f7xx_hal_flash_ex.c **** {
  27              		.loc 1 459 0
  28              		.cfi_startproc
  29              		@ args = 0, pretend = 0, frame = 0
  30              		@ frame_needed = 0, uses_anonymous_args = 0
  31              		@ link register save eliminated.
  32              	.LVL0:
 460:Drivers/STM32F7xx_HAL_Driver/Src/stm32f7xx_hal_flash_ex.c ****   /* Check the parameters */
 461:Drivers/STM32F7xx_HAL_Driver/Src/stm32f7xx_hal_flash_ex.c ****   assert_param(IS_VOLTAGERANGE(VoltageRange));
 462:Drivers/STM32F7xx_HAL_Driver/Src/stm32f7xx_hal_flash_ex.c ****   assert_param(IS_FLASH_BANK(Banks));
 463:Drivers/STM32F7xx_HAL_Driver/Src/stm32f7xx_hal_flash_ex.c **** 
 464:Drivers/STM32F7xx_HAL_Driver/Src/stm32f7xx_hal_flash_ex.c ****   /* if the previous operation is completed, proceed to erase all sectors */
 465:Drivers/STM32F7xx_HAL_Driver/Src/stm32f7xx_hal_flash_ex.c ****   FLASH->CR &= CR_PSIZE_MASK;
  33              		.loc 1 465 0
  34 0000 114A     		ldr	r2, .L5
  35 0002 1369     		ldr	r3, [r2, #16]
  36 0004 23F44073 		bic	r3, r3, #768
  37 0008 1361     		str	r3, [r2, #16]
 466:Drivers/STM32F7xx_HAL_Driver/Src/stm32f7xx_hal_flash_ex.c ****   if(Banks == FLASH_BANK_BOTH)
  38              		.loc 1 466 0
  39 000a 0329     		cmp	r1, #3
  40 000c 05D1     		bne	.L2
 467:Drivers/STM32F7xx_HAL_Driver/Src/stm32f7xx_hal_flash_ex.c ****   {
 468:Drivers/STM32F7xx_HAL_Driver/Src/stm32f7xx_hal_flash_ex.c ****     /* bank1 & bank2 will be erased*/
 469:Drivers/STM32F7xx_HAL_Driver/Src/stm32f7xx_hal_flash_ex.c ****     FLASH->CR |= FLASH_MER_BIT;
  41              		.loc 1 469 0
  42 000e 1169     		ldr	r1, [r2, #16]
  43              	.LVL1:
  44 0010 48F20403 		movw	r3, #32772
  45 0014 0B43     		orrs	r3, r3, r1
ARM GAS  /tmp/ccd0mmyh.s 			page 10


  46 0016 1361     		str	r3, [r2, #16]
  47 0018 0CE0     		b	.L3
  48              	.LVL2:
  49              	.L2:
 470:Drivers/STM32F7xx_HAL_Driver/Src/stm32f7xx_hal_flash_ex.c ****   }
 471:Drivers/STM32F7xx_HAL_Driver/Src/stm32f7xx_hal_flash_ex.c ****   else if(Banks == FLASH_BANK_2)
  50              		.loc 1 471 0
  51 001a 0229     		cmp	r1, #2
  52 001c 05D1     		bne	.L4
 472:Drivers/STM32F7xx_HAL_Driver/Src/stm32f7xx_hal_flash_ex.c ****   {
 473:Drivers/STM32F7xx_HAL_Driver/Src/stm32f7xx_hal_flash_ex.c ****     /*Only bank2 will be erased*/
 474:Drivers/STM32F7xx_HAL_Driver/Src/stm32f7xx_hal_flash_ex.c ****     FLASH->CR |= FLASH_CR_MER2;
  53              		.loc 1 474 0
  54 001e 0A4A     		ldr	r2, .L5
  55 0020 1369     		ldr	r3, [r2, #16]
  56 0022 43F40043 		orr	r3, r3, #32768
  57 0026 1361     		str	r3, [r2, #16]
  58 0028 04E0     		b	.L3
  59              	.L4:
 475:Drivers/STM32F7xx_HAL_Driver/Src/stm32f7xx_hal_flash_ex.c ****   }
 476:Drivers/STM32F7xx_HAL_Driver/Src/stm32f7xx_hal_flash_ex.c ****   else
 477:Drivers/STM32F7xx_HAL_Driver/Src/stm32f7xx_hal_flash_ex.c ****   {
 478:Drivers/STM32F7xx_HAL_Driver/Src/stm32f7xx_hal_flash_ex.c ****     /*Only bank1 will be erased*/
 479:Drivers/STM32F7xx_HAL_Driver/Src/stm32f7xx_hal_flash_ex.c ****     FLASH->CR |= FLASH_CR_MER1;    
  60              		.loc 1 479 0
  61 002a 074A     		ldr	r2, .L5
  62 002c 1369     		ldr	r3, [r2, #16]
  63 002e 43F00403 		orr	r3, r3, #4
  64 0032 1361     		str	r3, [r2, #16]
  65              	.LVL3:
  66              	.L3:
 480:Drivers/STM32F7xx_HAL_Driver/Src/stm32f7xx_hal_flash_ex.c ****   }
 481:Drivers/STM32F7xx_HAL_Driver/Src/stm32f7xx_hal_flash_ex.c ****   FLASH->CR |= FLASH_CR_STRT | ((uint32_t)VoltageRange <<8);
  67              		.loc 1 481 0
  68 0034 044A     		ldr	r2, .L5
  69 0036 1369     		ldr	r3, [r2, #16]
  70 0038 43EA0020 		orr	r0, r3, r0, lsl #8
  71              	.LVL4:
  72 003c 40F48030 		orr	r0, r0, #65536
  73 0040 1061     		str	r0, [r2, #16]
  74              	.LBB6:
  75              	.LBB7:
  76              		.file 2 "Drivers/CMSIS/Include/cmsis_gcc.h"
   1:Drivers/CMSIS/Include/cmsis_gcc.h **** /**************************************************************************//**
   2:Drivers/CMSIS/Include/cmsis_gcc.h ****  * @file     cmsis_gcc.h
   3:Drivers/CMSIS/Include/cmsis_gcc.h ****  * @brief    CMSIS Cortex-M Core Function/Instruction Header File
   4:Drivers/CMSIS/Include/cmsis_gcc.h ****  * @version  V4.30
   5:Drivers/CMSIS/Include/cmsis_gcc.h ****  * @date     20. October 2015
   6:Drivers/CMSIS/Include/cmsis_gcc.h ****  ******************************************************************************/
   7:Drivers/CMSIS/Include/cmsis_gcc.h **** /* Copyright (c) 2009 - 2015 ARM LIMITED
   8:Drivers/CMSIS/Include/cmsis_gcc.h **** 
   9:Drivers/CMSIS/Include/cmsis_gcc.h ****    All rights reserved.
  10:Drivers/CMSIS/Include/cmsis_gcc.h ****    Redistribution and use in source and binary forms, with or without
  11:Drivers/CMSIS/Include/cmsis_gcc.h ****    modification, are permitted provided that the following conditions are met:
  12:Drivers/CMSIS/Include/cmsis_gcc.h ****    - Redistributions of source code must retain the above copyright
  13:Drivers/CMSIS/Include/cmsis_gcc.h ****      notice, this list of conditions and the following disclaimer.
  14:Drivers/CMSIS/Include/cmsis_gcc.h ****    - Redistributions in binary form must reproduce the above copyright
ARM GAS  /tmp/ccd0mmyh.s 			page 11


  15:Drivers/CMSIS/Include/cmsis_gcc.h ****      notice, this list of conditions and the following disclaimer in the
  16:Drivers/CMSIS/Include/cmsis_gcc.h ****      documentation and/or other materials provided with the distribution.
  17:Drivers/CMSIS/Include/cmsis_gcc.h ****    - Neither the name of ARM nor the names of its contributors may be used
  18:Drivers/CMSIS/Include/cmsis_gcc.h ****      to endorse or promote products derived from this software without
  19:Drivers/CMSIS/Include/cmsis_gcc.h ****      specific prior written permission.
  20:Drivers/CMSIS/Include/cmsis_gcc.h ****    *
  21:Drivers/CMSIS/Include/cmsis_gcc.h ****    THIS SOFTWARE IS PROVIDED BY THE COPYRIGHT HOLDERS AND CONTRIBUTORS "AS IS"
  22:Drivers/CMSIS/Include/cmsis_gcc.h ****    AND ANY EXPRESS OR IMPLIED WARRANTIES, INCLUDING, BUT NOT LIMITED TO, THE
  23:Drivers/CMSIS/Include/cmsis_gcc.h ****    IMPLIED WARRANTIES OF MERCHANTABILITY AND FITNESS FOR A PARTICULAR PURPOSE
  24:Drivers/CMSIS/Include/cmsis_gcc.h ****    ARE DISCLAIMED. IN NO EVENT SHALL COPYRIGHT HOLDERS AND CONTRIBUTORS BE
  25:Drivers/CMSIS/Include/cmsis_gcc.h ****    LIABLE FOR ANY DIRECT, INDIRECT, INCIDENTAL, SPECIAL, EXEMPLARY, OR
  26:Drivers/CMSIS/Include/cmsis_gcc.h ****    CONSEQUENTIAL DAMAGES (INCLUDING, BUT NOT LIMITED TO, PROCUREMENT OF
  27:Drivers/CMSIS/Include/cmsis_gcc.h ****    SUBSTITUTE GOODS OR SERVICES; LOSS OF USE, DATA, OR PROFITS; OR BUSINESS
  28:Drivers/CMSIS/Include/cmsis_gcc.h ****    INTERRUPTION) HOWEVER CAUSED AND ON ANY THEORY OF LIABILITY, WHETHER IN
  29:Drivers/CMSIS/Include/cmsis_gcc.h ****    CONTRACT, STRICT LIABILITY, OR TORT (INCLUDING NEGLIGENCE OR OTHERWISE)
  30:Drivers/CMSIS/Include/cmsis_gcc.h ****    ARISING IN ANY WAY OUT OF THE USE OF THIS SOFTWARE, EVEN IF ADVISED OF THE
  31:Drivers/CMSIS/Include/cmsis_gcc.h ****    POSSIBILITY OF SUCH DAMAGE.
  32:Drivers/CMSIS/Include/cmsis_gcc.h ****    ---------------------------------------------------------------------------*/
  33:Drivers/CMSIS/Include/cmsis_gcc.h **** 
  34:Drivers/CMSIS/Include/cmsis_gcc.h **** 
  35:Drivers/CMSIS/Include/cmsis_gcc.h **** #ifndef __CMSIS_GCC_H
  36:Drivers/CMSIS/Include/cmsis_gcc.h **** #define __CMSIS_GCC_H
  37:Drivers/CMSIS/Include/cmsis_gcc.h **** 
  38:Drivers/CMSIS/Include/cmsis_gcc.h **** /* ignore some GCC warnings */
  39:Drivers/CMSIS/Include/cmsis_gcc.h **** #if defined ( __GNUC__ )
  40:Drivers/CMSIS/Include/cmsis_gcc.h **** #pragma GCC diagnostic push
  41:Drivers/CMSIS/Include/cmsis_gcc.h **** #pragma GCC diagnostic ignored "-Wsign-conversion"
  42:Drivers/CMSIS/Include/cmsis_gcc.h **** #pragma GCC diagnostic ignored "-Wconversion"
  43:Drivers/CMSIS/Include/cmsis_gcc.h **** #pragma GCC diagnostic ignored "-Wunused-parameter"
  44:Drivers/CMSIS/Include/cmsis_gcc.h **** #endif
  45:Drivers/CMSIS/Include/cmsis_gcc.h **** 
  46:Drivers/CMSIS/Include/cmsis_gcc.h **** 
  47:Drivers/CMSIS/Include/cmsis_gcc.h **** /* ###########################  Core Function Access  ########################### */
  48:Drivers/CMSIS/Include/cmsis_gcc.h **** /** \ingroup  CMSIS_Core_FunctionInterface
  49:Drivers/CMSIS/Include/cmsis_gcc.h ****     \defgroup CMSIS_Core_RegAccFunctions CMSIS Core Register Access Functions
  50:Drivers/CMSIS/Include/cmsis_gcc.h ****   @{
  51:Drivers/CMSIS/Include/cmsis_gcc.h ****  */
  52:Drivers/CMSIS/Include/cmsis_gcc.h **** 
  53:Drivers/CMSIS/Include/cmsis_gcc.h **** /**
  54:Drivers/CMSIS/Include/cmsis_gcc.h ****   \brief   Enable IRQ Interrupts
  55:Drivers/CMSIS/Include/cmsis_gcc.h ****   \details Enables IRQ interrupts by clearing the I-bit in the CPSR.
  56:Drivers/CMSIS/Include/cmsis_gcc.h ****            Can only be executed in Privileged modes.
  57:Drivers/CMSIS/Include/cmsis_gcc.h ****  */
  58:Drivers/CMSIS/Include/cmsis_gcc.h **** __attribute__( ( always_inline ) ) __STATIC_INLINE void __enable_irq(void)
  59:Drivers/CMSIS/Include/cmsis_gcc.h **** {
  60:Drivers/CMSIS/Include/cmsis_gcc.h ****   __ASM volatile ("cpsie i" : : : "memory");
  61:Drivers/CMSIS/Include/cmsis_gcc.h **** }
  62:Drivers/CMSIS/Include/cmsis_gcc.h **** 
  63:Drivers/CMSIS/Include/cmsis_gcc.h **** 
  64:Drivers/CMSIS/Include/cmsis_gcc.h **** /**
  65:Drivers/CMSIS/Include/cmsis_gcc.h ****   \brief   Disable IRQ Interrupts
  66:Drivers/CMSIS/Include/cmsis_gcc.h ****   \details Disables IRQ interrupts by setting the I-bit in the CPSR.
  67:Drivers/CMSIS/Include/cmsis_gcc.h ****   Can only be executed in Privileged modes.
  68:Drivers/CMSIS/Include/cmsis_gcc.h ****  */
  69:Drivers/CMSIS/Include/cmsis_gcc.h **** __attribute__( ( always_inline ) ) __STATIC_INLINE void __disable_irq(void)
  70:Drivers/CMSIS/Include/cmsis_gcc.h **** {
  71:Drivers/CMSIS/Include/cmsis_gcc.h ****   __ASM volatile ("cpsid i" : : : "memory");
ARM GAS  /tmp/ccd0mmyh.s 			page 12


  72:Drivers/CMSIS/Include/cmsis_gcc.h **** }
  73:Drivers/CMSIS/Include/cmsis_gcc.h **** 
  74:Drivers/CMSIS/Include/cmsis_gcc.h **** 
  75:Drivers/CMSIS/Include/cmsis_gcc.h **** /**
  76:Drivers/CMSIS/Include/cmsis_gcc.h ****   \brief   Get Control Register
  77:Drivers/CMSIS/Include/cmsis_gcc.h ****   \details Returns the content of the Control Register.
  78:Drivers/CMSIS/Include/cmsis_gcc.h ****   \return               Control Register value
  79:Drivers/CMSIS/Include/cmsis_gcc.h ****  */
  80:Drivers/CMSIS/Include/cmsis_gcc.h **** __attribute__( ( always_inline ) ) __STATIC_INLINE uint32_t __get_CONTROL(void)
  81:Drivers/CMSIS/Include/cmsis_gcc.h **** {
  82:Drivers/CMSIS/Include/cmsis_gcc.h ****   uint32_t result;
  83:Drivers/CMSIS/Include/cmsis_gcc.h **** 
  84:Drivers/CMSIS/Include/cmsis_gcc.h ****   __ASM volatile ("MRS %0, control" : "=r" (result) );
  85:Drivers/CMSIS/Include/cmsis_gcc.h ****   return(result);
  86:Drivers/CMSIS/Include/cmsis_gcc.h **** }
  87:Drivers/CMSIS/Include/cmsis_gcc.h **** 
  88:Drivers/CMSIS/Include/cmsis_gcc.h **** 
  89:Drivers/CMSIS/Include/cmsis_gcc.h **** /**
  90:Drivers/CMSIS/Include/cmsis_gcc.h ****   \brief   Set Control Register
  91:Drivers/CMSIS/Include/cmsis_gcc.h ****   \details Writes the given value to the Control Register.
  92:Drivers/CMSIS/Include/cmsis_gcc.h ****   \param [in]    control  Control Register value to set
  93:Drivers/CMSIS/Include/cmsis_gcc.h ****  */
  94:Drivers/CMSIS/Include/cmsis_gcc.h **** __attribute__( ( always_inline ) ) __STATIC_INLINE void __set_CONTROL(uint32_t control)
  95:Drivers/CMSIS/Include/cmsis_gcc.h **** {
  96:Drivers/CMSIS/Include/cmsis_gcc.h ****   __ASM volatile ("MSR control, %0" : : "r" (control) : "memory");
  97:Drivers/CMSIS/Include/cmsis_gcc.h **** }
  98:Drivers/CMSIS/Include/cmsis_gcc.h **** 
  99:Drivers/CMSIS/Include/cmsis_gcc.h **** 
 100:Drivers/CMSIS/Include/cmsis_gcc.h **** /**
 101:Drivers/CMSIS/Include/cmsis_gcc.h ****   \brief   Get IPSR Register
 102:Drivers/CMSIS/Include/cmsis_gcc.h ****   \details Returns the content of the IPSR Register.
 103:Drivers/CMSIS/Include/cmsis_gcc.h ****   \return               IPSR Register value
 104:Drivers/CMSIS/Include/cmsis_gcc.h ****  */
 105:Drivers/CMSIS/Include/cmsis_gcc.h **** __attribute__( ( always_inline ) ) __STATIC_INLINE uint32_t __get_IPSR(void)
 106:Drivers/CMSIS/Include/cmsis_gcc.h **** {
 107:Drivers/CMSIS/Include/cmsis_gcc.h ****   uint32_t result;
 108:Drivers/CMSIS/Include/cmsis_gcc.h **** 
 109:Drivers/CMSIS/Include/cmsis_gcc.h ****   __ASM volatile ("MRS %0, ipsr" : "=r" (result) );
 110:Drivers/CMSIS/Include/cmsis_gcc.h ****   return(result);
 111:Drivers/CMSIS/Include/cmsis_gcc.h **** }
 112:Drivers/CMSIS/Include/cmsis_gcc.h **** 
 113:Drivers/CMSIS/Include/cmsis_gcc.h **** 
 114:Drivers/CMSIS/Include/cmsis_gcc.h **** /**
 115:Drivers/CMSIS/Include/cmsis_gcc.h ****   \brief   Get APSR Register
 116:Drivers/CMSIS/Include/cmsis_gcc.h ****   \details Returns the content of the APSR Register.
 117:Drivers/CMSIS/Include/cmsis_gcc.h ****   \return               APSR Register value
 118:Drivers/CMSIS/Include/cmsis_gcc.h ****  */
 119:Drivers/CMSIS/Include/cmsis_gcc.h **** __attribute__( ( always_inline ) ) __STATIC_INLINE uint32_t __get_APSR(void)
 120:Drivers/CMSIS/Include/cmsis_gcc.h **** {
 121:Drivers/CMSIS/Include/cmsis_gcc.h ****   uint32_t result;
 122:Drivers/CMSIS/Include/cmsis_gcc.h **** 
 123:Drivers/CMSIS/Include/cmsis_gcc.h ****   __ASM volatile ("MRS %0, apsr" : "=r" (result) );
 124:Drivers/CMSIS/Include/cmsis_gcc.h ****   return(result);
 125:Drivers/CMSIS/Include/cmsis_gcc.h **** }
 126:Drivers/CMSIS/Include/cmsis_gcc.h **** 
 127:Drivers/CMSIS/Include/cmsis_gcc.h **** 
 128:Drivers/CMSIS/Include/cmsis_gcc.h **** /**
ARM GAS  /tmp/ccd0mmyh.s 			page 13


 129:Drivers/CMSIS/Include/cmsis_gcc.h ****   \brief   Get xPSR Register
 130:Drivers/CMSIS/Include/cmsis_gcc.h ****   \details Returns the content of the xPSR Register.
 131:Drivers/CMSIS/Include/cmsis_gcc.h **** 
 132:Drivers/CMSIS/Include/cmsis_gcc.h ****     \return               xPSR Register value
 133:Drivers/CMSIS/Include/cmsis_gcc.h ****  */
 134:Drivers/CMSIS/Include/cmsis_gcc.h **** __attribute__( ( always_inline ) ) __STATIC_INLINE uint32_t __get_xPSR(void)
 135:Drivers/CMSIS/Include/cmsis_gcc.h **** {
 136:Drivers/CMSIS/Include/cmsis_gcc.h ****   uint32_t result;
 137:Drivers/CMSIS/Include/cmsis_gcc.h **** 
 138:Drivers/CMSIS/Include/cmsis_gcc.h ****   __ASM volatile ("MRS %0, xpsr" : "=r" (result) );
 139:Drivers/CMSIS/Include/cmsis_gcc.h ****   return(result);
 140:Drivers/CMSIS/Include/cmsis_gcc.h **** }
 141:Drivers/CMSIS/Include/cmsis_gcc.h **** 
 142:Drivers/CMSIS/Include/cmsis_gcc.h **** 
 143:Drivers/CMSIS/Include/cmsis_gcc.h **** /**
 144:Drivers/CMSIS/Include/cmsis_gcc.h ****   \brief   Get Process Stack Pointer
 145:Drivers/CMSIS/Include/cmsis_gcc.h ****   \details Returns the current value of the Process Stack Pointer (PSP).
 146:Drivers/CMSIS/Include/cmsis_gcc.h ****   \return               PSP Register value
 147:Drivers/CMSIS/Include/cmsis_gcc.h ****  */
 148:Drivers/CMSIS/Include/cmsis_gcc.h **** __attribute__( ( always_inline ) ) __STATIC_INLINE uint32_t __get_PSP(void)
 149:Drivers/CMSIS/Include/cmsis_gcc.h **** {
 150:Drivers/CMSIS/Include/cmsis_gcc.h ****   register uint32_t result;
 151:Drivers/CMSIS/Include/cmsis_gcc.h **** 
 152:Drivers/CMSIS/Include/cmsis_gcc.h ****   __ASM volatile ("MRS %0, psp\n"  : "=r" (result) );
 153:Drivers/CMSIS/Include/cmsis_gcc.h ****   return(result);
 154:Drivers/CMSIS/Include/cmsis_gcc.h **** }
 155:Drivers/CMSIS/Include/cmsis_gcc.h **** 
 156:Drivers/CMSIS/Include/cmsis_gcc.h **** 
 157:Drivers/CMSIS/Include/cmsis_gcc.h **** /**
 158:Drivers/CMSIS/Include/cmsis_gcc.h ****   \brief   Set Process Stack Pointer
 159:Drivers/CMSIS/Include/cmsis_gcc.h ****   \details Assigns the given value to the Process Stack Pointer (PSP).
 160:Drivers/CMSIS/Include/cmsis_gcc.h ****   \param [in]    topOfProcStack  Process Stack Pointer value to set
 161:Drivers/CMSIS/Include/cmsis_gcc.h ****  */
 162:Drivers/CMSIS/Include/cmsis_gcc.h **** __attribute__( ( always_inline ) ) __STATIC_INLINE void __set_PSP(uint32_t topOfProcStack)
 163:Drivers/CMSIS/Include/cmsis_gcc.h **** {
 164:Drivers/CMSIS/Include/cmsis_gcc.h ****   __ASM volatile ("MSR psp, %0\n" : : "r" (topOfProcStack) : "sp");
 165:Drivers/CMSIS/Include/cmsis_gcc.h **** }
 166:Drivers/CMSIS/Include/cmsis_gcc.h **** 
 167:Drivers/CMSIS/Include/cmsis_gcc.h **** 
 168:Drivers/CMSIS/Include/cmsis_gcc.h **** /**
 169:Drivers/CMSIS/Include/cmsis_gcc.h ****   \brief   Get Main Stack Pointer
 170:Drivers/CMSIS/Include/cmsis_gcc.h ****   \details Returns the current value of the Main Stack Pointer (MSP).
 171:Drivers/CMSIS/Include/cmsis_gcc.h ****   \return               MSP Register value
 172:Drivers/CMSIS/Include/cmsis_gcc.h ****  */
 173:Drivers/CMSIS/Include/cmsis_gcc.h **** __attribute__( ( always_inline ) ) __STATIC_INLINE uint32_t __get_MSP(void)
 174:Drivers/CMSIS/Include/cmsis_gcc.h **** {
 175:Drivers/CMSIS/Include/cmsis_gcc.h ****   register uint32_t result;
 176:Drivers/CMSIS/Include/cmsis_gcc.h **** 
 177:Drivers/CMSIS/Include/cmsis_gcc.h ****   __ASM volatile ("MRS %0, msp\n" : "=r" (result) );
 178:Drivers/CMSIS/Include/cmsis_gcc.h ****   return(result);
 179:Drivers/CMSIS/Include/cmsis_gcc.h **** }
 180:Drivers/CMSIS/Include/cmsis_gcc.h **** 
 181:Drivers/CMSIS/Include/cmsis_gcc.h **** 
 182:Drivers/CMSIS/Include/cmsis_gcc.h **** /**
 183:Drivers/CMSIS/Include/cmsis_gcc.h ****   \brief   Set Main Stack Pointer
 184:Drivers/CMSIS/Include/cmsis_gcc.h ****   \details Assigns the given value to the Main Stack Pointer (MSP).
 185:Drivers/CMSIS/Include/cmsis_gcc.h **** 
ARM GAS  /tmp/ccd0mmyh.s 			page 14


 186:Drivers/CMSIS/Include/cmsis_gcc.h ****     \param [in]    topOfMainStack  Main Stack Pointer value to set
 187:Drivers/CMSIS/Include/cmsis_gcc.h ****  */
 188:Drivers/CMSIS/Include/cmsis_gcc.h **** __attribute__( ( always_inline ) ) __STATIC_INLINE void __set_MSP(uint32_t topOfMainStack)
 189:Drivers/CMSIS/Include/cmsis_gcc.h **** {
 190:Drivers/CMSIS/Include/cmsis_gcc.h ****   __ASM volatile ("MSR msp, %0\n" : : "r" (topOfMainStack) : "sp");
 191:Drivers/CMSIS/Include/cmsis_gcc.h **** }
 192:Drivers/CMSIS/Include/cmsis_gcc.h **** 
 193:Drivers/CMSIS/Include/cmsis_gcc.h **** 
 194:Drivers/CMSIS/Include/cmsis_gcc.h **** /**
 195:Drivers/CMSIS/Include/cmsis_gcc.h ****   \brief   Get Priority Mask
 196:Drivers/CMSIS/Include/cmsis_gcc.h ****   \details Returns the current state of the priority mask bit from the Priority Mask Register.
 197:Drivers/CMSIS/Include/cmsis_gcc.h ****   \return               Priority Mask value
 198:Drivers/CMSIS/Include/cmsis_gcc.h ****  */
 199:Drivers/CMSIS/Include/cmsis_gcc.h **** __attribute__( ( always_inline ) ) __STATIC_INLINE uint32_t __get_PRIMASK(void)
 200:Drivers/CMSIS/Include/cmsis_gcc.h **** {
 201:Drivers/CMSIS/Include/cmsis_gcc.h ****   uint32_t result;
 202:Drivers/CMSIS/Include/cmsis_gcc.h **** 
 203:Drivers/CMSIS/Include/cmsis_gcc.h ****   __ASM volatile ("MRS %0, primask" : "=r" (result) );
 204:Drivers/CMSIS/Include/cmsis_gcc.h ****   return(result);
 205:Drivers/CMSIS/Include/cmsis_gcc.h **** }
 206:Drivers/CMSIS/Include/cmsis_gcc.h **** 
 207:Drivers/CMSIS/Include/cmsis_gcc.h **** 
 208:Drivers/CMSIS/Include/cmsis_gcc.h **** /**
 209:Drivers/CMSIS/Include/cmsis_gcc.h ****   \brief   Set Priority Mask
 210:Drivers/CMSIS/Include/cmsis_gcc.h ****   \details Assigns the given value to the Priority Mask Register.
 211:Drivers/CMSIS/Include/cmsis_gcc.h ****   \param [in]    priMask  Priority Mask
 212:Drivers/CMSIS/Include/cmsis_gcc.h ****  */
 213:Drivers/CMSIS/Include/cmsis_gcc.h **** __attribute__( ( always_inline ) ) __STATIC_INLINE void __set_PRIMASK(uint32_t priMask)
 214:Drivers/CMSIS/Include/cmsis_gcc.h **** {
 215:Drivers/CMSIS/Include/cmsis_gcc.h ****   __ASM volatile ("MSR primask, %0" : : "r" (priMask) : "memory");
 216:Drivers/CMSIS/Include/cmsis_gcc.h **** }
 217:Drivers/CMSIS/Include/cmsis_gcc.h **** 
 218:Drivers/CMSIS/Include/cmsis_gcc.h **** 
 219:Drivers/CMSIS/Include/cmsis_gcc.h **** #if       (__CORTEX_M >= 0x03U)
 220:Drivers/CMSIS/Include/cmsis_gcc.h **** 
 221:Drivers/CMSIS/Include/cmsis_gcc.h **** /**
 222:Drivers/CMSIS/Include/cmsis_gcc.h ****   \brief   Enable FIQ
 223:Drivers/CMSIS/Include/cmsis_gcc.h ****   \details Enables FIQ interrupts by clearing the F-bit in the CPSR.
 224:Drivers/CMSIS/Include/cmsis_gcc.h ****            Can only be executed in Privileged modes.
 225:Drivers/CMSIS/Include/cmsis_gcc.h ****  */
 226:Drivers/CMSIS/Include/cmsis_gcc.h **** __attribute__( ( always_inline ) ) __STATIC_INLINE void __enable_fault_irq(void)
 227:Drivers/CMSIS/Include/cmsis_gcc.h **** {
 228:Drivers/CMSIS/Include/cmsis_gcc.h ****   __ASM volatile ("cpsie f" : : : "memory");
 229:Drivers/CMSIS/Include/cmsis_gcc.h **** }
 230:Drivers/CMSIS/Include/cmsis_gcc.h **** 
 231:Drivers/CMSIS/Include/cmsis_gcc.h **** 
 232:Drivers/CMSIS/Include/cmsis_gcc.h **** /**
 233:Drivers/CMSIS/Include/cmsis_gcc.h ****   \brief   Disable FIQ
 234:Drivers/CMSIS/Include/cmsis_gcc.h ****   \details Disables FIQ interrupts by setting the F-bit in the CPSR.
 235:Drivers/CMSIS/Include/cmsis_gcc.h ****            Can only be executed in Privileged modes.
 236:Drivers/CMSIS/Include/cmsis_gcc.h ****  */
 237:Drivers/CMSIS/Include/cmsis_gcc.h **** __attribute__( ( always_inline ) ) __STATIC_INLINE void __disable_fault_irq(void)
 238:Drivers/CMSIS/Include/cmsis_gcc.h **** {
 239:Drivers/CMSIS/Include/cmsis_gcc.h ****   __ASM volatile ("cpsid f" : : : "memory");
 240:Drivers/CMSIS/Include/cmsis_gcc.h **** }
 241:Drivers/CMSIS/Include/cmsis_gcc.h **** 
 242:Drivers/CMSIS/Include/cmsis_gcc.h **** 
ARM GAS  /tmp/ccd0mmyh.s 			page 15


 243:Drivers/CMSIS/Include/cmsis_gcc.h **** /**
 244:Drivers/CMSIS/Include/cmsis_gcc.h ****   \brief   Get Base Priority
 245:Drivers/CMSIS/Include/cmsis_gcc.h ****   \details Returns the current value of the Base Priority register.
 246:Drivers/CMSIS/Include/cmsis_gcc.h ****   \return               Base Priority register value
 247:Drivers/CMSIS/Include/cmsis_gcc.h ****  */
 248:Drivers/CMSIS/Include/cmsis_gcc.h **** __attribute__( ( always_inline ) ) __STATIC_INLINE uint32_t __get_BASEPRI(void)
 249:Drivers/CMSIS/Include/cmsis_gcc.h **** {
 250:Drivers/CMSIS/Include/cmsis_gcc.h ****   uint32_t result;
 251:Drivers/CMSIS/Include/cmsis_gcc.h **** 
 252:Drivers/CMSIS/Include/cmsis_gcc.h ****   __ASM volatile ("MRS %0, basepri" : "=r" (result) );
 253:Drivers/CMSIS/Include/cmsis_gcc.h ****   return(result);
 254:Drivers/CMSIS/Include/cmsis_gcc.h **** }
 255:Drivers/CMSIS/Include/cmsis_gcc.h **** 
 256:Drivers/CMSIS/Include/cmsis_gcc.h **** 
 257:Drivers/CMSIS/Include/cmsis_gcc.h **** /**
 258:Drivers/CMSIS/Include/cmsis_gcc.h ****   \brief   Set Base Priority
 259:Drivers/CMSIS/Include/cmsis_gcc.h ****   \details Assigns the given value to the Base Priority register.
 260:Drivers/CMSIS/Include/cmsis_gcc.h ****   \param [in]    basePri  Base Priority value to set
 261:Drivers/CMSIS/Include/cmsis_gcc.h ****  */
 262:Drivers/CMSIS/Include/cmsis_gcc.h **** __attribute__( ( always_inline ) ) __STATIC_INLINE void __set_BASEPRI(uint32_t value)
 263:Drivers/CMSIS/Include/cmsis_gcc.h **** {
 264:Drivers/CMSIS/Include/cmsis_gcc.h ****   __ASM volatile ("MSR basepri, %0" : : "r" (value) : "memory");
 265:Drivers/CMSIS/Include/cmsis_gcc.h **** }
 266:Drivers/CMSIS/Include/cmsis_gcc.h **** 
 267:Drivers/CMSIS/Include/cmsis_gcc.h **** 
 268:Drivers/CMSIS/Include/cmsis_gcc.h **** /**
 269:Drivers/CMSIS/Include/cmsis_gcc.h ****   \brief   Set Base Priority with condition
 270:Drivers/CMSIS/Include/cmsis_gcc.h ****   \details Assigns the given value to the Base Priority register only if BASEPRI masking is disable
 271:Drivers/CMSIS/Include/cmsis_gcc.h ****            or the new value increases the BASEPRI priority level.
 272:Drivers/CMSIS/Include/cmsis_gcc.h ****   \param [in]    basePri  Base Priority value to set
 273:Drivers/CMSIS/Include/cmsis_gcc.h ****  */
 274:Drivers/CMSIS/Include/cmsis_gcc.h **** __attribute__( ( always_inline ) ) __STATIC_INLINE void __set_BASEPRI_MAX(uint32_t value)
 275:Drivers/CMSIS/Include/cmsis_gcc.h **** {
 276:Drivers/CMSIS/Include/cmsis_gcc.h ****   __ASM volatile ("MSR basepri_max, %0" : : "r" (value) : "memory");
 277:Drivers/CMSIS/Include/cmsis_gcc.h **** }
 278:Drivers/CMSIS/Include/cmsis_gcc.h **** 
 279:Drivers/CMSIS/Include/cmsis_gcc.h **** 
 280:Drivers/CMSIS/Include/cmsis_gcc.h **** /**
 281:Drivers/CMSIS/Include/cmsis_gcc.h ****   \brief   Get Fault Mask
 282:Drivers/CMSIS/Include/cmsis_gcc.h ****   \details Returns the current value of the Fault Mask register.
 283:Drivers/CMSIS/Include/cmsis_gcc.h ****   \return               Fault Mask register value
 284:Drivers/CMSIS/Include/cmsis_gcc.h ****  */
 285:Drivers/CMSIS/Include/cmsis_gcc.h **** __attribute__( ( always_inline ) ) __STATIC_INLINE uint32_t __get_FAULTMASK(void)
 286:Drivers/CMSIS/Include/cmsis_gcc.h **** {
 287:Drivers/CMSIS/Include/cmsis_gcc.h ****   uint32_t result;
 288:Drivers/CMSIS/Include/cmsis_gcc.h **** 
 289:Drivers/CMSIS/Include/cmsis_gcc.h ****   __ASM volatile ("MRS %0, faultmask" : "=r" (result) );
 290:Drivers/CMSIS/Include/cmsis_gcc.h ****   return(result);
 291:Drivers/CMSIS/Include/cmsis_gcc.h **** }
 292:Drivers/CMSIS/Include/cmsis_gcc.h **** 
 293:Drivers/CMSIS/Include/cmsis_gcc.h **** 
 294:Drivers/CMSIS/Include/cmsis_gcc.h **** /**
 295:Drivers/CMSIS/Include/cmsis_gcc.h ****   \brief   Set Fault Mask
 296:Drivers/CMSIS/Include/cmsis_gcc.h ****   \details Assigns the given value to the Fault Mask register.
 297:Drivers/CMSIS/Include/cmsis_gcc.h ****   \param [in]    faultMask  Fault Mask value to set
 298:Drivers/CMSIS/Include/cmsis_gcc.h ****  */
 299:Drivers/CMSIS/Include/cmsis_gcc.h **** __attribute__( ( always_inline ) ) __STATIC_INLINE void __set_FAULTMASK(uint32_t faultMask)
ARM GAS  /tmp/ccd0mmyh.s 			page 16


 300:Drivers/CMSIS/Include/cmsis_gcc.h **** {
 301:Drivers/CMSIS/Include/cmsis_gcc.h ****   __ASM volatile ("MSR faultmask, %0" : : "r" (faultMask) : "memory");
 302:Drivers/CMSIS/Include/cmsis_gcc.h **** }
 303:Drivers/CMSIS/Include/cmsis_gcc.h **** 
 304:Drivers/CMSIS/Include/cmsis_gcc.h **** #endif /* (__CORTEX_M >= 0x03U) */
 305:Drivers/CMSIS/Include/cmsis_gcc.h **** 
 306:Drivers/CMSIS/Include/cmsis_gcc.h **** 
 307:Drivers/CMSIS/Include/cmsis_gcc.h **** #if       (__CORTEX_M == 0x04U) || (__CORTEX_M == 0x07U)
 308:Drivers/CMSIS/Include/cmsis_gcc.h **** 
 309:Drivers/CMSIS/Include/cmsis_gcc.h **** /**
 310:Drivers/CMSIS/Include/cmsis_gcc.h ****   \brief   Get FPSCR
 311:Drivers/CMSIS/Include/cmsis_gcc.h ****   \details Returns the current value of the Floating Point Status/Control register.
 312:Drivers/CMSIS/Include/cmsis_gcc.h ****   \return               Floating Point Status/Control register value
 313:Drivers/CMSIS/Include/cmsis_gcc.h ****  */
 314:Drivers/CMSIS/Include/cmsis_gcc.h **** __attribute__( ( always_inline ) ) __STATIC_INLINE uint32_t __get_FPSCR(void)
 315:Drivers/CMSIS/Include/cmsis_gcc.h **** {
 316:Drivers/CMSIS/Include/cmsis_gcc.h **** #if (__FPU_PRESENT == 1U) && (__FPU_USED == 1U)
 317:Drivers/CMSIS/Include/cmsis_gcc.h ****   uint32_t result;
 318:Drivers/CMSIS/Include/cmsis_gcc.h **** 
 319:Drivers/CMSIS/Include/cmsis_gcc.h ****   /* Empty asm statement works as a scheduling barrier */
 320:Drivers/CMSIS/Include/cmsis_gcc.h ****   __ASM volatile ("");
 321:Drivers/CMSIS/Include/cmsis_gcc.h ****   __ASM volatile ("VMRS %0, fpscr" : "=r" (result) );
 322:Drivers/CMSIS/Include/cmsis_gcc.h ****   __ASM volatile ("");
 323:Drivers/CMSIS/Include/cmsis_gcc.h ****   return(result);
 324:Drivers/CMSIS/Include/cmsis_gcc.h **** #else
 325:Drivers/CMSIS/Include/cmsis_gcc.h ****    return(0);
 326:Drivers/CMSIS/Include/cmsis_gcc.h **** #endif
 327:Drivers/CMSIS/Include/cmsis_gcc.h **** }
 328:Drivers/CMSIS/Include/cmsis_gcc.h **** 
 329:Drivers/CMSIS/Include/cmsis_gcc.h **** 
 330:Drivers/CMSIS/Include/cmsis_gcc.h **** /**
 331:Drivers/CMSIS/Include/cmsis_gcc.h ****   \brief   Set FPSCR
 332:Drivers/CMSIS/Include/cmsis_gcc.h ****   \details Assigns the given value to the Floating Point Status/Control register.
 333:Drivers/CMSIS/Include/cmsis_gcc.h ****   \param [in]    fpscr  Floating Point Status/Control value to set
 334:Drivers/CMSIS/Include/cmsis_gcc.h ****  */
 335:Drivers/CMSIS/Include/cmsis_gcc.h **** __attribute__( ( always_inline ) ) __STATIC_INLINE void __set_FPSCR(uint32_t fpscr)
 336:Drivers/CMSIS/Include/cmsis_gcc.h **** {
 337:Drivers/CMSIS/Include/cmsis_gcc.h **** #if (__FPU_PRESENT == 1U) && (__FPU_USED == 1U)
 338:Drivers/CMSIS/Include/cmsis_gcc.h ****   /* Empty asm statement works as a scheduling barrier */
 339:Drivers/CMSIS/Include/cmsis_gcc.h ****   __ASM volatile ("");
 340:Drivers/CMSIS/Include/cmsis_gcc.h ****   __ASM volatile ("VMSR fpscr, %0" : : "r" (fpscr) : "vfpcc");
 341:Drivers/CMSIS/Include/cmsis_gcc.h ****   __ASM volatile ("");
 342:Drivers/CMSIS/Include/cmsis_gcc.h **** #endif
 343:Drivers/CMSIS/Include/cmsis_gcc.h **** }
 344:Drivers/CMSIS/Include/cmsis_gcc.h **** 
 345:Drivers/CMSIS/Include/cmsis_gcc.h **** #endif /* (__CORTEX_M == 0x04U) || (__CORTEX_M == 0x07U) */
 346:Drivers/CMSIS/Include/cmsis_gcc.h **** 
 347:Drivers/CMSIS/Include/cmsis_gcc.h **** 
 348:Drivers/CMSIS/Include/cmsis_gcc.h **** 
 349:Drivers/CMSIS/Include/cmsis_gcc.h **** /*@} end of CMSIS_Core_RegAccFunctions */
 350:Drivers/CMSIS/Include/cmsis_gcc.h **** 
 351:Drivers/CMSIS/Include/cmsis_gcc.h **** 
 352:Drivers/CMSIS/Include/cmsis_gcc.h **** /* ##########################  Core Instruction Access  ######################### */
 353:Drivers/CMSIS/Include/cmsis_gcc.h **** /** \defgroup CMSIS_Core_InstructionInterface CMSIS Core Instruction Interface
 354:Drivers/CMSIS/Include/cmsis_gcc.h ****   Access to dedicated instructions
 355:Drivers/CMSIS/Include/cmsis_gcc.h ****   @{
 356:Drivers/CMSIS/Include/cmsis_gcc.h **** */
ARM GAS  /tmp/ccd0mmyh.s 			page 17


 357:Drivers/CMSIS/Include/cmsis_gcc.h **** 
 358:Drivers/CMSIS/Include/cmsis_gcc.h **** /* Define macros for porting to both thumb1 and thumb2.
 359:Drivers/CMSIS/Include/cmsis_gcc.h ****  * For thumb1, use low register (r0-r7), specified by constraint "l"
 360:Drivers/CMSIS/Include/cmsis_gcc.h ****  * Otherwise, use general registers, specified by constraint "r" */
 361:Drivers/CMSIS/Include/cmsis_gcc.h **** #if defined (__thumb__) && !defined (__thumb2__)
 362:Drivers/CMSIS/Include/cmsis_gcc.h **** #define __CMSIS_GCC_OUT_REG(r) "=l" (r)
 363:Drivers/CMSIS/Include/cmsis_gcc.h **** #define __CMSIS_GCC_USE_REG(r) "l" (r)
 364:Drivers/CMSIS/Include/cmsis_gcc.h **** #else
 365:Drivers/CMSIS/Include/cmsis_gcc.h **** #define __CMSIS_GCC_OUT_REG(r) "=r" (r)
 366:Drivers/CMSIS/Include/cmsis_gcc.h **** #define __CMSIS_GCC_USE_REG(r) "r" (r)
 367:Drivers/CMSIS/Include/cmsis_gcc.h **** #endif
 368:Drivers/CMSIS/Include/cmsis_gcc.h **** 
 369:Drivers/CMSIS/Include/cmsis_gcc.h **** /**
 370:Drivers/CMSIS/Include/cmsis_gcc.h ****   \brief   No Operation
 371:Drivers/CMSIS/Include/cmsis_gcc.h ****   \details No Operation does nothing. This instruction can be used for code alignment purposes.
 372:Drivers/CMSIS/Include/cmsis_gcc.h ****  */
 373:Drivers/CMSIS/Include/cmsis_gcc.h **** __attribute__((always_inline)) __STATIC_INLINE void __NOP(void)
 374:Drivers/CMSIS/Include/cmsis_gcc.h **** {
 375:Drivers/CMSIS/Include/cmsis_gcc.h ****   __ASM volatile ("nop");
 376:Drivers/CMSIS/Include/cmsis_gcc.h **** }
 377:Drivers/CMSIS/Include/cmsis_gcc.h **** 
 378:Drivers/CMSIS/Include/cmsis_gcc.h **** 
 379:Drivers/CMSIS/Include/cmsis_gcc.h **** /**
 380:Drivers/CMSIS/Include/cmsis_gcc.h ****   \brief   Wait For Interrupt
 381:Drivers/CMSIS/Include/cmsis_gcc.h ****   \details Wait For Interrupt is a hint instruction that suspends execution until one of a number o
 382:Drivers/CMSIS/Include/cmsis_gcc.h ****  */
 383:Drivers/CMSIS/Include/cmsis_gcc.h **** __attribute__((always_inline)) __STATIC_INLINE void __WFI(void)
 384:Drivers/CMSIS/Include/cmsis_gcc.h **** {
 385:Drivers/CMSIS/Include/cmsis_gcc.h ****   __ASM volatile ("wfi");
 386:Drivers/CMSIS/Include/cmsis_gcc.h **** }
 387:Drivers/CMSIS/Include/cmsis_gcc.h **** 
 388:Drivers/CMSIS/Include/cmsis_gcc.h **** 
 389:Drivers/CMSIS/Include/cmsis_gcc.h **** /**
 390:Drivers/CMSIS/Include/cmsis_gcc.h ****   \brief   Wait For Event
 391:Drivers/CMSIS/Include/cmsis_gcc.h ****   \details Wait For Event is a hint instruction that permits the processor to enter
 392:Drivers/CMSIS/Include/cmsis_gcc.h ****     a low-power state until one of a number of events occurs.
 393:Drivers/CMSIS/Include/cmsis_gcc.h ****  */
 394:Drivers/CMSIS/Include/cmsis_gcc.h **** __attribute__((always_inline)) __STATIC_INLINE void __WFE(void)
 395:Drivers/CMSIS/Include/cmsis_gcc.h **** {
 396:Drivers/CMSIS/Include/cmsis_gcc.h ****   __ASM volatile ("wfe");
 397:Drivers/CMSIS/Include/cmsis_gcc.h **** }
 398:Drivers/CMSIS/Include/cmsis_gcc.h **** 
 399:Drivers/CMSIS/Include/cmsis_gcc.h **** 
 400:Drivers/CMSIS/Include/cmsis_gcc.h **** /**
 401:Drivers/CMSIS/Include/cmsis_gcc.h ****   \brief   Send Event
 402:Drivers/CMSIS/Include/cmsis_gcc.h ****   \details Send Event is a hint instruction. It causes an event to be signaled to the CPU.
 403:Drivers/CMSIS/Include/cmsis_gcc.h ****  */
 404:Drivers/CMSIS/Include/cmsis_gcc.h **** __attribute__((always_inline)) __STATIC_INLINE void __SEV(void)
 405:Drivers/CMSIS/Include/cmsis_gcc.h **** {
 406:Drivers/CMSIS/Include/cmsis_gcc.h ****   __ASM volatile ("sev");
 407:Drivers/CMSIS/Include/cmsis_gcc.h **** }
 408:Drivers/CMSIS/Include/cmsis_gcc.h **** 
 409:Drivers/CMSIS/Include/cmsis_gcc.h **** 
 410:Drivers/CMSIS/Include/cmsis_gcc.h **** /**
 411:Drivers/CMSIS/Include/cmsis_gcc.h ****   \brief   Instruction Synchronization Barrier
 412:Drivers/CMSIS/Include/cmsis_gcc.h ****   \details Instruction Synchronization Barrier flushes the pipeline in the processor,
 413:Drivers/CMSIS/Include/cmsis_gcc.h ****            so that all instructions following the ISB are fetched from cache or memory,
ARM GAS  /tmp/ccd0mmyh.s 			page 18


 414:Drivers/CMSIS/Include/cmsis_gcc.h ****            after the instruction has been completed.
 415:Drivers/CMSIS/Include/cmsis_gcc.h ****  */
 416:Drivers/CMSIS/Include/cmsis_gcc.h **** __attribute__((always_inline)) __STATIC_INLINE void __ISB(void)
 417:Drivers/CMSIS/Include/cmsis_gcc.h **** {
 418:Drivers/CMSIS/Include/cmsis_gcc.h ****   __ASM volatile ("isb 0xF":::"memory");
 419:Drivers/CMSIS/Include/cmsis_gcc.h **** }
 420:Drivers/CMSIS/Include/cmsis_gcc.h **** 
 421:Drivers/CMSIS/Include/cmsis_gcc.h **** 
 422:Drivers/CMSIS/Include/cmsis_gcc.h **** /**
 423:Drivers/CMSIS/Include/cmsis_gcc.h ****   \brief   Data Synchronization Barrier
 424:Drivers/CMSIS/Include/cmsis_gcc.h ****   \details Acts as a special kind of Data Memory Barrier.
 425:Drivers/CMSIS/Include/cmsis_gcc.h ****            It completes when all explicit memory accesses before this instruction complete.
 426:Drivers/CMSIS/Include/cmsis_gcc.h ****  */
 427:Drivers/CMSIS/Include/cmsis_gcc.h **** __attribute__((always_inline)) __STATIC_INLINE void __DSB(void)
 428:Drivers/CMSIS/Include/cmsis_gcc.h **** {
 429:Drivers/CMSIS/Include/cmsis_gcc.h ****   __ASM volatile ("dsb 0xF":::"memory");
  77              		.loc 2 429 0
  78              	@ 429 "Drivers/CMSIS/Include/cmsis_gcc.h" 1
  79 0042 BFF34F8F 		dsb 0xF
  80              	@ 0 "" 2
  81              		.thumb
  82 0046 7047     		bx	lr
  83              	.L6:
  84              		.align	2
  85              	.L5:
  86 0048 003C0240 		.word	1073888256
  87              	.LBE7:
  88              	.LBE6:
  89              		.cfi_endproc
  90              	.LFE144:
  92              		.section	.text.FLASH_OB_GetWRP,"ax",%progbits
  93              		.align	2
  94              		.thumb
  95              		.thumb_func
  97              	FLASH_OB_GetWRP:
  98              	.LFB146:
 482:Drivers/STM32F7xx_HAL_Driver/Src/stm32f7xx_hal_flash_ex.c ****   /* Data synchronous Barrier (DSB) Just after the write operation
 483:Drivers/STM32F7xx_HAL_Driver/Src/stm32f7xx_hal_flash_ex.c ****      This will force the CPU to respect the sequence of instruction (no optimization).*/
 484:Drivers/STM32F7xx_HAL_Driver/Src/stm32f7xx_hal_flash_ex.c ****   __DSB();
 485:Drivers/STM32F7xx_HAL_Driver/Src/stm32f7xx_hal_flash_ex.c **** }
 486:Drivers/STM32F7xx_HAL_Driver/Src/stm32f7xx_hal_flash_ex.c **** 
 487:Drivers/STM32F7xx_HAL_Driver/Src/stm32f7xx_hal_flash_ex.c **** /**
 488:Drivers/STM32F7xx_HAL_Driver/Src/stm32f7xx_hal_flash_ex.c ****   * @brief  Erase the specified FLASH memory sector
 489:Drivers/STM32F7xx_HAL_Driver/Src/stm32f7xx_hal_flash_ex.c ****   * @param  Sector FLASH sector to erase
 490:Drivers/STM32F7xx_HAL_Driver/Src/stm32f7xx_hal_flash_ex.c ****   *         The value of this parameter depend on device used within the same series      
 491:Drivers/STM32F7xx_HAL_Driver/Src/stm32f7xx_hal_flash_ex.c ****   * @param  VoltageRange The device voltage range which defines the erase parallelism.  
 492:Drivers/STM32F7xx_HAL_Driver/Src/stm32f7xx_hal_flash_ex.c ****   *          This parameter can be one of the following values:
 493:Drivers/STM32F7xx_HAL_Driver/Src/stm32f7xx_hal_flash_ex.c ****   *            @arg FLASH_VOLTAGE_RANGE_1: when the device voltage range is 1.8V to 2.1V, 
 494:Drivers/STM32F7xx_HAL_Driver/Src/stm32f7xx_hal_flash_ex.c ****   *                                  the operation will be done by byte (8-bit) 
 495:Drivers/STM32F7xx_HAL_Driver/Src/stm32f7xx_hal_flash_ex.c ****   *            @arg FLASH_VOLTAGE_RANGE_2: when the device voltage range is 2.1V to 2.7V,
 496:Drivers/STM32F7xx_HAL_Driver/Src/stm32f7xx_hal_flash_ex.c ****   *                                  the operation will be done by half word (16-bit)
 497:Drivers/STM32F7xx_HAL_Driver/Src/stm32f7xx_hal_flash_ex.c ****   *            @arg FLASH_VOLTAGE_RANGE_3: when the device voltage range is 2.7V to 3.6V,
 498:Drivers/STM32F7xx_HAL_Driver/Src/stm32f7xx_hal_flash_ex.c ****   *                                  the operation will be done by word (32-bit)
 499:Drivers/STM32F7xx_HAL_Driver/Src/stm32f7xx_hal_flash_ex.c ****   *            @arg FLASH_VOLTAGE_RANGE_4: when the device voltage range is 2.7V to 3.6V + External
 500:Drivers/STM32F7xx_HAL_Driver/Src/stm32f7xx_hal_flash_ex.c ****   *                                  the operation will be done by double word (64-bit)
 501:Drivers/STM32F7xx_HAL_Driver/Src/stm32f7xx_hal_flash_ex.c ****   * 
 502:Drivers/STM32F7xx_HAL_Driver/Src/stm32f7xx_hal_flash_ex.c ****   * @retval None
ARM GAS  /tmp/ccd0mmyh.s 			page 19


 503:Drivers/STM32F7xx_HAL_Driver/Src/stm32f7xx_hal_flash_ex.c ****   */
 504:Drivers/STM32F7xx_HAL_Driver/Src/stm32f7xx_hal_flash_ex.c **** void FLASH_Erase_Sector(uint32_t Sector, uint8_t VoltageRange)
 505:Drivers/STM32F7xx_HAL_Driver/Src/stm32f7xx_hal_flash_ex.c **** {
 506:Drivers/STM32F7xx_HAL_Driver/Src/stm32f7xx_hal_flash_ex.c ****   uint32_t tmp_psize = 0;
 507:Drivers/STM32F7xx_HAL_Driver/Src/stm32f7xx_hal_flash_ex.c **** 
 508:Drivers/STM32F7xx_HAL_Driver/Src/stm32f7xx_hal_flash_ex.c ****   /* Check the parameters */
 509:Drivers/STM32F7xx_HAL_Driver/Src/stm32f7xx_hal_flash_ex.c ****   assert_param(IS_FLASH_SECTOR(Sector));
 510:Drivers/STM32F7xx_HAL_Driver/Src/stm32f7xx_hal_flash_ex.c ****   assert_param(IS_VOLTAGERANGE(VoltageRange));
 511:Drivers/STM32F7xx_HAL_Driver/Src/stm32f7xx_hal_flash_ex.c ****   
 512:Drivers/STM32F7xx_HAL_Driver/Src/stm32f7xx_hal_flash_ex.c ****   if(VoltageRange == FLASH_VOLTAGE_RANGE_1)
 513:Drivers/STM32F7xx_HAL_Driver/Src/stm32f7xx_hal_flash_ex.c ****   {
 514:Drivers/STM32F7xx_HAL_Driver/Src/stm32f7xx_hal_flash_ex.c ****      tmp_psize = FLASH_PSIZE_BYTE;
 515:Drivers/STM32F7xx_HAL_Driver/Src/stm32f7xx_hal_flash_ex.c ****   }
 516:Drivers/STM32F7xx_HAL_Driver/Src/stm32f7xx_hal_flash_ex.c ****   else if(VoltageRange == FLASH_VOLTAGE_RANGE_2)
 517:Drivers/STM32F7xx_HAL_Driver/Src/stm32f7xx_hal_flash_ex.c ****   {
 518:Drivers/STM32F7xx_HAL_Driver/Src/stm32f7xx_hal_flash_ex.c ****     tmp_psize = FLASH_PSIZE_HALF_WORD;
 519:Drivers/STM32F7xx_HAL_Driver/Src/stm32f7xx_hal_flash_ex.c ****   }
 520:Drivers/STM32F7xx_HAL_Driver/Src/stm32f7xx_hal_flash_ex.c ****   else if(VoltageRange == FLASH_VOLTAGE_RANGE_3)
 521:Drivers/STM32F7xx_HAL_Driver/Src/stm32f7xx_hal_flash_ex.c ****   {
 522:Drivers/STM32F7xx_HAL_Driver/Src/stm32f7xx_hal_flash_ex.c ****     tmp_psize = FLASH_PSIZE_WORD;
 523:Drivers/STM32F7xx_HAL_Driver/Src/stm32f7xx_hal_flash_ex.c ****   }
 524:Drivers/STM32F7xx_HAL_Driver/Src/stm32f7xx_hal_flash_ex.c ****   else
 525:Drivers/STM32F7xx_HAL_Driver/Src/stm32f7xx_hal_flash_ex.c ****   {
 526:Drivers/STM32F7xx_HAL_Driver/Src/stm32f7xx_hal_flash_ex.c ****     tmp_psize = FLASH_PSIZE_DOUBLE_WORD;
 527:Drivers/STM32F7xx_HAL_Driver/Src/stm32f7xx_hal_flash_ex.c ****   }
 528:Drivers/STM32F7xx_HAL_Driver/Src/stm32f7xx_hal_flash_ex.c ****   
 529:Drivers/STM32F7xx_HAL_Driver/Src/stm32f7xx_hal_flash_ex.c ****   /* Need to add offset of 4 when sector higher than FLASH_SECTOR_11 */
 530:Drivers/STM32F7xx_HAL_Driver/Src/stm32f7xx_hal_flash_ex.c ****   if(Sector > FLASH_SECTOR_11) 
 531:Drivers/STM32F7xx_HAL_Driver/Src/stm32f7xx_hal_flash_ex.c ****   {
 532:Drivers/STM32F7xx_HAL_Driver/Src/stm32f7xx_hal_flash_ex.c ****     Sector += 4;
 533:Drivers/STM32F7xx_HAL_Driver/Src/stm32f7xx_hal_flash_ex.c ****   }  
 534:Drivers/STM32F7xx_HAL_Driver/Src/stm32f7xx_hal_flash_ex.c **** 
 535:Drivers/STM32F7xx_HAL_Driver/Src/stm32f7xx_hal_flash_ex.c ****   /* If the previous operation is completed, proceed to erase the sector */
 536:Drivers/STM32F7xx_HAL_Driver/Src/stm32f7xx_hal_flash_ex.c ****   FLASH->CR &= CR_PSIZE_MASK;
 537:Drivers/STM32F7xx_HAL_Driver/Src/stm32f7xx_hal_flash_ex.c ****   FLASH->CR |= tmp_psize;
 538:Drivers/STM32F7xx_HAL_Driver/Src/stm32f7xx_hal_flash_ex.c ****   CLEAR_BIT(FLASH->CR, FLASH_CR_SNB);
 539:Drivers/STM32F7xx_HAL_Driver/Src/stm32f7xx_hal_flash_ex.c ****   FLASH->CR |= FLASH_CR_SER | (Sector << FLASH_CR_SNB_Pos);
 540:Drivers/STM32F7xx_HAL_Driver/Src/stm32f7xx_hal_flash_ex.c ****   FLASH->CR |= FLASH_CR_STRT;
 541:Drivers/STM32F7xx_HAL_Driver/Src/stm32f7xx_hal_flash_ex.c ****   
 542:Drivers/STM32F7xx_HAL_Driver/Src/stm32f7xx_hal_flash_ex.c ****   /* Data synchronous Barrier (DSB) Just after the write operation
 543:Drivers/STM32F7xx_HAL_Driver/Src/stm32f7xx_hal_flash_ex.c ****      This will force the CPU to respect the sequence of instruction (no optimization).*/
 544:Drivers/STM32F7xx_HAL_Driver/Src/stm32f7xx_hal_flash_ex.c ****   __DSB();
 545:Drivers/STM32F7xx_HAL_Driver/Src/stm32f7xx_hal_flash_ex.c **** }
 546:Drivers/STM32F7xx_HAL_Driver/Src/stm32f7xx_hal_flash_ex.c **** 
 547:Drivers/STM32F7xx_HAL_Driver/Src/stm32f7xx_hal_flash_ex.c **** /**
 548:Drivers/STM32F7xx_HAL_Driver/Src/stm32f7xx_hal_flash_ex.c ****   * @brief  Return the FLASH Write Protection Option Bytes value.
 549:Drivers/STM32F7xx_HAL_Driver/Src/stm32f7xx_hal_flash_ex.c ****   * @retval uint32_t FLASH Write Protection Option Bytes value
 550:Drivers/STM32F7xx_HAL_Driver/Src/stm32f7xx_hal_flash_ex.c ****   */
 551:Drivers/STM32F7xx_HAL_Driver/Src/stm32f7xx_hal_flash_ex.c **** static uint32_t FLASH_OB_GetWRP(void)
 552:Drivers/STM32F7xx_HAL_Driver/Src/stm32f7xx_hal_flash_ex.c **** {
  99              		.loc 1 552 0
 100              		.cfi_startproc
 101              		@ args = 0, pretend = 0, frame = 0
 102              		@ frame_needed = 0, uses_anonymous_args = 0
 103              		@ link register save eliminated.
 553:Drivers/STM32F7xx_HAL_Driver/Src/stm32f7xx_hal_flash_ex.c ****   /* Return the FLASH write protection Register value */
 554:Drivers/STM32F7xx_HAL_Driver/Src/stm32f7xx_hal_flash_ex.c ****   return ((uint32_t)(FLASH->OPTCR & 0x0FFF0000));
ARM GAS  /tmp/ccd0mmyh.s 			page 20


 104              		.loc 1 554 0
 105 0000 024B     		ldr	r3, .L8
 106 0002 5B69     		ldr	r3, [r3, #20]
 555:Drivers/STM32F7xx_HAL_Driver/Src/stm32f7xx_hal_flash_ex.c **** }
 107              		.loc 1 555 0
 108 0004 0248     		ldr	r0, .L8+4
 109 0006 1840     		ands	r0, r0, r3
 110 0008 7047     		bx	lr
 111              	.L9:
 112 000a 00BF     		.align	2
 113              	.L8:
 114 000c 003C0240 		.word	1073888256
 115 0010 0000FF0F 		.word	268369920
 116              		.cfi_endproc
 117              	.LFE146:
 119              		.section	.text.FLASH_OB_GetUser,"ax",%progbits
 120              		.align	2
 121              		.thumb
 122              		.thumb_func
 124              	FLASH_OB_GetUser:
 125              	.LFB148:
 556:Drivers/STM32F7xx_HAL_Driver/Src/stm32f7xx_hal_flash_ex.c **** 
 557:Drivers/STM32F7xx_HAL_Driver/Src/stm32f7xx_hal_flash_ex.c **** /**
 558:Drivers/STM32F7xx_HAL_Driver/Src/stm32f7xx_hal_flash_ex.c ****   * @brief  Program the FLASH User Option Byte: IWDG_SW / RST_STOP / RST_STDBY.    
 559:Drivers/STM32F7xx_HAL_Driver/Src/stm32f7xx_hal_flash_ex.c ****   * @param  Wwdg Selects the IWDG mode
 560:Drivers/STM32F7xx_HAL_Driver/Src/stm32f7xx_hal_flash_ex.c ****   *          This parameter can be one of the following values:
 561:Drivers/STM32F7xx_HAL_Driver/Src/stm32f7xx_hal_flash_ex.c ****   *            @arg OB_WWDG_SW: Software WWDG selected
 562:Drivers/STM32F7xx_HAL_Driver/Src/stm32f7xx_hal_flash_ex.c ****   *            @arg OB_WWDG_HW: Hardware WWDG selected
 563:Drivers/STM32F7xx_HAL_Driver/Src/stm32f7xx_hal_flash_ex.c ****   * @param  Iwdg Selects the WWDG mode
 564:Drivers/STM32F7xx_HAL_Driver/Src/stm32f7xx_hal_flash_ex.c ****   *          This parameter can be one of the following values:
 565:Drivers/STM32F7xx_HAL_Driver/Src/stm32f7xx_hal_flash_ex.c ****   *            @arg OB_IWDG_SW: Software IWDG selected
 566:Drivers/STM32F7xx_HAL_Driver/Src/stm32f7xx_hal_flash_ex.c ****   *            @arg OB_IWDG_HW: Hardware IWDG selected
 567:Drivers/STM32F7xx_HAL_Driver/Src/stm32f7xx_hal_flash_ex.c ****   * @param  Stop Reset event when entering STOP mode.
 568:Drivers/STM32F7xx_HAL_Driver/Src/stm32f7xx_hal_flash_ex.c ****   *          This parameter  can be one of the following values:
 569:Drivers/STM32F7xx_HAL_Driver/Src/stm32f7xx_hal_flash_ex.c ****   *            @arg OB_STOP_NO_RST: No reset generated when entering in STOP
 570:Drivers/STM32F7xx_HAL_Driver/Src/stm32f7xx_hal_flash_ex.c ****   *            @arg OB_STOP_RST: Reset generated when entering in STOP
 571:Drivers/STM32F7xx_HAL_Driver/Src/stm32f7xx_hal_flash_ex.c ****   * @param  Stdby Reset event when entering Standby mode.
 572:Drivers/STM32F7xx_HAL_Driver/Src/stm32f7xx_hal_flash_ex.c ****   *          This parameter  can be one of the following values:
 573:Drivers/STM32F7xx_HAL_Driver/Src/stm32f7xx_hal_flash_ex.c ****   *            @arg OB_STDBY_NO_RST: No reset generated when entering in STANDBY
 574:Drivers/STM32F7xx_HAL_Driver/Src/stm32f7xx_hal_flash_ex.c ****   *            @arg OB_STDBY_RST: Reset generated when entering in STANDBY
 575:Drivers/STM32F7xx_HAL_Driver/Src/stm32f7xx_hal_flash_ex.c ****   * @param  Iwdgstop Independent watchdog counter freeze in Stop mode.
 576:Drivers/STM32F7xx_HAL_Driver/Src/stm32f7xx_hal_flash_ex.c ****   *          This parameter  can be one of the following values:
 577:Drivers/STM32F7xx_HAL_Driver/Src/stm32f7xx_hal_flash_ex.c ****   *            @arg OB_IWDG_STOP_FREEZE: Freeze IWDG counter in STOP
 578:Drivers/STM32F7xx_HAL_Driver/Src/stm32f7xx_hal_flash_ex.c ****   *            @arg OB_IWDG_STOP_ACTIVE: IWDG counter active in STOP
 579:Drivers/STM32F7xx_HAL_Driver/Src/stm32f7xx_hal_flash_ex.c ****   * @param  Iwdgstdby Independent watchdog counter freeze in standby mode.
 580:Drivers/STM32F7xx_HAL_Driver/Src/stm32f7xx_hal_flash_ex.c ****   *          This parameter  can be one of the following values:
 581:Drivers/STM32F7xx_HAL_Driver/Src/stm32f7xx_hal_flash_ex.c ****   *            @arg OB_IWDG_STDBY_FREEZE: Freeze IWDG counter in STANDBY
 582:Drivers/STM32F7xx_HAL_Driver/Src/stm32f7xx_hal_flash_ex.c ****   *            @arg OB_IWDG_STDBY_ACTIVE: IWDG counter active in STANDBY
 583:Drivers/STM32F7xx_HAL_Driver/Src/stm32f7xx_hal_flash_ex.c ****   * @param  NDBank Flash Single Bank mode enabled.
 584:Drivers/STM32F7xx_HAL_Driver/Src/stm32f7xx_hal_flash_ex.c ****   *          This parameter  can be one of the following values:
 585:Drivers/STM32F7xx_HAL_Driver/Src/stm32f7xx_hal_flash_ex.c ****   *            @arg OB_NDBANK_SINGLE_BANK: enable 256 bits mode (Flash is a single bank)
 586:Drivers/STM32F7xx_HAL_Driver/Src/stm32f7xx_hal_flash_ex.c ****   *            @arg OB_NDBANK_DUAL_BANK: disable 256 bits mode (Flash is a dual bank in 128 bits mo
 587:Drivers/STM32F7xx_HAL_Driver/Src/stm32f7xx_hal_flash_ex.c ****   * @param  NDBoot Flash Dual boot mode disable.
 588:Drivers/STM32F7xx_HAL_Driver/Src/stm32f7xx_hal_flash_ex.c ****   *          This parameter  can be one of the following values:
 589:Drivers/STM32F7xx_HAL_Driver/Src/stm32f7xx_hal_flash_ex.c ****   *            @arg OB_DUAL_BOOT_DISABLE: Disable Dual Boot
 590:Drivers/STM32F7xx_HAL_Driver/Src/stm32f7xx_hal_flash_ex.c ****   *            @arg OB_DUAL_BOOT_ENABLE: Enable Dual Boot
 591:Drivers/STM32F7xx_HAL_Driver/Src/stm32f7xx_hal_flash_ex.c **** 
ARM GAS  /tmp/ccd0mmyh.s 			page 21


 592:Drivers/STM32F7xx_HAL_Driver/Src/stm32f7xx_hal_flash_ex.c ****   * @retval HAL Status
 593:Drivers/STM32F7xx_HAL_Driver/Src/stm32f7xx_hal_flash_ex.c ****   */
 594:Drivers/STM32F7xx_HAL_Driver/Src/stm32f7xx_hal_flash_ex.c **** static HAL_StatusTypeDef FLASH_OB_UserConfig(uint32_t Wwdg, uint32_t Iwdg, uint32_t Stop, uint32_t 
 595:Drivers/STM32F7xx_HAL_Driver/Src/stm32f7xx_hal_flash_ex.c ****                                              uint32_t Iwdgstdby, uint32_t NDBank, uint32_t NDBoot)
 596:Drivers/STM32F7xx_HAL_Driver/Src/stm32f7xx_hal_flash_ex.c **** {
 597:Drivers/STM32F7xx_HAL_Driver/Src/stm32f7xx_hal_flash_ex.c ****   uint32_t useroptionmask = 0x00;
 598:Drivers/STM32F7xx_HAL_Driver/Src/stm32f7xx_hal_flash_ex.c ****   uint32_t useroptionvalue = 0x00;
 599:Drivers/STM32F7xx_HAL_Driver/Src/stm32f7xx_hal_flash_ex.c **** 
 600:Drivers/STM32F7xx_HAL_Driver/Src/stm32f7xx_hal_flash_ex.c ****   HAL_StatusTypeDef status = HAL_OK;
 601:Drivers/STM32F7xx_HAL_Driver/Src/stm32f7xx_hal_flash_ex.c **** 
 602:Drivers/STM32F7xx_HAL_Driver/Src/stm32f7xx_hal_flash_ex.c ****   /* Check the parameters */
 603:Drivers/STM32F7xx_HAL_Driver/Src/stm32f7xx_hal_flash_ex.c ****   assert_param(IS_OB_WWDG_SOURCE(Wwdg));
 604:Drivers/STM32F7xx_HAL_Driver/Src/stm32f7xx_hal_flash_ex.c ****   assert_param(IS_OB_IWDG_SOURCE(Iwdg));
 605:Drivers/STM32F7xx_HAL_Driver/Src/stm32f7xx_hal_flash_ex.c ****   assert_param(IS_OB_STOP_SOURCE(Stop));
 606:Drivers/STM32F7xx_HAL_Driver/Src/stm32f7xx_hal_flash_ex.c ****   assert_param(IS_OB_STDBY_SOURCE(Stdby));
 607:Drivers/STM32F7xx_HAL_Driver/Src/stm32f7xx_hal_flash_ex.c ****   assert_param(IS_OB_IWDG_STOP_FREEZE(Iwdgstop));
 608:Drivers/STM32F7xx_HAL_Driver/Src/stm32f7xx_hal_flash_ex.c ****   assert_param(IS_OB_IWDG_STDBY_FREEZE(Iwdgstdby));
 609:Drivers/STM32F7xx_HAL_Driver/Src/stm32f7xx_hal_flash_ex.c ****   assert_param(IS_OB_NDBANK(NDBank));
 610:Drivers/STM32F7xx_HAL_Driver/Src/stm32f7xx_hal_flash_ex.c ****   assert_param(IS_OB_NDBOOT(NDBoot));
 611:Drivers/STM32F7xx_HAL_Driver/Src/stm32f7xx_hal_flash_ex.c ****   
 612:Drivers/STM32F7xx_HAL_Driver/Src/stm32f7xx_hal_flash_ex.c ****   /* Wait for last operation to be completed */
 613:Drivers/STM32F7xx_HAL_Driver/Src/stm32f7xx_hal_flash_ex.c ****   status = FLASH_WaitForLastOperation((uint32_t)FLASH_TIMEOUT_VALUE);
 614:Drivers/STM32F7xx_HAL_Driver/Src/stm32f7xx_hal_flash_ex.c ****   
 615:Drivers/STM32F7xx_HAL_Driver/Src/stm32f7xx_hal_flash_ex.c ****   if(status == HAL_OK)
 616:Drivers/STM32F7xx_HAL_Driver/Src/stm32f7xx_hal_flash_ex.c ****   {
 617:Drivers/STM32F7xx_HAL_Driver/Src/stm32f7xx_hal_flash_ex.c ****     useroptionmask = (FLASH_OPTCR_WWDG_SW | FLASH_OPTCR_IWDG_SW | FLASH_OPTCR_nRST_STOP | \
 618:Drivers/STM32F7xx_HAL_Driver/Src/stm32f7xx_hal_flash_ex.c ****                       FLASH_OPTCR_nRST_STDBY | FLASH_OPTCR_IWDG_STOP | FLASH_OPTCR_IWDG_STDBY | \
 619:Drivers/STM32F7xx_HAL_Driver/Src/stm32f7xx_hal_flash_ex.c ****                       FLASH_OPTCR_nDBOOT | FLASH_OPTCR_nDBANK);
 620:Drivers/STM32F7xx_HAL_Driver/Src/stm32f7xx_hal_flash_ex.c ****                       
 621:Drivers/STM32F7xx_HAL_Driver/Src/stm32f7xx_hal_flash_ex.c ****     useroptionvalue = (Iwdg | Wwdg | Stop | Stdby | Iwdgstop | Iwdgstdby | NDBoot | NDBank);
 622:Drivers/STM32F7xx_HAL_Driver/Src/stm32f7xx_hal_flash_ex.c ****         
 623:Drivers/STM32F7xx_HAL_Driver/Src/stm32f7xx_hal_flash_ex.c ****     /* Update User Option Byte */               
 624:Drivers/STM32F7xx_HAL_Driver/Src/stm32f7xx_hal_flash_ex.c ****     MODIFY_REG(FLASH->OPTCR, useroptionmask, useroptionvalue);
 625:Drivers/STM32F7xx_HAL_Driver/Src/stm32f7xx_hal_flash_ex.c ****   }
 626:Drivers/STM32F7xx_HAL_Driver/Src/stm32f7xx_hal_flash_ex.c ****   
 627:Drivers/STM32F7xx_HAL_Driver/Src/stm32f7xx_hal_flash_ex.c ****   return status; 
 628:Drivers/STM32F7xx_HAL_Driver/Src/stm32f7xx_hal_flash_ex.c **** }
 629:Drivers/STM32F7xx_HAL_Driver/Src/stm32f7xx_hal_flash_ex.c **** 
 630:Drivers/STM32F7xx_HAL_Driver/Src/stm32f7xx_hal_flash_ex.c **** /**
 631:Drivers/STM32F7xx_HAL_Driver/Src/stm32f7xx_hal_flash_ex.c ****   * @brief  Return the FLASH User Option Byte value.
 632:Drivers/STM32F7xx_HAL_Driver/Src/stm32f7xx_hal_flash_ex.c ****   * @retval uint32_t FLASH User Option Bytes values: WWDG_SW(Bit4), IWDG_SW(Bit5), nRST_STOP(Bit6),
 633:Drivers/STM32F7xx_HAL_Driver/Src/stm32f7xx_hal_flash_ex.c ****   *         nRST_STDBY(Bit7), nDBOOT(Bit28), nDBANK(Bit29), IWDG_STDBY(Bit30) and IWDG_STOP(Bit31).
 634:Drivers/STM32F7xx_HAL_Driver/Src/stm32f7xx_hal_flash_ex.c ****   */
 635:Drivers/STM32F7xx_HAL_Driver/Src/stm32f7xx_hal_flash_ex.c **** static uint32_t FLASH_OB_GetUser(void)
 636:Drivers/STM32F7xx_HAL_Driver/Src/stm32f7xx_hal_flash_ex.c **** {
 126              		.loc 1 636 0
 127              		.cfi_startproc
 128              		@ args = 0, pretend = 0, frame = 0
 129              		@ frame_needed = 0, uses_anonymous_args = 0
 130              		@ link register save eliminated.
 637:Drivers/STM32F7xx_HAL_Driver/Src/stm32f7xx_hal_flash_ex.c ****   /* Return the User Option Byte */
 638:Drivers/STM32F7xx_HAL_Driver/Src/stm32f7xx_hal_flash_ex.c ****   return ((uint32_t)(FLASH->OPTCR & 0xF00000F0U));
 131              		.loc 1 638 0
 132 0000 024B     		ldr	r3, .L11
 133 0002 5B69     		ldr	r3, [r3, #20]
 639:Drivers/STM32F7xx_HAL_Driver/Src/stm32f7xx_hal_flash_ex.c **** }
 134              		.loc 1 639 0
ARM GAS  /tmp/ccd0mmyh.s 			page 22


 135 0004 0248     		ldr	r0, .L11+4
 136 0006 1840     		ands	r0, r0, r3
 137 0008 7047     		bx	lr
 138              	.L12:
 139 000a 00BF     		.align	2
 140              	.L11:
 141 000c 003C0240 		.word	1073888256
 142 0010 F00000F0 		.word	-268435216
 143              		.cfi_endproc
 144              	.LFE148:
 146              		.section	.text.FLASH_OB_BOR_LevelConfig,"ax",%progbits
 147              		.align	2
 148              		.thumb
 149              		.thumb_func
 151              	FLASH_OB_BOR_LevelConfig:
 152              	.LFB152:
 640:Drivers/STM32F7xx_HAL_Driver/Src/stm32f7xx_hal_flash_ex.c **** #else
 641:Drivers/STM32F7xx_HAL_Driver/Src/stm32f7xx_hal_flash_ex.c **** 
 642:Drivers/STM32F7xx_HAL_Driver/Src/stm32f7xx_hal_flash_ex.c **** /**
 643:Drivers/STM32F7xx_HAL_Driver/Src/stm32f7xx_hal_flash_ex.c ****   * @brief  Full erase of FLASH memory sectors 
 644:Drivers/STM32F7xx_HAL_Driver/Src/stm32f7xx_hal_flash_ex.c ****   * @param  VoltageRange The device voltage range which defines the erase parallelism.  
 645:Drivers/STM32F7xx_HAL_Driver/Src/stm32f7xx_hal_flash_ex.c ****   *          This parameter can be one of the following values:
 646:Drivers/STM32F7xx_HAL_Driver/Src/stm32f7xx_hal_flash_ex.c ****   *            @arg VOLTAGE_RANGE_1: when the device voltage range is 1.8V to 2.1V, 
 647:Drivers/STM32F7xx_HAL_Driver/Src/stm32f7xx_hal_flash_ex.c ****   *                                  the operation will be done by byte (8-bit) 
 648:Drivers/STM32F7xx_HAL_Driver/Src/stm32f7xx_hal_flash_ex.c ****   *            @arg VOLTAGE_RANGE_2: when the device voltage range is 2.1V to 2.7V,
 649:Drivers/STM32F7xx_HAL_Driver/Src/stm32f7xx_hal_flash_ex.c ****   *                                  the operation will be done by half word (16-bit)
 650:Drivers/STM32F7xx_HAL_Driver/Src/stm32f7xx_hal_flash_ex.c ****   *            @arg VOLTAGE_RANGE_3: when the device voltage range is 2.7V to 3.6V,
 651:Drivers/STM32F7xx_HAL_Driver/Src/stm32f7xx_hal_flash_ex.c ****   *                                  the operation will be done by word (32-bit)
 652:Drivers/STM32F7xx_HAL_Driver/Src/stm32f7xx_hal_flash_ex.c ****   *            @arg VOLTAGE_RANGE_4: when the device voltage range is 2.7V to 3.6V + External Vpp, 
 653:Drivers/STM32F7xx_HAL_Driver/Src/stm32f7xx_hal_flash_ex.c ****   *                                  the operation will be done by double word (64-bit)
 654:Drivers/STM32F7xx_HAL_Driver/Src/stm32f7xx_hal_flash_ex.c ****   *
 655:Drivers/STM32F7xx_HAL_Driver/Src/stm32f7xx_hal_flash_ex.c ****   * @retval HAL Status
 656:Drivers/STM32F7xx_HAL_Driver/Src/stm32f7xx_hal_flash_ex.c ****   */
 657:Drivers/STM32F7xx_HAL_Driver/Src/stm32f7xx_hal_flash_ex.c **** static void FLASH_MassErase(uint8_t VoltageRange)
 658:Drivers/STM32F7xx_HAL_Driver/Src/stm32f7xx_hal_flash_ex.c **** {
 659:Drivers/STM32F7xx_HAL_Driver/Src/stm32f7xx_hal_flash_ex.c ****   /* Check the parameters */
 660:Drivers/STM32F7xx_HAL_Driver/Src/stm32f7xx_hal_flash_ex.c ****   assert_param(IS_VOLTAGERANGE(VoltageRange));
 661:Drivers/STM32F7xx_HAL_Driver/Src/stm32f7xx_hal_flash_ex.c **** 
 662:Drivers/STM32F7xx_HAL_Driver/Src/stm32f7xx_hal_flash_ex.c ****   /* if the previous operation is completed, proceed to erase all sectors */
 663:Drivers/STM32F7xx_HAL_Driver/Src/stm32f7xx_hal_flash_ex.c ****   FLASH->CR &= CR_PSIZE_MASK;
 664:Drivers/STM32F7xx_HAL_Driver/Src/stm32f7xx_hal_flash_ex.c ****   FLASH->CR |= FLASH_CR_MER;
 665:Drivers/STM32F7xx_HAL_Driver/Src/stm32f7xx_hal_flash_ex.c ****   FLASH->CR |= FLASH_CR_STRT | ((uint32_t)VoltageRange <<8);
 666:Drivers/STM32F7xx_HAL_Driver/Src/stm32f7xx_hal_flash_ex.c ****   /* Data synchronous Barrier (DSB) Just after the write operation
 667:Drivers/STM32F7xx_HAL_Driver/Src/stm32f7xx_hal_flash_ex.c ****      This will force the CPU to respect the sequence of instruction (no optimization).*/
 668:Drivers/STM32F7xx_HAL_Driver/Src/stm32f7xx_hal_flash_ex.c ****   __DSB();
 669:Drivers/STM32F7xx_HAL_Driver/Src/stm32f7xx_hal_flash_ex.c **** }
 670:Drivers/STM32F7xx_HAL_Driver/Src/stm32f7xx_hal_flash_ex.c **** 
 671:Drivers/STM32F7xx_HAL_Driver/Src/stm32f7xx_hal_flash_ex.c **** /**
 672:Drivers/STM32F7xx_HAL_Driver/Src/stm32f7xx_hal_flash_ex.c ****   * @brief  Erase the specified FLASH memory sector
 673:Drivers/STM32F7xx_HAL_Driver/Src/stm32f7xx_hal_flash_ex.c ****   * @param  Sector FLASH sector to erase
 674:Drivers/STM32F7xx_HAL_Driver/Src/stm32f7xx_hal_flash_ex.c ****   *         The value of this parameter depend on device used within the same series      
 675:Drivers/STM32F7xx_HAL_Driver/Src/stm32f7xx_hal_flash_ex.c ****   * @param  VoltageRange The device voltage range which defines the erase parallelism.  
 676:Drivers/STM32F7xx_HAL_Driver/Src/stm32f7xx_hal_flash_ex.c ****   *          This parameter can be one of the following values:
 677:Drivers/STM32F7xx_HAL_Driver/Src/stm32f7xx_hal_flash_ex.c ****   *            @arg FLASH_VOLTAGE_RANGE_1: when the device voltage range is 1.8V to 2.1V, 
 678:Drivers/STM32F7xx_HAL_Driver/Src/stm32f7xx_hal_flash_ex.c ****   *                                  the operation will be done by byte (8-bit) 
 679:Drivers/STM32F7xx_HAL_Driver/Src/stm32f7xx_hal_flash_ex.c ****   *            @arg FLASH_VOLTAGE_RANGE_2: when the device voltage range is 2.1V to 2.7V,
 680:Drivers/STM32F7xx_HAL_Driver/Src/stm32f7xx_hal_flash_ex.c ****   *                                  the operation will be done by half word (16-bit)
ARM GAS  /tmp/ccd0mmyh.s 			page 23


 681:Drivers/STM32F7xx_HAL_Driver/Src/stm32f7xx_hal_flash_ex.c ****   *            @arg FLASH_VOLTAGE_RANGE_3: when the device voltage range is 2.7V to 3.6V,
 682:Drivers/STM32F7xx_HAL_Driver/Src/stm32f7xx_hal_flash_ex.c ****   *                                  the operation will be done by word (32-bit)
 683:Drivers/STM32F7xx_HAL_Driver/Src/stm32f7xx_hal_flash_ex.c ****   *            @arg FLASH_VOLTAGE_RANGE_4: when the device voltage range is 2.7V to 3.6V + External
 684:Drivers/STM32F7xx_HAL_Driver/Src/stm32f7xx_hal_flash_ex.c ****   *                                  the operation will be done by double word (64-bit)
 685:Drivers/STM32F7xx_HAL_Driver/Src/stm32f7xx_hal_flash_ex.c ****   * 
 686:Drivers/STM32F7xx_HAL_Driver/Src/stm32f7xx_hal_flash_ex.c ****   * @retval None
 687:Drivers/STM32F7xx_HAL_Driver/Src/stm32f7xx_hal_flash_ex.c ****   */
 688:Drivers/STM32F7xx_HAL_Driver/Src/stm32f7xx_hal_flash_ex.c **** void FLASH_Erase_Sector(uint32_t Sector, uint8_t VoltageRange)
 689:Drivers/STM32F7xx_HAL_Driver/Src/stm32f7xx_hal_flash_ex.c **** {
 690:Drivers/STM32F7xx_HAL_Driver/Src/stm32f7xx_hal_flash_ex.c ****   uint32_t tmp_psize = 0;
 691:Drivers/STM32F7xx_HAL_Driver/Src/stm32f7xx_hal_flash_ex.c **** 
 692:Drivers/STM32F7xx_HAL_Driver/Src/stm32f7xx_hal_flash_ex.c ****   /* Check the parameters */
 693:Drivers/STM32F7xx_HAL_Driver/Src/stm32f7xx_hal_flash_ex.c ****   assert_param(IS_FLASH_SECTOR(Sector));
 694:Drivers/STM32F7xx_HAL_Driver/Src/stm32f7xx_hal_flash_ex.c ****   assert_param(IS_VOLTAGERANGE(VoltageRange));
 695:Drivers/STM32F7xx_HAL_Driver/Src/stm32f7xx_hal_flash_ex.c ****   
 696:Drivers/STM32F7xx_HAL_Driver/Src/stm32f7xx_hal_flash_ex.c ****   if(VoltageRange == FLASH_VOLTAGE_RANGE_1)
 697:Drivers/STM32F7xx_HAL_Driver/Src/stm32f7xx_hal_flash_ex.c ****   {
 698:Drivers/STM32F7xx_HAL_Driver/Src/stm32f7xx_hal_flash_ex.c ****      tmp_psize = FLASH_PSIZE_BYTE;
 699:Drivers/STM32F7xx_HAL_Driver/Src/stm32f7xx_hal_flash_ex.c ****   }
 700:Drivers/STM32F7xx_HAL_Driver/Src/stm32f7xx_hal_flash_ex.c ****   else if(VoltageRange == FLASH_VOLTAGE_RANGE_2)
 701:Drivers/STM32F7xx_HAL_Driver/Src/stm32f7xx_hal_flash_ex.c ****   {
 702:Drivers/STM32F7xx_HAL_Driver/Src/stm32f7xx_hal_flash_ex.c ****     tmp_psize = FLASH_PSIZE_HALF_WORD;
 703:Drivers/STM32F7xx_HAL_Driver/Src/stm32f7xx_hal_flash_ex.c ****   }
 704:Drivers/STM32F7xx_HAL_Driver/Src/stm32f7xx_hal_flash_ex.c ****   else if(VoltageRange == FLASH_VOLTAGE_RANGE_3)
 705:Drivers/STM32F7xx_HAL_Driver/Src/stm32f7xx_hal_flash_ex.c ****   {
 706:Drivers/STM32F7xx_HAL_Driver/Src/stm32f7xx_hal_flash_ex.c ****     tmp_psize = FLASH_PSIZE_WORD;
 707:Drivers/STM32F7xx_HAL_Driver/Src/stm32f7xx_hal_flash_ex.c ****   }
 708:Drivers/STM32F7xx_HAL_Driver/Src/stm32f7xx_hal_flash_ex.c ****   else
 709:Drivers/STM32F7xx_HAL_Driver/Src/stm32f7xx_hal_flash_ex.c ****   {
 710:Drivers/STM32F7xx_HAL_Driver/Src/stm32f7xx_hal_flash_ex.c ****     tmp_psize = FLASH_PSIZE_DOUBLE_WORD;
 711:Drivers/STM32F7xx_HAL_Driver/Src/stm32f7xx_hal_flash_ex.c ****   }
 712:Drivers/STM32F7xx_HAL_Driver/Src/stm32f7xx_hal_flash_ex.c **** 
 713:Drivers/STM32F7xx_HAL_Driver/Src/stm32f7xx_hal_flash_ex.c ****   /* If the previous operation is completed, proceed to erase the sector */
 714:Drivers/STM32F7xx_HAL_Driver/Src/stm32f7xx_hal_flash_ex.c ****   FLASH->CR &= CR_PSIZE_MASK;
 715:Drivers/STM32F7xx_HAL_Driver/Src/stm32f7xx_hal_flash_ex.c ****   FLASH->CR |= tmp_psize;
 716:Drivers/STM32F7xx_HAL_Driver/Src/stm32f7xx_hal_flash_ex.c ****   FLASH->CR &= SECTOR_MASK;
 717:Drivers/STM32F7xx_HAL_Driver/Src/stm32f7xx_hal_flash_ex.c ****   FLASH->CR |= FLASH_CR_SER | (Sector << FLASH_CR_SNB_Pos);
 718:Drivers/STM32F7xx_HAL_Driver/Src/stm32f7xx_hal_flash_ex.c ****   FLASH->CR |= FLASH_CR_STRT;
 719:Drivers/STM32F7xx_HAL_Driver/Src/stm32f7xx_hal_flash_ex.c ****   
 720:Drivers/STM32F7xx_HAL_Driver/Src/stm32f7xx_hal_flash_ex.c ****   /* Data synchronous Barrier (DSB) Just after the write operation
 721:Drivers/STM32F7xx_HAL_Driver/Src/stm32f7xx_hal_flash_ex.c ****      This will force the CPU to respect the sequence of instruction (no optimization).*/
 722:Drivers/STM32F7xx_HAL_Driver/Src/stm32f7xx_hal_flash_ex.c ****   __DSB();
 723:Drivers/STM32F7xx_HAL_Driver/Src/stm32f7xx_hal_flash_ex.c **** }
 724:Drivers/STM32F7xx_HAL_Driver/Src/stm32f7xx_hal_flash_ex.c **** 
 725:Drivers/STM32F7xx_HAL_Driver/Src/stm32f7xx_hal_flash_ex.c **** /**
 726:Drivers/STM32F7xx_HAL_Driver/Src/stm32f7xx_hal_flash_ex.c ****   * @brief  Return the FLASH Write Protection Option Bytes value.
 727:Drivers/STM32F7xx_HAL_Driver/Src/stm32f7xx_hal_flash_ex.c ****   * @retval uint32_t FLASH Write Protection Option Bytes value
 728:Drivers/STM32F7xx_HAL_Driver/Src/stm32f7xx_hal_flash_ex.c ****   */
 729:Drivers/STM32F7xx_HAL_Driver/Src/stm32f7xx_hal_flash_ex.c **** static uint32_t FLASH_OB_GetWRP(void)
 730:Drivers/STM32F7xx_HAL_Driver/Src/stm32f7xx_hal_flash_ex.c **** {
 731:Drivers/STM32F7xx_HAL_Driver/Src/stm32f7xx_hal_flash_ex.c ****   /* Return the FLASH write protection Register value */
 732:Drivers/STM32F7xx_HAL_Driver/Src/stm32f7xx_hal_flash_ex.c ****   return ((uint32_t)(FLASH->OPTCR & 0x00FF0000));
 733:Drivers/STM32F7xx_HAL_Driver/Src/stm32f7xx_hal_flash_ex.c **** }
 734:Drivers/STM32F7xx_HAL_Driver/Src/stm32f7xx_hal_flash_ex.c **** 
 735:Drivers/STM32F7xx_HAL_Driver/Src/stm32f7xx_hal_flash_ex.c **** /**
 736:Drivers/STM32F7xx_HAL_Driver/Src/stm32f7xx_hal_flash_ex.c ****   * @brief  Program the FLASH User Option Byte: IWDG_SW / RST_STOP / RST_STDBY.    
 737:Drivers/STM32F7xx_HAL_Driver/Src/stm32f7xx_hal_flash_ex.c ****   * @param  Wwdg Selects the IWDG mode
ARM GAS  /tmp/ccd0mmyh.s 			page 24


 738:Drivers/STM32F7xx_HAL_Driver/Src/stm32f7xx_hal_flash_ex.c ****   *          This parameter can be one of the following values:
 739:Drivers/STM32F7xx_HAL_Driver/Src/stm32f7xx_hal_flash_ex.c ****   *            @arg OB_WWDG_SW: Software WWDG selected
 740:Drivers/STM32F7xx_HAL_Driver/Src/stm32f7xx_hal_flash_ex.c ****   *            @arg OB_WWDG_HW: Hardware WWDG selected
 741:Drivers/STM32F7xx_HAL_Driver/Src/stm32f7xx_hal_flash_ex.c ****   * @param  Iwdg Selects the WWDG mode
 742:Drivers/STM32F7xx_HAL_Driver/Src/stm32f7xx_hal_flash_ex.c ****   *          This parameter can be one of the following values:
 743:Drivers/STM32F7xx_HAL_Driver/Src/stm32f7xx_hal_flash_ex.c ****   *            @arg OB_IWDG_SW: Software IWDG selected
 744:Drivers/STM32F7xx_HAL_Driver/Src/stm32f7xx_hal_flash_ex.c ****   *            @arg OB_IWDG_HW: Hardware IWDG selected
 745:Drivers/STM32F7xx_HAL_Driver/Src/stm32f7xx_hal_flash_ex.c ****   * @param  Stop Reset event when entering STOP mode.
 746:Drivers/STM32F7xx_HAL_Driver/Src/stm32f7xx_hal_flash_ex.c ****   *          This parameter  can be one of the following values:
 747:Drivers/STM32F7xx_HAL_Driver/Src/stm32f7xx_hal_flash_ex.c ****   *            @arg OB_STOP_NO_RST: No reset generated when entering in STOP
 748:Drivers/STM32F7xx_HAL_Driver/Src/stm32f7xx_hal_flash_ex.c ****   *            @arg OB_STOP_RST: Reset generated when entering in STOP
 749:Drivers/STM32F7xx_HAL_Driver/Src/stm32f7xx_hal_flash_ex.c ****   * @param  Stdby Reset event when entering Standby mode.
 750:Drivers/STM32F7xx_HAL_Driver/Src/stm32f7xx_hal_flash_ex.c ****   *          This parameter  can be one of the following values:
 751:Drivers/STM32F7xx_HAL_Driver/Src/stm32f7xx_hal_flash_ex.c ****   *            @arg OB_STDBY_NO_RST: No reset generated when entering in STANDBY
 752:Drivers/STM32F7xx_HAL_Driver/Src/stm32f7xx_hal_flash_ex.c ****   *            @arg OB_STDBY_RST: Reset generated when entering in STANDBY
 753:Drivers/STM32F7xx_HAL_Driver/Src/stm32f7xx_hal_flash_ex.c ****   * @param  Iwdgstop Independent watchdog counter freeze in Stop mode.
 754:Drivers/STM32F7xx_HAL_Driver/Src/stm32f7xx_hal_flash_ex.c ****   *          This parameter  can be one of the following values:
 755:Drivers/STM32F7xx_HAL_Driver/Src/stm32f7xx_hal_flash_ex.c ****   *            @arg OB_IWDG_STOP_FREEZE: Freeze IWDG counter in STOP
 756:Drivers/STM32F7xx_HAL_Driver/Src/stm32f7xx_hal_flash_ex.c ****   *            @arg OB_IWDG_STOP_ACTIVE: IWDG counter active in STOP
 757:Drivers/STM32F7xx_HAL_Driver/Src/stm32f7xx_hal_flash_ex.c ****   * @param  Iwdgstdby Independent watchdog counter freeze in standby mode.
 758:Drivers/STM32F7xx_HAL_Driver/Src/stm32f7xx_hal_flash_ex.c ****   *          This parameter  can be one of the following values:
 759:Drivers/STM32F7xx_HAL_Driver/Src/stm32f7xx_hal_flash_ex.c ****   *            @arg OB_IWDG_STDBY_FREEZE: Freeze IWDG counter in STANDBY
 760:Drivers/STM32F7xx_HAL_Driver/Src/stm32f7xx_hal_flash_ex.c ****   *            @arg OB_IWDG_STDBY_ACTIVE: IWDG counter active in STANDBY           
 761:Drivers/STM32F7xx_HAL_Driver/Src/stm32f7xx_hal_flash_ex.c ****   * @retval HAL Status
 762:Drivers/STM32F7xx_HAL_Driver/Src/stm32f7xx_hal_flash_ex.c ****   */
 763:Drivers/STM32F7xx_HAL_Driver/Src/stm32f7xx_hal_flash_ex.c **** static HAL_StatusTypeDef FLASH_OB_UserConfig(uint32_t Wwdg, uint32_t Iwdg, uint32_t Stop, uint32_t 
 764:Drivers/STM32F7xx_HAL_Driver/Src/stm32f7xx_hal_flash_ex.c **** {
 765:Drivers/STM32F7xx_HAL_Driver/Src/stm32f7xx_hal_flash_ex.c ****   uint32_t useroptionmask = 0x00;
 766:Drivers/STM32F7xx_HAL_Driver/Src/stm32f7xx_hal_flash_ex.c ****   uint32_t useroptionvalue = 0x00;
 767:Drivers/STM32F7xx_HAL_Driver/Src/stm32f7xx_hal_flash_ex.c **** 
 768:Drivers/STM32F7xx_HAL_Driver/Src/stm32f7xx_hal_flash_ex.c ****   HAL_StatusTypeDef status = HAL_OK;
 769:Drivers/STM32F7xx_HAL_Driver/Src/stm32f7xx_hal_flash_ex.c **** 
 770:Drivers/STM32F7xx_HAL_Driver/Src/stm32f7xx_hal_flash_ex.c ****   /* Check the parameters */
 771:Drivers/STM32F7xx_HAL_Driver/Src/stm32f7xx_hal_flash_ex.c ****   assert_param(IS_OB_WWDG_SOURCE(Wwdg));
 772:Drivers/STM32F7xx_HAL_Driver/Src/stm32f7xx_hal_flash_ex.c ****   assert_param(IS_OB_IWDG_SOURCE(Iwdg));
 773:Drivers/STM32F7xx_HAL_Driver/Src/stm32f7xx_hal_flash_ex.c ****   assert_param(IS_OB_STOP_SOURCE(Stop));
 774:Drivers/STM32F7xx_HAL_Driver/Src/stm32f7xx_hal_flash_ex.c ****   assert_param(IS_OB_STDBY_SOURCE(Stdby));
 775:Drivers/STM32F7xx_HAL_Driver/Src/stm32f7xx_hal_flash_ex.c ****   assert_param(IS_OB_IWDG_STOP_FREEZE(Iwdgstop));
 776:Drivers/STM32F7xx_HAL_Driver/Src/stm32f7xx_hal_flash_ex.c ****   assert_param(IS_OB_IWDG_STDBY_FREEZE(Iwdgstdby));
 777:Drivers/STM32F7xx_HAL_Driver/Src/stm32f7xx_hal_flash_ex.c **** 
 778:Drivers/STM32F7xx_HAL_Driver/Src/stm32f7xx_hal_flash_ex.c ****   /* Wait for last operation to be completed */
 779:Drivers/STM32F7xx_HAL_Driver/Src/stm32f7xx_hal_flash_ex.c ****   status = FLASH_WaitForLastOperation((uint32_t)FLASH_TIMEOUT_VALUE);
 780:Drivers/STM32F7xx_HAL_Driver/Src/stm32f7xx_hal_flash_ex.c ****   
 781:Drivers/STM32F7xx_HAL_Driver/Src/stm32f7xx_hal_flash_ex.c ****   if(status == HAL_OK)
 782:Drivers/STM32F7xx_HAL_Driver/Src/stm32f7xx_hal_flash_ex.c ****   {
 783:Drivers/STM32F7xx_HAL_Driver/Src/stm32f7xx_hal_flash_ex.c ****     useroptionmask = (FLASH_OPTCR_WWDG_SW | FLASH_OPTCR_IWDG_SW | FLASH_OPTCR_nRST_STOP | \
 784:Drivers/STM32F7xx_HAL_Driver/Src/stm32f7xx_hal_flash_ex.c ****                       FLASH_OPTCR_nRST_STDBY | FLASH_OPTCR_IWDG_STOP | FLASH_OPTCR_IWDG_STDBY);
 785:Drivers/STM32F7xx_HAL_Driver/Src/stm32f7xx_hal_flash_ex.c ****                       
 786:Drivers/STM32F7xx_HAL_Driver/Src/stm32f7xx_hal_flash_ex.c ****     useroptionvalue = (Iwdg | Wwdg | Stop | Stdby | Iwdgstop | Iwdgstdby);
 787:Drivers/STM32F7xx_HAL_Driver/Src/stm32f7xx_hal_flash_ex.c ****         
 788:Drivers/STM32F7xx_HAL_Driver/Src/stm32f7xx_hal_flash_ex.c ****     /* Update User Option Byte */               
 789:Drivers/STM32F7xx_HAL_Driver/Src/stm32f7xx_hal_flash_ex.c ****     MODIFY_REG(FLASH->OPTCR, useroptionmask, useroptionvalue);
 790:Drivers/STM32F7xx_HAL_Driver/Src/stm32f7xx_hal_flash_ex.c ****   }
 791:Drivers/STM32F7xx_HAL_Driver/Src/stm32f7xx_hal_flash_ex.c ****   
 792:Drivers/STM32F7xx_HAL_Driver/Src/stm32f7xx_hal_flash_ex.c ****   return status; 
 793:Drivers/STM32F7xx_HAL_Driver/Src/stm32f7xx_hal_flash_ex.c **** 
 794:Drivers/STM32F7xx_HAL_Driver/Src/stm32f7xx_hal_flash_ex.c **** }
ARM GAS  /tmp/ccd0mmyh.s 			page 25


 795:Drivers/STM32F7xx_HAL_Driver/Src/stm32f7xx_hal_flash_ex.c **** 
 796:Drivers/STM32F7xx_HAL_Driver/Src/stm32f7xx_hal_flash_ex.c **** /**
 797:Drivers/STM32F7xx_HAL_Driver/Src/stm32f7xx_hal_flash_ex.c ****   * @brief  Return the FLASH User Option Byte value.
 798:Drivers/STM32F7xx_HAL_Driver/Src/stm32f7xx_hal_flash_ex.c ****   * @retval uint32_t FLASH User Option Bytes values: WWDG_SW(Bit4), IWDG_SW(Bit5), nRST_STOP(Bit6),
 799:Drivers/STM32F7xx_HAL_Driver/Src/stm32f7xx_hal_flash_ex.c ****   *         nRST_STDBY(Bit7), IWDG_STDBY(Bit30) and IWDG_STOP(Bit31).
 800:Drivers/STM32F7xx_HAL_Driver/Src/stm32f7xx_hal_flash_ex.c ****   */
 801:Drivers/STM32F7xx_HAL_Driver/Src/stm32f7xx_hal_flash_ex.c **** static uint32_t FLASH_OB_GetUser(void)
 802:Drivers/STM32F7xx_HAL_Driver/Src/stm32f7xx_hal_flash_ex.c **** {
 803:Drivers/STM32F7xx_HAL_Driver/Src/stm32f7xx_hal_flash_ex.c ****   /* Return the User Option Byte */
 804:Drivers/STM32F7xx_HAL_Driver/Src/stm32f7xx_hal_flash_ex.c ****   return ((uint32_t)(FLASH->OPTCR & 0xC00000F0U));
 805:Drivers/STM32F7xx_HAL_Driver/Src/stm32f7xx_hal_flash_ex.c **** }
 806:Drivers/STM32F7xx_HAL_Driver/Src/stm32f7xx_hal_flash_ex.c **** #endif /* FLASH_OPTCR_nDBANK */
 807:Drivers/STM32F7xx_HAL_Driver/Src/stm32f7xx_hal_flash_ex.c **** 
 808:Drivers/STM32F7xx_HAL_Driver/Src/stm32f7xx_hal_flash_ex.c **** /**
 809:Drivers/STM32F7xx_HAL_Driver/Src/stm32f7xx_hal_flash_ex.c ****   * @brief  Enable the write protection of the desired bank1 or bank2 sectors
 810:Drivers/STM32F7xx_HAL_Driver/Src/stm32f7xx_hal_flash_ex.c ****   *
 811:Drivers/STM32F7xx_HAL_Driver/Src/stm32f7xx_hal_flash_ex.c ****   * @note   When the memory read protection level is selected (RDP level = 1), 
 812:Drivers/STM32F7xx_HAL_Driver/Src/stm32f7xx_hal_flash_ex.c ****   *         it is not possible to program or erase the flash sector i if CortexM7  
 813:Drivers/STM32F7xx_HAL_Driver/Src/stm32f7xx_hal_flash_ex.c ****   *         debug features are connected or boot code is executed in RAM, even if nWRPi = 1    
 814:Drivers/STM32F7xx_HAL_Driver/Src/stm32f7xx_hal_flash_ex.c ****   * 
 815:Drivers/STM32F7xx_HAL_Driver/Src/stm32f7xx_hal_flash_ex.c ****   * @param  WRPSector specifies the sector(s) to be write protected.
 816:Drivers/STM32F7xx_HAL_Driver/Src/stm32f7xx_hal_flash_ex.c ****   *          This parameter can be one of the following values:
 817:Drivers/STM32F7xx_HAL_Driver/Src/stm32f7xx_hal_flash_ex.c ****   *            @arg WRPSector: A value between OB_WRP_SECTOR_0 and OB_WRP_SECTOR_7 (for STM32F74xxx
 818:Drivers/STM32F7xx_HAL_Driver/Src/stm32f7xx_hal_flash_ex.c ****   *              or a value between OB_WRP_SECTOR_0 and OB_WRP_SECTOR_11 (in Single Bank mode for S
 819:Drivers/STM32F7xx_HAL_Driver/Src/stm32f7xx_hal_flash_ex.c ****   *              or a value between OB_WRP_DB_SECTOR_0 and OB_WRP_DB_SECTOR_23 (in Dual Bank mode f
 820:Drivers/STM32F7xx_HAL_Driver/Src/stm32f7xx_hal_flash_ex.c ****   *            @arg OB_WRP_SECTOR_All
 821:Drivers/STM32F7xx_HAL_Driver/Src/stm32f7xx_hal_flash_ex.c ****   *
 822:Drivers/STM32F7xx_HAL_Driver/Src/stm32f7xx_hal_flash_ex.c ****   * @retval HAL FLASH State   
 823:Drivers/STM32F7xx_HAL_Driver/Src/stm32f7xx_hal_flash_ex.c ****   */
 824:Drivers/STM32F7xx_HAL_Driver/Src/stm32f7xx_hal_flash_ex.c **** static HAL_StatusTypeDef FLASH_OB_EnableWRP(uint32_t WRPSector)
 825:Drivers/STM32F7xx_HAL_Driver/Src/stm32f7xx_hal_flash_ex.c **** {
 826:Drivers/STM32F7xx_HAL_Driver/Src/stm32f7xx_hal_flash_ex.c ****   HAL_StatusTypeDef status = HAL_OK;
 827:Drivers/STM32F7xx_HAL_Driver/Src/stm32f7xx_hal_flash_ex.c ****   
 828:Drivers/STM32F7xx_HAL_Driver/Src/stm32f7xx_hal_flash_ex.c ****   /* Check the parameters */
 829:Drivers/STM32F7xx_HAL_Driver/Src/stm32f7xx_hal_flash_ex.c ****   assert_param(IS_OB_WRP_SECTOR(WRPSector));
 830:Drivers/STM32F7xx_HAL_Driver/Src/stm32f7xx_hal_flash_ex.c ****     
 831:Drivers/STM32F7xx_HAL_Driver/Src/stm32f7xx_hal_flash_ex.c ****   /* Wait for last operation to be completed */
 832:Drivers/STM32F7xx_HAL_Driver/Src/stm32f7xx_hal_flash_ex.c ****   status = FLASH_WaitForLastOperation((uint32_t)FLASH_TIMEOUT_VALUE);
 833:Drivers/STM32F7xx_HAL_Driver/Src/stm32f7xx_hal_flash_ex.c **** 
 834:Drivers/STM32F7xx_HAL_Driver/Src/stm32f7xx_hal_flash_ex.c ****   if(status == HAL_OK)
 835:Drivers/STM32F7xx_HAL_Driver/Src/stm32f7xx_hal_flash_ex.c ****   {
 836:Drivers/STM32F7xx_HAL_Driver/Src/stm32f7xx_hal_flash_ex.c ****     /*Write protection enabled on sectors */
 837:Drivers/STM32F7xx_HAL_Driver/Src/stm32f7xx_hal_flash_ex.c ****     FLASH->OPTCR &= (~WRPSector);  
 838:Drivers/STM32F7xx_HAL_Driver/Src/stm32f7xx_hal_flash_ex.c ****   }
 839:Drivers/STM32F7xx_HAL_Driver/Src/stm32f7xx_hal_flash_ex.c ****   
 840:Drivers/STM32F7xx_HAL_Driver/Src/stm32f7xx_hal_flash_ex.c ****   return status;
 841:Drivers/STM32F7xx_HAL_Driver/Src/stm32f7xx_hal_flash_ex.c **** }
 842:Drivers/STM32F7xx_HAL_Driver/Src/stm32f7xx_hal_flash_ex.c **** 
 843:Drivers/STM32F7xx_HAL_Driver/Src/stm32f7xx_hal_flash_ex.c **** /**
 844:Drivers/STM32F7xx_HAL_Driver/Src/stm32f7xx_hal_flash_ex.c ****   * @brief  Disable the write protection of the desired bank1 or bank 2 sectors
 845:Drivers/STM32F7xx_HAL_Driver/Src/stm32f7xx_hal_flash_ex.c ****   *
 846:Drivers/STM32F7xx_HAL_Driver/Src/stm32f7xx_hal_flash_ex.c ****   * @note   When the memory read protection level is selected (RDP level = 1), 
 847:Drivers/STM32F7xx_HAL_Driver/Src/stm32f7xx_hal_flash_ex.c ****   *         it is not possible to program or erase the flash sector i if CortexM4  
 848:Drivers/STM32F7xx_HAL_Driver/Src/stm32f7xx_hal_flash_ex.c ****   *         debug features are connected or boot code is executed in RAM, even if nWRPi = 1  
 849:Drivers/STM32F7xx_HAL_Driver/Src/stm32f7xx_hal_flash_ex.c ****   * 
 850:Drivers/STM32F7xx_HAL_Driver/Src/stm32f7xx_hal_flash_ex.c ****   * @param  WRPSector specifies the sector(s) to be write protected.
 851:Drivers/STM32F7xx_HAL_Driver/Src/stm32f7xx_hal_flash_ex.c ****   *          This parameter can be one of the following values:
ARM GAS  /tmp/ccd0mmyh.s 			page 26


 852:Drivers/STM32F7xx_HAL_Driver/Src/stm32f7xx_hal_flash_ex.c ****   *            @arg WRPSector: A value between OB_WRP_SECTOR_0 and OB_WRP_SECTOR_7 (for STM32F74xxx
 853:Drivers/STM32F7xx_HAL_Driver/Src/stm32f7xx_hal_flash_ex.c ****   *              or a value between OB_WRP_SECTOR_0 and OB_WRP_SECTOR_11 (in Single Bank mode for S
 854:Drivers/STM32F7xx_HAL_Driver/Src/stm32f7xx_hal_flash_ex.c ****   *              or a value between OB_WRP_DB_SECTOR_0 and OB_WRP_DB_SECTOR_23 (in Dual Bank mode f
 855:Drivers/STM32F7xx_HAL_Driver/Src/stm32f7xx_hal_flash_ex.c ****   *            @arg OB_WRP_Sector_All
 856:Drivers/STM32F7xx_HAL_Driver/Src/stm32f7xx_hal_flash_ex.c ****   *
 857:Drivers/STM32F7xx_HAL_Driver/Src/stm32f7xx_hal_flash_ex.c ****   *
 858:Drivers/STM32F7xx_HAL_Driver/Src/stm32f7xx_hal_flash_ex.c ****   * @retval HAL Status   
 859:Drivers/STM32F7xx_HAL_Driver/Src/stm32f7xx_hal_flash_ex.c ****   */
 860:Drivers/STM32F7xx_HAL_Driver/Src/stm32f7xx_hal_flash_ex.c **** static HAL_StatusTypeDef FLASH_OB_DisableWRP(uint32_t WRPSector)
 861:Drivers/STM32F7xx_HAL_Driver/Src/stm32f7xx_hal_flash_ex.c **** {
 862:Drivers/STM32F7xx_HAL_Driver/Src/stm32f7xx_hal_flash_ex.c ****   HAL_StatusTypeDef status = HAL_OK;
 863:Drivers/STM32F7xx_HAL_Driver/Src/stm32f7xx_hal_flash_ex.c ****   
 864:Drivers/STM32F7xx_HAL_Driver/Src/stm32f7xx_hal_flash_ex.c ****   /* Check the parameters */
 865:Drivers/STM32F7xx_HAL_Driver/Src/stm32f7xx_hal_flash_ex.c ****   assert_param(IS_OB_WRP_SECTOR(WRPSector));
 866:Drivers/STM32F7xx_HAL_Driver/Src/stm32f7xx_hal_flash_ex.c ****     
 867:Drivers/STM32F7xx_HAL_Driver/Src/stm32f7xx_hal_flash_ex.c ****   /* Wait for last operation to be completed */
 868:Drivers/STM32F7xx_HAL_Driver/Src/stm32f7xx_hal_flash_ex.c ****   status = FLASH_WaitForLastOperation((uint32_t)FLASH_TIMEOUT_VALUE);
 869:Drivers/STM32F7xx_HAL_Driver/Src/stm32f7xx_hal_flash_ex.c **** 
 870:Drivers/STM32F7xx_HAL_Driver/Src/stm32f7xx_hal_flash_ex.c ****   if(status == HAL_OK)
 871:Drivers/STM32F7xx_HAL_Driver/Src/stm32f7xx_hal_flash_ex.c ****   {
 872:Drivers/STM32F7xx_HAL_Driver/Src/stm32f7xx_hal_flash_ex.c ****     /* Write protection disabled on sectors */
 873:Drivers/STM32F7xx_HAL_Driver/Src/stm32f7xx_hal_flash_ex.c ****     FLASH->OPTCR |= (WRPSector); 
 874:Drivers/STM32F7xx_HAL_Driver/Src/stm32f7xx_hal_flash_ex.c ****   }
 875:Drivers/STM32F7xx_HAL_Driver/Src/stm32f7xx_hal_flash_ex.c **** 
 876:Drivers/STM32F7xx_HAL_Driver/Src/stm32f7xx_hal_flash_ex.c ****   return status;
 877:Drivers/STM32F7xx_HAL_Driver/Src/stm32f7xx_hal_flash_ex.c **** }
 878:Drivers/STM32F7xx_HAL_Driver/Src/stm32f7xx_hal_flash_ex.c **** 
 879:Drivers/STM32F7xx_HAL_Driver/Src/stm32f7xx_hal_flash_ex.c **** /**
 880:Drivers/STM32F7xx_HAL_Driver/Src/stm32f7xx_hal_flash_ex.c ****   * @brief  Set the read protection level.
 881:Drivers/STM32F7xx_HAL_Driver/Src/stm32f7xx_hal_flash_ex.c ****   * @param  Level specifies the read protection level.
 882:Drivers/STM32F7xx_HAL_Driver/Src/stm32f7xx_hal_flash_ex.c ****   *          This parameter can be one of the following values:
 883:Drivers/STM32F7xx_HAL_Driver/Src/stm32f7xx_hal_flash_ex.c ****   *            @arg OB_RDP_LEVEL_0: No protection
 884:Drivers/STM32F7xx_HAL_Driver/Src/stm32f7xx_hal_flash_ex.c ****   *            @arg OB_RDP_LEVEL_1: Read protection of the memory
 885:Drivers/STM32F7xx_HAL_Driver/Src/stm32f7xx_hal_flash_ex.c ****   *            @arg OB_RDP_LEVEL_2: Full chip protection
 886:Drivers/STM32F7xx_HAL_Driver/Src/stm32f7xx_hal_flash_ex.c ****   *   
 887:Drivers/STM32F7xx_HAL_Driver/Src/stm32f7xx_hal_flash_ex.c ****   * @note WARNING: When enabling OB_RDP level 2 it's no more possible to go back to level 1 or 0
 888:Drivers/STM32F7xx_HAL_Driver/Src/stm32f7xx_hal_flash_ex.c ****   *    
 889:Drivers/STM32F7xx_HAL_Driver/Src/stm32f7xx_hal_flash_ex.c ****   * @retval HAL Status
 890:Drivers/STM32F7xx_HAL_Driver/Src/stm32f7xx_hal_flash_ex.c ****   */
 891:Drivers/STM32F7xx_HAL_Driver/Src/stm32f7xx_hal_flash_ex.c **** static HAL_StatusTypeDef FLASH_OB_RDP_LevelConfig(uint8_t Level)
 892:Drivers/STM32F7xx_HAL_Driver/Src/stm32f7xx_hal_flash_ex.c **** {
 893:Drivers/STM32F7xx_HAL_Driver/Src/stm32f7xx_hal_flash_ex.c ****   HAL_StatusTypeDef status = HAL_OK;
 894:Drivers/STM32F7xx_HAL_Driver/Src/stm32f7xx_hal_flash_ex.c ****   
 895:Drivers/STM32F7xx_HAL_Driver/Src/stm32f7xx_hal_flash_ex.c ****   /* Check the parameters */
 896:Drivers/STM32F7xx_HAL_Driver/Src/stm32f7xx_hal_flash_ex.c ****   assert_param(IS_OB_RDP_LEVEL(Level));
 897:Drivers/STM32F7xx_HAL_Driver/Src/stm32f7xx_hal_flash_ex.c ****     
 898:Drivers/STM32F7xx_HAL_Driver/Src/stm32f7xx_hal_flash_ex.c ****   /* Wait for last operation to be completed */
 899:Drivers/STM32F7xx_HAL_Driver/Src/stm32f7xx_hal_flash_ex.c ****   status = FLASH_WaitForLastOperation((uint32_t)FLASH_TIMEOUT_VALUE);
 900:Drivers/STM32F7xx_HAL_Driver/Src/stm32f7xx_hal_flash_ex.c **** 
 901:Drivers/STM32F7xx_HAL_Driver/Src/stm32f7xx_hal_flash_ex.c ****   if(status == HAL_OK)
 902:Drivers/STM32F7xx_HAL_Driver/Src/stm32f7xx_hal_flash_ex.c ****   { 
 903:Drivers/STM32F7xx_HAL_Driver/Src/stm32f7xx_hal_flash_ex.c ****     *(__IO uint8_t*)OPTCR_BYTE1_ADDRESS = Level;
 904:Drivers/STM32F7xx_HAL_Driver/Src/stm32f7xx_hal_flash_ex.c ****   }
 905:Drivers/STM32F7xx_HAL_Driver/Src/stm32f7xx_hal_flash_ex.c ****   
 906:Drivers/STM32F7xx_HAL_Driver/Src/stm32f7xx_hal_flash_ex.c ****   return status;
 907:Drivers/STM32F7xx_HAL_Driver/Src/stm32f7xx_hal_flash_ex.c **** }
 908:Drivers/STM32F7xx_HAL_Driver/Src/stm32f7xx_hal_flash_ex.c **** 
ARM GAS  /tmp/ccd0mmyh.s 			page 27


 909:Drivers/STM32F7xx_HAL_Driver/Src/stm32f7xx_hal_flash_ex.c **** /**
 910:Drivers/STM32F7xx_HAL_Driver/Src/stm32f7xx_hal_flash_ex.c ****   * @brief  Set the BOR Level. 
 911:Drivers/STM32F7xx_HAL_Driver/Src/stm32f7xx_hal_flash_ex.c ****   * @param  Level specifies the Option Bytes BOR Reset Level.
 912:Drivers/STM32F7xx_HAL_Driver/Src/stm32f7xx_hal_flash_ex.c ****   *          This parameter can be one of the following values:
 913:Drivers/STM32F7xx_HAL_Driver/Src/stm32f7xx_hal_flash_ex.c ****   *            @arg OB_BOR_LEVEL3: Supply voltage ranges from 2.7 to 3.6 V
 914:Drivers/STM32F7xx_HAL_Driver/Src/stm32f7xx_hal_flash_ex.c ****   *            @arg OB_BOR_LEVEL2: Supply voltage ranges from 2.4 to 2.7 V
 915:Drivers/STM32F7xx_HAL_Driver/Src/stm32f7xx_hal_flash_ex.c ****   *            @arg OB_BOR_LEVEL1: Supply voltage ranges from 2.1 to 2.4 V
 916:Drivers/STM32F7xx_HAL_Driver/Src/stm32f7xx_hal_flash_ex.c ****   *            @arg OB_BOR_OFF: Supply voltage ranges from 1.62 to 2.1 V
 917:Drivers/STM32F7xx_HAL_Driver/Src/stm32f7xx_hal_flash_ex.c ****   * @retval HAL Status
 918:Drivers/STM32F7xx_HAL_Driver/Src/stm32f7xx_hal_flash_ex.c ****   */
 919:Drivers/STM32F7xx_HAL_Driver/Src/stm32f7xx_hal_flash_ex.c **** static HAL_StatusTypeDef FLASH_OB_BOR_LevelConfig(uint8_t Level)
 920:Drivers/STM32F7xx_HAL_Driver/Src/stm32f7xx_hal_flash_ex.c **** {
 153              		.loc 1 920 0
 154              		.cfi_startproc
 155              		@ args = 0, pretend = 0, frame = 0
 156              		@ frame_needed = 0, uses_anonymous_args = 0
 157              		@ link register save eliminated.
 158              	.LVL5:
 921:Drivers/STM32F7xx_HAL_Driver/Src/stm32f7xx_hal_flash_ex.c ****   /* Check the parameters */
 922:Drivers/STM32F7xx_HAL_Driver/Src/stm32f7xx_hal_flash_ex.c ****   assert_param(IS_OB_BOR_LEVEL(Level));
 923:Drivers/STM32F7xx_HAL_Driver/Src/stm32f7xx_hal_flash_ex.c **** 
 924:Drivers/STM32F7xx_HAL_Driver/Src/stm32f7xx_hal_flash_ex.c ****   /* Set the BOR Level */
 925:Drivers/STM32F7xx_HAL_Driver/Src/stm32f7xx_hal_flash_ex.c ****   MODIFY_REG(FLASH->OPTCR, FLASH_OPTCR_BOR_LEV, Level);
 159              		.loc 1 925 0
 160 0000 034A     		ldr	r2, .L14
 161 0002 5369     		ldr	r3, [r2, #20]
 162 0004 23F00C03 		bic	r3, r3, #12
 163 0008 1843     		orrs	r0, r0, r3
 164              	.LVL6:
 165 000a 5061     		str	r0, [r2, #20]
 926:Drivers/STM32F7xx_HAL_Driver/Src/stm32f7xx_hal_flash_ex.c ****   
 927:Drivers/STM32F7xx_HAL_Driver/Src/stm32f7xx_hal_flash_ex.c ****   return HAL_OK;
 928:Drivers/STM32F7xx_HAL_Driver/Src/stm32f7xx_hal_flash_ex.c ****   
 929:Drivers/STM32F7xx_HAL_Driver/Src/stm32f7xx_hal_flash_ex.c **** }
 166              		.loc 1 929 0
 167 000c 0020     		movs	r0, #0
 168 000e 7047     		bx	lr
 169              	.L15:
 170              		.align	2
 171              	.L14:
 172 0010 003C0240 		.word	1073888256
 173              		.cfi_endproc
 174              	.LFE152:
 176              		.section	.text.FLASH_OB_GetRDP,"ax",%progbits
 177              		.align	2
 178              		.thumb
 179              		.thumb_func
 181              	FLASH_OB_GetRDP:
 182              	.LFB154:
 930:Drivers/STM32F7xx_HAL_Driver/Src/stm32f7xx_hal_flash_ex.c **** 
 931:Drivers/STM32F7xx_HAL_Driver/Src/stm32f7xx_hal_flash_ex.c **** /**
 932:Drivers/STM32F7xx_HAL_Driver/Src/stm32f7xx_hal_flash_ex.c ****   * @brief  Configure Boot base address.
 933:Drivers/STM32F7xx_HAL_Driver/Src/stm32f7xx_hal_flash_ex.c ****   * 
 934:Drivers/STM32F7xx_HAL_Driver/Src/stm32f7xx_hal_flash_ex.c ****   * @param   BootOption  specifies Boot base address depending from Boot pin = 0 or pin = 1
 935:Drivers/STM32F7xx_HAL_Driver/Src/stm32f7xx_hal_flash_ex.c ****   *          This parameter can be one of the following values:
 936:Drivers/STM32F7xx_HAL_Driver/Src/stm32f7xx_hal_flash_ex.c ****   *            @arg OPTIONBYTE_BOOTADDR_0 : Boot address based when Boot pin = 0                 
 937:Drivers/STM32F7xx_HAL_Driver/Src/stm32f7xx_hal_flash_ex.c ****   *            @arg OPTIONBYTE_BOOTADDR_1 : Boot address based when Boot pin = 1  
ARM GAS  /tmp/ccd0mmyh.s 			page 28


 938:Drivers/STM32F7xx_HAL_Driver/Src/stm32f7xx_hal_flash_ex.c ****   * @param   Address specifies Boot base address
 939:Drivers/STM32F7xx_HAL_Driver/Src/stm32f7xx_hal_flash_ex.c ****   *          This parameter can be one of the following values:
 940:Drivers/STM32F7xx_HAL_Driver/Src/stm32f7xx_hal_flash_ex.c ****   *            @arg OB_BOOTADDR_ITCM_RAM : Boot from ITCM RAM (0x00000000)                 
 941:Drivers/STM32F7xx_HAL_Driver/Src/stm32f7xx_hal_flash_ex.c ****   *            @arg OB_BOOTADDR_SYSTEM : Boot from System memory bootloader (0x00100000) 
 942:Drivers/STM32F7xx_HAL_Driver/Src/stm32f7xx_hal_flash_ex.c ****   *            @arg OB_BOOTADDR_ITCM_FLASH : Boot from Flash on ITCM interface (0x00200000)  
 943:Drivers/STM32F7xx_HAL_Driver/Src/stm32f7xx_hal_flash_ex.c ****   *            @arg OB_BOOTADDR_AXIM_FLASH : Boot from Flash on AXIM interface (0x08000000)  
 944:Drivers/STM32F7xx_HAL_Driver/Src/stm32f7xx_hal_flash_ex.c ****   *            @arg OB_BOOTADDR_DTCM_RAM : Boot from DTCM RAM (0x20000000)                 
 945:Drivers/STM32F7xx_HAL_Driver/Src/stm32f7xx_hal_flash_ex.c ****   *            @arg OB_BOOTADDR_SRAM1 : Boot from SRAM1 (0x20010000)                    
 946:Drivers/STM32F7xx_HAL_Driver/Src/stm32f7xx_hal_flash_ex.c ****   *            @arg OB_BOOTADDR_SRAM2 : Boot from SRAM2 (0x2004C000)              
 947:Drivers/STM32F7xx_HAL_Driver/Src/stm32f7xx_hal_flash_ex.c ****   *    
 948:Drivers/STM32F7xx_HAL_Driver/Src/stm32f7xx_hal_flash_ex.c ****   * @retval HAL Status
 949:Drivers/STM32F7xx_HAL_Driver/Src/stm32f7xx_hal_flash_ex.c ****   */
 950:Drivers/STM32F7xx_HAL_Driver/Src/stm32f7xx_hal_flash_ex.c **** static HAL_StatusTypeDef FLASH_OB_BootAddressConfig(uint32_t BootOption, uint32_t Address)
 951:Drivers/STM32F7xx_HAL_Driver/Src/stm32f7xx_hal_flash_ex.c **** {
 952:Drivers/STM32F7xx_HAL_Driver/Src/stm32f7xx_hal_flash_ex.c ****   HAL_StatusTypeDef status = HAL_OK;
 953:Drivers/STM32F7xx_HAL_Driver/Src/stm32f7xx_hal_flash_ex.c ****   
 954:Drivers/STM32F7xx_HAL_Driver/Src/stm32f7xx_hal_flash_ex.c ****   /* Check the parameters */
 955:Drivers/STM32F7xx_HAL_Driver/Src/stm32f7xx_hal_flash_ex.c ****   assert_param(IS_OB_BOOT_ADDRESS(Address));
 956:Drivers/STM32F7xx_HAL_Driver/Src/stm32f7xx_hal_flash_ex.c ****     
 957:Drivers/STM32F7xx_HAL_Driver/Src/stm32f7xx_hal_flash_ex.c ****   /* Wait for last operation to be completed */
 958:Drivers/STM32F7xx_HAL_Driver/Src/stm32f7xx_hal_flash_ex.c ****   status = FLASH_WaitForLastOperation((uint32_t)FLASH_TIMEOUT_VALUE);
 959:Drivers/STM32F7xx_HAL_Driver/Src/stm32f7xx_hal_flash_ex.c ****   
 960:Drivers/STM32F7xx_HAL_Driver/Src/stm32f7xx_hal_flash_ex.c ****   if(status == HAL_OK)
 961:Drivers/STM32F7xx_HAL_Driver/Src/stm32f7xx_hal_flash_ex.c ****   {
 962:Drivers/STM32F7xx_HAL_Driver/Src/stm32f7xx_hal_flash_ex.c ****     if(BootOption == OPTIONBYTE_BOOTADDR_0)
 963:Drivers/STM32F7xx_HAL_Driver/Src/stm32f7xx_hal_flash_ex.c ****     {			
 964:Drivers/STM32F7xx_HAL_Driver/Src/stm32f7xx_hal_flash_ex.c ****       MODIFY_REG(FLASH->OPTCR1, FLASH_OPTCR1_BOOT_ADD0, Address);
 965:Drivers/STM32F7xx_HAL_Driver/Src/stm32f7xx_hal_flash_ex.c ****     }
 966:Drivers/STM32F7xx_HAL_Driver/Src/stm32f7xx_hal_flash_ex.c ****     else
 967:Drivers/STM32F7xx_HAL_Driver/Src/stm32f7xx_hal_flash_ex.c ****     {
 968:Drivers/STM32F7xx_HAL_Driver/Src/stm32f7xx_hal_flash_ex.c ****       MODIFY_REG(FLASH->OPTCR1, FLASH_OPTCR1_BOOT_ADD1, (Address << 16));
 969:Drivers/STM32F7xx_HAL_Driver/Src/stm32f7xx_hal_flash_ex.c ****     }
 970:Drivers/STM32F7xx_HAL_Driver/Src/stm32f7xx_hal_flash_ex.c ****   }
 971:Drivers/STM32F7xx_HAL_Driver/Src/stm32f7xx_hal_flash_ex.c ****   
 972:Drivers/STM32F7xx_HAL_Driver/Src/stm32f7xx_hal_flash_ex.c ****   return status;
 973:Drivers/STM32F7xx_HAL_Driver/Src/stm32f7xx_hal_flash_ex.c **** }
 974:Drivers/STM32F7xx_HAL_Driver/Src/stm32f7xx_hal_flash_ex.c **** 
 975:Drivers/STM32F7xx_HAL_Driver/Src/stm32f7xx_hal_flash_ex.c **** /**
 976:Drivers/STM32F7xx_HAL_Driver/Src/stm32f7xx_hal_flash_ex.c ****   * @brief  Returns the FLASH Read Protection level.
 977:Drivers/STM32F7xx_HAL_Driver/Src/stm32f7xx_hal_flash_ex.c ****   * @retval FlagStatus FLASH ReadOut Protection Status:
 978:Drivers/STM32F7xx_HAL_Driver/Src/stm32f7xx_hal_flash_ex.c ****   *         This parameter can be one of the following values:
 979:Drivers/STM32F7xx_HAL_Driver/Src/stm32f7xx_hal_flash_ex.c ****   *            @arg OB_RDP_LEVEL_0: No protection
 980:Drivers/STM32F7xx_HAL_Driver/Src/stm32f7xx_hal_flash_ex.c ****   *            @arg OB_RDP_LEVEL_1: Read protection of the memory
 981:Drivers/STM32F7xx_HAL_Driver/Src/stm32f7xx_hal_flash_ex.c ****   *            @arg OB_RDP_LEVEL_2: Full chip protection
 982:Drivers/STM32F7xx_HAL_Driver/Src/stm32f7xx_hal_flash_ex.c ****   */
 983:Drivers/STM32F7xx_HAL_Driver/Src/stm32f7xx_hal_flash_ex.c **** static uint8_t FLASH_OB_GetRDP(void)
 984:Drivers/STM32F7xx_HAL_Driver/Src/stm32f7xx_hal_flash_ex.c **** {
 183              		.loc 1 984 0
 184              		.cfi_startproc
 185              		@ args = 0, pretend = 0, frame = 0
 186              		@ frame_needed = 0, uses_anonymous_args = 0
 187              		@ link register save eliminated.
 188              	.LVL7:
 985:Drivers/STM32F7xx_HAL_Driver/Src/stm32f7xx_hal_flash_ex.c ****   uint8_t readstatus = OB_RDP_LEVEL_0;
 986:Drivers/STM32F7xx_HAL_Driver/Src/stm32f7xx_hal_flash_ex.c ****   
 987:Drivers/STM32F7xx_HAL_Driver/Src/stm32f7xx_hal_flash_ex.c ****   if ((*(__IO uint8_t*)(OPTCR_BYTE1_ADDRESS)) == OB_RDP_LEVEL_0)
 189              		.loc 1 987 0
ARM GAS  /tmp/ccd0mmyh.s 			page 29


 190 0000 074B     		ldr	r3, .L20
 191 0002 1B78     		ldrb	r3, [r3]	@ zero_extendqisi2
 192 0004 DBB2     		uxtb	r3, r3
 193 0006 AA2B     		cmp	r3, #170
 194 0008 06D0     		beq	.L18
 988:Drivers/STM32F7xx_HAL_Driver/Src/stm32f7xx_hal_flash_ex.c ****   {
 989:Drivers/STM32F7xx_HAL_Driver/Src/stm32f7xx_hal_flash_ex.c ****     readstatus = OB_RDP_LEVEL_0;
 990:Drivers/STM32F7xx_HAL_Driver/Src/stm32f7xx_hal_flash_ex.c ****   }
 991:Drivers/STM32F7xx_HAL_Driver/Src/stm32f7xx_hal_flash_ex.c ****   else if ((*(__IO uint8_t*)(OPTCR_BYTE1_ADDRESS)) == OB_RDP_LEVEL_2)
 195              		.loc 1 991 0
 196 000a 054B     		ldr	r3, .L20
 197 000c 1B78     		ldrb	r3, [r3]	@ zero_extendqisi2
 198 000e DBB2     		uxtb	r3, r3
 199 0010 CC2B     		cmp	r3, #204
 200 0012 03D1     		bne	.L19
 992:Drivers/STM32F7xx_HAL_Driver/Src/stm32f7xx_hal_flash_ex.c ****   {
 993:Drivers/STM32F7xx_HAL_Driver/Src/stm32f7xx_hal_flash_ex.c ****     readstatus = OB_RDP_LEVEL_2;
 201              		.loc 1 993 0
 202 0014 CC20     		movs	r0, #204
 203 0016 7047     		bx	lr
 204              	.L18:
 989:Drivers/STM32F7xx_HAL_Driver/Src/stm32f7xx_hal_flash_ex.c ****   }
 205              		.loc 1 989 0
 206 0018 AA20     		movs	r0, #170
 207 001a 7047     		bx	lr
 208              	.L19:
 994:Drivers/STM32F7xx_HAL_Driver/Src/stm32f7xx_hal_flash_ex.c ****   }
 995:Drivers/STM32F7xx_HAL_Driver/Src/stm32f7xx_hal_flash_ex.c ****   else 
 996:Drivers/STM32F7xx_HAL_Driver/Src/stm32f7xx_hal_flash_ex.c ****   {
 997:Drivers/STM32F7xx_HAL_Driver/Src/stm32f7xx_hal_flash_ex.c ****     readstatus = OB_RDP_LEVEL_1;
 209              		.loc 1 997 0
 210 001c 5520     		movs	r0, #85
 211              	.LVL8:
 998:Drivers/STM32F7xx_HAL_Driver/Src/stm32f7xx_hal_flash_ex.c ****   }
 999:Drivers/STM32F7xx_HAL_Driver/Src/stm32f7xx_hal_flash_ex.c **** 
1000:Drivers/STM32F7xx_HAL_Driver/Src/stm32f7xx_hal_flash_ex.c ****   return readstatus;
1001:Drivers/STM32F7xx_HAL_Driver/Src/stm32f7xx_hal_flash_ex.c **** }
 212              		.loc 1 1001 0
 213 001e 7047     		bx	lr
 214              	.L21:
 215              		.align	2
 216              	.L20:
 217 0020 153C0240 		.word	1073888277
 218              		.cfi_endproc
 219              	.LFE154:
 221              		.section	.text.FLASH_OB_GetBOR,"ax",%progbits
 222              		.align	2
 223              		.thumb
 224              		.thumb_func
 226              	FLASH_OB_GetBOR:
 227              	.LFB155:
1002:Drivers/STM32F7xx_HAL_Driver/Src/stm32f7xx_hal_flash_ex.c **** 
1003:Drivers/STM32F7xx_HAL_Driver/Src/stm32f7xx_hal_flash_ex.c **** /**
1004:Drivers/STM32F7xx_HAL_Driver/Src/stm32f7xx_hal_flash_ex.c ****   * @brief  Returns the FLASH BOR level.
1005:Drivers/STM32F7xx_HAL_Driver/Src/stm32f7xx_hal_flash_ex.c ****   * @retval uint32_t The FLASH BOR level:
1006:Drivers/STM32F7xx_HAL_Driver/Src/stm32f7xx_hal_flash_ex.c ****   *           - OB_BOR_LEVEL3: Supply voltage ranges from 2.7 to 3.6 V
1007:Drivers/STM32F7xx_HAL_Driver/Src/stm32f7xx_hal_flash_ex.c ****   *           - OB_BOR_LEVEL2: Supply voltage ranges from 2.4 to 2.7 V
ARM GAS  /tmp/ccd0mmyh.s 			page 30


1008:Drivers/STM32F7xx_HAL_Driver/Src/stm32f7xx_hal_flash_ex.c ****   *           - OB_BOR_LEVEL1: Supply voltage ranges from 2.1 to 2.4 V
1009:Drivers/STM32F7xx_HAL_Driver/Src/stm32f7xx_hal_flash_ex.c ****   *           - OB_BOR_OFF   : Supply voltage ranges from 1.62 to 2.1 V  
1010:Drivers/STM32F7xx_HAL_Driver/Src/stm32f7xx_hal_flash_ex.c ****   */
1011:Drivers/STM32F7xx_HAL_Driver/Src/stm32f7xx_hal_flash_ex.c **** static uint32_t FLASH_OB_GetBOR(void)
1012:Drivers/STM32F7xx_HAL_Driver/Src/stm32f7xx_hal_flash_ex.c **** {
 228              		.loc 1 1012 0
 229              		.cfi_startproc
 230              		@ args = 0, pretend = 0, frame = 0
 231              		@ frame_needed = 0, uses_anonymous_args = 0
 232              		@ link register save eliminated.
1013:Drivers/STM32F7xx_HAL_Driver/Src/stm32f7xx_hal_flash_ex.c ****   /* Return the FLASH BOR level */
1014:Drivers/STM32F7xx_HAL_Driver/Src/stm32f7xx_hal_flash_ex.c ****   return ((uint32_t)(FLASH->OPTCR & 0x0C));
 233              		.loc 1 1014 0
 234 0000 024B     		ldr	r3, .L23
 235 0002 5869     		ldr	r0, [r3, #20]
1015:Drivers/STM32F7xx_HAL_Driver/Src/stm32f7xx_hal_flash_ex.c **** }
 236              		.loc 1 1015 0
 237 0004 00F00C00 		and	r0, r0, #12
 238 0008 7047     		bx	lr
 239              	.L24:
 240 000a 00BF     		.align	2
 241              	.L23:
 242 000c 003C0240 		.word	1073888256
 243              		.cfi_endproc
 244              	.LFE155:
 246              		.section	.text.FLASH_OB_GetBootAddress,"ax",%progbits
 247              		.align	2
 248              		.thumb
 249              		.thumb_func
 251              	FLASH_OB_GetBootAddress:
 252              	.LFB156:
1016:Drivers/STM32F7xx_HAL_Driver/Src/stm32f7xx_hal_flash_ex.c **** 
1017:Drivers/STM32F7xx_HAL_Driver/Src/stm32f7xx_hal_flash_ex.c **** /**
1018:Drivers/STM32F7xx_HAL_Driver/Src/stm32f7xx_hal_flash_ex.c ****   * @brief  Configure Boot base address.
1019:Drivers/STM32F7xx_HAL_Driver/Src/stm32f7xx_hal_flash_ex.c ****   * 
1020:Drivers/STM32F7xx_HAL_Driver/Src/stm32f7xx_hal_flash_ex.c ****   * @param   BootOption  specifies Boot base address depending from Boot pin = 0 or pin = 1
1021:Drivers/STM32F7xx_HAL_Driver/Src/stm32f7xx_hal_flash_ex.c ****   *          This parameter can be one of the following values:
1022:Drivers/STM32F7xx_HAL_Driver/Src/stm32f7xx_hal_flash_ex.c ****   *            @arg OPTIONBYTE_BOOTADDR_0 : Boot address based when Boot pin = 0                 
1023:Drivers/STM32F7xx_HAL_Driver/Src/stm32f7xx_hal_flash_ex.c ****   *            @arg OPTIONBYTE_BOOTADDR_1 : Boot address based when Boot pin = 1       
1024:Drivers/STM32F7xx_HAL_Driver/Src/stm32f7xx_hal_flash_ex.c ****   *    
1025:Drivers/STM32F7xx_HAL_Driver/Src/stm32f7xx_hal_flash_ex.c ****   * @retval uint32_t Boot Base Address:
1026:Drivers/STM32F7xx_HAL_Driver/Src/stm32f7xx_hal_flash_ex.c ****   *            - OB_BOOTADDR_ITCM_RAM : Boot from ITCM RAM (0x00000000)                 
1027:Drivers/STM32F7xx_HAL_Driver/Src/stm32f7xx_hal_flash_ex.c ****   *            - OB_BOOTADDR_SYSTEM : Boot from System memory bootloader (0x00100000) 
1028:Drivers/STM32F7xx_HAL_Driver/Src/stm32f7xx_hal_flash_ex.c ****   *            - OB_BOOTADDR_ITCM_FLASH : Boot from Flash on ITCM interface (0x00200000)  
1029:Drivers/STM32F7xx_HAL_Driver/Src/stm32f7xx_hal_flash_ex.c ****   *            - OB_BOOTADDR_AXIM_FLASH : Boot from Flash on AXIM interface (0x08000000)  
1030:Drivers/STM32F7xx_HAL_Driver/Src/stm32f7xx_hal_flash_ex.c ****   *            - OB_BOOTADDR_DTCM_RAM : Boot from DTCM RAM (0x20000000)                 
1031:Drivers/STM32F7xx_HAL_Driver/Src/stm32f7xx_hal_flash_ex.c ****   *            - OB_BOOTADDR_SRAM1 : Boot from SRAM1 (0x20010000)                    
1032:Drivers/STM32F7xx_HAL_Driver/Src/stm32f7xx_hal_flash_ex.c ****   *            - OB_BOOTADDR_SRAM2 : Boot from SRAM2 (0x2004C000) 
1033:Drivers/STM32F7xx_HAL_Driver/Src/stm32f7xx_hal_flash_ex.c ****   */
1034:Drivers/STM32F7xx_HAL_Driver/Src/stm32f7xx_hal_flash_ex.c **** static uint32_t FLASH_OB_GetBootAddress(uint32_t BootOption)
1035:Drivers/STM32F7xx_HAL_Driver/Src/stm32f7xx_hal_flash_ex.c **** {  
 253              		.loc 1 1035 0
 254              		.cfi_startproc
 255              		@ args = 0, pretend = 0, frame = 0
 256              		@ frame_needed = 0, uses_anonymous_args = 0
 257              		@ link register save eliminated.
 258              	.LVL9:
ARM GAS  /tmp/ccd0mmyh.s 			page 31


1036:Drivers/STM32F7xx_HAL_Driver/Src/stm32f7xx_hal_flash_ex.c ****   uint32_t Address = 0;
1037:Drivers/STM32F7xx_HAL_Driver/Src/stm32f7xx_hal_flash_ex.c ****     
1038:Drivers/STM32F7xx_HAL_Driver/Src/stm32f7xx_hal_flash_ex.c **** 	/* Return the Boot base Address */
1039:Drivers/STM32F7xx_HAL_Driver/Src/stm32f7xx_hal_flash_ex.c ****   if(BootOption == OPTIONBYTE_BOOTADDR_0)
 259              		.loc 1 1039 0
 260 0000 1028     		cmp	r0, #16
 261 0002 03D1     		bne	.L26
1040:Drivers/STM32F7xx_HAL_Driver/Src/stm32f7xx_hal_flash_ex.c ****   {			
1041:Drivers/STM32F7xx_HAL_Driver/Src/stm32f7xx_hal_flash_ex.c ****     Address = FLASH->OPTCR1 & FLASH_OPTCR1_BOOT_ADD0;
 262              		.loc 1 1041 0
 263 0004 034B     		ldr	r3, .L28
 264 0006 9869     		ldr	r0, [r3, #24]
 265              	.LVL10:
 266 0008 80B2     		uxth	r0, r0
 267              	.LVL11:
 268 000a 7047     		bx	lr
 269              	.LVL12:
 270              	.L26:
1042:Drivers/STM32F7xx_HAL_Driver/Src/stm32f7xx_hal_flash_ex.c **** 	}
1043:Drivers/STM32F7xx_HAL_Driver/Src/stm32f7xx_hal_flash_ex.c ****   else
1044:Drivers/STM32F7xx_HAL_Driver/Src/stm32f7xx_hal_flash_ex.c **** 	{
1045:Drivers/STM32F7xx_HAL_Driver/Src/stm32f7xx_hal_flash_ex.c **** 		Address = ((FLASH->OPTCR1 & FLASH_OPTCR1_BOOT_ADD1) >> 16);
 271              		.loc 1 1045 0
 272 000c 014B     		ldr	r3, .L28
 273 000e 9869     		ldr	r0, [r3, #24]
 274              	.LVL13:
 275 0010 000C     		lsrs	r0, r0, #16
 276              	.LVL14:
1046:Drivers/STM32F7xx_HAL_Driver/Src/stm32f7xx_hal_flash_ex.c **** 	}
1047:Drivers/STM32F7xx_HAL_Driver/Src/stm32f7xx_hal_flash_ex.c **** 
1048:Drivers/STM32F7xx_HAL_Driver/Src/stm32f7xx_hal_flash_ex.c ****   return Address;
1049:Drivers/STM32F7xx_HAL_Driver/Src/stm32f7xx_hal_flash_ex.c **** }
 277              		.loc 1 1049 0
 278 0012 7047     		bx	lr
 279              	.L29:
 280              		.align	2
 281              	.L28:
 282 0014 003C0240 		.word	1073888256
 283              		.cfi_endproc
 284              	.LFE156:
 286              		.section	.text.FLASH_OB_EnableWRP,"ax",%progbits
 287              		.align	2
 288              		.thumb
 289              		.thumb_func
 291              	FLASH_OB_EnableWRP:
 292              	.LFB149:
 825:Drivers/STM32F7xx_HAL_Driver/Src/stm32f7xx_hal_flash_ex.c ****   HAL_StatusTypeDef status = HAL_OK;
 293              		.loc 1 825 0
 294              		.cfi_startproc
 295              		@ args = 0, pretend = 0, frame = 0
 296              		@ frame_needed = 0, uses_anonymous_args = 0
 297              	.LVL15:
 298 0000 10B5     		push	{r4, lr}
 299              	.LCFI0:
 300              		.cfi_def_cfa_offset 8
 301              		.cfi_offset 4, -8
 302              		.cfi_offset 14, -4
ARM GAS  /tmp/ccd0mmyh.s 			page 32


 303 0002 0446     		mov	r4, r0
 304              	.LVL16:
 832:Drivers/STM32F7xx_HAL_Driver/Src/stm32f7xx_hal_flash_ex.c **** 
 305              		.loc 1 832 0
 306 0004 4CF25030 		movw	r0, #50000
 307              	.LVL17:
 308 0008 FFF7FEFF 		bl	FLASH_WaitForLastOperation
 309              	.LVL18:
 834:Drivers/STM32F7xx_HAL_Driver/Src/stm32f7xx_hal_flash_ex.c ****   {
 310              		.loc 1 834 0
 311 000c 0346     		mov	r3, r0
 312 000e 20B9     		cbnz	r0, .L31
 837:Drivers/STM32F7xx_HAL_Driver/Src/stm32f7xx_hal_flash_ex.c ****   }
 313              		.loc 1 837 0
 314 0010 034A     		ldr	r2, .L33
 315 0012 5069     		ldr	r0, [r2, #20]
 316              	.LVL19:
 317 0014 20EA0400 		bic	r0, r0, r4
 318 0018 5061     		str	r0, [r2, #20]
 319              	.L31:
 841:Drivers/STM32F7xx_HAL_Driver/Src/stm32f7xx_hal_flash_ex.c **** 
 320              		.loc 1 841 0
 321 001a 1846     		mov	r0, r3
 322 001c 10BD     		pop	{r4, pc}
 323              	.LVL20:
 324              	.L34:
 325 001e 00BF     		.align	2
 326              	.L33:
 327 0020 003C0240 		.word	1073888256
 328              		.cfi_endproc
 329              	.LFE149:
 331              		.section	.text.FLASH_OB_DisableWRP,"ax",%progbits
 332              		.align	2
 333              		.thumb
 334              		.thumb_func
 336              	FLASH_OB_DisableWRP:
 337              	.LFB150:
 861:Drivers/STM32F7xx_HAL_Driver/Src/stm32f7xx_hal_flash_ex.c ****   HAL_StatusTypeDef status = HAL_OK;
 338              		.loc 1 861 0
 339              		.cfi_startproc
 340              		@ args = 0, pretend = 0, frame = 0
 341              		@ frame_needed = 0, uses_anonymous_args = 0
 342              	.LVL21:
 343 0000 10B5     		push	{r4, lr}
 344              	.LCFI1:
 345              		.cfi_def_cfa_offset 8
 346              		.cfi_offset 4, -8
 347              		.cfi_offset 14, -4
 348 0002 0446     		mov	r4, r0
 349              	.LVL22:
 868:Drivers/STM32F7xx_HAL_Driver/Src/stm32f7xx_hal_flash_ex.c **** 
 350              		.loc 1 868 0
 351 0004 4CF25030 		movw	r0, #50000
 352              	.LVL23:
 353 0008 FFF7FEFF 		bl	FLASH_WaitForLastOperation
 354              	.LVL24:
 870:Drivers/STM32F7xx_HAL_Driver/Src/stm32f7xx_hal_flash_ex.c ****   {
ARM GAS  /tmp/ccd0mmyh.s 			page 33


 355              		.loc 1 870 0
 356 000c 0346     		mov	r3, r0
 357 000e 18B9     		cbnz	r0, .L36
 873:Drivers/STM32F7xx_HAL_Driver/Src/stm32f7xx_hal_flash_ex.c ****   }
 358              		.loc 1 873 0
 359 0010 024A     		ldr	r2, .L38
 360 0012 5169     		ldr	r1, [r2, #20]
 361 0014 0C43     		orrs	r4, r4, r1
 362              	.LVL25:
 363 0016 5461     		str	r4, [r2, #20]
 364              	.L36:
 877:Drivers/STM32F7xx_HAL_Driver/Src/stm32f7xx_hal_flash_ex.c **** 
 365              		.loc 1 877 0
 366 0018 1846     		mov	r0, r3
 367              	.LVL26:
 368 001a 10BD     		pop	{r4, pc}
 369              	.L39:
 370              		.align	2
 371              	.L38:
 372 001c 003C0240 		.word	1073888256
 373              		.cfi_endproc
 374              	.LFE150:
 376              		.section	.text.FLASH_OB_RDP_LevelConfig,"ax",%progbits
 377              		.align	2
 378              		.thumb
 379              		.thumb_func
 381              	FLASH_OB_RDP_LevelConfig:
 382              	.LFB151:
 892:Drivers/STM32F7xx_HAL_Driver/Src/stm32f7xx_hal_flash_ex.c ****   HAL_StatusTypeDef status = HAL_OK;
 383              		.loc 1 892 0
 384              		.cfi_startproc
 385              		@ args = 0, pretend = 0, frame = 0
 386              		@ frame_needed = 0, uses_anonymous_args = 0
 387              	.LVL27:
 388 0000 10B5     		push	{r4, lr}
 389              	.LCFI2:
 390              		.cfi_def_cfa_offset 8
 391              		.cfi_offset 4, -8
 392              		.cfi_offset 14, -4
 393 0002 0446     		mov	r4, r0
 394              	.LVL28:
 899:Drivers/STM32F7xx_HAL_Driver/Src/stm32f7xx_hal_flash_ex.c **** 
 395              		.loc 1 899 0
 396 0004 4CF25030 		movw	r0, #50000
 397              	.LVL29:
 398 0008 FFF7FEFF 		bl	FLASH_WaitForLastOperation
 399              	.LVL30:
 901:Drivers/STM32F7xx_HAL_Driver/Src/stm32f7xx_hal_flash_ex.c ****   { 
 400              		.loc 1 901 0
 401 000c 0346     		mov	r3, r0
 402 000e 08B9     		cbnz	r0, .L41
 903:Drivers/STM32F7xx_HAL_Driver/Src/stm32f7xx_hal_flash_ex.c ****   }
 403              		.loc 1 903 0
 404 0010 014A     		ldr	r2, .L43
 405 0012 1470     		strb	r4, [r2]
 406              	.L41:
 907:Drivers/STM32F7xx_HAL_Driver/Src/stm32f7xx_hal_flash_ex.c **** 
ARM GAS  /tmp/ccd0mmyh.s 			page 34


 407              		.loc 1 907 0
 408 0014 1846     		mov	r0, r3
 409              	.LVL31:
 410 0016 10BD     		pop	{r4, pc}
 411              	.L44:
 412              		.align	2
 413              	.L43:
 414 0018 153C0240 		.word	1073888277
 415              		.cfi_endproc
 416              	.LFE151:
 418              		.section	.text.FLASH_OB_UserConfig,"ax",%progbits
 419              		.align	2
 420              		.thumb
 421              		.thumb_func
 423              	FLASH_OB_UserConfig:
 424              	.LFB147:
 596:Drivers/STM32F7xx_HAL_Driver/Src/stm32f7xx_hal_flash_ex.c ****   uint32_t useroptionmask = 0x00;
 425              		.loc 1 596 0
 426              		.cfi_startproc
 427              		@ args = 16, pretend = 0, frame = 0
 428              		@ frame_needed = 0, uses_anonymous_args = 0
 429              	.LVL32:
 430 0000 F8B5     		push	{r3, r4, r5, r6, r7, lr}
 431              	.LCFI3:
 432              		.cfi_def_cfa_offset 24
 433              		.cfi_offset 3, -24
 434              		.cfi_offset 4, -20
 435              		.cfi_offset 5, -16
 436              		.cfi_offset 6, -12
 437              		.cfi_offset 7, -8
 438              		.cfi_offset 14, -4
 439 0002 0646     		mov	r6, r0
 440 0004 0F46     		mov	r7, r1
 441 0006 1546     		mov	r5, r2
 442 0008 1C46     		mov	r4, r3
 443              	.LVL33:
 613:Drivers/STM32F7xx_HAL_Driver/Src/stm32f7xx_hal_flash_ex.c ****   
 444              		.loc 1 613 0
 445 000a 4CF25030 		movw	r0, #50000
 446              	.LVL34:
 447 000e FFF7FEFF 		bl	FLASH_WaitForLastOperation
 448              	.LVL35:
 615:Drivers/STM32F7xx_HAL_Driver/Src/stm32f7xx_hal_flash_ex.c ****   {
 449              		.loc 1 615 0
 450 0012 0146     		mov	r1, r0
 451 0014 80B9     		cbnz	r0, .L46
 452              	.LVL36:
 621:Drivers/STM32F7xx_HAL_Driver/Src/stm32f7xx_hal_flash_ex.c ****         
 453              		.loc 1 621 0
 454 0016 3E43     		orrs	r6, r6, r7
 455              	.LVL37:
 456 0018 3543     		orrs	r5, r5, r6
 457              	.LVL38:
 458 001a 2C43     		orrs	r4, r4, r5
 459              	.LVL39:
 460 001c 069A     		ldr	r2, [sp, #24]
 461 001e 1443     		orrs	r4, r4, r2
ARM GAS  /tmp/ccd0mmyh.s 			page 35


 462 0020 079A     		ldr	r2, [sp, #28]
 463 0022 1443     		orrs	r4, r4, r2
 464 0024 099B     		ldr	r3, [sp, #36]
 465 0026 1C43     		orrs	r4, r4, r3
 466 0028 089B     		ldr	r3, [sp, #32]
 467 002a 2343     		orrs	r3, r3, r4
 468              	.LVL40:
 624:Drivers/STM32F7xx_HAL_Driver/Src/stm32f7xx_hal_flash_ex.c ****   }
 469              		.loc 1 624 0
 470 002c 0348     		ldr	r0, .L48
 471              	.LVL41:
 472 002e 4469     		ldr	r4, [r0, #20]
 473 0030 034A     		ldr	r2, .L48+4
 474 0032 2240     		ands	r2, r2, r4
 475 0034 1343     		orrs	r3, r3, r2
 476              	.LVL42:
 477 0036 4361     		str	r3, [r0, #20]
 478              	.LVL43:
 479              	.L46:
 628:Drivers/STM32F7xx_HAL_Driver/Src/stm32f7xx_hal_flash_ex.c **** 
 480              		.loc 1 628 0
 481 0038 0846     		mov	r0, r1
 482 003a F8BD     		pop	{r3, r4, r5, r6, r7, pc}
 483              	.LVL44:
 484              	.L49:
 485              		.align	2
 486              	.L48:
 487 003c 003C0240 		.word	1073888256
 488 0040 0FFFFF0F 		.word	268435215
 489              		.cfi_endproc
 490              	.LFE147:
 492              		.section	.text.FLASH_OB_BootAddressConfig,"ax",%progbits
 493              		.align	2
 494              		.thumb
 495              		.thumb_func
 497              	FLASH_OB_BootAddressConfig:
 498              	.LFB153:
 951:Drivers/STM32F7xx_HAL_Driver/Src/stm32f7xx_hal_flash_ex.c ****   HAL_StatusTypeDef status = HAL_OK;
 499              		.loc 1 951 0
 500              		.cfi_startproc
 501              		@ args = 0, pretend = 0, frame = 0
 502              		@ frame_needed = 0, uses_anonymous_args = 0
 503              	.LVL45:
 504 0000 38B5     		push	{r3, r4, r5, lr}
 505              	.LCFI4:
 506              		.cfi_def_cfa_offset 16
 507              		.cfi_offset 3, -16
 508              		.cfi_offset 4, -12
 509              		.cfi_offset 5, -8
 510              		.cfi_offset 14, -4
 511 0002 0446     		mov	r4, r0
 512 0004 0D46     		mov	r5, r1
 513              	.LVL46:
 958:Drivers/STM32F7xx_HAL_Driver/Src/stm32f7xx_hal_flash_ex.c ****   
 514              		.loc 1 958 0
 515 0006 4CF25030 		movw	r0, #50000
 516              	.LVL47:
ARM GAS  /tmp/ccd0mmyh.s 			page 36


 517 000a FFF7FEFF 		bl	FLASH_WaitForLastOperation
 518              	.LVL48:
 960:Drivers/STM32F7xx_HAL_Driver/Src/stm32f7xx_hal_flash_ex.c ****   {
 519              		.loc 1 960 0
 520 000e 0346     		mov	r3, r0
 521 0010 70B9     		cbnz	r0, .L51
 962:Drivers/STM32F7xx_HAL_Driver/Src/stm32f7xx_hal_flash_ex.c ****     {			
 522              		.loc 1 962 0
 523 0012 102C     		cmp	r4, #16
 524 0014 06D1     		bne	.L52
 964:Drivers/STM32F7xx_HAL_Driver/Src/stm32f7xx_hal_flash_ex.c ****     }
 525              		.loc 1 964 0
 526 0016 074A     		ldr	r2, .L54
 527 0018 9069     		ldr	r0, [r2, #24]
 528              	.LVL49:
 529 001a 0749     		ldr	r1, .L54+4
 530 001c 0140     		ands	r1, r1, r0
 531 001e 2943     		orrs	r1, r1, r5
 532 0020 9161     		str	r1, [r2, #24]
 533 0022 05E0     		b	.L51
 534              	.LVL50:
 535              	.L52:
 968:Drivers/STM32F7xx_HAL_Driver/Src/stm32f7xx_hal_flash_ex.c ****     }
 536              		.loc 1 968 0
 537 0024 034A     		ldr	r2, .L54
 538 0026 9169     		ldr	r1, [r2, #24]
 539 0028 89B2     		uxth	r1, r1
 540 002a 41EA0541 		orr	r1, r1, r5, lsl #16
 541 002e 9161     		str	r1, [r2, #24]
 542              	.LVL51:
 543              	.L51:
 973:Drivers/STM32F7xx_HAL_Driver/Src/stm32f7xx_hal_flash_ex.c **** 
 544              		.loc 1 973 0
 545 0030 1846     		mov	r0, r3
 546 0032 38BD     		pop	{r3, r4, r5, pc}
 547              	.LVL52:
 548              	.L55:
 549              		.align	2
 550              	.L54:
 551 0034 003C0240 		.word	1073888256
 552 0038 0000FFFF 		.word	-65536
 553              		.cfi_endproc
 554              	.LFE153:
 556              		.section	.text.HAL_FLASHEx_OBProgram,"ax",%progbits
 557              		.align	2
 558              		.global	HAL_FLASHEx_OBProgram
 559              		.thumb
 560              		.thumb_func
 562              	HAL_FLASHEx_OBProgram:
 563              	.LFB142:
 304:Drivers/STM32F7xx_HAL_Driver/Src/stm32f7xx_hal_flash_ex.c ****   HAL_StatusTypeDef status = HAL_ERROR;
 564              		.loc 1 304 0
 565              		.cfi_startproc
 566              		@ args = 0, pretend = 0, frame = 0
 567              		@ frame_needed = 0, uses_anonymous_args = 0
 568              	.LVL53:
 308:Drivers/STM32F7xx_HAL_Driver/Src/stm32f7xx_hal_flash_ex.c **** 
ARM GAS  /tmp/ccd0mmyh.s 			page 37


 569              		.loc 1 308 0
 570 0000 2D4B     		ldr	r3, .L69
 571 0002 1B7D     		ldrb	r3, [r3, #20]	@ zero_extendqisi2
 572 0004 012B     		cmp	r3, #1
 573 0006 52D0     		beq	.L65
 304:Drivers/STM32F7xx_HAL_Driver/Src/stm32f7xx_hal_flash_ex.c ****   HAL_StatusTypeDef status = HAL_ERROR;
 574              		.loc 1 304 0 discriminator 2
 575 0008 30B5     		push	{r4, r5, lr}
 576              	.LCFI5:
 577              		.cfi_def_cfa_offset 12
 578              		.cfi_offset 4, -12
 579              		.cfi_offset 5, -8
 580              		.cfi_offset 14, -4
 581 000a 85B0     		sub	sp, sp, #20
 582              	.LCFI6:
 583              		.cfi_def_cfa_offset 32
 584 000c 0446     		mov	r4, r0
 308:Drivers/STM32F7xx_HAL_Driver/Src/stm32f7xx_hal_flash_ex.c **** 
 585              		.loc 1 308 0 discriminator 2
 586 000e 0122     		movs	r2, #1
 587 0010 294B     		ldr	r3, .L69
 588 0012 1A75     		strb	r2, [r3, #20]
 314:Drivers/STM32F7xx_HAL_Driver/Src/stm32f7xx_hal_flash_ex.c ****   {
 589              		.loc 1 314 0 discriminator 2
 590 0014 0368     		ldr	r3, [r0]
 591 0016 13F0010F 		tst	r3, #1
 592 001a 0AD0     		beq	.L66
 317:Drivers/STM32F7xx_HAL_Driver/Src/stm32f7xx_hal_flash_ex.c ****     {
 593              		.loc 1 317 0
 594 001c 4368     		ldr	r3, [r0, #4]
 595 001e 9342     		cmp	r3, r2
 596 0020 03D1     		bne	.L59
 320:Drivers/STM32F7xx_HAL_Driver/Src/stm32f7xx_hal_flash_ex.c ****     }
 597              		.loc 1 320 0
 598 0022 8068     		ldr	r0, [r0, #8]
 599              	.LVL54:
 600 0024 FFF7FEFF 		bl	FLASH_OB_EnableWRP
 601              	.LVL55:
 602 0028 04E0     		b	.L58
 603              	.LVL56:
 604              	.L59:
 325:Drivers/STM32F7xx_HAL_Driver/Src/stm32f7xx_hal_flash_ex.c ****     }
 605              		.loc 1 325 0
 606 002a 8068     		ldr	r0, [r0, #8]
 607              	.LVL57:
 608 002c FFF7FEFF 		bl	FLASH_OB_DisableWRP
 609              	.LVL58:
 610 0030 00E0     		b	.L58
 611              	.LVL59:
 612              	.L66:
 305:Drivers/STM32F7xx_HAL_Driver/Src/stm32f7xx_hal_flash_ex.c ****   
 613              		.loc 1 305 0
 614 0032 0120     		movs	r0, #1
 615              	.LVL60:
 616              	.L58:
 330:Drivers/STM32F7xx_HAL_Driver/Src/stm32f7xx_hal_flash_ex.c ****   {
 617              		.loc 1 330 0
ARM GAS  /tmp/ccd0mmyh.s 			page 38


 618 0034 2368     		ldr	r3, [r4]
 619 0036 13F0020F 		tst	r3, #2
 620 003a 02D0     		beq	.L60
 332:Drivers/STM32F7xx_HAL_Driver/Src/stm32f7xx_hal_flash_ex.c ****   }
 621              		.loc 1 332 0
 622 003c 207B     		ldrb	r0, [r4, #12]	@ zero_extendqisi2
 623              	.LVL61:
 624 003e FFF7FEFF 		bl	FLASH_OB_RDP_LevelConfig
 625              	.LVL62:
 626              	.L60:
 336:Drivers/STM32F7xx_HAL_Driver/Src/stm32f7xx_hal_flash_ex.c ****   {
 627              		.loc 1 336 0
 628 0042 2368     		ldr	r3, [r4]
 629 0044 13F0040F 		tst	r3, #4
 630 0048 16D0     		beq	.L61
 339:Drivers/STM32F7xx_HAL_Driver/Src/stm32f7xx_hal_flash_ex.c ****                                  pOBInit->USERConfig & OB_IWDG_SW,
 631              		.loc 1 339 0
 632 004a 6369     		ldr	r3, [r4, #20]
 633 004c 03F00045 		and	r5, r3, #-2147483648
 634 0050 03F08040 		and	r0, r3, #1073741824
 635              	.LVL63:
 636 0054 03F00051 		and	r1, r3, #536870912
 637 0058 03F08052 		and	r2, r3, #268435456
 638 005c 0095     		str	r5, [sp]
 639 005e 0190     		str	r0, [sp, #4]
 640 0060 0291     		str	r1, [sp, #8]
 641 0062 0392     		str	r2, [sp, #12]
 642 0064 03F01000 		and	r0, r3, #16
 643 0068 03F02001 		and	r1, r3, #32
 644 006c 03F04002 		and	r2, r3, #64
 645 0070 03F08003 		and	r3, r3, #128
 646 0074 FFF7FEFF 		bl	FLASH_OB_UserConfig
 647              	.LVL64:
 648              	.L61:
 358:Drivers/STM32F7xx_HAL_Driver/Src/stm32f7xx_hal_flash_ex.c ****   {
 649              		.loc 1 358 0
 650 0078 2368     		ldr	r3, [r4]
 651 007a 13F0080F 		tst	r3, #8
 652 007e 02D0     		beq	.L62
 360:Drivers/STM32F7xx_HAL_Driver/Src/stm32f7xx_hal_flash_ex.c ****   }
 653              		.loc 1 360 0
 654 0080 207C     		ldrb	r0, [r4, #16]	@ zero_extendqisi2
 655              	.LVL65:
 656 0082 FFF7FEFF 		bl	FLASH_OB_BOR_LevelConfig
 657              	.LVL66:
 658              	.L62:
 364:Drivers/STM32F7xx_HAL_Driver/Src/stm32f7xx_hal_flash_ex.c ****   {
 659              		.loc 1 364 0
 660 0086 2368     		ldr	r3, [r4]
 661 0088 13F0100F 		tst	r3, #16
 662 008c 03D0     		beq	.L63
 366:Drivers/STM32F7xx_HAL_Driver/Src/stm32f7xx_hal_flash_ex.c ****   }
 663              		.loc 1 366 0
 664 008e 1020     		movs	r0, #16
 665              	.LVL67:
 666 0090 A169     		ldr	r1, [r4, #24]
 667 0092 FFF7FEFF 		bl	FLASH_OB_BootAddressConfig
ARM GAS  /tmp/ccd0mmyh.s 			page 39


 668              	.LVL68:
 669              	.L63:
 370:Drivers/STM32F7xx_HAL_Driver/Src/stm32f7xx_hal_flash_ex.c ****   {
 670              		.loc 1 370 0
 671 0096 2368     		ldr	r3, [r4]
 672 0098 13F0200F 		tst	r3, #32
 673 009c 03D0     		beq	.L64
 372:Drivers/STM32F7xx_HAL_Driver/Src/stm32f7xx_hal_flash_ex.c ****   }
 674              		.loc 1 372 0
 675 009e 2020     		movs	r0, #32
 676              	.LVL69:
 677 00a0 E169     		ldr	r1, [r4, #28]
 678 00a2 FFF7FEFF 		bl	FLASH_OB_BootAddressConfig
 679              	.LVL70:
 680              	.L64:
 390:Drivers/STM32F7xx_HAL_Driver/Src/stm32f7xx_hal_flash_ex.c **** 
 681              		.loc 1 390 0
 682 00a6 0022     		movs	r2, #0
 683 00a8 034B     		ldr	r3, .L69
 684 00aa 1A75     		strb	r2, [r3, #20]
 392:Drivers/STM32F7xx_HAL_Driver/Src/stm32f7xx_hal_flash_ex.c **** }
 685              		.loc 1 392 0
 686 00ac 01E0     		b	.L57
 687              	.LVL71:
 688              	.L65:
 689              	.LCFI7:
 690              		.cfi_def_cfa_offset 0
 691              		.cfi_restore 4
 692              		.cfi_restore 5
 693              		.cfi_restore 14
 308:Drivers/STM32F7xx_HAL_Driver/Src/stm32f7xx_hal_flash_ex.c **** 
 694              		.loc 1 308 0
 695 00ae 0220     		movs	r0, #2
 696              	.LVL72:
 697 00b0 7047     		bx	lr
 698              	.LVL73:
 699              	.L57:
 700              	.LCFI8:
 701              		.cfi_def_cfa_offset 32
 702              		.cfi_offset 4, -12
 703              		.cfi_offset 5, -8
 704              		.cfi_offset 14, -4
 393:Drivers/STM32F7xx_HAL_Driver/Src/stm32f7xx_hal_flash_ex.c **** 
 705              		.loc 1 393 0
 706 00b2 05B0     		add	sp, sp, #20
 707              	.LCFI9:
 708              		.cfi_def_cfa_offset 12
 709              		@ sp needed
 710 00b4 30BD     		pop	{r4, r5, pc}
 711              	.LVL74:
 712              	.L70:
 713 00b6 00BF     		.align	2
 714              	.L69:
 715 00b8 00000000 		.word	pFlash
 716              		.cfi_endproc
 717              	.LFE142:
 719              		.section	.text.HAL_FLASHEx_OBGetConfig,"ax",%progbits
ARM GAS  /tmp/ccd0mmyh.s 			page 40


 720              		.align	2
 721              		.global	HAL_FLASHEx_OBGetConfig
 722              		.thumb
 723              		.thumb_func
 725              	HAL_FLASHEx_OBGetConfig:
 726              	.LFB143:
 403:Drivers/STM32F7xx_HAL_Driver/Src/stm32f7xx_hal_flash_ex.c ****   pOBInit->OptionType = OPTIONBYTE_WRP | OPTIONBYTE_RDP | OPTIONBYTE_USER |\
 727              		.loc 1 403 0
 728              		.cfi_startproc
 729              		@ args = 0, pretend = 0, frame = 0
 730              		@ frame_needed = 0, uses_anonymous_args = 0
 731              	.LVL75:
 732 0000 10B5     		push	{r4, lr}
 733              	.LCFI10:
 734              		.cfi_def_cfa_offset 8
 735              		.cfi_offset 4, -8
 736              		.cfi_offset 14, -4
 737 0002 0446     		mov	r4, r0
 404:Drivers/STM32F7xx_HAL_Driver/Src/stm32f7xx_hal_flash_ex.c **** 	                OPTIONBYTE_BOR | OPTIONBYTE_BOOTADDR_0 | OPTIONBYTE_BOOTADDR_1;
 738              		.loc 1 404 0
 739 0004 3F23     		movs	r3, #63
 740 0006 0360     		str	r3, [r0]
 408:Drivers/STM32F7xx_HAL_Driver/Src/stm32f7xx_hal_flash_ex.c **** 
 741              		.loc 1 408 0
 742 0008 FFF7FEFF 		bl	FLASH_OB_GetWRP
 743              	.LVL76:
 744 000c A060     		str	r0, [r4, #8]
 411:Drivers/STM32F7xx_HAL_Driver/Src/stm32f7xx_hal_flash_ex.c **** 
 745              		.loc 1 411 0
 746 000e FFF7FEFF 		bl	FLASH_OB_GetRDP
 747              	.LVL77:
 748 0012 E060     		str	r0, [r4, #12]
 414:Drivers/STM32F7xx_HAL_Driver/Src/stm32f7xx_hal_flash_ex.c **** 
 749              		.loc 1 414 0
 750 0014 FFF7FEFF 		bl	FLASH_OB_GetUser
 751              	.LVL78:
 752 0018 6061     		str	r0, [r4, #20]
 417:Drivers/STM32F7xx_HAL_Driver/Src/stm32f7xx_hal_flash_ex.c ****   
 753              		.loc 1 417 0
 754 001a FFF7FEFF 		bl	FLASH_OB_GetBOR
 755              	.LVL79:
 756 001e 2061     		str	r0, [r4, #16]
 420:Drivers/STM32F7xx_HAL_Driver/Src/stm32f7xx_hal_flash_ex.c ****   
 757              		.loc 1 420 0
 758 0020 1020     		movs	r0, #16
 759 0022 FFF7FEFF 		bl	FLASH_OB_GetBootAddress
 760              	.LVL80:
 761 0026 A061     		str	r0, [r4, #24]
 423:Drivers/STM32F7xx_HAL_Driver/Src/stm32f7xx_hal_flash_ex.c **** 
 762              		.loc 1 423 0
 763 0028 2020     		movs	r0, #32
 764 002a FFF7FEFF 		bl	FLASH_OB_GetBootAddress
 765              	.LVL81:
 766 002e E061     		str	r0, [r4, #28]
 767 0030 10BD     		pop	{r4, pc}
 768              		.cfi_endproc
 769              	.LFE143:
ARM GAS  /tmp/ccd0mmyh.s 			page 41


 771 0032 00BF     		.section	.text.FLASH_Erase_Sector,"ax",%progbits
 772              		.align	2
 773              		.global	FLASH_Erase_Sector
 774              		.thumb
 775              		.thumb_func
 777              	FLASH_Erase_Sector:
 778              	.LFB145:
 505:Drivers/STM32F7xx_HAL_Driver/Src/stm32f7xx_hal_flash_ex.c ****   uint32_t tmp_psize = 0;
 779              		.loc 1 505 0
 780              		.cfi_startproc
 781              		@ args = 0, pretend = 0, frame = 0
 782              		@ frame_needed = 0, uses_anonymous_args = 0
 783              		@ link register save eliminated.
 784              	.LVL82:
 512:Drivers/STM32F7xx_HAL_Driver/Src/stm32f7xx_hal_flash_ex.c ****   {
 785              		.loc 1 512 0
 786 0000 31B1     		cbz	r1, .L76
 516:Drivers/STM32F7xx_HAL_Driver/Src/stm32f7xx_hal_flash_ex.c ****   {
 787              		.loc 1 516 0
 788 0002 0129     		cmp	r1, #1
 789 0004 06D0     		beq	.L77
 520:Drivers/STM32F7xx_HAL_Driver/Src/stm32f7xx_hal_flash_ex.c ****   {
 790              		.loc 1 520 0
 791 0006 0229     		cmp	r1, #2
 792 0008 07D1     		bne	.L78
 522:Drivers/STM32F7xx_HAL_Driver/Src/stm32f7xx_hal_flash_ex.c ****   }
 793              		.loc 1 522 0
 794 000a 4FF40071 		mov	r1, #512
 795              	.LVL83:
 796 000e 06E0     		b	.L74
 797              	.LVL84:
 798              	.L76:
 514:Drivers/STM32F7xx_HAL_Driver/Src/stm32f7xx_hal_flash_ex.c ****   }
 799              		.loc 1 514 0
 800 0010 0021     		movs	r1, #0
 801              	.LVL85:
 802 0012 04E0     		b	.L74
 803              	.LVL86:
 804              	.L77:
 518:Drivers/STM32F7xx_HAL_Driver/Src/stm32f7xx_hal_flash_ex.c ****   }
 805              		.loc 1 518 0
 806 0014 4FF48071 		mov	r1, #256
 807              	.LVL87:
 808 0018 01E0     		b	.L74
 809              	.LVL88:
 810              	.L78:
 526:Drivers/STM32F7xx_HAL_Driver/Src/stm32f7xx_hal_flash_ex.c ****   }
 811              		.loc 1 526 0
 812 001a 4FF44071 		mov	r1, #768
 813              	.LVL89:
 814              	.L74:
 530:Drivers/STM32F7xx_HAL_Driver/Src/stm32f7xx_hal_flash_ex.c ****   {
 815              		.loc 1 530 0
 816 001e 0B28     		cmp	r0, #11
 817 0020 00D9     		bls	.L75
 532:Drivers/STM32F7xx_HAL_Driver/Src/stm32f7xx_hal_flash_ex.c ****   }  
 818              		.loc 1 532 0
ARM GAS  /tmp/ccd0mmyh.s 			page 42


 819 0022 0430     		adds	r0, r0, #4
 820              	.LVL90:
 821              	.L75:
 536:Drivers/STM32F7xx_HAL_Driver/Src/stm32f7xx_hal_flash_ex.c ****   FLASH->CR |= tmp_psize;
 822              		.loc 1 536 0
 823 0024 0C4B     		ldr	r3, .L79
 824 0026 1A69     		ldr	r2, [r3, #16]
 825 0028 22F44072 		bic	r2, r2, #768
 826 002c 1A61     		str	r2, [r3, #16]
 537:Drivers/STM32F7xx_HAL_Driver/Src/stm32f7xx_hal_flash_ex.c ****   CLEAR_BIT(FLASH->CR, FLASH_CR_SNB);
 827              		.loc 1 537 0
 828 002e 1A69     		ldr	r2, [r3, #16]
 829 0030 0A43     		orrs	r2, r2, r1
 830 0032 1A61     		str	r2, [r3, #16]
 538:Drivers/STM32F7xx_HAL_Driver/Src/stm32f7xx_hal_flash_ex.c ****   FLASH->CR |= FLASH_CR_SER | (Sector << FLASH_CR_SNB_Pos);
 831              		.loc 1 538 0
 832 0034 1A69     		ldr	r2, [r3, #16]
 833 0036 22F0F802 		bic	r2, r2, #248
 834 003a 1A61     		str	r2, [r3, #16]
 539:Drivers/STM32F7xx_HAL_Driver/Src/stm32f7xx_hal_flash_ex.c ****   FLASH->CR |= FLASH_CR_STRT;
 835              		.loc 1 539 0
 836 003c 1A69     		ldr	r2, [r3, #16]
 837 003e 42EAC000 		orr	r0, r2, r0, lsl #3
 838              	.LVL91:
 839 0042 40F00200 		orr	r0, r0, #2
 840 0046 1861     		str	r0, [r3, #16]
 540:Drivers/STM32F7xx_HAL_Driver/Src/stm32f7xx_hal_flash_ex.c ****   
 841              		.loc 1 540 0
 842 0048 1A69     		ldr	r2, [r3, #16]
 843 004a 42F48032 		orr	r2, r2, #65536
 844 004e 1A61     		str	r2, [r3, #16]
 845              	.LBB8:
 846              	.LBB9:
 847              		.loc 2 429 0
 848              	@ 429 "Drivers/CMSIS/Include/cmsis_gcc.h" 1
 849 0050 BFF34F8F 		dsb 0xF
 850              	@ 0 "" 2
 851              		.thumb
 852 0054 7047     		bx	lr
 853              	.L80:
 854 0056 00BF     		.align	2
 855              	.L79:
 856 0058 003C0240 		.word	1073888256
 857              	.LBE9:
 858              	.LBE8:
 859              		.cfi_endproc
 860              	.LFE145:
 862              		.section	.text.HAL_FLASHEx_Erase,"ax",%progbits
 863              		.align	2
 864              		.global	HAL_FLASHEx_Erase
 865              		.thumb
 866              		.thumb_func
 868              	HAL_FLASHEx_Erase:
 869              	.LFB140:
 175:Drivers/STM32F7xx_HAL_Driver/Src/stm32f7xx_hal_flash_ex.c ****   HAL_StatusTypeDef status = HAL_ERROR;
 870              		.loc 1 175 0
 871              		.cfi_startproc
ARM GAS  /tmp/ccd0mmyh.s 			page 43


 872              		@ args = 0, pretend = 0, frame = 0
 873              		@ frame_needed = 0, uses_anonymous_args = 0
 874              	.LVL92:
 180:Drivers/STM32F7xx_HAL_Driver/Src/stm32f7xx_hal_flash_ex.c **** 
 875              		.loc 1 180 0
 876 0000 224B     		ldr	r3, .L91
 877 0002 1B7D     		ldrb	r3, [r3, #20]	@ zero_extendqisi2
 878 0004 012B     		cmp	r3, #1
 879 0006 3ED0     		beq	.L88
 175:Drivers/STM32F7xx_HAL_Driver/Src/stm32f7xx_hal_flash_ex.c ****   HAL_StatusTypeDef status = HAL_ERROR;
 880              		.loc 1 175 0 discriminator 2
 881 0008 70B5     		push	{r4, r5, r6, lr}
 882              	.LCFI11:
 883              		.cfi_def_cfa_offset 16
 884              		.cfi_offset 4, -16
 885              		.cfi_offset 5, -12
 886              		.cfi_offset 6, -8
 887              		.cfi_offset 14, -4
 888 000a 0E46     		mov	r6, r1
 889 000c 0446     		mov	r4, r0
 180:Drivers/STM32F7xx_HAL_Driver/Src/stm32f7xx_hal_flash_ex.c **** 
 890              		.loc 1 180 0 discriminator 2
 891 000e 0122     		movs	r2, #1
 892 0010 1E4B     		ldr	r3, .L91
 893 0012 1A75     		strb	r2, [r3, #20]
 186:Drivers/STM32F7xx_HAL_Driver/Src/stm32f7xx_hal_flash_ex.c **** 
 894              		.loc 1 186 0 discriminator 2
 895 0014 4CF25030 		movw	r0, #50000
 896              	.LVL93:
 897 0018 FFF7FEFF 		bl	FLASH_WaitForLastOperation
 898              	.LVL94:
 188:Drivers/STM32F7xx_HAL_Driver/Src/stm32f7xx_hal_flash_ex.c ****   {
 899              		.loc 1 188 0 discriminator 2
 900 001c 0246     		mov	r2, r0
 901 001e 68BB     		cbnz	r0, .L83
 191:Drivers/STM32F7xx_HAL_Driver/Src/stm32f7xx_hal_flash_ex.c ****     
 902              		.loc 1 191 0
 903 0020 4FF0FF33 		mov	r3, #-1
 904 0024 3360     		str	r3, [r6]
 193:Drivers/STM32F7xx_HAL_Driver/Src/stm32f7xx_hal_flash_ex.c ****     {
 905              		.loc 1 193 0
 906 0026 2368     		ldr	r3, [r4]
 907 0028 012B     		cmp	r3, #1
 908 002a 0ED1     		bne	.L84
 197:Drivers/STM32F7xx_HAL_Driver/Src/stm32f7xx_hal_flash_ex.c **** #else
 909              		.loc 1 197 0
 910 002c 207C     		ldrb	r0, [r4, #16]	@ zero_extendqisi2
 911              	.LVL95:
 912 002e 6168     		ldr	r1, [r4, #4]
 913 0030 FFF7FEFF 		bl	FLASH_MassErase
 914              	.LVL96:
 203:Drivers/STM32F7xx_HAL_Driver/Src/stm32f7xx_hal_flash_ex.c ****       
 915              		.loc 1 203 0
 916 0034 4CF25030 		movw	r0, #50000
 917 0038 FFF7FEFF 		bl	FLASH_WaitForLastOperation
 918              	.LVL97:
 919 003c 0246     		mov	r2, r0
ARM GAS  /tmp/ccd0mmyh.s 			page 44


 920              	.LVL98:
 206:Drivers/STM32F7xx_HAL_Driver/Src/stm32f7xx_hal_flash_ex.c ****     }
 921              		.loc 1 206 0
 922 003e 1449     		ldr	r1, .L91+4
 923 0040 0869     		ldr	r0, [r1, #16]
 924 0042 144B     		ldr	r3, .L91+8
 925 0044 0340     		ands	r3, r3, r0
 926 0046 0B61     		str	r3, [r1, #16]
 927 0048 18E0     		b	.L83
 928              	.LVL99:
 929              	.L84:
 214:Drivers/STM32F7xx_HAL_Driver/Src/stm32f7xx_hal_flash_ex.c ****       {
 930              		.loc 1 214 0
 931 004a A568     		ldr	r5, [r4, #8]
 932              	.LVL100:
 933 004c 11E0     		b	.L85
 934              	.LVL101:
 935              	.L87:
 216:Drivers/STM32F7xx_HAL_Driver/Src/stm32f7xx_hal_flash_ex.c **** 
 936              		.loc 1 216 0
 937 004e 2846     		mov	r0, r5
 938 0050 217C     		ldrb	r1, [r4, #16]	@ zero_extendqisi2
 939 0052 FFF7FEFF 		bl	FLASH_Erase_Sector
 940              	.LVL102:
 219:Drivers/STM32F7xx_HAL_Driver/Src/stm32f7xx_hal_flash_ex.c ****         
 941              		.loc 1 219 0
 942 0056 4CF25030 		movw	r0, #50000
 943 005a FFF7FEFF 		bl	FLASH_WaitForLastOperation
 944              	.LVL103:
 222:Drivers/STM32F7xx_HAL_Driver/Src/stm32f7xx_hal_flash_ex.c **** 
 945              		.loc 1 222 0
 946 005e 0C4A     		ldr	r2, .L91+4
 947 0060 1369     		ldr	r3, [r2, #16]
 948 0062 23F0FA03 		bic	r3, r3, #250
 949 0066 1361     		str	r3, [r2, #16]
 224:Drivers/STM32F7xx_HAL_Driver/Src/stm32f7xx_hal_flash_ex.c ****         {
 950              		.loc 1 224 0
 951 0068 0246     		mov	r2, r0
 952 006a 08B1     		cbz	r0, .L86
 227:Drivers/STM32F7xx_HAL_Driver/Src/stm32f7xx_hal_flash_ex.c ****           break;
 953              		.loc 1 227 0
 954 006c 3560     		str	r5, [r6]
 228:Drivers/STM32F7xx_HAL_Driver/Src/stm32f7xx_hal_flash_ex.c ****         }
 955              		.loc 1 228 0
 956 006e 05E0     		b	.L83
 957              	.L86:
 214:Drivers/STM32F7xx_HAL_Driver/Src/stm32f7xx_hal_flash_ex.c ****       {
 958              		.loc 1 214 0 discriminator 2
 959 0070 0135     		adds	r5, r5, #1
 960              	.LVL104:
 961              	.L85:
 214:Drivers/STM32F7xx_HAL_Driver/Src/stm32f7xx_hal_flash_ex.c ****       {
 962              		.loc 1 214 0 is_stmt 0 discriminator 1
 963 0072 E168     		ldr	r1, [r4, #12]
 964 0074 A368     		ldr	r3, [r4, #8]
 965 0076 0B44     		add	r3, r3, r1
 966 0078 AB42     		cmp	r3, r5
ARM GAS  /tmp/ccd0mmyh.s 			page 45


 967 007a E8D8     		bhi	.L87
 968              	.LVL105:
 969              	.L83:
 235:Drivers/STM32F7xx_HAL_Driver/Src/stm32f7xx_hal_flash_ex.c **** 
 970              		.loc 1 235 0 is_stmt 1
 971 007c 0021     		movs	r1, #0
 972 007e 034B     		ldr	r3, .L91
 973 0080 1975     		strb	r1, [r3, #20]
 237:Drivers/STM32F7xx_HAL_Driver/Src/stm32f7xx_hal_flash_ex.c **** }
 974              		.loc 1 237 0
 975 0082 1046     		mov	r0, r2
 976 0084 70BD     		pop	{r4, r5, r6, pc}
 977              	.LVL106:
 978              	.L88:
 979              	.LCFI12:
 980              		.cfi_def_cfa_offset 0
 981              		.cfi_restore 4
 982              		.cfi_restore 5
 983              		.cfi_restore 6
 984              		.cfi_restore 14
 180:Drivers/STM32F7xx_HAL_Driver/Src/stm32f7xx_hal_flash_ex.c **** 
 985              		.loc 1 180 0
 986 0086 0220     		movs	r0, #2
 987              	.LVL107:
 988 0088 7047     		bx	lr
 989              	.L92:
 990 008a 00BF     		.align	2
 991              	.L91:
 992 008c 00000000 		.word	pFlash
 993 0090 003C0240 		.word	1073888256
 994 0094 FB7FFFFF 		.word	-32773
 995              		.cfi_endproc
 996              	.LFE140:
 998              		.section	.text.HAL_FLASHEx_Erase_IT,"ax",%progbits
 999              		.align	2
 1000              		.global	HAL_FLASHEx_Erase_IT
 1001              		.thumb
 1002              		.thumb_func
 1004              	HAL_FLASHEx_Erase_IT:
 1005              	.LFB141:
 248:Drivers/STM32F7xx_HAL_Driver/Src/stm32f7xx_hal_flash_ex.c ****   HAL_StatusTypeDef status = HAL_OK;
 1006              		.loc 1 248 0
 1007              		.cfi_startproc
 1008              		@ args = 0, pretend = 0, frame = 0
 1009              		@ frame_needed = 0, uses_anonymous_args = 0
 1010              	.LVL108:
 252:Drivers/STM32F7xx_HAL_Driver/Src/stm32f7xx_hal_flash_ex.c **** 
 1011              		.loc 1 252 0
 1012 0000 174A     		ldr	r2, .L99
 1013 0002 127D     		ldrb	r2, [r2, #20]	@ zero_extendqisi2
 1014 0004 012A     		cmp	r2, #1
 1015 0006 29D0     		beq	.L96
 248:Drivers/STM32F7xx_HAL_Driver/Src/stm32f7xx_hal_flash_ex.c ****   HAL_StatusTypeDef status = HAL_OK;
 1016              		.loc 1 248 0 discriminator 2
 1017 0008 08B5     		push	{r3, lr}
 1018              	.LCFI13:
 1019              		.cfi_def_cfa_offset 8
ARM GAS  /tmp/ccd0mmyh.s 			page 46


 1020              		.cfi_offset 3, -8
 1021              		.cfi_offset 14, -4
 1022 000a 0346     		mov	r3, r0
 252:Drivers/STM32F7xx_HAL_Driver/Src/stm32f7xx_hal_flash_ex.c **** 
 1023              		.loc 1 252 0 discriminator 2
 1024 000c 0121     		movs	r1, #1
 1025 000e 144A     		ldr	r2, .L99
 1026 0010 1175     		strb	r1, [r2, #20]
 258:Drivers/STM32F7xx_HAL_Driver/Src/stm32f7xx_hal_flash_ex.c ****   
 1027              		.loc 1 258 0 discriminator 2
 1028 0012 144A     		ldr	r2, .L99+4
 1029 0014 1169     		ldr	r1, [r2, #16]
 1030 0016 41F08071 		orr	r1, r1, #16777216
 1031 001a 1161     		str	r1, [r2, #16]
 261:Drivers/STM32F7xx_HAL_Driver/Src/stm32f7xx_hal_flash_ex.c ****   
 1032              		.loc 1 261 0 discriminator 2
 1033 001c 1169     		ldr	r1, [r2, #16]
 1034 001e 41F00071 		orr	r1, r1, #33554432
 1035 0022 1161     		str	r1, [r2, #16]
 264:Drivers/STM32F7xx_HAL_Driver/Src/stm32f7xx_hal_flash_ex.c ****                          FLASH_FLAG_PGAERR | FLASH_FLAG_PGPERR| FLASH_FLAG_ERSERR);  
 1036              		.loc 1 264 0 discriminator 2
 1037 0024 F321     		movs	r1, #243
 1038 0026 D160     		str	r1, [r2, #12]
 267:Drivers/STM32F7xx_HAL_Driver/Src/stm32f7xx_hal_flash_ex.c ****   {
 1039              		.loc 1 267 0 discriminator 2
 1040 0028 0268     		ldr	r2, [r0]
 1041 002a 012A     		cmp	r2, #1
 1042 002c 08D1     		bne	.L95
 270:Drivers/STM32F7xx_HAL_Driver/Src/stm32f7xx_hal_flash_ex.c **** #if defined (FLASH_OPTCR_nDBANK)    
 1043              		.loc 1 270 0
 1044 002e 0221     		movs	r1, #2
 1045 0030 0B4A     		ldr	r2, .L99
 1046 0032 1170     		strb	r1, [r2]
 272:Drivers/STM32F7xx_HAL_Driver/Src/stm32f7xx_hal_flash_ex.c **** #else
 1047              		.loc 1 272 0
 1048 0034 007C     		ldrb	r0, [r0, #16]	@ zero_extendqisi2
 1049              	.LVL109:
 1050 0036 5968     		ldr	r1, [r3, #4]
 1051 0038 FFF7FEFF 		bl	FLASH_MassErase
 1052              	.LVL110:
 293:Drivers/STM32F7xx_HAL_Driver/Src/stm32f7xx_hal_flash_ex.c **** }
 1053              		.loc 1 293 0
 1054 003c 0020     		movs	r0, #0
 1055 003e 08BD     		pop	{r3, pc}
 1056              	.LVL111:
 1057              	.L95:
 284:Drivers/STM32F7xx_HAL_Driver/Src/stm32f7xx_hal_flash_ex.c ****     pFlash.NbSectorsToErase = pEraseInit->NbSectors;
 1058              		.loc 1 284 0
 1059 0040 074A     		ldr	r2, .L99
 1060 0042 0121     		movs	r1, #1
 1061 0044 1170     		strb	r1, [r2]
 285:Drivers/STM32F7xx_HAL_Driver/Src/stm32f7xx_hal_flash_ex.c ****     pFlash.Sector = pEraseInit->Sector;
 1062              		.loc 1 285 0
 1063 0046 C168     		ldr	r1, [r0, #12]
 1064 0048 5160     		str	r1, [r2, #4]
 286:Drivers/STM32F7xx_HAL_Driver/Src/stm32f7xx_hal_flash_ex.c ****     pFlash.VoltageForErase = (uint8_t)pEraseInit->VoltageRange;
 1065              		.loc 1 286 0
ARM GAS  /tmp/ccd0mmyh.s 			page 47


 1066 004a 8168     		ldr	r1, [r0, #8]
 1067 004c D160     		str	r1, [r2, #12]
 287:Drivers/STM32F7xx_HAL_Driver/Src/stm32f7xx_hal_flash_ex.c **** 
 1068              		.loc 1 287 0
 1069 004e 017C     		ldrb	r1, [r0, #16]	@ zero_extendqisi2
 1070 0050 1172     		strb	r1, [r2, #8]
 290:Drivers/STM32F7xx_HAL_Driver/Src/stm32f7xx_hal_flash_ex.c ****   }
 1071              		.loc 1 290 0
 1072 0052 8068     		ldr	r0, [r0, #8]
 1073              	.LVL112:
 1074 0054 FFF7FEFF 		bl	FLASH_Erase_Sector
 1075              	.LVL113:
 293:Drivers/STM32F7xx_HAL_Driver/Src/stm32f7xx_hal_flash_ex.c **** }
 1076              		.loc 1 293 0
 1077 0058 0020     		movs	r0, #0
 1078 005a 08BD     		pop	{r3, pc}
 1079              	.LVL114:
 1080              	.L96:
 1081              	.LCFI14:
 1082              		.cfi_def_cfa_offset 0
 1083              		.cfi_restore 3
 1084              		.cfi_restore 14
 252:Drivers/STM32F7xx_HAL_Driver/Src/stm32f7xx_hal_flash_ex.c **** 
 1085              		.loc 1 252 0
 1086 005c 0220     		movs	r0, #2
 1087              	.LVL115:
 1088 005e 7047     		bx	lr
 1089              	.L100:
 1090              		.align	2
 1091              	.L99:
 1092 0060 00000000 		.word	pFlash
 1093 0064 003C0240 		.word	1073888256
 1094              		.cfi_endproc
 1095              	.LFE141:
 1097              		.text
 1098              	.Letext0:
 1099              		.file 3 "/home/reglisse/opt/gcc-arm-none-eabi-4_9-2015q3/arm-none-eabi/include/machine/_default_ty
 1100              		.file 4 "/home/reglisse/opt/gcc-arm-none-eabi-4_9-2015q3/arm-none-eabi/include/sys/_stdint.h"
 1101              		.file 5 "Drivers/CMSIS/Device/ST/STM32F7xx/Include/stm32f767xx.h"
 1102              		.file 6 "Drivers/STM32F7xx_HAL_Driver/Inc/stm32f7xx_hal_def.h"
 1103              		.file 7 "Drivers/STM32F7xx_HAL_Driver/Inc/stm32f7xx_hal_flash.h"
 1104              		.file 8 "Drivers/STM32F7xx_HAL_Driver/Inc/stm32f7xx_hal_flash_ex.h"
 1105              		.file 9 "Drivers/CMSIS/Include/core_cm7.h"
ARM GAS  /tmp/ccd0mmyh.s 			page 48


DEFINED SYMBOLS
                            *ABS*:00000000 stm32f7xx_hal_flash_ex.c
     /tmp/ccd0mmyh.s:20     .text.FLASH_MassErase:00000000 $t
     /tmp/ccd0mmyh.s:24     .text.FLASH_MassErase:00000000 FLASH_MassErase
     /tmp/ccd0mmyh.s:86     .text.FLASH_MassErase:00000048 $d
     /tmp/ccd0mmyh.s:93     .text.FLASH_OB_GetWRP:00000000 $t
     /tmp/ccd0mmyh.s:97     .text.FLASH_OB_GetWRP:00000000 FLASH_OB_GetWRP
     /tmp/ccd0mmyh.s:114    .text.FLASH_OB_GetWRP:0000000c $d
     /tmp/ccd0mmyh.s:120    .text.FLASH_OB_GetUser:00000000 $t
     /tmp/ccd0mmyh.s:124    .text.FLASH_OB_GetUser:00000000 FLASH_OB_GetUser
     /tmp/ccd0mmyh.s:141    .text.FLASH_OB_GetUser:0000000c $d
     /tmp/ccd0mmyh.s:147    .text.FLASH_OB_BOR_LevelConfig:00000000 $t
     /tmp/ccd0mmyh.s:151    .text.FLASH_OB_BOR_LevelConfig:00000000 FLASH_OB_BOR_LevelConfig
     /tmp/ccd0mmyh.s:172    .text.FLASH_OB_BOR_LevelConfig:00000010 $d
     /tmp/ccd0mmyh.s:177    .text.FLASH_OB_GetRDP:00000000 $t
     /tmp/ccd0mmyh.s:181    .text.FLASH_OB_GetRDP:00000000 FLASH_OB_GetRDP
     /tmp/ccd0mmyh.s:217    .text.FLASH_OB_GetRDP:00000020 $d
     /tmp/ccd0mmyh.s:222    .text.FLASH_OB_GetBOR:00000000 $t
     /tmp/ccd0mmyh.s:226    .text.FLASH_OB_GetBOR:00000000 FLASH_OB_GetBOR
     /tmp/ccd0mmyh.s:242    .text.FLASH_OB_GetBOR:0000000c $d
     /tmp/ccd0mmyh.s:247    .text.FLASH_OB_GetBootAddress:00000000 $t
     /tmp/ccd0mmyh.s:251    .text.FLASH_OB_GetBootAddress:00000000 FLASH_OB_GetBootAddress
     /tmp/ccd0mmyh.s:282    .text.FLASH_OB_GetBootAddress:00000014 $d
     /tmp/ccd0mmyh.s:287    .text.FLASH_OB_EnableWRP:00000000 $t
     /tmp/ccd0mmyh.s:291    .text.FLASH_OB_EnableWRP:00000000 FLASH_OB_EnableWRP
     /tmp/ccd0mmyh.s:327    .text.FLASH_OB_EnableWRP:00000020 $d
     /tmp/ccd0mmyh.s:332    .text.FLASH_OB_DisableWRP:00000000 $t
     /tmp/ccd0mmyh.s:336    .text.FLASH_OB_DisableWRP:00000000 FLASH_OB_DisableWRP
     /tmp/ccd0mmyh.s:372    .text.FLASH_OB_DisableWRP:0000001c $d
     /tmp/ccd0mmyh.s:377    .text.FLASH_OB_RDP_LevelConfig:00000000 $t
     /tmp/ccd0mmyh.s:381    .text.FLASH_OB_RDP_LevelConfig:00000000 FLASH_OB_RDP_LevelConfig
     /tmp/ccd0mmyh.s:414    .text.FLASH_OB_RDP_LevelConfig:00000018 $d
     /tmp/ccd0mmyh.s:419    .text.FLASH_OB_UserConfig:00000000 $t
     /tmp/ccd0mmyh.s:423    .text.FLASH_OB_UserConfig:00000000 FLASH_OB_UserConfig
     /tmp/ccd0mmyh.s:487    .text.FLASH_OB_UserConfig:0000003c $d
     /tmp/ccd0mmyh.s:493    .text.FLASH_OB_BootAddressConfig:00000000 $t
     /tmp/ccd0mmyh.s:497    .text.FLASH_OB_BootAddressConfig:00000000 FLASH_OB_BootAddressConfig
     /tmp/ccd0mmyh.s:551    .text.FLASH_OB_BootAddressConfig:00000034 $d
     /tmp/ccd0mmyh.s:557    .text.HAL_FLASHEx_OBProgram:00000000 $t
     /tmp/ccd0mmyh.s:562    .text.HAL_FLASHEx_OBProgram:00000000 HAL_FLASHEx_OBProgram
     /tmp/ccd0mmyh.s:715    .text.HAL_FLASHEx_OBProgram:000000b8 $d
     /tmp/ccd0mmyh.s:720    .text.HAL_FLASHEx_OBGetConfig:00000000 $t
     /tmp/ccd0mmyh.s:725    .text.HAL_FLASHEx_OBGetConfig:00000000 HAL_FLASHEx_OBGetConfig
     /tmp/ccd0mmyh.s:772    .text.FLASH_Erase_Sector:00000000 $t
     /tmp/ccd0mmyh.s:777    .text.FLASH_Erase_Sector:00000000 FLASH_Erase_Sector
     /tmp/ccd0mmyh.s:856    .text.FLASH_Erase_Sector:00000058 $d
     /tmp/ccd0mmyh.s:863    .text.HAL_FLASHEx_Erase:00000000 $t
     /tmp/ccd0mmyh.s:868    .text.HAL_FLASHEx_Erase:00000000 HAL_FLASHEx_Erase
     /tmp/ccd0mmyh.s:992    .text.HAL_FLASHEx_Erase:0000008c $d
     /tmp/ccd0mmyh.s:999    .text.HAL_FLASHEx_Erase_IT:00000000 $t
     /tmp/ccd0mmyh.s:1004   .text.HAL_FLASHEx_Erase_IT:00000000 HAL_FLASHEx_Erase_IT
     /tmp/ccd0mmyh.s:1092   .text.HAL_FLASHEx_Erase_IT:00000060 $d
                     .debug_frame:00000010 $d

UNDEFINED SYMBOLS
FLASH_WaitForLastOperation
pFlash
ARM GAS  /tmp/ccd0mmyh.s 			page 49


