ARM GAS  /tmp/ccJroUwU.s 			page 1


   1              		.syntax unified
   2              		.cpu cortex-m7
   3              		.eabi_attribute 28, 1
   4              		.fpu fpv5-d16
   5              		.eabi_attribute 20, 1
   6              		.eabi_attribute 21, 1
   7              		.eabi_attribute 23, 3
   8              		.eabi_attribute 24, 1
   9              		.eabi_attribute 25, 1
  10              		.eabi_attribute 26, 1
  11              		.eabi_attribute 30, 1
  12              		.eabi_attribute 34, 1
  13              		.eabi_attribute 18, 4
  14              		.thumb
  15              		.file	"system_stm32f7xx.c"
  16              		.text
  17              	.Ltext0:
  18              		.cfi_sections	.debug_frame
  19              		.section	.text.SystemInit,"ax",%progbits
  20              		.align	2
  21              		.global	SystemInit
  22              		.thumb
  23              		.thumb_func
  25              	SystemInit:
  26              	.LFB140:
  27              		.file 1 "Src/system_stm32f7xx.c"
   1:Src/system_stm32f7xx.c **** /**
   2:Src/system_stm32f7xx.c ****   ******************************************************************************
   3:Src/system_stm32f7xx.c ****   * @file    system_stm32f7xx.c
   4:Src/system_stm32f7xx.c ****   * @author  MCD Application Team
   5:Src/system_stm32f7xx.c ****   * @brief   CMSIS Cortex-M7 Device Peripheral Access Layer System Source File.
   6:Src/system_stm32f7xx.c ****   *
   7:Src/system_stm32f7xx.c ****   *   This file provides two functions and one global variable to be called from 
   8:Src/system_stm32f7xx.c ****   *   user application:
   9:Src/system_stm32f7xx.c ****   *      - SystemInit(): This function is called at startup just after reset and 
  10:Src/system_stm32f7xx.c ****   *                      before branch to main program. This call is made inside
  11:Src/system_stm32f7xx.c ****   *                      the "startup_stm32f7xx.s" file.
  12:Src/system_stm32f7xx.c ****   *
  13:Src/system_stm32f7xx.c ****   *      - SystemCoreClock variable: Contains the core clock (HCLK), it can be used
  14:Src/system_stm32f7xx.c ****   *                                  by the user application to setup the SysTick 
  15:Src/system_stm32f7xx.c ****   *                                  timer or configure other parameters.
  16:Src/system_stm32f7xx.c ****   *                                     
  17:Src/system_stm32f7xx.c ****   *      - SystemCoreClockUpdate(): Updates the variable SystemCoreClock and must
  18:Src/system_stm32f7xx.c ****   *                                 be called whenever the core clock is changed
  19:Src/system_stm32f7xx.c ****   *                                 during program execution.
  20:Src/system_stm32f7xx.c ****   *
  21:Src/system_stm32f7xx.c ****   *
  22:Src/system_stm32f7xx.c ****   ******************************************************************************
  23:Src/system_stm32f7xx.c ****   * @attention
  24:Src/system_stm32f7xx.c ****   *
  25:Src/system_stm32f7xx.c ****   * <h2><center>&copy; COPYRIGHT 2016 STMicroelectronics</center></h2>
  26:Src/system_stm32f7xx.c ****   *
  27:Src/system_stm32f7xx.c ****   * Redistribution and use in source and binary forms, with or without modification,
  28:Src/system_stm32f7xx.c ****   * are permitted provided that the following conditions are met:
  29:Src/system_stm32f7xx.c ****   *   1. Redistributions of source code must retain the above copyright notice,
  30:Src/system_stm32f7xx.c ****   *      this list of conditions and the following disclaimer.
  31:Src/system_stm32f7xx.c ****   *   2. Redistributions in binary form must reproduce the above copyright notice,
ARM GAS  /tmp/ccJroUwU.s 			page 2


  32:Src/system_stm32f7xx.c ****   *      this list of conditions and the following disclaimer in the documentation
  33:Src/system_stm32f7xx.c ****   *      and/or other materials provided with the distribution.
  34:Src/system_stm32f7xx.c ****   *   3. Neither the name of STMicroelectronics nor the names of its contributors
  35:Src/system_stm32f7xx.c ****   *      may be used to endorse or promote products derived from this software
  36:Src/system_stm32f7xx.c ****   *      without specific prior written permission.
  37:Src/system_stm32f7xx.c ****   *
  38:Src/system_stm32f7xx.c ****   * THIS SOFTWARE IS PROVIDED BY THE COPYRIGHT HOLDERS AND CONTRIBUTORS "AS IS"
  39:Src/system_stm32f7xx.c ****   * AND ANY EXPRESS OR IMPLIED WARRANTIES, INCLUDING, BUT NOT LIMITED TO, THE
  40:Src/system_stm32f7xx.c ****   * IMPLIED WARRANTIES OF MERCHANTABILITY AND FITNESS FOR A PARTICULAR PURPOSE ARE
  41:Src/system_stm32f7xx.c ****   * DISCLAIMED. IN NO EVENT SHALL THE COPYRIGHT HOLDER OR CONTRIBUTORS BE LIABLE
  42:Src/system_stm32f7xx.c ****   * FOR ANY DIRECT, INDIRECT, INCIDENTAL, SPECIAL, EXEMPLARY, OR CONSEQUENTIAL
  43:Src/system_stm32f7xx.c ****   * DAMAGES (INCLUDING, BUT NOT LIMITED TO, PROCUREMENT OF SUBSTITUTE GOODS OR
  44:Src/system_stm32f7xx.c ****   * SERVICES; LOSS OF USE, DATA, OR PROFITS; OR BUSINESS INTERRUPTION) HOWEVER
  45:Src/system_stm32f7xx.c ****   * CAUSED AND ON ANY THEORY OF LIABILITY, WHETHER IN CONTRACT, STRICT LIABILITY,
  46:Src/system_stm32f7xx.c ****   * OR TORT (INCLUDING NEGLIGENCE OR OTHERWISE) ARISING IN ANY WAY OUT OF THE USE
  47:Src/system_stm32f7xx.c ****   * OF THIS SOFTWARE, EVEN IF ADVISED OF THE POSSIBILITY OF SUCH DAMAGE.
  48:Src/system_stm32f7xx.c ****   *
  49:Src/system_stm32f7xx.c ****   ******************************************************************************
  50:Src/system_stm32f7xx.c ****   */
  51:Src/system_stm32f7xx.c **** 
  52:Src/system_stm32f7xx.c **** /** @addtogroup CMSIS
  53:Src/system_stm32f7xx.c ****   * @{
  54:Src/system_stm32f7xx.c ****   */
  55:Src/system_stm32f7xx.c **** 
  56:Src/system_stm32f7xx.c **** /** @addtogroup stm32f7xx_system
  57:Src/system_stm32f7xx.c ****   * @{
  58:Src/system_stm32f7xx.c ****   */  
  59:Src/system_stm32f7xx.c ****   
  60:Src/system_stm32f7xx.c **** /** @addtogroup STM32F7xx_System_Private_Includes
  61:Src/system_stm32f7xx.c ****   * @{
  62:Src/system_stm32f7xx.c ****   */
  63:Src/system_stm32f7xx.c **** 
  64:Src/system_stm32f7xx.c **** #include "stm32f7xx.h"
  65:Src/system_stm32f7xx.c **** 
  66:Src/system_stm32f7xx.c **** #if !defined  (HSE_VALUE) 
  67:Src/system_stm32f7xx.c ****   #define HSE_VALUE    ((uint32_t)25000000) /*!< Default value of the External oscillator in Hz */
  68:Src/system_stm32f7xx.c **** #endif /* HSE_VALUE */
  69:Src/system_stm32f7xx.c **** 
  70:Src/system_stm32f7xx.c **** #if !defined  (HSI_VALUE)
  71:Src/system_stm32f7xx.c ****   #define HSI_VALUE    ((uint32_t)16000000) /*!< Value of the Internal oscillator in Hz*/
  72:Src/system_stm32f7xx.c **** #endif /* HSI_VALUE */
  73:Src/system_stm32f7xx.c **** 
  74:Src/system_stm32f7xx.c **** /**
  75:Src/system_stm32f7xx.c ****   * @}
  76:Src/system_stm32f7xx.c ****   */
  77:Src/system_stm32f7xx.c **** 
  78:Src/system_stm32f7xx.c **** /** @addtogroup STM32F7xx_System_Private_TypesDefinitions
  79:Src/system_stm32f7xx.c ****   * @{
  80:Src/system_stm32f7xx.c ****   */
  81:Src/system_stm32f7xx.c **** 
  82:Src/system_stm32f7xx.c **** /**
  83:Src/system_stm32f7xx.c ****   * @}
  84:Src/system_stm32f7xx.c ****   */
  85:Src/system_stm32f7xx.c **** 
  86:Src/system_stm32f7xx.c **** /** @addtogroup STM32F7xx_System_Private_Defines
  87:Src/system_stm32f7xx.c ****   * @{
  88:Src/system_stm32f7xx.c ****   */
ARM GAS  /tmp/ccJroUwU.s 			page 3


  89:Src/system_stm32f7xx.c **** 
  90:Src/system_stm32f7xx.c **** /************************* Miscellaneous Configuration ************************/
  91:Src/system_stm32f7xx.c **** 
  92:Src/system_stm32f7xx.c **** /*!< Uncomment the following line if you need to relocate your vector Table in
  93:Src/system_stm32f7xx.c ****      Internal SRAM. */
  94:Src/system_stm32f7xx.c **** /* #define VECT_TAB_SRAM */
  95:Src/system_stm32f7xx.c **** #define VECT_TAB_OFFSET  0x00 /*!< Vector Table base offset field. 
  96:Src/system_stm32f7xx.c ****                                    This value must be a multiple of 0x200. */
  97:Src/system_stm32f7xx.c **** /******************************************************************************/
  98:Src/system_stm32f7xx.c **** 
  99:Src/system_stm32f7xx.c **** /**
 100:Src/system_stm32f7xx.c ****   * @}
 101:Src/system_stm32f7xx.c ****   */
 102:Src/system_stm32f7xx.c **** 
 103:Src/system_stm32f7xx.c **** /** @addtogroup STM32F7xx_System_Private_Macros
 104:Src/system_stm32f7xx.c ****   * @{
 105:Src/system_stm32f7xx.c ****   */
 106:Src/system_stm32f7xx.c **** 
 107:Src/system_stm32f7xx.c **** /**
 108:Src/system_stm32f7xx.c ****   * @}
 109:Src/system_stm32f7xx.c ****   */
 110:Src/system_stm32f7xx.c **** 
 111:Src/system_stm32f7xx.c **** /** @addtogroup STM32F7xx_System_Private_Variables
 112:Src/system_stm32f7xx.c ****   * @{
 113:Src/system_stm32f7xx.c ****   */
 114:Src/system_stm32f7xx.c **** 
 115:Src/system_stm32f7xx.c ****   /* This variable is updated in three ways:
 116:Src/system_stm32f7xx.c ****       1) by calling CMSIS function SystemCoreClockUpdate()
 117:Src/system_stm32f7xx.c ****       2) by calling HAL API function HAL_RCC_GetHCLKFreq()
 118:Src/system_stm32f7xx.c ****       3) each time HAL_RCC_ClockConfig() is called to configure the system clock frequency 
 119:Src/system_stm32f7xx.c ****          Note: If you use this function to configure the system clock; then there
 120:Src/system_stm32f7xx.c ****                is no need to call the 2 first functions listed above, since SystemCoreClock
 121:Src/system_stm32f7xx.c ****                variable is updated automatically.
 122:Src/system_stm32f7xx.c ****   */
 123:Src/system_stm32f7xx.c ****   uint32_t SystemCoreClock = 16000000;
 124:Src/system_stm32f7xx.c ****   const uint8_t AHBPrescTable[16] = {0, 0, 0, 0, 0, 0, 0, 0, 1, 2, 3, 4, 6, 7, 8, 9};
 125:Src/system_stm32f7xx.c ****   const uint8_t APBPrescTable[8] = {0, 0, 0, 0, 1, 2, 3, 4};
 126:Src/system_stm32f7xx.c **** 
 127:Src/system_stm32f7xx.c **** /**
 128:Src/system_stm32f7xx.c ****   * @}
 129:Src/system_stm32f7xx.c ****   */
 130:Src/system_stm32f7xx.c **** 
 131:Src/system_stm32f7xx.c **** /** @addtogroup STM32F7xx_System_Private_FunctionPrototypes
 132:Src/system_stm32f7xx.c ****   * @{
 133:Src/system_stm32f7xx.c ****   */
 134:Src/system_stm32f7xx.c **** 
 135:Src/system_stm32f7xx.c **** /**
 136:Src/system_stm32f7xx.c ****   * @}
 137:Src/system_stm32f7xx.c ****   */
 138:Src/system_stm32f7xx.c **** 
 139:Src/system_stm32f7xx.c **** /** @addtogroup STM32F7xx_System_Private_Functions
 140:Src/system_stm32f7xx.c ****   * @{
 141:Src/system_stm32f7xx.c ****   */
 142:Src/system_stm32f7xx.c **** 
 143:Src/system_stm32f7xx.c **** /**
 144:Src/system_stm32f7xx.c ****   * @brief  Setup the microcontroller system
 145:Src/system_stm32f7xx.c ****   *         Initialize the Embedded Flash Interface, the PLL and update the 
ARM GAS  /tmp/ccJroUwU.s 			page 4


 146:Src/system_stm32f7xx.c ****   *         SystemFrequency variable.
 147:Src/system_stm32f7xx.c ****   * @param  None
 148:Src/system_stm32f7xx.c ****   * @retval None
 149:Src/system_stm32f7xx.c ****   */
 150:Src/system_stm32f7xx.c **** void SystemInit(void)
 151:Src/system_stm32f7xx.c **** {
  28              		.loc 1 151 0
  29              		.cfi_startproc
  30              		@ args = 0, pretend = 0, frame = 0
  31              		@ frame_needed = 0, uses_anonymous_args = 0
  32              		@ link register save eliminated.
  33 0000 10B4     		push	{r4}
  34              	.LCFI0:
  35              		.cfi_def_cfa_offset 4
  36              		.cfi_offset 4, -4
 152:Src/system_stm32f7xx.c ****   /* FPU settings ------------------------------------------------------------*/
 153:Src/system_stm32f7xx.c ****   #if (__FPU_PRESENT == 1) && (__FPU_USED == 1)
 154:Src/system_stm32f7xx.c ****     SCB->CPACR |= ((3UL << 10*2)|(3UL << 11*2));  /* set CP10 and CP11 Full Access */
  37              		.loc 1 154 0
  38 0002 0F4A     		ldr	r2, .L3
  39 0004 D2F88830 		ldr	r3, [r2, #136]
  40 0008 43F47003 		orr	r3, r3, #15728640
  41 000c C2F88830 		str	r3, [r2, #136]
 155:Src/system_stm32f7xx.c ****   #endif
 156:Src/system_stm32f7xx.c ****   /* Reset the RCC clock configuration to the default reset state ------------*/
 157:Src/system_stm32f7xx.c ****   /* Set HSION bit */
 158:Src/system_stm32f7xx.c ****   RCC->CR |= (uint32_t)0x00000001;
  42              		.loc 1 158 0
  43 0010 0C4B     		ldr	r3, .L3+4
  44 0012 1968     		ldr	r1, [r3]
  45 0014 41F00101 		orr	r1, r1, #1
  46 0018 1960     		str	r1, [r3]
 159:Src/system_stm32f7xx.c **** 
 160:Src/system_stm32f7xx.c ****   /* Reset CFGR register */
 161:Src/system_stm32f7xx.c ****   RCC->CFGR = 0x00000000;
  47              		.loc 1 161 0
  48 001a 0020     		movs	r0, #0
  49 001c 9860     		str	r0, [r3, #8]
 162:Src/system_stm32f7xx.c **** 
 163:Src/system_stm32f7xx.c ****   /* Reset HSEON, CSSON and PLLON bits */
 164:Src/system_stm32f7xx.c ****   RCC->CR &= (uint32_t)0xFEF6FFFF;
  50              		.loc 1 164 0
  51 001e 1C68     		ldr	r4, [r3]
  52 0020 0949     		ldr	r1, .L3+8
  53 0022 2140     		ands	r1, r1, r4
  54 0024 1960     		str	r1, [r3]
 165:Src/system_stm32f7xx.c **** 
 166:Src/system_stm32f7xx.c ****   /* Reset PLLCFGR register */
 167:Src/system_stm32f7xx.c ****   RCC->PLLCFGR = 0x24003010;
  55              		.loc 1 167 0
  56 0026 0949     		ldr	r1, .L3+12
  57 0028 5960     		str	r1, [r3, #4]
 168:Src/system_stm32f7xx.c **** 
 169:Src/system_stm32f7xx.c ****   /* Reset HSEBYP bit */
 170:Src/system_stm32f7xx.c ****   RCC->CR &= (uint32_t)0xFFFBFFFF;
  58              		.loc 1 170 0
  59 002a 1968     		ldr	r1, [r3]
ARM GAS  /tmp/ccJroUwU.s 			page 5


  60 002c 21F48021 		bic	r1, r1, #262144
  61 0030 1960     		str	r1, [r3]
 171:Src/system_stm32f7xx.c **** 
 172:Src/system_stm32f7xx.c ****   /* Disable all interrupts */
 173:Src/system_stm32f7xx.c ****   RCC->CIR = 0x00000000;
  62              		.loc 1 173 0
  63 0032 D860     		str	r0, [r3, #12]
 174:Src/system_stm32f7xx.c **** 
 175:Src/system_stm32f7xx.c ****   /* Configure the Vector Table location add offset address ------------------*/
 176:Src/system_stm32f7xx.c **** #ifdef VECT_TAB_SRAM
 177:Src/system_stm32f7xx.c ****   SCB->VTOR = RAMDTCM_BASE | VECT_TAB_OFFSET; /* Vector Table Relocation in Internal SRAM */
 178:Src/system_stm32f7xx.c **** #else
 179:Src/system_stm32f7xx.c ****   SCB->VTOR = FLASH_BASE | VECT_TAB_OFFSET; /* Vector Table Relocation in Internal FLASH */
  64              		.loc 1 179 0
  65 0034 4FF00063 		mov	r3, #134217728
  66 0038 9360     		str	r3, [r2, #8]
 180:Src/system_stm32f7xx.c **** #endif
 181:Src/system_stm32f7xx.c **** }
  67              		.loc 1 181 0
  68 003a 5DF8044B 		ldr	r4, [sp], #4
  69              	.LCFI1:
  70              		.cfi_restore 4
  71              		.cfi_def_cfa_offset 0
  72 003e 7047     		bx	lr
  73              	.L4:
  74              		.align	2
  75              	.L3:
  76 0040 00ED00E0 		.word	-536810240
  77 0044 00380240 		.word	1073887232
  78 0048 FFFFF6FE 		.word	-17367041
  79 004c 10300024 		.word	603992080
  80              		.cfi_endproc
  81              	.LFE140:
  83              		.section	.text.SystemCoreClockUpdate,"ax",%progbits
  84              		.align	2
  85              		.global	SystemCoreClockUpdate
  86              		.thumb
  87              		.thumb_func
  89              	SystemCoreClockUpdate:
  90              	.LFB141:
 182:Src/system_stm32f7xx.c **** 
 183:Src/system_stm32f7xx.c **** /**
 184:Src/system_stm32f7xx.c ****    * @brief  Update SystemCoreClock variable according to Clock Register Values.
 185:Src/system_stm32f7xx.c ****   *         The SystemCoreClock variable contains the core clock (HCLK), it can
 186:Src/system_stm32f7xx.c ****   *         be used by the user application to setup the SysTick timer or configure
 187:Src/system_stm32f7xx.c ****   *         other parameters.
 188:Src/system_stm32f7xx.c ****   *           
 189:Src/system_stm32f7xx.c ****   * @note   Each time the core clock (HCLK) changes, this function must be called
 190:Src/system_stm32f7xx.c ****   *         to update SystemCoreClock variable value. Otherwise, any configuration
 191:Src/system_stm32f7xx.c ****   *         based on this variable will be incorrect.         
 192:Src/system_stm32f7xx.c ****   *     
 193:Src/system_stm32f7xx.c ****   * @note   - The system frequency computed by this function is not the real 
 194:Src/system_stm32f7xx.c ****   *           frequency in the chip. It is calculated based on the predefined 
 195:Src/system_stm32f7xx.c ****   *           constant and the selected clock source:
 196:Src/system_stm32f7xx.c ****   *             
 197:Src/system_stm32f7xx.c ****   *           - If SYSCLK source is HSI, SystemCoreClock will contain the HSI_VALUE(*)
 198:Src/system_stm32f7xx.c ****   *                                              
ARM GAS  /tmp/ccJroUwU.s 			page 6


 199:Src/system_stm32f7xx.c ****   *           - If SYSCLK source is HSE, SystemCoreClock will contain the HSE_VALUE(**)
 200:Src/system_stm32f7xx.c ****   *                          
 201:Src/system_stm32f7xx.c ****   *           - If SYSCLK source is PLL, SystemCoreClock will contain the HSE_VALUE(**) 
 202:Src/system_stm32f7xx.c ****   *             or HSI_VALUE(*) multiplied/divided by the PLL factors.
 203:Src/system_stm32f7xx.c ****   *         
 204:Src/system_stm32f7xx.c ****   *         (*) HSI_VALUE is a constant defined in stm32f7xx_hal_conf.h file (default value
 205:Src/system_stm32f7xx.c ****   *             16 MHz) but the real value may vary depending on the variations
 206:Src/system_stm32f7xx.c ****   *             in voltage and temperature.   
 207:Src/system_stm32f7xx.c ****   *    
 208:Src/system_stm32f7xx.c ****   *         (**) HSE_VALUE is a constant defined in stm32f7xx_hal_conf.h file (default value
 209:Src/system_stm32f7xx.c ****   *              25 MHz), user has to ensure that HSE_VALUE is same as the real
 210:Src/system_stm32f7xx.c ****   *              frequency of the crystal used. Otherwise, this function may
 211:Src/system_stm32f7xx.c ****   *              have wrong result.
 212:Src/system_stm32f7xx.c ****   *                
 213:Src/system_stm32f7xx.c ****   *         - The result of this function could be not correct when using fractional
 214:Src/system_stm32f7xx.c ****   *           value for HSE crystal.
 215:Src/system_stm32f7xx.c ****   *     
 216:Src/system_stm32f7xx.c ****   * @param  None
 217:Src/system_stm32f7xx.c ****   * @retval None
 218:Src/system_stm32f7xx.c ****   */
 219:Src/system_stm32f7xx.c **** void SystemCoreClockUpdate(void)
 220:Src/system_stm32f7xx.c **** {
  91              		.loc 1 220 0
  92              		.cfi_startproc
  93              		@ args = 0, pretend = 0, frame = 0
  94              		@ frame_needed = 0, uses_anonymous_args = 0
  95              		@ link register save eliminated.
  96              	.LVL0:
 221:Src/system_stm32f7xx.c ****   uint32_t tmp = 0, pllvco = 0, pllp = 2, pllsource = 0, pllm = 2;
 222:Src/system_stm32f7xx.c ****   
 223:Src/system_stm32f7xx.c ****   /* Get SYSCLK source -------------------------------------------------------*/
 224:Src/system_stm32f7xx.c ****   tmp = RCC->CFGR & RCC_CFGR_SWS;
  97              		.loc 1 224 0
  98 0000 224B     		ldr	r3, .L14
  99 0002 9B68     		ldr	r3, [r3, #8]
 100 0004 03F00C03 		and	r3, r3, #12
 101              	.LVL1:
 225:Src/system_stm32f7xx.c **** 
 226:Src/system_stm32f7xx.c ****   switch (tmp)
 102              		.loc 1 226 0
 103 0008 042B     		cmp	r3, #4
 104 000a 07D0     		beq	.L7
 105 000c 082B     		cmp	r3, #8
 106 000e 09D0     		beq	.L8
 107 0010 002B     		cmp	r3, #0
 108 0012 2DD1     		bne	.L13
 227:Src/system_stm32f7xx.c ****   {
 228:Src/system_stm32f7xx.c ****     case 0x00:  /* HSI used as system clock source */
 229:Src/system_stm32f7xx.c ****       SystemCoreClock = HSI_VALUE;
 109              		.loc 1 229 0
 110 0014 1E4A     		ldr	r2, .L14+4
 111 0016 1F4B     		ldr	r3, .L14+8
 112              	.LVL2:
 113 0018 1A60     		str	r2, [r3]
 230:Src/system_stm32f7xx.c ****       break;
 114              		.loc 1 230 0
 115 001a 2CE0     		b	.L10
ARM GAS  /tmp/ccJroUwU.s 			page 7


 116              	.LVL3:
 117              	.L7:
 231:Src/system_stm32f7xx.c ****     case 0x04:  /* HSE used as system clock source */
 232:Src/system_stm32f7xx.c ****       SystemCoreClock = HSE_VALUE;
 118              		.loc 1 232 0
 119 001c 1E4A     		ldr	r2, .L14+12
 120 001e 1D4B     		ldr	r3, .L14+8
 121              	.LVL4:
 122 0020 1A60     		str	r2, [r3]
 233:Src/system_stm32f7xx.c ****       break;
 123              		.loc 1 233 0
 124 0022 28E0     		b	.L10
 125              	.LVL5:
 126              	.L8:
 234:Src/system_stm32f7xx.c ****     case 0x08:  /* PLL used as system clock source */
 235:Src/system_stm32f7xx.c **** 
 236:Src/system_stm32f7xx.c ****       /* PLL_VCO = (HSE_VALUE or HSI_VALUE / PLL_M) * PLL_N
 237:Src/system_stm32f7xx.c ****          SYSCLK = PLL_VCO / PLL_P
 238:Src/system_stm32f7xx.c ****          */    
 239:Src/system_stm32f7xx.c ****       pllsource = (RCC->PLLCFGR & RCC_PLLCFGR_PLLSRC) >> 22;
 127              		.loc 1 239 0
 128 0024 194B     		ldr	r3, .L14
 129              	.LVL6:
 130 0026 5A68     		ldr	r2, [r3, #4]
 131              	.LVL7:
 240:Src/system_stm32f7xx.c ****       pllm = RCC->PLLCFGR & RCC_PLLCFGR_PLLM;
 132              		.loc 1 240 0
 133 0028 5B68     		ldr	r3, [r3, #4]
 134 002a 03F03F03 		and	r3, r3, #63
 135              	.LVL8:
 241:Src/system_stm32f7xx.c ****       
 242:Src/system_stm32f7xx.c ****       if (pllsource != 0)
 136              		.loc 1 242 0
 137 002e 12F4800F 		tst	r2, #4194304
 138 0032 09D0     		beq	.L11
 243:Src/system_stm32f7xx.c ****       {
 244:Src/system_stm32f7xx.c ****         /* HSE used as PLL clock source */
 245:Src/system_stm32f7xx.c ****         pllvco = (HSE_VALUE / pllm) * ((RCC->PLLCFGR & RCC_PLLCFGR_PLLN) >> 6);
 139              		.loc 1 245 0
 140 0034 184A     		ldr	r2, .L14+12
 141              	.LVL9:
 142 0036 B2FBF3F2 		udiv	r2, r2, r3
 143 003a 144B     		ldr	r3, .L14
 144              	.LVL10:
 145 003c 5B68     		ldr	r3, [r3, #4]
 146 003e C3F38813 		ubfx	r3, r3, #6, #9
 147 0042 03FB02F2 		mul	r2, r3, r2
 148              	.LVL11:
 149 0046 08E0     		b	.L12
 150              	.LVL12:
 151              	.L11:
 246:Src/system_stm32f7xx.c ****       }
 247:Src/system_stm32f7xx.c ****       else
 248:Src/system_stm32f7xx.c ****       {
 249:Src/system_stm32f7xx.c ****         /* HSI used as PLL clock source */
 250:Src/system_stm32f7xx.c ****         pllvco = (HSI_VALUE / pllm) * ((RCC->PLLCFGR & RCC_PLLCFGR_PLLN) >> 6);      
 152              		.loc 1 250 0
ARM GAS  /tmp/ccJroUwU.s 			page 8


 153 0048 114A     		ldr	r2, .L14+4
 154              	.LVL13:
 155 004a B2FBF3F3 		udiv	r3, r2, r3
 156              	.LVL14:
 157 004e 0F4A     		ldr	r2, .L14
 158 0050 5168     		ldr	r1, [r2, #4]
 159 0052 C1F38811 		ubfx	r1, r1, #6, #9
 160 0056 01FB03F2 		mul	r2, r1, r3
 161              	.LVL15:
 162              	.L12:
 251:Src/system_stm32f7xx.c ****       }
 252:Src/system_stm32f7xx.c **** 
 253:Src/system_stm32f7xx.c ****       pllp = (((RCC->PLLCFGR & RCC_PLLCFGR_PLLP) >>16) + 1 ) *2;
 163              		.loc 1 253 0
 164 005a 0C4B     		ldr	r3, .L14
 165 005c 5B68     		ldr	r3, [r3, #4]
 166 005e C3F30143 		ubfx	r3, r3, #16, #2
 167 0062 0133     		adds	r3, r3, #1
 168 0064 5B00     		lsls	r3, r3, #1
 169              	.LVL16:
 254:Src/system_stm32f7xx.c ****       SystemCoreClock = pllvco/pllp;
 170              		.loc 1 254 0
 171 0066 B2FBF3F3 		udiv	r3, r2, r3
 172              	.LVL17:
 173 006a 0A4A     		ldr	r2, .L14+8
 174              	.LVL18:
 175 006c 1360     		str	r3, [r2]
 255:Src/system_stm32f7xx.c ****       break;
 176              		.loc 1 255 0
 177 006e 02E0     		b	.L10
 178              	.LVL19:
 179              	.L13:
 256:Src/system_stm32f7xx.c ****     default:
 257:Src/system_stm32f7xx.c ****       SystemCoreClock = HSI_VALUE;
 180              		.loc 1 257 0
 181 0070 074A     		ldr	r2, .L14+4
 182 0072 084B     		ldr	r3, .L14+8
 183              	.LVL20:
 184 0074 1A60     		str	r2, [r3]
 185              	.LVL21:
 186              	.L10:
 258:Src/system_stm32f7xx.c ****       break;
 259:Src/system_stm32f7xx.c ****   }
 260:Src/system_stm32f7xx.c ****   /* Compute HCLK frequency --------------------------------------------------*/
 261:Src/system_stm32f7xx.c ****   /* Get HCLK prescaler */
 262:Src/system_stm32f7xx.c ****   tmp = AHBPrescTable[((RCC->CFGR & RCC_CFGR_HPRE) >> 4)];
 187              		.loc 1 262 0
 188 0076 054B     		ldr	r3, .L14
 189 0078 9B68     		ldr	r3, [r3, #8]
 190 007a C3F30313 		ubfx	r3, r3, #4, #4
 191 007e 074A     		ldr	r2, .L14+16
 192 0080 D15C     		ldrb	r1, [r2, r3]	@ zero_extendqisi2
 193              	.LVL22:
 263:Src/system_stm32f7xx.c ****   /* HCLK frequency */
 264:Src/system_stm32f7xx.c ****   SystemCoreClock >>= tmp;
 194              		.loc 1 264 0
 195 0082 044A     		ldr	r2, .L14+8
ARM GAS  /tmp/ccJroUwU.s 			page 9


 196 0084 1368     		ldr	r3, [r2]
 197 0086 CB40     		lsrs	r3, r3, r1
 198 0088 1360     		str	r3, [r2]
 199 008a 7047     		bx	lr
 200              	.L15:
 201              		.align	2
 202              	.L14:
 203 008c 00380240 		.word	1073887232
 204 0090 0024F400 		.word	16000000
 205 0094 00000000 		.word	.LANCHOR0
 206 0098 40787D01 		.word	25000000
 207 009c 00000000 		.word	.LANCHOR1
 208              		.cfi_endproc
 209              	.LFE141:
 211              		.global	APBPrescTable
 212              		.global	AHBPrescTable
 213              		.global	SystemCoreClock
 214              		.section	.rodata.AHBPrescTable,"a",%progbits
 215              		.align	2
 216              		.set	.LANCHOR1,. + 0
 219              	AHBPrescTable:
 220 0000 00       		.byte	0
 221 0001 00       		.byte	0
 222 0002 00       		.byte	0
 223 0003 00       		.byte	0
 224 0004 00       		.byte	0
 225 0005 00       		.byte	0
 226 0006 00       		.byte	0
 227 0007 00       		.byte	0
 228 0008 01       		.byte	1
 229 0009 02       		.byte	2
 230 000a 03       		.byte	3
 231 000b 04       		.byte	4
 232 000c 06       		.byte	6
 233 000d 07       		.byte	7
 234 000e 08       		.byte	8
 235 000f 09       		.byte	9
 236              		.section	.rodata.APBPrescTable,"a",%progbits
 237              		.align	2
 240              	APBPrescTable:
 241 0000 00       		.byte	0
 242 0001 00       		.byte	0
 243 0002 00       		.byte	0
 244 0003 00       		.byte	0
 245 0004 01       		.byte	1
 246 0005 02       		.byte	2
 247 0006 03       		.byte	3
 248 0007 04       		.byte	4
 249              		.section	.data.SystemCoreClock,"aw",%progbits
 250              		.align	2
 251              		.set	.LANCHOR0,. + 0
 254              	SystemCoreClock:
 255 0000 0024F400 		.word	16000000
 256              		.text
 257              	.Letext0:
 258              		.file 2 "/home/reglisse/opt/gcc-arm-none-eabi-4_9-2015q3/arm-none-eabi/include/machine/_default_ty
 259              		.file 3 "/home/reglisse/opt/gcc-arm-none-eabi-4_9-2015q3/arm-none-eabi/include/sys/_stdint.h"
ARM GAS  /tmp/ccJroUwU.s 			page 10


 260              		.file 4 "Drivers/CMSIS/Include/core_cm7.h"
 261              		.file 5 "Drivers/CMSIS/Device/ST/STM32F7xx/Include/stm32f767xx.h"
ARM GAS  /tmp/ccJroUwU.s 			page 11


DEFINED SYMBOLS
                            *ABS*:00000000 system_stm32f7xx.c
     /tmp/ccJroUwU.s:20     .text.SystemInit:00000000 $t
     /tmp/ccJroUwU.s:25     .text.SystemInit:00000000 SystemInit
     /tmp/ccJroUwU.s:76     .text.SystemInit:00000040 $d
     /tmp/ccJroUwU.s:84     .text.SystemCoreClockUpdate:00000000 $t
     /tmp/ccJroUwU.s:89     .text.SystemCoreClockUpdate:00000000 SystemCoreClockUpdate
     /tmp/ccJroUwU.s:203    .text.SystemCoreClockUpdate:0000008c $d
     /tmp/ccJroUwU.s:240    .rodata.APBPrescTable:00000000 APBPrescTable
     /tmp/ccJroUwU.s:219    .rodata.AHBPrescTable:00000000 AHBPrescTable
     /tmp/ccJroUwU.s:254    .data.SystemCoreClock:00000000 SystemCoreClock
     /tmp/ccJroUwU.s:215    .rodata.AHBPrescTable:00000000 $d
     /tmp/ccJroUwU.s:237    .rodata.APBPrescTable:00000000 $d
     /tmp/ccJroUwU.s:250    .data.SystemCoreClock:00000000 $d
                     .debug_frame:00000010 $d

NO UNDEFINED SYMBOLS
