ARM GAS  /tmp/ccve0BGP.s 			page 1


   1              		.cpu cortex-m4
   2              		.eabi_attribute 27, 1
   3              		.eabi_attribute 28, 1
   4              		.eabi_attribute 20, 1
   5              		.eabi_attribute 21, 1
   6              		.eabi_attribute 23, 3
   7              		.eabi_attribute 24, 1
   8              		.eabi_attribute 25, 1
   9              		.eabi_attribute 26, 1
  10              		.eabi_attribute 30, 2
  11              		.eabi_attribute 34, 1
  12              		.eabi_attribute 18, 4
  13              		.file	"ble_list.c"
  14              		.text
  15              	.Ltext0:
  16              		.cfi_sections	.debug_frame
  17              		.section	.text.list_init_head,"ax",%progbits
  18              		.align	1
  19              		.p2align 2,,3
  20              		.global	list_init_head
  21              		.arch armv7e-m
  22              		.syntax unified
  23              		.thumb
  24              		.thumb_func
  25              		.fpu fpv4-sp-d16
  27              	list_init_head:
  28              	.LVL0:
  29              	.LFB133:
  30              		.file 1 "Middlewares/ST/BlueNRG-MS/utils/ble_list.c"
   1:Middlewares/ST/BlueNRG-MS/utils/ble_list.c **** /******************** (C) COPYRIGHT 2012 STMicroelectronics ********************
   2:Middlewares/ST/BlueNRG-MS/utils/ble_list.c **** * File Name          : ble_list.c
   3:Middlewares/ST/BlueNRG-MS/utils/ble_list.c **** * Author             : AMS - HEA&RF BU
   4:Middlewares/ST/BlueNRG-MS/utils/ble_list.c **** * Version            : V1.0.0
   5:Middlewares/ST/BlueNRG-MS/utils/ble_list.c **** * Date               : 19-July-2012
   6:Middlewares/ST/BlueNRG-MS/utils/ble_list.c **** * Description        : Circular Linked List Implementation.
   7:Middlewares/ST/BlueNRG-MS/utils/ble_list.c **** ********************************************************************************
   8:Middlewares/ST/BlueNRG-MS/utils/ble_list.c **** * THE PRESENT FIRMWARE WHICH IS FOR GUIDANCE ONLY AIMS AT PROVIDING CUSTOMERS
   9:Middlewares/ST/BlueNRG-MS/utils/ble_list.c **** * WITH CODING INFORMATION REGARDING THEIR PRODUCTS IN ORDER FOR THEM TO SAVE TIME.
  10:Middlewares/ST/BlueNRG-MS/utils/ble_list.c **** * AS A RESULT, STMICROELECTRONICS SHALL NOT BE HELD LIABLE FOR ANY DIRECT,
  11:Middlewares/ST/BlueNRG-MS/utils/ble_list.c **** * INDIRECT OR CONSEQUENTIAL DAMAGES WITH RESPECT TO ANY CLAIMS ARISING FROM THE
  12:Middlewares/ST/BlueNRG-MS/utils/ble_list.c **** * CONTENT OF SUCH FIRMWARE AND/OR THE USE MADE BY CUSTOMERS OF THE CODING
  13:Middlewares/ST/BlueNRG-MS/utils/ble_list.c **** * INFORMATION CONTAINED HEREIN IN CONNECTION WITH THEIR PRODUCTS.
  14:Middlewares/ST/BlueNRG-MS/utils/ble_list.c **** *******************************************************************************/
  15:Middlewares/ST/BlueNRG-MS/utils/ble_list.c **** 
  16:Middlewares/ST/BlueNRG-MS/utils/ble_list.c **** /******************************************************************************
  17:Middlewares/ST/BlueNRG-MS/utils/ble_list.c ****  * Include Files
  18:Middlewares/ST/BlueNRG-MS/utils/ble_list.c **** ******************************************************************************/
  19:Middlewares/ST/BlueNRG-MS/utils/ble_list.c **** #include "ble_list.h"
  20:Middlewares/ST/BlueNRG-MS/utils/ble_list.c **** #include <stdio.h>
  21:Middlewares/ST/BlueNRG-MS/utils/ble_list.c **** 
  22:Middlewares/ST/BlueNRG-MS/utils/ble_list.c **** #include "ble_list_utils.h"
  23:Middlewares/ST/BlueNRG-MS/utils/ble_list.c **** 
  24:Middlewares/ST/BlueNRG-MS/utils/ble_list.c **** /******************************************************************************
  25:Middlewares/ST/BlueNRG-MS/utils/ble_list.c ****  * Function Definitions 
  26:Middlewares/ST/BlueNRG-MS/utils/ble_list.c **** ******************************************************************************/
  27:Middlewares/ST/BlueNRG-MS/utils/ble_list.c **** void list_init_head (tListNode * listHead)
  28:Middlewares/ST/BlueNRG-MS/utils/ble_list.c **** {
ARM GAS  /tmp/ccve0BGP.s 			page 2


  31              		.loc 1 28 1 view -0
  32              		.cfi_startproc
  33              		@ args = 0, pretend = 0, frame = 0
  34              		@ frame_needed = 0, uses_anonymous_args = 0
  35              		@ link register save eliminated.
  29:Middlewares/ST/BlueNRG-MS/utils/ble_list.c ****   listHead->next = listHead;
  36              		.loc 1 29 3 view .LVU1
  30:Middlewares/ST/BlueNRG-MS/utils/ble_list.c ****   listHead->prev = listHead;	
  37              		.loc 1 30 18 is_stmt 0 view .LVU2
  38 0000 C0E90000 		strd	r0, r0, [r0]
  31:Middlewares/ST/BlueNRG-MS/utils/ble_list.c **** }
  39              		.loc 1 31 1 view .LVU3
  40 0004 7047     		bx	lr
  41              		.cfi_endproc
  42              	.LFE133:
  44 0006 00BF     		.section	.text.list_is_empty,"ax",%progbits
  45              		.align	1
  46              		.p2align 2,,3
  47              		.global	list_is_empty
  48              		.syntax unified
  49              		.thumb
  50              		.thumb_func
  51              		.fpu fpv4-sp-d16
  53              	list_is_empty:
  54              	.LVL1:
  55              	.LFB134:
  32:Middlewares/ST/BlueNRG-MS/utils/ble_list.c **** 
  33:Middlewares/ST/BlueNRG-MS/utils/ble_list.c **** uint8_t list_is_empty (tListNode * listHead)
  34:Middlewares/ST/BlueNRG-MS/utils/ble_list.c **** {
  56              		.loc 1 34 1 is_stmt 1 view -0
  57              		.cfi_startproc
  58              		@ args = 0, pretend = 0, frame = 0
  59              		@ frame_needed = 0, uses_anonymous_args = 0
  60              		@ link register save eliminated.
  35:Middlewares/ST/BlueNRG-MS/utils/ble_list.c ****   uint8_t return_value;
  61              		.loc 1 35 3 view .LVU5
  36:Middlewares/ST/BlueNRG-MS/utils/ble_list.c ****   
  37:Middlewares/ST/BlueNRG-MS/utils/ble_list.c ****   uint32_t uwPRIMASK_Bit;
  62              		.loc 1 37 3 view .LVU6
  38:Middlewares/ST/BlueNRG-MS/utils/ble_list.c ****   uwPRIMASK_Bit = __get_PRIMASK();  /**< backup PRIMASK bit */
  63              		.loc 1 38 3 view .LVU7
  64              	.LBB96:
  65              	.LBI96:
  66              		.file 2 "Drivers/CMSIS/Include/cmsis_gcc.h"
   1:Drivers/CMSIS/Include/cmsis_gcc.h **** /**************************************************************************//**
   2:Drivers/CMSIS/Include/cmsis_gcc.h ****  * @file     cmsis_gcc.h
   3:Drivers/CMSIS/Include/cmsis_gcc.h ****  * @brief    CMSIS compiler GCC header file
   4:Drivers/CMSIS/Include/cmsis_gcc.h ****  * @version  V5.0.4
   5:Drivers/CMSIS/Include/cmsis_gcc.h ****  * @date     09. April 2018
   6:Drivers/CMSIS/Include/cmsis_gcc.h ****  ******************************************************************************/
   7:Drivers/CMSIS/Include/cmsis_gcc.h **** /*
   8:Drivers/CMSIS/Include/cmsis_gcc.h ****  * Copyright (c) 2009-2018 Arm Limited. All rights reserved.
   9:Drivers/CMSIS/Include/cmsis_gcc.h ****  *
  10:Drivers/CMSIS/Include/cmsis_gcc.h ****  * SPDX-License-Identifier: Apache-2.0
  11:Drivers/CMSIS/Include/cmsis_gcc.h ****  *
  12:Drivers/CMSIS/Include/cmsis_gcc.h ****  * Licensed under the Apache License, Version 2.0 (the License); you may
  13:Drivers/CMSIS/Include/cmsis_gcc.h ****  * not use this file except in compliance with the License.
ARM GAS  /tmp/ccve0BGP.s 			page 3


  14:Drivers/CMSIS/Include/cmsis_gcc.h ****  * You may obtain a copy of the License at
  15:Drivers/CMSIS/Include/cmsis_gcc.h ****  *
  16:Drivers/CMSIS/Include/cmsis_gcc.h ****  * www.apache.org/licenses/LICENSE-2.0
  17:Drivers/CMSIS/Include/cmsis_gcc.h ****  *
  18:Drivers/CMSIS/Include/cmsis_gcc.h ****  * Unless required by applicable law or agreed to in writing, software
  19:Drivers/CMSIS/Include/cmsis_gcc.h ****  * distributed under the License is distributed on an AS IS BASIS, WITHOUT
  20:Drivers/CMSIS/Include/cmsis_gcc.h ****  * WARRANTIES OR CONDITIONS OF ANY KIND, either express or implied.
  21:Drivers/CMSIS/Include/cmsis_gcc.h ****  * See the License for the specific language governing permissions and
  22:Drivers/CMSIS/Include/cmsis_gcc.h ****  * limitations under the License.
  23:Drivers/CMSIS/Include/cmsis_gcc.h ****  */
  24:Drivers/CMSIS/Include/cmsis_gcc.h **** 
  25:Drivers/CMSIS/Include/cmsis_gcc.h **** #ifndef __CMSIS_GCC_H
  26:Drivers/CMSIS/Include/cmsis_gcc.h **** #define __CMSIS_GCC_H
  27:Drivers/CMSIS/Include/cmsis_gcc.h **** 
  28:Drivers/CMSIS/Include/cmsis_gcc.h **** /* ignore some GCC warnings */
  29:Drivers/CMSIS/Include/cmsis_gcc.h **** #pragma GCC diagnostic push
  30:Drivers/CMSIS/Include/cmsis_gcc.h **** #pragma GCC diagnostic ignored "-Wsign-conversion"
  31:Drivers/CMSIS/Include/cmsis_gcc.h **** #pragma GCC diagnostic ignored "-Wconversion"
  32:Drivers/CMSIS/Include/cmsis_gcc.h **** #pragma GCC diagnostic ignored "-Wunused-parameter"
  33:Drivers/CMSIS/Include/cmsis_gcc.h **** 
  34:Drivers/CMSIS/Include/cmsis_gcc.h **** /* Fallback for __has_builtin */
  35:Drivers/CMSIS/Include/cmsis_gcc.h **** #ifndef __has_builtin
  36:Drivers/CMSIS/Include/cmsis_gcc.h ****   #define __has_builtin(x) (0)
  37:Drivers/CMSIS/Include/cmsis_gcc.h **** #endif
  38:Drivers/CMSIS/Include/cmsis_gcc.h **** 
  39:Drivers/CMSIS/Include/cmsis_gcc.h **** /* CMSIS compiler specific defines */
  40:Drivers/CMSIS/Include/cmsis_gcc.h **** #ifndef   __ASM
  41:Drivers/CMSIS/Include/cmsis_gcc.h ****   #define __ASM                                  __asm
  42:Drivers/CMSIS/Include/cmsis_gcc.h **** #endif
  43:Drivers/CMSIS/Include/cmsis_gcc.h **** #ifndef   __INLINE
  44:Drivers/CMSIS/Include/cmsis_gcc.h ****   #define __INLINE                               inline
  45:Drivers/CMSIS/Include/cmsis_gcc.h **** #endif
  46:Drivers/CMSIS/Include/cmsis_gcc.h **** #ifndef   __STATIC_INLINE
  47:Drivers/CMSIS/Include/cmsis_gcc.h ****   #define __STATIC_INLINE                        static inline
  48:Drivers/CMSIS/Include/cmsis_gcc.h **** #endif
  49:Drivers/CMSIS/Include/cmsis_gcc.h **** #ifndef   __STATIC_FORCEINLINE                 
  50:Drivers/CMSIS/Include/cmsis_gcc.h ****   #define __STATIC_FORCEINLINE                   __attribute__((always_inline)) static inline
  51:Drivers/CMSIS/Include/cmsis_gcc.h **** #endif                                           
  52:Drivers/CMSIS/Include/cmsis_gcc.h **** #ifndef   __NO_RETURN
  53:Drivers/CMSIS/Include/cmsis_gcc.h ****   #define __NO_RETURN                            __attribute__((__noreturn__))
  54:Drivers/CMSIS/Include/cmsis_gcc.h **** #endif
  55:Drivers/CMSIS/Include/cmsis_gcc.h **** #ifndef   __USED
  56:Drivers/CMSIS/Include/cmsis_gcc.h ****   #define __USED                                 __attribute__((used))
  57:Drivers/CMSIS/Include/cmsis_gcc.h **** #endif
  58:Drivers/CMSIS/Include/cmsis_gcc.h **** #ifndef   __WEAK
  59:Drivers/CMSIS/Include/cmsis_gcc.h ****   #define __WEAK                                 __attribute__((weak))
  60:Drivers/CMSIS/Include/cmsis_gcc.h **** #endif
  61:Drivers/CMSIS/Include/cmsis_gcc.h **** #ifndef   __PACKED
  62:Drivers/CMSIS/Include/cmsis_gcc.h ****   #define __PACKED                               __attribute__((packed, aligned(1)))
  63:Drivers/CMSIS/Include/cmsis_gcc.h **** #endif
  64:Drivers/CMSIS/Include/cmsis_gcc.h **** #ifndef   __PACKED_STRUCT
  65:Drivers/CMSIS/Include/cmsis_gcc.h ****   #define __PACKED_STRUCT                        struct __attribute__((packed, aligned(1)))
  66:Drivers/CMSIS/Include/cmsis_gcc.h **** #endif
  67:Drivers/CMSIS/Include/cmsis_gcc.h **** #ifndef   __PACKED_UNION
  68:Drivers/CMSIS/Include/cmsis_gcc.h ****   #define __PACKED_UNION                         union __attribute__((packed, aligned(1)))
  69:Drivers/CMSIS/Include/cmsis_gcc.h **** #endif
  70:Drivers/CMSIS/Include/cmsis_gcc.h **** #ifndef   __UNALIGNED_UINT32        /* deprecated */
ARM GAS  /tmp/ccve0BGP.s 			page 4


  71:Drivers/CMSIS/Include/cmsis_gcc.h ****   #pragma GCC diagnostic push
  72:Drivers/CMSIS/Include/cmsis_gcc.h ****   #pragma GCC diagnostic ignored "-Wpacked"
  73:Drivers/CMSIS/Include/cmsis_gcc.h ****   #pragma GCC diagnostic ignored "-Wattributes"
  74:Drivers/CMSIS/Include/cmsis_gcc.h ****   struct __attribute__((packed)) T_UINT32 { uint32_t v; };
  75:Drivers/CMSIS/Include/cmsis_gcc.h ****   #pragma GCC diagnostic pop
  76:Drivers/CMSIS/Include/cmsis_gcc.h ****   #define __UNALIGNED_UINT32(x)                  (((struct T_UINT32 *)(x))->v)
  77:Drivers/CMSIS/Include/cmsis_gcc.h **** #endif
  78:Drivers/CMSIS/Include/cmsis_gcc.h **** #ifndef   __UNALIGNED_UINT16_WRITE
  79:Drivers/CMSIS/Include/cmsis_gcc.h ****   #pragma GCC diagnostic push
  80:Drivers/CMSIS/Include/cmsis_gcc.h ****   #pragma GCC diagnostic ignored "-Wpacked"
  81:Drivers/CMSIS/Include/cmsis_gcc.h ****   #pragma GCC diagnostic ignored "-Wattributes"
  82:Drivers/CMSIS/Include/cmsis_gcc.h ****   __PACKED_STRUCT T_UINT16_WRITE { uint16_t v; };
  83:Drivers/CMSIS/Include/cmsis_gcc.h ****   #pragma GCC diagnostic pop
  84:Drivers/CMSIS/Include/cmsis_gcc.h ****   #define __UNALIGNED_UINT16_WRITE(addr, val)    (void)((((struct T_UINT16_WRITE *)(void *)(addr))-
  85:Drivers/CMSIS/Include/cmsis_gcc.h **** #endif
  86:Drivers/CMSIS/Include/cmsis_gcc.h **** #ifndef   __UNALIGNED_UINT16_READ
  87:Drivers/CMSIS/Include/cmsis_gcc.h ****   #pragma GCC diagnostic push
  88:Drivers/CMSIS/Include/cmsis_gcc.h ****   #pragma GCC diagnostic ignored "-Wpacked"
  89:Drivers/CMSIS/Include/cmsis_gcc.h ****   #pragma GCC diagnostic ignored "-Wattributes"
  90:Drivers/CMSIS/Include/cmsis_gcc.h ****   __PACKED_STRUCT T_UINT16_READ { uint16_t v; };
  91:Drivers/CMSIS/Include/cmsis_gcc.h ****   #pragma GCC diagnostic pop
  92:Drivers/CMSIS/Include/cmsis_gcc.h ****   #define __UNALIGNED_UINT16_READ(addr)          (((const struct T_UINT16_READ *)(const void *)(add
  93:Drivers/CMSIS/Include/cmsis_gcc.h **** #endif
  94:Drivers/CMSIS/Include/cmsis_gcc.h **** #ifndef   __UNALIGNED_UINT32_WRITE
  95:Drivers/CMSIS/Include/cmsis_gcc.h ****   #pragma GCC diagnostic push
  96:Drivers/CMSIS/Include/cmsis_gcc.h ****   #pragma GCC diagnostic ignored "-Wpacked"
  97:Drivers/CMSIS/Include/cmsis_gcc.h ****   #pragma GCC diagnostic ignored "-Wattributes"
  98:Drivers/CMSIS/Include/cmsis_gcc.h ****   __PACKED_STRUCT T_UINT32_WRITE { uint32_t v; };
  99:Drivers/CMSIS/Include/cmsis_gcc.h ****   #pragma GCC diagnostic pop
 100:Drivers/CMSIS/Include/cmsis_gcc.h ****   #define __UNALIGNED_UINT32_WRITE(addr, val)    (void)((((struct T_UINT32_WRITE *)(void *)(addr))-
 101:Drivers/CMSIS/Include/cmsis_gcc.h **** #endif
 102:Drivers/CMSIS/Include/cmsis_gcc.h **** #ifndef   __UNALIGNED_UINT32_READ
 103:Drivers/CMSIS/Include/cmsis_gcc.h ****   #pragma GCC diagnostic push
 104:Drivers/CMSIS/Include/cmsis_gcc.h ****   #pragma GCC diagnostic ignored "-Wpacked"
 105:Drivers/CMSIS/Include/cmsis_gcc.h ****   #pragma GCC diagnostic ignored "-Wattributes"
 106:Drivers/CMSIS/Include/cmsis_gcc.h ****   __PACKED_STRUCT T_UINT32_READ { uint32_t v; };
 107:Drivers/CMSIS/Include/cmsis_gcc.h ****   #pragma GCC diagnostic pop
 108:Drivers/CMSIS/Include/cmsis_gcc.h ****   #define __UNALIGNED_UINT32_READ(addr)          (((const struct T_UINT32_READ *)(const void *)(add
 109:Drivers/CMSIS/Include/cmsis_gcc.h **** #endif
 110:Drivers/CMSIS/Include/cmsis_gcc.h **** #ifndef   __ALIGNED
 111:Drivers/CMSIS/Include/cmsis_gcc.h ****   #define __ALIGNED(x)                           __attribute__((aligned(x)))
 112:Drivers/CMSIS/Include/cmsis_gcc.h **** #endif
 113:Drivers/CMSIS/Include/cmsis_gcc.h **** #ifndef   __RESTRICT
 114:Drivers/CMSIS/Include/cmsis_gcc.h ****   #define __RESTRICT                             __restrict
 115:Drivers/CMSIS/Include/cmsis_gcc.h **** #endif
 116:Drivers/CMSIS/Include/cmsis_gcc.h **** 
 117:Drivers/CMSIS/Include/cmsis_gcc.h **** 
 118:Drivers/CMSIS/Include/cmsis_gcc.h **** /* ###########################  Core Function Access  ########################### */
 119:Drivers/CMSIS/Include/cmsis_gcc.h **** /** \ingroup  CMSIS_Core_FunctionInterface
 120:Drivers/CMSIS/Include/cmsis_gcc.h ****     \defgroup CMSIS_Core_RegAccFunctions CMSIS Core Register Access Functions
 121:Drivers/CMSIS/Include/cmsis_gcc.h ****   @{
 122:Drivers/CMSIS/Include/cmsis_gcc.h ****  */
 123:Drivers/CMSIS/Include/cmsis_gcc.h **** 
 124:Drivers/CMSIS/Include/cmsis_gcc.h **** /**
 125:Drivers/CMSIS/Include/cmsis_gcc.h ****   \brief   Enable IRQ Interrupts
 126:Drivers/CMSIS/Include/cmsis_gcc.h ****   \details Enables IRQ interrupts by clearing the I-bit in the CPSR.
 127:Drivers/CMSIS/Include/cmsis_gcc.h ****            Can only be executed in Privileged modes.
ARM GAS  /tmp/ccve0BGP.s 			page 5


 128:Drivers/CMSIS/Include/cmsis_gcc.h ****  */
 129:Drivers/CMSIS/Include/cmsis_gcc.h **** __STATIC_FORCEINLINE void __enable_irq(void)
 130:Drivers/CMSIS/Include/cmsis_gcc.h **** {
 131:Drivers/CMSIS/Include/cmsis_gcc.h ****   __ASM volatile ("cpsie i" : : : "memory");
 132:Drivers/CMSIS/Include/cmsis_gcc.h **** }
 133:Drivers/CMSIS/Include/cmsis_gcc.h **** 
 134:Drivers/CMSIS/Include/cmsis_gcc.h **** 
 135:Drivers/CMSIS/Include/cmsis_gcc.h **** /**
 136:Drivers/CMSIS/Include/cmsis_gcc.h ****   \brief   Disable IRQ Interrupts
 137:Drivers/CMSIS/Include/cmsis_gcc.h ****   \details Disables IRQ interrupts by setting the I-bit in the CPSR.
 138:Drivers/CMSIS/Include/cmsis_gcc.h ****            Can only be executed in Privileged modes.
 139:Drivers/CMSIS/Include/cmsis_gcc.h ****  */
 140:Drivers/CMSIS/Include/cmsis_gcc.h **** __STATIC_FORCEINLINE void __disable_irq(void)
 141:Drivers/CMSIS/Include/cmsis_gcc.h **** {
 142:Drivers/CMSIS/Include/cmsis_gcc.h ****   __ASM volatile ("cpsid i" : : : "memory");
 143:Drivers/CMSIS/Include/cmsis_gcc.h **** }
 144:Drivers/CMSIS/Include/cmsis_gcc.h **** 
 145:Drivers/CMSIS/Include/cmsis_gcc.h **** 
 146:Drivers/CMSIS/Include/cmsis_gcc.h **** /**
 147:Drivers/CMSIS/Include/cmsis_gcc.h ****   \brief   Get Control Register
 148:Drivers/CMSIS/Include/cmsis_gcc.h ****   \details Returns the content of the Control Register.
 149:Drivers/CMSIS/Include/cmsis_gcc.h ****   \return               Control Register value
 150:Drivers/CMSIS/Include/cmsis_gcc.h ****  */
 151:Drivers/CMSIS/Include/cmsis_gcc.h **** __STATIC_FORCEINLINE uint32_t __get_CONTROL(void)
 152:Drivers/CMSIS/Include/cmsis_gcc.h **** {
 153:Drivers/CMSIS/Include/cmsis_gcc.h ****   uint32_t result;
 154:Drivers/CMSIS/Include/cmsis_gcc.h **** 
 155:Drivers/CMSIS/Include/cmsis_gcc.h ****   __ASM volatile ("MRS %0, control" : "=r" (result) );
 156:Drivers/CMSIS/Include/cmsis_gcc.h ****   return(result);
 157:Drivers/CMSIS/Include/cmsis_gcc.h **** }
 158:Drivers/CMSIS/Include/cmsis_gcc.h **** 
 159:Drivers/CMSIS/Include/cmsis_gcc.h **** 
 160:Drivers/CMSIS/Include/cmsis_gcc.h **** #if (defined (__ARM_FEATURE_CMSE ) && (__ARM_FEATURE_CMSE == 3))
 161:Drivers/CMSIS/Include/cmsis_gcc.h **** /**
 162:Drivers/CMSIS/Include/cmsis_gcc.h ****   \brief   Get Control Register (non-secure)
 163:Drivers/CMSIS/Include/cmsis_gcc.h ****   \details Returns the content of the non-secure Control Register when in secure mode.
 164:Drivers/CMSIS/Include/cmsis_gcc.h ****   \return               non-secure Control Register value
 165:Drivers/CMSIS/Include/cmsis_gcc.h ****  */
 166:Drivers/CMSIS/Include/cmsis_gcc.h **** __STATIC_FORCEINLINE uint32_t __TZ_get_CONTROL_NS(void)
 167:Drivers/CMSIS/Include/cmsis_gcc.h **** {
 168:Drivers/CMSIS/Include/cmsis_gcc.h ****   uint32_t result;
 169:Drivers/CMSIS/Include/cmsis_gcc.h **** 
 170:Drivers/CMSIS/Include/cmsis_gcc.h ****   __ASM volatile ("MRS %0, control_ns" : "=r" (result) );
 171:Drivers/CMSIS/Include/cmsis_gcc.h ****   return(result);
 172:Drivers/CMSIS/Include/cmsis_gcc.h **** }
 173:Drivers/CMSIS/Include/cmsis_gcc.h **** #endif
 174:Drivers/CMSIS/Include/cmsis_gcc.h **** 
 175:Drivers/CMSIS/Include/cmsis_gcc.h **** 
 176:Drivers/CMSIS/Include/cmsis_gcc.h **** /**
 177:Drivers/CMSIS/Include/cmsis_gcc.h ****   \brief   Set Control Register
 178:Drivers/CMSIS/Include/cmsis_gcc.h ****   \details Writes the given value to the Control Register.
 179:Drivers/CMSIS/Include/cmsis_gcc.h ****   \param [in]    control  Control Register value to set
 180:Drivers/CMSIS/Include/cmsis_gcc.h ****  */
 181:Drivers/CMSIS/Include/cmsis_gcc.h **** __STATIC_FORCEINLINE void __set_CONTROL(uint32_t control)
 182:Drivers/CMSIS/Include/cmsis_gcc.h **** {
 183:Drivers/CMSIS/Include/cmsis_gcc.h ****   __ASM volatile ("MSR control, %0" : : "r" (control) : "memory");
 184:Drivers/CMSIS/Include/cmsis_gcc.h **** }
ARM GAS  /tmp/ccve0BGP.s 			page 6


 185:Drivers/CMSIS/Include/cmsis_gcc.h **** 
 186:Drivers/CMSIS/Include/cmsis_gcc.h **** 
 187:Drivers/CMSIS/Include/cmsis_gcc.h **** #if (defined (__ARM_FEATURE_CMSE ) && (__ARM_FEATURE_CMSE == 3))
 188:Drivers/CMSIS/Include/cmsis_gcc.h **** /**
 189:Drivers/CMSIS/Include/cmsis_gcc.h ****   \brief   Set Control Register (non-secure)
 190:Drivers/CMSIS/Include/cmsis_gcc.h ****   \details Writes the given value to the non-secure Control Register when in secure state.
 191:Drivers/CMSIS/Include/cmsis_gcc.h ****   \param [in]    control  Control Register value to set
 192:Drivers/CMSIS/Include/cmsis_gcc.h ****  */
 193:Drivers/CMSIS/Include/cmsis_gcc.h **** __STATIC_FORCEINLINE void __TZ_set_CONTROL_NS(uint32_t control)
 194:Drivers/CMSIS/Include/cmsis_gcc.h **** {
 195:Drivers/CMSIS/Include/cmsis_gcc.h ****   __ASM volatile ("MSR control_ns, %0" : : "r" (control) : "memory");
 196:Drivers/CMSIS/Include/cmsis_gcc.h **** }
 197:Drivers/CMSIS/Include/cmsis_gcc.h **** #endif
 198:Drivers/CMSIS/Include/cmsis_gcc.h **** 
 199:Drivers/CMSIS/Include/cmsis_gcc.h **** 
 200:Drivers/CMSIS/Include/cmsis_gcc.h **** /**
 201:Drivers/CMSIS/Include/cmsis_gcc.h ****   \brief   Get IPSR Register
 202:Drivers/CMSIS/Include/cmsis_gcc.h ****   \details Returns the content of the IPSR Register.
 203:Drivers/CMSIS/Include/cmsis_gcc.h ****   \return               IPSR Register value
 204:Drivers/CMSIS/Include/cmsis_gcc.h ****  */
 205:Drivers/CMSIS/Include/cmsis_gcc.h **** __STATIC_FORCEINLINE uint32_t __get_IPSR(void)
 206:Drivers/CMSIS/Include/cmsis_gcc.h **** {
 207:Drivers/CMSIS/Include/cmsis_gcc.h ****   uint32_t result;
 208:Drivers/CMSIS/Include/cmsis_gcc.h **** 
 209:Drivers/CMSIS/Include/cmsis_gcc.h ****   __ASM volatile ("MRS %0, ipsr" : "=r" (result) );
 210:Drivers/CMSIS/Include/cmsis_gcc.h ****   return(result);
 211:Drivers/CMSIS/Include/cmsis_gcc.h **** }
 212:Drivers/CMSIS/Include/cmsis_gcc.h **** 
 213:Drivers/CMSIS/Include/cmsis_gcc.h **** 
 214:Drivers/CMSIS/Include/cmsis_gcc.h **** /**
 215:Drivers/CMSIS/Include/cmsis_gcc.h ****   \brief   Get APSR Register
 216:Drivers/CMSIS/Include/cmsis_gcc.h ****   \details Returns the content of the APSR Register.
 217:Drivers/CMSIS/Include/cmsis_gcc.h ****   \return               APSR Register value
 218:Drivers/CMSIS/Include/cmsis_gcc.h ****  */
 219:Drivers/CMSIS/Include/cmsis_gcc.h **** __STATIC_FORCEINLINE uint32_t __get_APSR(void)
 220:Drivers/CMSIS/Include/cmsis_gcc.h **** {
 221:Drivers/CMSIS/Include/cmsis_gcc.h ****   uint32_t result;
 222:Drivers/CMSIS/Include/cmsis_gcc.h **** 
 223:Drivers/CMSIS/Include/cmsis_gcc.h ****   __ASM volatile ("MRS %0, apsr" : "=r" (result) );
 224:Drivers/CMSIS/Include/cmsis_gcc.h ****   return(result);
 225:Drivers/CMSIS/Include/cmsis_gcc.h **** }
 226:Drivers/CMSIS/Include/cmsis_gcc.h **** 
 227:Drivers/CMSIS/Include/cmsis_gcc.h **** 
 228:Drivers/CMSIS/Include/cmsis_gcc.h **** /**
 229:Drivers/CMSIS/Include/cmsis_gcc.h ****   \brief   Get xPSR Register
 230:Drivers/CMSIS/Include/cmsis_gcc.h ****   \details Returns the content of the xPSR Register.
 231:Drivers/CMSIS/Include/cmsis_gcc.h ****   \return               xPSR Register value
 232:Drivers/CMSIS/Include/cmsis_gcc.h ****  */
 233:Drivers/CMSIS/Include/cmsis_gcc.h **** __STATIC_FORCEINLINE uint32_t __get_xPSR(void)
 234:Drivers/CMSIS/Include/cmsis_gcc.h **** {
 235:Drivers/CMSIS/Include/cmsis_gcc.h ****   uint32_t result;
 236:Drivers/CMSIS/Include/cmsis_gcc.h **** 
 237:Drivers/CMSIS/Include/cmsis_gcc.h ****   __ASM volatile ("MRS %0, xpsr" : "=r" (result) );
 238:Drivers/CMSIS/Include/cmsis_gcc.h ****   return(result);
 239:Drivers/CMSIS/Include/cmsis_gcc.h **** }
 240:Drivers/CMSIS/Include/cmsis_gcc.h **** 
 241:Drivers/CMSIS/Include/cmsis_gcc.h **** 
ARM GAS  /tmp/ccve0BGP.s 			page 7


 242:Drivers/CMSIS/Include/cmsis_gcc.h **** /**
 243:Drivers/CMSIS/Include/cmsis_gcc.h ****   \brief   Get Process Stack Pointer
 244:Drivers/CMSIS/Include/cmsis_gcc.h ****   \details Returns the current value of the Process Stack Pointer (PSP).
 245:Drivers/CMSIS/Include/cmsis_gcc.h ****   \return               PSP Register value
 246:Drivers/CMSIS/Include/cmsis_gcc.h ****  */
 247:Drivers/CMSIS/Include/cmsis_gcc.h **** __STATIC_FORCEINLINE uint32_t __get_PSP(void)
 248:Drivers/CMSIS/Include/cmsis_gcc.h **** {
 249:Drivers/CMSIS/Include/cmsis_gcc.h ****   uint32_t result;
 250:Drivers/CMSIS/Include/cmsis_gcc.h **** 
 251:Drivers/CMSIS/Include/cmsis_gcc.h ****   __ASM volatile ("MRS %0, psp"  : "=r" (result) );
 252:Drivers/CMSIS/Include/cmsis_gcc.h ****   return(result);
 253:Drivers/CMSIS/Include/cmsis_gcc.h **** }
 254:Drivers/CMSIS/Include/cmsis_gcc.h **** 
 255:Drivers/CMSIS/Include/cmsis_gcc.h **** 
 256:Drivers/CMSIS/Include/cmsis_gcc.h **** #if (defined (__ARM_FEATURE_CMSE ) && (__ARM_FEATURE_CMSE == 3))
 257:Drivers/CMSIS/Include/cmsis_gcc.h **** /**
 258:Drivers/CMSIS/Include/cmsis_gcc.h ****   \brief   Get Process Stack Pointer (non-secure)
 259:Drivers/CMSIS/Include/cmsis_gcc.h ****   \details Returns the current value of the non-secure Process Stack Pointer (PSP) when in secure s
 260:Drivers/CMSIS/Include/cmsis_gcc.h ****   \return               PSP Register value
 261:Drivers/CMSIS/Include/cmsis_gcc.h ****  */
 262:Drivers/CMSIS/Include/cmsis_gcc.h **** __STATIC_FORCEINLINE uint32_t __TZ_get_PSP_NS(void)
 263:Drivers/CMSIS/Include/cmsis_gcc.h **** {
 264:Drivers/CMSIS/Include/cmsis_gcc.h ****   uint32_t result;
 265:Drivers/CMSIS/Include/cmsis_gcc.h **** 
 266:Drivers/CMSIS/Include/cmsis_gcc.h ****   __ASM volatile ("MRS %0, psp_ns"  : "=r" (result) );
 267:Drivers/CMSIS/Include/cmsis_gcc.h ****   return(result);
 268:Drivers/CMSIS/Include/cmsis_gcc.h **** }
 269:Drivers/CMSIS/Include/cmsis_gcc.h **** #endif
 270:Drivers/CMSIS/Include/cmsis_gcc.h **** 
 271:Drivers/CMSIS/Include/cmsis_gcc.h **** 
 272:Drivers/CMSIS/Include/cmsis_gcc.h **** /**
 273:Drivers/CMSIS/Include/cmsis_gcc.h ****   \brief   Set Process Stack Pointer
 274:Drivers/CMSIS/Include/cmsis_gcc.h ****   \details Assigns the given value to the Process Stack Pointer (PSP).
 275:Drivers/CMSIS/Include/cmsis_gcc.h ****   \param [in]    topOfProcStack  Process Stack Pointer value to set
 276:Drivers/CMSIS/Include/cmsis_gcc.h ****  */
 277:Drivers/CMSIS/Include/cmsis_gcc.h **** __STATIC_FORCEINLINE void __set_PSP(uint32_t topOfProcStack)
 278:Drivers/CMSIS/Include/cmsis_gcc.h **** {
 279:Drivers/CMSIS/Include/cmsis_gcc.h ****   __ASM volatile ("MSR psp, %0" : : "r" (topOfProcStack) : );
 280:Drivers/CMSIS/Include/cmsis_gcc.h **** }
 281:Drivers/CMSIS/Include/cmsis_gcc.h **** 
 282:Drivers/CMSIS/Include/cmsis_gcc.h **** 
 283:Drivers/CMSIS/Include/cmsis_gcc.h **** #if (defined (__ARM_FEATURE_CMSE ) && (__ARM_FEATURE_CMSE == 3))
 284:Drivers/CMSIS/Include/cmsis_gcc.h **** /**
 285:Drivers/CMSIS/Include/cmsis_gcc.h ****   \brief   Set Process Stack Pointer (non-secure)
 286:Drivers/CMSIS/Include/cmsis_gcc.h ****   \details Assigns the given value to the non-secure Process Stack Pointer (PSP) when in secure sta
 287:Drivers/CMSIS/Include/cmsis_gcc.h ****   \param [in]    topOfProcStack  Process Stack Pointer value to set
 288:Drivers/CMSIS/Include/cmsis_gcc.h ****  */
 289:Drivers/CMSIS/Include/cmsis_gcc.h **** __STATIC_FORCEINLINE void __TZ_set_PSP_NS(uint32_t topOfProcStack)
 290:Drivers/CMSIS/Include/cmsis_gcc.h **** {
 291:Drivers/CMSIS/Include/cmsis_gcc.h ****   __ASM volatile ("MSR psp_ns, %0" : : "r" (topOfProcStack) : );
 292:Drivers/CMSIS/Include/cmsis_gcc.h **** }
 293:Drivers/CMSIS/Include/cmsis_gcc.h **** #endif
 294:Drivers/CMSIS/Include/cmsis_gcc.h **** 
 295:Drivers/CMSIS/Include/cmsis_gcc.h **** 
 296:Drivers/CMSIS/Include/cmsis_gcc.h **** /**
 297:Drivers/CMSIS/Include/cmsis_gcc.h ****   \brief   Get Main Stack Pointer
 298:Drivers/CMSIS/Include/cmsis_gcc.h ****   \details Returns the current value of the Main Stack Pointer (MSP).
ARM GAS  /tmp/ccve0BGP.s 			page 8


 299:Drivers/CMSIS/Include/cmsis_gcc.h ****   \return               MSP Register value
 300:Drivers/CMSIS/Include/cmsis_gcc.h ****  */
 301:Drivers/CMSIS/Include/cmsis_gcc.h **** __STATIC_FORCEINLINE uint32_t __get_MSP(void)
 302:Drivers/CMSIS/Include/cmsis_gcc.h **** {
 303:Drivers/CMSIS/Include/cmsis_gcc.h ****   uint32_t result;
 304:Drivers/CMSIS/Include/cmsis_gcc.h **** 
 305:Drivers/CMSIS/Include/cmsis_gcc.h ****   __ASM volatile ("MRS %0, msp" : "=r" (result) );
 306:Drivers/CMSIS/Include/cmsis_gcc.h ****   return(result);
 307:Drivers/CMSIS/Include/cmsis_gcc.h **** }
 308:Drivers/CMSIS/Include/cmsis_gcc.h **** 
 309:Drivers/CMSIS/Include/cmsis_gcc.h **** 
 310:Drivers/CMSIS/Include/cmsis_gcc.h **** #if (defined (__ARM_FEATURE_CMSE ) && (__ARM_FEATURE_CMSE == 3))
 311:Drivers/CMSIS/Include/cmsis_gcc.h **** /**
 312:Drivers/CMSIS/Include/cmsis_gcc.h ****   \brief   Get Main Stack Pointer (non-secure)
 313:Drivers/CMSIS/Include/cmsis_gcc.h ****   \details Returns the current value of the non-secure Main Stack Pointer (MSP) when in secure stat
 314:Drivers/CMSIS/Include/cmsis_gcc.h ****   \return               MSP Register value
 315:Drivers/CMSIS/Include/cmsis_gcc.h ****  */
 316:Drivers/CMSIS/Include/cmsis_gcc.h **** __STATIC_FORCEINLINE uint32_t __TZ_get_MSP_NS(void)
 317:Drivers/CMSIS/Include/cmsis_gcc.h **** {
 318:Drivers/CMSIS/Include/cmsis_gcc.h ****   uint32_t result;
 319:Drivers/CMSIS/Include/cmsis_gcc.h **** 
 320:Drivers/CMSIS/Include/cmsis_gcc.h ****   __ASM volatile ("MRS %0, msp_ns" : "=r" (result) );
 321:Drivers/CMSIS/Include/cmsis_gcc.h ****   return(result);
 322:Drivers/CMSIS/Include/cmsis_gcc.h **** }
 323:Drivers/CMSIS/Include/cmsis_gcc.h **** #endif
 324:Drivers/CMSIS/Include/cmsis_gcc.h **** 
 325:Drivers/CMSIS/Include/cmsis_gcc.h **** 
 326:Drivers/CMSIS/Include/cmsis_gcc.h **** /**
 327:Drivers/CMSIS/Include/cmsis_gcc.h ****   \brief   Set Main Stack Pointer
 328:Drivers/CMSIS/Include/cmsis_gcc.h ****   \details Assigns the given value to the Main Stack Pointer (MSP).
 329:Drivers/CMSIS/Include/cmsis_gcc.h ****   \param [in]    topOfMainStack  Main Stack Pointer value to set
 330:Drivers/CMSIS/Include/cmsis_gcc.h ****  */
 331:Drivers/CMSIS/Include/cmsis_gcc.h **** __STATIC_FORCEINLINE void __set_MSP(uint32_t topOfMainStack)
 332:Drivers/CMSIS/Include/cmsis_gcc.h **** {
 333:Drivers/CMSIS/Include/cmsis_gcc.h ****   __ASM volatile ("MSR msp, %0" : : "r" (topOfMainStack) : );
 334:Drivers/CMSIS/Include/cmsis_gcc.h **** }
 335:Drivers/CMSIS/Include/cmsis_gcc.h **** 
 336:Drivers/CMSIS/Include/cmsis_gcc.h **** 
 337:Drivers/CMSIS/Include/cmsis_gcc.h **** #if (defined (__ARM_FEATURE_CMSE ) && (__ARM_FEATURE_CMSE == 3))
 338:Drivers/CMSIS/Include/cmsis_gcc.h **** /**
 339:Drivers/CMSIS/Include/cmsis_gcc.h ****   \brief   Set Main Stack Pointer (non-secure)
 340:Drivers/CMSIS/Include/cmsis_gcc.h ****   \details Assigns the given value to the non-secure Main Stack Pointer (MSP) when in secure state.
 341:Drivers/CMSIS/Include/cmsis_gcc.h ****   \param [in]    topOfMainStack  Main Stack Pointer value to set
 342:Drivers/CMSIS/Include/cmsis_gcc.h ****  */
 343:Drivers/CMSIS/Include/cmsis_gcc.h **** __STATIC_FORCEINLINE void __TZ_set_MSP_NS(uint32_t topOfMainStack)
 344:Drivers/CMSIS/Include/cmsis_gcc.h **** {
 345:Drivers/CMSIS/Include/cmsis_gcc.h ****   __ASM volatile ("MSR msp_ns, %0" : : "r" (topOfMainStack) : );
 346:Drivers/CMSIS/Include/cmsis_gcc.h **** }
 347:Drivers/CMSIS/Include/cmsis_gcc.h **** #endif
 348:Drivers/CMSIS/Include/cmsis_gcc.h **** 
 349:Drivers/CMSIS/Include/cmsis_gcc.h **** 
 350:Drivers/CMSIS/Include/cmsis_gcc.h **** #if (defined (__ARM_FEATURE_CMSE ) && (__ARM_FEATURE_CMSE == 3))
 351:Drivers/CMSIS/Include/cmsis_gcc.h **** /**
 352:Drivers/CMSIS/Include/cmsis_gcc.h ****   \brief   Get Stack Pointer (non-secure)
 353:Drivers/CMSIS/Include/cmsis_gcc.h ****   \details Returns the current value of the non-secure Stack Pointer (SP) when in secure state.
 354:Drivers/CMSIS/Include/cmsis_gcc.h ****   \return               SP Register value
 355:Drivers/CMSIS/Include/cmsis_gcc.h ****  */
ARM GAS  /tmp/ccve0BGP.s 			page 9


 356:Drivers/CMSIS/Include/cmsis_gcc.h **** __STATIC_FORCEINLINE uint32_t __TZ_get_SP_NS(void)
 357:Drivers/CMSIS/Include/cmsis_gcc.h **** {
 358:Drivers/CMSIS/Include/cmsis_gcc.h ****   uint32_t result;
 359:Drivers/CMSIS/Include/cmsis_gcc.h **** 
 360:Drivers/CMSIS/Include/cmsis_gcc.h ****   __ASM volatile ("MRS %0, sp_ns" : "=r" (result) );
 361:Drivers/CMSIS/Include/cmsis_gcc.h ****   return(result);
 362:Drivers/CMSIS/Include/cmsis_gcc.h **** }
 363:Drivers/CMSIS/Include/cmsis_gcc.h **** 
 364:Drivers/CMSIS/Include/cmsis_gcc.h **** 
 365:Drivers/CMSIS/Include/cmsis_gcc.h **** /**
 366:Drivers/CMSIS/Include/cmsis_gcc.h ****   \brief   Set Stack Pointer (non-secure)
 367:Drivers/CMSIS/Include/cmsis_gcc.h ****   \details Assigns the given value to the non-secure Stack Pointer (SP) when in secure state.
 368:Drivers/CMSIS/Include/cmsis_gcc.h ****   \param [in]    topOfStack  Stack Pointer value to set
 369:Drivers/CMSIS/Include/cmsis_gcc.h ****  */
 370:Drivers/CMSIS/Include/cmsis_gcc.h **** __STATIC_FORCEINLINE void __TZ_set_SP_NS(uint32_t topOfStack)
 371:Drivers/CMSIS/Include/cmsis_gcc.h **** {
 372:Drivers/CMSIS/Include/cmsis_gcc.h ****   __ASM volatile ("MSR sp_ns, %0" : : "r" (topOfStack) : );
 373:Drivers/CMSIS/Include/cmsis_gcc.h **** }
 374:Drivers/CMSIS/Include/cmsis_gcc.h **** #endif
 375:Drivers/CMSIS/Include/cmsis_gcc.h **** 
 376:Drivers/CMSIS/Include/cmsis_gcc.h **** 
 377:Drivers/CMSIS/Include/cmsis_gcc.h **** /**
 378:Drivers/CMSIS/Include/cmsis_gcc.h ****   \brief   Get Priority Mask
 379:Drivers/CMSIS/Include/cmsis_gcc.h ****   \details Returns the current state of the priority mask bit from the Priority Mask Register.
 380:Drivers/CMSIS/Include/cmsis_gcc.h ****   \return               Priority Mask value
 381:Drivers/CMSIS/Include/cmsis_gcc.h ****  */
 382:Drivers/CMSIS/Include/cmsis_gcc.h **** __STATIC_FORCEINLINE uint32_t __get_PRIMASK(void)
  67              		.loc 2 382 31 view .LVU8
  68              	.LBB97:
 383:Drivers/CMSIS/Include/cmsis_gcc.h **** {
 384:Drivers/CMSIS/Include/cmsis_gcc.h ****   uint32_t result;
  69              		.loc 2 384 3 view .LVU9
 385:Drivers/CMSIS/Include/cmsis_gcc.h **** 
 386:Drivers/CMSIS/Include/cmsis_gcc.h ****   __ASM volatile ("MRS %0, primask" : "=r" (result) :: "memory");
  70              		.loc 2 386 3 view .LVU10
  71              		.syntax unified
  72              	@ 386 "Drivers/CMSIS/Include/cmsis_gcc.h" 1
  73 0000 EFF31082 		MRS r2, primask
  74              	@ 0 "" 2
  75              	.LVL2:
 387:Drivers/CMSIS/Include/cmsis_gcc.h ****   return(result);
  76              		.loc 2 387 3 view .LVU11
  77              		.loc 2 387 3 is_stmt 0 view .LVU12
  78              		.thumb
  79              		.syntax unified
  80              	.LBE97:
  81              	.LBE96:
  39:Middlewares/ST/BlueNRG-MS/utils/ble_list.c ****   __disable_irq();                  /**< Disable all interrupts by setting PRIMASK bit on Cortex*/
  82              		.loc 1 39 3 is_stmt 1 view .LVU13
  83              	.LBB98:
  84              	.LBI98:
 140:Drivers/CMSIS/Include/cmsis_gcc.h **** {
  85              		.loc 2 140 27 view .LVU14
  86              	.LBB99:
 142:Drivers/CMSIS/Include/cmsis_gcc.h **** }
  87              		.loc 2 142 3 view .LVU15
  88              		.syntax unified
ARM GAS  /tmp/ccve0BGP.s 			page 10


  89              	@ 142 "Drivers/CMSIS/Include/cmsis_gcc.h" 1
  90 0004 72B6     		cpsid i
  91              	@ 0 "" 2
  92              		.thumb
  93              		.syntax unified
  94              	.LBE99:
  95              	.LBE98:
  40:Middlewares/ST/BlueNRG-MS/utils/ble_list.c ****    
  41:Middlewares/ST/BlueNRG-MS/utils/ble_list.c ****   if(listHead->next == listHead)
  96              		.loc 1 41 3 view .LVU16
  97              		.loc 1 41 5 is_stmt 0 view .LVU17
  98 0006 0368     		ldr	r3, [r0]
  42:Middlewares/ST/BlueNRG-MS/utils/ble_list.c ****   {
  43:Middlewares/ST/BlueNRG-MS/utils/ble_list.c ****     return_value = 1;
  99              		.loc 1 43 18 view .LVU18
 100 0008 181A     		subs	r0, r3, r0
 101              	.LVL3:
 102              		.loc 1 43 18 view .LVU19
 103 000a B0FA80F0 		clz	r0, r0
 104 000e 4009     		lsrs	r0, r0, #5
 105              	.LVL4:
  44:Middlewares/ST/BlueNRG-MS/utils/ble_list.c ****   }
  45:Middlewares/ST/BlueNRG-MS/utils/ble_list.c ****   else
  46:Middlewares/ST/BlueNRG-MS/utils/ble_list.c ****   {
  47:Middlewares/ST/BlueNRG-MS/utils/ble_list.c ****     return_value = 0;
  48:Middlewares/ST/BlueNRG-MS/utils/ble_list.c ****   }
  49:Middlewares/ST/BlueNRG-MS/utils/ble_list.c ****   
  50:Middlewares/ST/BlueNRG-MS/utils/ble_list.c ****   __set_PRIMASK(uwPRIMASK_Bit);     /**< Restore PRIMASK bit*/
 106              		.loc 1 50 3 is_stmt 1 view .LVU20
 107              	.LBB100:
 108              	.LBI100:
 388:Drivers/CMSIS/Include/cmsis_gcc.h **** }
 389:Drivers/CMSIS/Include/cmsis_gcc.h **** 
 390:Drivers/CMSIS/Include/cmsis_gcc.h **** 
 391:Drivers/CMSIS/Include/cmsis_gcc.h **** #if (defined (__ARM_FEATURE_CMSE ) && (__ARM_FEATURE_CMSE == 3))
 392:Drivers/CMSIS/Include/cmsis_gcc.h **** /**
 393:Drivers/CMSIS/Include/cmsis_gcc.h ****   \brief   Get Priority Mask (non-secure)
 394:Drivers/CMSIS/Include/cmsis_gcc.h ****   \details Returns the current state of the non-secure priority mask bit from the Priority Mask Reg
 395:Drivers/CMSIS/Include/cmsis_gcc.h ****   \return               Priority Mask value
 396:Drivers/CMSIS/Include/cmsis_gcc.h ****  */
 397:Drivers/CMSIS/Include/cmsis_gcc.h **** __STATIC_FORCEINLINE uint32_t __TZ_get_PRIMASK_NS(void)
 398:Drivers/CMSIS/Include/cmsis_gcc.h **** {
 399:Drivers/CMSIS/Include/cmsis_gcc.h ****   uint32_t result;
 400:Drivers/CMSIS/Include/cmsis_gcc.h **** 
 401:Drivers/CMSIS/Include/cmsis_gcc.h ****   __ASM volatile ("MRS %0, primask_ns" : "=r" (result) :: "memory");
 402:Drivers/CMSIS/Include/cmsis_gcc.h ****   return(result);
 403:Drivers/CMSIS/Include/cmsis_gcc.h **** }
 404:Drivers/CMSIS/Include/cmsis_gcc.h **** #endif
 405:Drivers/CMSIS/Include/cmsis_gcc.h **** 
 406:Drivers/CMSIS/Include/cmsis_gcc.h **** 
 407:Drivers/CMSIS/Include/cmsis_gcc.h **** /**
 408:Drivers/CMSIS/Include/cmsis_gcc.h ****   \brief   Set Priority Mask
 409:Drivers/CMSIS/Include/cmsis_gcc.h ****   \details Assigns the given value to the Priority Mask Register.
 410:Drivers/CMSIS/Include/cmsis_gcc.h ****   \param [in]    priMask  Priority Mask
 411:Drivers/CMSIS/Include/cmsis_gcc.h ****  */
 412:Drivers/CMSIS/Include/cmsis_gcc.h **** __STATIC_FORCEINLINE void __set_PRIMASK(uint32_t priMask)
 109              		.loc 2 412 27 view .LVU21
ARM GAS  /tmp/ccve0BGP.s 			page 11


 110              	.LBB101:
 413:Drivers/CMSIS/Include/cmsis_gcc.h **** {
 414:Drivers/CMSIS/Include/cmsis_gcc.h ****   __ASM volatile ("MSR primask, %0" : : "r" (priMask) : "memory");
 111              		.loc 2 414 3 view .LVU22
 112              		.syntax unified
 113              	@ 414 "Drivers/CMSIS/Include/cmsis_gcc.h" 1
 114 0010 82F31088 		MSR primask, r2
 115              	@ 0 "" 2
 116              	.LVL5:
 117              		.loc 2 414 3 is_stmt 0 view .LVU23
 118              		.thumb
 119              		.syntax unified
 120              	.LBE101:
 121              	.LBE100:
  51:Middlewares/ST/BlueNRG-MS/utils/ble_list.c ****   
  52:Middlewares/ST/BlueNRG-MS/utils/ble_list.c ****   return return_value;
 122              		.loc 1 52 3 is_stmt 1 view .LVU24
  53:Middlewares/ST/BlueNRG-MS/utils/ble_list.c **** }
 123              		.loc 1 53 1 is_stmt 0 view .LVU25
 124 0014 7047     		bx	lr
 125              		.cfi_endproc
 126              	.LFE134:
 128 0016 00BF     		.section	.text.list_insert_head,"ax",%progbits
 129              		.align	1
 130              		.p2align 2,,3
 131              		.global	list_insert_head
 132              		.syntax unified
 133              		.thumb
 134              		.thumb_func
 135              		.fpu fpv4-sp-d16
 137              	list_insert_head:
 138              	.LVL6:
 139              	.LFB135:
  54:Middlewares/ST/BlueNRG-MS/utils/ble_list.c **** 
  55:Middlewares/ST/BlueNRG-MS/utils/ble_list.c **** void list_insert_head (tListNode * listHead, tListNode * node)
  56:Middlewares/ST/BlueNRG-MS/utils/ble_list.c **** {
 140              		.loc 1 56 1 is_stmt 1 view -0
 141              		.cfi_startproc
 142              		@ args = 0, pretend = 0, frame = 0
 143              		@ frame_needed = 0, uses_anonymous_args = 0
 144              		@ link register save eliminated.
  57:Middlewares/ST/BlueNRG-MS/utils/ble_list.c ****   uint32_t uwPRIMASK_Bit;
 145              		.loc 1 57 3 view .LVU27
  58:Middlewares/ST/BlueNRG-MS/utils/ble_list.c ****   uwPRIMASK_Bit = __get_PRIMASK();  /**< backup PRIMASK bit */
 146              		.loc 1 58 3 view .LVU28
 147              	.LBB102:
 148              	.LBI102:
 382:Drivers/CMSIS/Include/cmsis_gcc.h **** {
 149              		.loc 2 382 31 view .LVU29
 150              	.LBB103:
 384:Drivers/CMSIS/Include/cmsis_gcc.h **** 
 151              		.loc 2 384 3 view .LVU30
 386:Drivers/CMSIS/Include/cmsis_gcc.h ****   return(result);
 152              		.loc 2 386 3 view .LVU31
 153              		.syntax unified
 154              	@ 386 "Drivers/CMSIS/Include/cmsis_gcc.h" 1
 155 0000 EFF31083 		MRS r3, primask
ARM GAS  /tmp/ccve0BGP.s 			page 12


 156              	@ 0 "" 2
 157              	.LVL7:
 387:Drivers/CMSIS/Include/cmsis_gcc.h **** }
 158              		.loc 2 387 3 view .LVU32
 387:Drivers/CMSIS/Include/cmsis_gcc.h **** }
 159              		.loc 2 387 3 is_stmt 0 view .LVU33
 160              		.thumb
 161              		.syntax unified
 162              	.LBE103:
 163              	.LBE102:
  59:Middlewares/ST/BlueNRG-MS/utils/ble_list.c ****   __disable_irq();                  /**< Disable all interrupts by setting PRIMASK bit on Cortex*/
 164              		.loc 1 59 3 is_stmt 1 view .LVU34
 165              	.LBB104:
 166              	.LBI104:
 140:Drivers/CMSIS/Include/cmsis_gcc.h **** {
 167              		.loc 2 140 27 view .LVU35
 168              	.LBB105:
 142:Drivers/CMSIS/Include/cmsis_gcc.h **** }
 169              		.loc 2 142 3 view .LVU36
 170              		.syntax unified
 171              	@ 142 "Drivers/CMSIS/Include/cmsis_gcc.h" 1
 172 0004 72B6     		cpsid i
 173              	@ 0 "" 2
 174              		.thumb
 175              		.syntax unified
 176              	.LBE105:
 177              	.LBE104:
  60:Middlewares/ST/BlueNRG-MS/utils/ble_list.c ****   
  61:Middlewares/ST/BlueNRG-MS/utils/ble_list.c ****   node->next = listHead->next;
 178              		.loc 1 61 3 view .LVU37
 179              		.loc 1 61 24 is_stmt 0 view .LVU38
 180 0006 0268     		ldr	r2, [r0]
  62:Middlewares/ST/BlueNRG-MS/utils/ble_list.c ****   node->prev = listHead;
 181              		.loc 1 62 14 view .LVU39
 182 0008 C1E90020 		strd	r2, r0, [r1]
  63:Middlewares/ST/BlueNRG-MS/utils/ble_list.c ****   listHead->next = node;
 183              		.loc 1 63 3 is_stmt 1 view .LVU40
 184              		.loc 1 63 18 is_stmt 0 view .LVU41
 185 000c 0160     		str	r1, [r0]
  64:Middlewares/ST/BlueNRG-MS/utils/ble_list.c ****   (node->next)->prev = node;
 186              		.loc 1 64 3 is_stmt 1 view .LVU42
 187              		.loc 1 64 22 is_stmt 0 view .LVU43
 188 000e 0A68     		ldr	r2, [r1]
 189 0010 5160     		str	r1, [r2, #4]
  65:Middlewares/ST/BlueNRG-MS/utils/ble_list.c ****   
  66:Middlewares/ST/BlueNRG-MS/utils/ble_list.c ****   __set_PRIMASK(uwPRIMASK_Bit);     /**< Restore PRIMASK bit*/
 190              		.loc 1 66 3 is_stmt 1 view .LVU44
 191              	.LVL8:
 192              	.LBB106:
 193              	.LBI106:
 412:Drivers/CMSIS/Include/cmsis_gcc.h **** {
 194              		.loc 2 412 27 view .LVU45
 195              	.LBB107:
 196              		.loc 2 414 3 view .LVU46
 197              		.syntax unified
 198              	@ 414 "Drivers/CMSIS/Include/cmsis_gcc.h" 1
 199 0012 83F31088 		MSR primask, r3
ARM GAS  /tmp/ccve0BGP.s 			page 13


 200              	@ 0 "" 2
 201              	.LVL9:
 202              		.loc 2 414 3 is_stmt 0 view .LVU47
 203              		.thumb
 204              		.syntax unified
 205              	.LBE107:
 206              	.LBE106:
  67:Middlewares/ST/BlueNRG-MS/utils/ble_list.c **** }
 207              		.loc 1 67 1 view .LVU48
 208 0016 7047     		bx	lr
 209              		.cfi_endproc
 210              	.LFE135:
 212              		.section	.text.list_insert_tail,"ax",%progbits
 213              		.align	1
 214              		.p2align 2,,3
 215              		.global	list_insert_tail
 216              		.syntax unified
 217              		.thumb
 218              		.thumb_func
 219              		.fpu fpv4-sp-d16
 221              	list_insert_tail:
 222              	.LVL10:
 223              	.LFB136:
  68:Middlewares/ST/BlueNRG-MS/utils/ble_list.c **** 
  69:Middlewares/ST/BlueNRG-MS/utils/ble_list.c **** void list_insert_tail (tListNode * listHead, tListNode * node)
  70:Middlewares/ST/BlueNRG-MS/utils/ble_list.c **** {
 224              		.loc 1 70 1 is_stmt 1 view -0
 225              		.cfi_startproc
 226              		@ args = 0, pretend = 0, frame = 0
 227              		@ frame_needed = 0, uses_anonymous_args = 0
 228              		@ link register save eliminated.
  71:Middlewares/ST/BlueNRG-MS/utils/ble_list.c ****   uint32_t uwPRIMASK_Bit;
 229              		.loc 1 71 3 view .LVU50
  72:Middlewares/ST/BlueNRG-MS/utils/ble_list.c ****   uwPRIMASK_Bit = __get_PRIMASK();  /**< backup PRIMASK bit */
 230              		.loc 1 72 3 view .LVU51
 231              	.LBB108:
 232              	.LBI108:
 382:Drivers/CMSIS/Include/cmsis_gcc.h **** {
 233              		.loc 2 382 31 view .LVU52
 234              	.LBB109:
 384:Drivers/CMSIS/Include/cmsis_gcc.h **** 
 235              		.loc 2 384 3 view .LVU53
 386:Drivers/CMSIS/Include/cmsis_gcc.h ****   return(result);
 236              		.loc 2 386 3 view .LVU54
 237              		.syntax unified
 238              	@ 386 "Drivers/CMSIS/Include/cmsis_gcc.h" 1
 239 0000 EFF31083 		MRS r3, primask
 240              	@ 0 "" 2
 241              	.LVL11:
 387:Drivers/CMSIS/Include/cmsis_gcc.h **** }
 242              		.loc 2 387 3 view .LVU55
 387:Drivers/CMSIS/Include/cmsis_gcc.h **** }
 243              		.loc 2 387 3 is_stmt 0 view .LVU56
 244              		.thumb
 245              		.syntax unified
 246              	.LBE109:
 247              	.LBE108:
ARM GAS  /tmp/ccve0BGP.s 			page 14


  73:Middlewares/ST/BlueNRG-MS/utils/ble_list.c ****   __disable_irq();                  /**< Disable all interrupts by setting PRIMASK bit on Cortex*/
 248              		.loc 1 73 3 is_stmt 1 view .LVU57
 249              	.LBB110:
 250              	.LBI110:
 140:Drivers/CMSIS/Include/cmsis_gcc.h **** {
 251              		.loc 2 140 27 view .LVU58
 252              	.LBB111:
 142:Drivers/CMSIS/Include/cmsis_gcc.h **** }
 253              		.loc 2 142 3 view .LVU59
 254              		.syntax unified
 255              	@ 142 "Drivers/CMSIS/Include/cmsis_gcc.h" 1
 256 0004 72B6     		cpsid i
 257              	@ 0 "" 2
 258              		.thumb
 259              		.syntax unified
 260              	.LBE111:
 261              	.LBE110:
  74:Middlewares/ST/BlueNRG-MS/utils/ble_list.c ****   
  75:Middlewares/ST/BlueNRG-MS/utils/ble_list.c ****   node->next = listHead;
 262              		.loc 1 75 3 view .LVU60
  76:Middlewares/ST/BlueNRG-MS/utils/ble_list.c ****   node->prev = listHead->prev;
 263              		.loc 1 76 24 is_stmt 0 view .LVU61
 264 0006 4268     		ldr	r2, [r0, #4]
 265              		.loc 1 76 14 view .LVU62
 266 0008 C1E90002 		strd	r0, r2, [r1]
  77:Middlewares/ST/BlueNRG-MS/utils/ble_list.c ****   listHead->prev = node;
 267              		.loc 1 77 3 is_stmt 1 view .LVU63
 268              		.loc 1 77 18 is_stmt 0 view .LVU64
 269 000c 4160     		str	r1, [r0, #4]
  78:Middlewares/ST/BlueNRG-MS/utils/ble_list.c ****   (node->prev)->next = node;
 270              		.loc 1 78 3 is_stmt 1 view .LVU65
 271              		.loc 1 78 22 is_stmt 0 view .LVU66
 272 000e 4A68     		ldr	r2, [r1, #4]
 273 0010 1160     		str	r1, [r2]
  79:Middlewares/ST/BlueNRG-MS/utils/ble_list.c ****   
  80:Middlewares/ST/BlueNRG-MS/utils/ble_list.c ****   __set_PRIMASK(uwPRIMASK_Bit);     /**< Restore PRIMASK bit*/
 274              		.loc 1 80 3 is_stmt 1 view .LVU67
 275              	.LVL12:
 276              	.LBB112:
 277              	.LBI112:
 412:Drivers/CMSIS/Include/cmsis_gcc.h **** {
 278              		.loc 2 412 27 view .LVU68
 279              	.LBB113:
 280              		.loc 2 414 3 view .LVU69
 281              		.syntax unified
 282              	@ 414 "Drivers/CMSIS/Include/cmsis_gcc.h" 1
 283 0012 83F31088 		MSR primask, r3
 284              	@ 0 "" 2
 285              	.LVL13:
 286              		.loc 2 414 3 is_stmt 0 view .LVU70
 287              		.thumb
 288              		.syntax unified
 289              	.LBE113:
 290              	.LBE112:
  81:Middlewares/ST/BlueNRG-MS/utils/ble_list.c **** }
 291              		.loc 1 81 1 view .LVU71
 292 0016 7047     		bx	lr
ARM GAS  /tmp/ccve0BGP.s 			page 15


 293              		.cfi_endproc
 294              	.LFE136:
 296              		.section	.text.list_remove_node,"ax",%progbits
 297              		.align	1
 298              		.p2align 2,,3
 299              		.global	list_remove_node
 300              		.syntax unified
 301              		.thumb
 302              		.thumb_func
 303              		.fpu fpv4-sp-d16
 305              	list_remove_node:
 306              	.LVL14:
 307              	.LFB137:
  82:Middlewares/ST/BlueNRG-MS/utils/ble_list.c **** 
  83:Middlewares/ST/BlueNRG-MS/utils/ble_list.c **** void list_remove_node (tListNode * node)
  84:Middlewares/ST/BlueNRG-MS/utils/ble_list.c **** {
 308              		.loc 1 84 1 is_stmt 1 view -0
 309              		.cfi_startproc
 310              		@ args = 0, pretend = 0, frame = 0
 311              		@ frame_needed = 0, uses_anonymous_args = 0
 312              		@ link register save eliminated.
  85:Middlewares/ST/BlueNRG-MS/utils/ble_list.c ****   uint32_t uwPRIMASK_Bit;
 313              		.loc 1 85 3 view .LVU73
  86:Middlewares/ST/BlueNRG-MS/utils/ble_list.c ****   uwPRIMASK_Bit = __get_PRIMASK();  /**< backup PRIMASK bit */
 314              		.loc 1 86 3 view .LVU74
 315              	.LBB114:
 316              	.LBI114:
 382:Drivers/CMSIS/Include/cmsis_gcc.h **** {
 317              		.loc 2 382 31 view .LVU75
 318              	.LBB115:
 384:Drivers/CMSIS/Include/cmsis_gcc.h **** 
 319              		.loc 2 384 3 view .LVU76
 386:Drivers/CMSIS/Include/cmsis_gcc.h ****   return(result);
 320              		.loc 2 386 3 view .LVU77
 321              		.syntax unified
 322              	@ 386 "Drivers/CMSIS/Include/cmsis_gcc.h" 1
 323 0000 EFF31081 		MRS r1, primask
 324              	@ 0 "" 2
 325              	.LVL15:
 387:Drivers/CMSIS/Include/cmsis_gcc.h **** }
 326              		.loc 2 387 3 view .LVU78
 387:Drivers/CMSIS/Include/cmsis_gcc.h **** }
 327              		.loc 2 387 3 is_stmt 0 view .LVU79
 328              		.thumb
 329              		.syntax unified
 330              	.LBE115:
 331              	.LBE114:
  87:Middlewares/ST/BlueNRG-MS/utils/ble_list.c ****   __disable_irq();                  /**< Disable all interrupts by setting PRIMASK bit on Cortex*/
 332              		.loc 1 87 3 is_stmt 1 view .LVU80
 333              	.LBB116:
 334              	.LBI116:
 140:Drivers/CMSIS/Include/cmsis_gcc.h **** {
 335              		.loc 2 140 27 view .LVU81
 336              	.LBB117:
 142:Drivers/CMSIS/Include/cmsis_gcc.h **** }
 337              		.loc 2 142 3 view .LVU82
 338              		.syntax unified
ARM GAS  /tmp/ccve0BGP.s 			page 16


 339              	@ 142 "Drivers/CMSIS/Include/cmsis_gcc.h" 1
 340 0004 72B6     		cpsid i
 341              	@ 0 "" 2
 342              		.thumb
 343              		.syntax unified
 344              	.LBE117:
 345              	.LBE116:
  88:Middlewares/ST/BlueNRG-MS/utils/ble_list.c ****   
  89:Middlewares/ST/BlueNRG-MS/utils/ble_list.c ****   (node->prev)->next = node->next;
 346              		.loc 1 89 3 view .LVU83
 347              		.loc 1 89 28 is_stmt 0 view .LVU84
 348 0006 D0E90032 		ldrd	r3, r2, [r0]
 349              		.loc 1 89 22 view .LVU85
 350 000a 1360     		str	r3, [r2]
  90:Middlewares/ST/BlueNRG-MS/utils/ble_list.c ****   (node->next)->prev = node->prev;
 351              		.loc 1 90 3 is_stmt 1 view .LVU86
 352              		.loc 1 90 22 is_stmt 0 view .LVU87
 353 000c 5A60     		str	r2, [r3, #4]
  91:Middlewares/ST/BlueNRG-MS/utils/ble_list.c ****   
  92:Middlewares/ST/BlueNRG-MS/utils/ble_list.c ****   __set_PRIMASK(uwPRIMASK_Bit);     /**< Restore PRIMASK bit*/
 354              		.loc 1 92 3 is_stmt 1 view .LVU88
 355              	.LVL16:
 356              	.LBB118:
 357              	.LBI118:
 412:Drivers/CMSIS/Include/cmsis_gcc.h **** {
 358              		.loc 2 412 27 view .LVU89
 359              	.LBB119:
 360              		.loc 2 414 3 view .LVU90
 361              		.syntax unified
 362              	@ 414 "Drivers/CMSIS/Include/cmsis_gcc.h" 1
 363 000e 81F31088 		MSR primask, r1
 364              	@ 0 "" 2
 365              	.LVL17:
 366              		.loc 2 414 3 is_stmt 0 view .LVU91
 367              		.thumb
 368              		.syntax unified
 369              	.LBE119:
 370              	.LBE118:
  93:Middlewares/ST/BlueNRG-MS/utils/ble_list.c **** }
 371              		.loc 1 93 1 view .LVU92
 372 0012 7047     		bx	lr
 373              		.cfi_endproc
 374              	.LFE137:
 376              		.section	.text.list_remove_head,"ax",%progbits
 377              		.align	1
 378              		.p2align 2,,3
 379              		.global	list_remove_head
 380              		.syntax unified
 381              		.thumb
 382              		.thumb_func
 383              		.fpu fpv4-sp-d16
 385              	list_remove_head:
 386              	.LVL18:
 387              	.LFB138:
  94:Middlewares/ST/BlueNRG-MS/utils/ble_list.c **** 
  95:Middlewares/ST/BlueNRG-MS/utils/ble_list.c **** void list_remove_head (tListNode * listHead, tListNode ** node )
  96:Middlewares/ST/BlueNRG-MS/utils/ble_list.c **** {
ARM GAS  /tmp/ccve0BGP.s 			page 17


 388              		.loc 1 96 1 is_stmt 1 view -0
 389              		.cfi_startproc
 390              		@ args = 0, pretend = 0, frame = 0
 391              		@ frame_needed = 0, uses_anonymous_args = 0
 392              		@ link register save eliminated.
  97:Middlewares/ST/BlueNRG-MS/utils/ble_list.c ****   uint32_t uwPRIMASK_Bit;
 393              		.loc 1 97 3 view .LVU94
  98:Middlewares/ST/BlueNRG-MS/utils/ble_list.c ****   uwPRIMASK_Bit = __get_PRIMASK();  /**< backup PRIMASK bit */
 394              		.loc 1 98 3 view .LVU95
 395              	.LBB120:
 396              	.LBI120:
 382:Drivers/CMSIS/Include/cmsis_gcc.h **** {
 397              		.loc 2 382 31 view .LVU96
 398              	.LBB121:
 384:Drivers/CMSIS/Include/cmsis_gcc.h **** 
 399              		.loc 2 384 3 view .LVU97
 386:Drivers/CMSIS/Include/cmsis_gcc.h ****   return(result);
 400              		.loc 2 386 3 view .LVU98
 401              	.LBE121:
 402              	.LBE120:
  96:Middlewares/ST/BlueNRG-MS/utils/ble_list.c ****   uint32_t uwPRIMASK_Bit;
 403              		.loc 1 96 1 is_stmt 0 view .LVU99
 404 0000 10B4     		push	{r4}
 405              	.LCFI0:
 406              		.cfi_def_cfa_offset 4
 407              		.cfi_offset 4, -4
 408              	.LBB123:
 409              	.LBB122:
 386:Drivers/CMSIS/Include/cmsis_gcc.h ****   return(result);
 410              		.loc 2 386 3 view .LVU100
 411              		.syntax unified
 412              	@ 386 "Drivers/CMSIS/Include/cmsis_gcc.h" 1
 413 0002 EFF31084 		MRS r4, primask
 414              	@ 0 "" 2
 415              	.LVL19:
 387:Drivers/CMSIS/Include/cmsis_gcc.h **** }
 416              		.loc 2 387 3 is_stmt 1 view .LVU101
 387:Drivers/CMSIS/Include/cmsis_gcc.h **** }
 417              		.loc 2 387 3 is_stmt 0 view .LVU102
 418              		.thumb
 419              		.syntax unified
 420              	.LBE122:
 421              	.LBE123:
  99:Middlewares/ST/BlueNRG-MS/utils/ble_list.c ****   __disable_irq();                  /**< Disable all interrupts by setting PRIMASK bit on Cortex*/
 422              		.loc 1 99 3 is_stmt 1 view .LVU103
 423              	.LBB124:
 424              	.LBI124:
 140:Drivers/CMSIS/Include/cmsis_gcc.h **** {
 425              		.loc 2 140 27 view .LVU104
 426              	.LBB125:
 142:Drivers/CMSIS/Include/cmsis_gcc.h **** }
 427              		.loc 2 142 3 view .LVU105
 428              		.syntax unified
 429              	@ 142 "Drivers/CMSIS/Include/cmsis_gcc.h" 1
 430 0006 72B6     		cpsid i
 431              	@ 0 "" 2
 432              		.thumb
ARM GAS  /tmp/ccve0BGP.s 			page 18


 433              		.syntax unified
 434              	.LBE125:
 435              	.LBE124:
 100:Middlewares/ST/BlueNRG-MS/utils/ble_list.c ****   
 101:Middlewares/ST/BlueNRG-MS/utils/ble_list.c ****   *node = listHead->next;
 436              		.loc 1 101 3 view .LVU106
 437              		.loc 1 101 19 is_stmt 0 view .LVU107
 438 0008 0368     		ldr	r3, [r0]
 439              		.loc 1 101 9 view .LVU108
 440 000a 0B60     		str	r3, [r1]
 102:Middlewares/ST/BlueNRG-MS/utils/ble_list.c ****   list_remove_node (listHead->next);
 441              		.loc 1 102 3 is_stmt 1 view .LVU109
 442              	.LVL20:
 443              	.LBB126:
 444              	.LBI126:
  83:Middlewares/ST/BlueNRG-MS/utils/ble_list.c **** {
 445              		.loc 1 83 6 view .LVU110
 446              	.LBB127:
  85:Middlewares/ST/BlueNRG-MS/utils/ble_list.c ****   uwPRIMASK_Bit = __get_PRIMASK();  /**< backup PRIMASK bit */
 447              		.loc 1 85 3 view .LVU111
  86:Middlewares/ST/BlueNRG-MS/utils/ble_list.c ****   __disable_irq();                  /**< Disable all interrupts by setting PRIMASK bit on Cortex*/
 448              		.loc 1 86 3 view .LVU112
 449              	.LBB128:
 450              	.LBI128:
 382:Drivers/CMSIS/Include/cmsis_gcc.h **** {
 451              		.loc 2 382 31 view .LVU113
 452              	.LBB129:
 384:Drivers/CMSIS/Include/cmsis_gcc.h **** 
 453              		.loc 2 384 3 view .LVU114
 386:Drivers/CMSIS/Include/cmsis_gcc.h ****   return(result);
 454              		.loc 2 386 3 view .LVU115
 455              		.syntax unified
 456              	@ 386 "Drivers/CMSIS/Include/cmsis_gcc.h" 1
 457 000c EFF31080 		MRS r0, primask
 458              	@ 0 "" 2
 459              	.LVL21:
 387:Drivers/CMSIS/Include/cmsis_gcc.h **** }
 460              		.loc 2 387 3 view .LVU116
 387:Drivers/CMSIS/Include/cmsis_gcc.h **** }
 461              		.loc 2 387 3 is_stmt 0 view .LVU117
 462              		.thumb
 463              		.syntax unified
 464              	.LBE129:
 465              	.LBE128:
  87:Middlewares/ST/BlueNRG-MS/utils/ble_list.c ****   
 466              		.loc 1 87 3 is_stmt 1 view .LVU118
 467              	.LBB130:
 468              	.LBI130:
 140:Drivers/CMSIS/Include/cmsis_gcc.h **** {
 469              		.loc 2 140 27 view .LVU119
 470              	.LBB131:
 142:Drivers/CMSIS/Include/cmsis_gcc.h **** }
 471              		.loc 2 142 3 view .LVU120
 472              		.syntax unified
 473              	@ 142 "Drivers/CMSIS/Include/cmsis_gcc.h" 1
 474 0010 72B6     		cpsid i
 475              	@ 0 "" 2
ARM GAS  /tmp/ccve0BGP.s 			page 19


 476              		.thumb
 477              		.syntax unified
 478              	.LBE131:
 479              	.LBE130:
  89:Middlewares/ST/BlueNRG-MS/utils/ble_list.c ****   (node->next)->prev = node->prev;
 480              		.loc 1 89 3 view .LVU121
  89:Middlewares/ST/BlueNRG-MS/utils/ble_list.c ****   (node->next)->prev = node->prev;
 481              		.loc 1 89 28 is_stmt 0 view .LVU122
 482 0012 D3E90032 		ldrd	r3, r2, [r3]
 483              	.LVL22:
  89:Middlewares/ST/BlueNRG-MS/utils/ble_list.c ****   (node->next)->prev = node->prev;
 484              		.loc 1 89 22 view .LVU123
 485 0016 1360     		str	r3, [r2]
 486              	.LVL23:
  90:Middlewares/ST/BlueNRG-MS/utils/ble_list.c ****   
 487              		.loc 1 90 3 is_stmt 1 view .LVU124
  90:Middlewares/ST/BlueNRG-MS/utils/ble_list.c ****   
 488              		.loc 1 90 22 is_stmt 0 view .LVU125
 489 0018 5A60     		str	r2, [r3, #4]
  92:Middlewares/ST/BlueNRG-MS/utils/ble_list.c **** }
 490              		.loc 1 92 3 is_stmt 1 view .LVU126
 491              	.LVL24:
 492              	.LBB132:
 493              	.LBI132:
 412:Drivers/CMSIS/Include/cmsis_gcc.h **** {
 494              		.loc 2 412 27 view .LVU127
 495              	.LBB133:
 496              		.loc 2 414 3 view .LVU128
 497              		.syntax unified
 498              	@ 414 "Drivers/CMSIS/Include/cmsis_gcc.h" 1
 499 001a 80F31088 		MSR primask, r0
 500              	@ 0 "" 2
 501              	.LVL25:
 502              		.loc 2 414 3 is_stmt 0 view .LVU129
 503              		.thumb
 504              		.syntax unified
 505              	.LBE133:
 506              	.LBE132:
 507              	.LBE127:
 508              	.LBE126:
 103:Middlewares/ST/BlueNRG-MS/utils/ble_list.c ****   (*node)->next = NULL;
 509              		.loc 1 103 3 is_stmt 1 view .LVU130
 510              		.loc 1 103 4 is_stmt 0 view .LVU131
 511 001e 0A68     		ldr	r2, [r1]
 512              		.loc 1 103 17 view .LVU132
 513 0020 0023     		movs	r3, #0
 514 0022 1360     		str	r3, [r2]
 104:Middlewares/ST/BlueNRG-MS/utils/ble_list.c ****   (*node)->prev = NULL;
 515              		.loc 1 104 3 is_stmt 1 view .LVU133
 516              		.loc 1 104 4 is_stmt 0 view .LVU134
 517 0024 0A68     		ldr	r2, [r1]
 518              		.loc 1 104 17 view .LVU135
 519 0026 5360     		str	r3, [r2, #4]
 105:Middlewares/ST/BlueNRG-MS/utils/ble_list.c ****   
 106:Middlewares/ST/BlueNRG-MS/utils/ble_list.c ****   __set_PRIMASK(uwPRIMASK_Bit);     /**< Restore PRIMASK bit*/
 520              		.loc 1 106 3 is_stmt 1 view .LVU136
 521              	.LVL26:
ARM GAS  /tmp/ccve0BGP.s 			page 20


 522              	.LBB134:
 523              	.LBI134:
 412:Drivers/CMSIS/Include/cmsis_gcc.h **** {
 524              		.loc 2 412 27 view .LVU137
 525              	.LBB135:
 526              		.loc 2 414 3 view .LVU138
 527              		.syntax unified
 528              	@ 414 "Drivers/CMSIS/Include/cmsis_gcc.h" 1
 529 0028 84F31088 		MSR primask, r4
 530              	@ 0 "" 2
 531              	.LVL27:
 532              		.loc 2 414 3 is_stmt 0 view .LVU139
 533              		.thumb
 534              		.syntax unified
 535              	.LBE135:
 536              	.LBE134:
 107:Middlewares/ST/BlueNRG-MS/utils/ble_list.c **** }
 537              		.loc 1 107 1 view .LVU140
 538 002c 5DF8044B 		ldr	r4, [sp], #4
 539              	.LCFI1:
 540              		.cfi_restore 4
 541              		.cfi_def_cfa_offset 0
 542              	.LVL28:
 543              		.loc 1 107 1 view .LVU141
 544 0030 7047     		bx	lr
 545              		.cfi_endproc
 546              	.LFE138:
 548 0032 00BF     		.section	.text.list_remove_tail,"ax",%progbits
 549              		.align	1
 550              		.p2align 2,,3
 551              		.global	list_remove_tail
 552              		.syntax unified
 553              		.thumb
 554              		.thumb_func
 555              		.fpu fpv4-sp-d16
 557              	list_remove_tail:
 558              	.LVL29:
 559              	.LFB139:
 108:Middlewares/ST/BlueNRG-MS/utils/ble_list.c **** 
 109:Middlewares/ST/BlueNRG-MS/utils/ble_list.c **** void list_remove_tail (tListNode * listHead, tListNode ** node )
 110:Middlewares/ST/BlueNRG-MS/utils/ble_list.c **** {
 560              		.loc 1 110 1 is_stmt 1 view -0
 561              		.cfi_startproc
 562              		@ args = 0, pretend = 0, frame = 0
 563              		@ frame_needed = 0, uses_anonymous_args = 0
 564              		@ link register save eliminated.
 111:Middlewares/ST/BlueNRG-MS/utils/ble_list.c ****   uint32_t uwPRIMASK_Bit;
 565              		.loc 1 111 3 view .LVU143
 112:Middlewares/ST/BlueNRG-MS/utils/ble_list.c ****   uwPRIMASK_Bit = __get_PRIMASK();  /**< backup PRIMASK bit */
 566              		.loc 1 112 3 view .LVU144
 567              	.LBB136:
 568              	.LBI136:
 382:Drivers/CMSIS/Include/cmsis_gcc.h **** {
 569              		.loc 2 382 31 view .LVU145
 570              	.LBB137:
 384:Drivers/CMSIS/Include/cmsis_gcc.h **** 
 571              		.loc 2 384 3 view .LVU146
ARM GAS  /tmp/ccve0BGP.s 			page 21


 386:Drivers/CMSIS/Include/cmsis_gcc.h ****   return(result);
 572              		.loc 2 386 3 view .LVU147
 573              	.LBE137:
 574              	.LBE136:
 110:Middlewares/ST/BlueNRG-MS/utils/ble_list.c ****   uint32_t uwPRIMASK_Bit;
 575              		.loc 1 110 1 is_stmt 0 view .LVU148
 576 0000 10B4     		push	{r4}
 577              	.LCFI2:
 578              		.cfi_def_cfa_offset 4
 579              		.cfi_offset 4, -4
 580              	.LBB139:
 581              	.LBB138:
 386:Drivers/CMSIS/Include/cmsis_gcc.h ****   return(result);
 582              		.loc 2 386 3 view .LVU149
 583              		.syntax unified
 584              	@ 386 "Drivers/CMSIS/Include/cmsis_gcc.h" 1
 585 0002 EFF31084 		MRS r4, primask
 586              	@ 0 "" 2
 587              	.LVL30:
 387:Drivers/CMSIS/Include/cmsis_gcc.h **** }
 588              		.loc 2 387 3 is_stmt 1 view .LVU150
 387:Drivers/CMSIS/Include/cmsis_gcc.h **** }
 589              		.loc 2 387 3 is_stmt 0 view .LVU151
 590              		.thumb
 591              		.syntax unified
 592              	.LBE138:
 593              	.LBE139:
 113:Middlewares/ST/BlueNRG-MS/utils/ble_list.c ****   __disable_irq();                  /**< Disable all interrupts by setting PRIMASK bit on Cortex*/
 594              		.loc 1 113 3 is_stmt 1 view .LVU152
 595              	.LBB140:
 596              	.LBI140:
 140:Drivers/CMSIS/Include/cmsis_gcc.h **** {
 597              		.loc 2 140 27 view .LVU153
 598              	.LBB141:
 142:Drivers/CMSIS/Include/cmsis_gcc.h **** }
 599              		.loc 2 142 3 view .LVU154
 600              		.syntax unified
 601              	@ 142 "Drivers/CMSIS/Include/cmsis_gcc.h" 1
 602 0006 72B6     		cpsid i
 603              	@ 0 "" 2
 604              		.thumb
 605              		.syntax unified
 606              	.LBE141:
 607              	.LBE140:
 114:Middlewares/ST/BlueNRG-MS/utils/ble_list.c ****   
 115:Middlewares/ST/BlueNRG-MS/utils/ble_list.c ****   *node = listHead->prev;
 608              		.loc 1 115 3 view .LVU155
 609              		.loc 1 115 19 is_stmt 0 view .LVU156
 610 0008 4368     		ldr	r3, [r0, #4]
 611              		.loc 1 115 9 view .LVU157
 612 000a 0B60     		str	r3, [r1]
 116:Middlewares/ST/BlueNRG-MS/utils/ble_list.c ****   list_remove_node (listHead->prev);
 613              		.loc 1 116 3 is_stmt 1 view .LVU158
 614              	.LVL31:
 615              	.LBB142:
 616              	.LBI142:
  83:Middlewares/ST/BlueNRG-MS/utils/ble_list.c **** {
ARM GAS  /tmp/ccve0BGP.s 			page 22


 617              		.loc 1 83 6 view .LVU159
 618              	.LBB143:
  85:Middlewares/ST/BlueNRG-MS/utils/ble_list.c ****   uwPRIMASK_Bit = __get_PRIMASK();  /**< backup PRIMASK bit */
 619              		.loc 1 85 3 view .LVU160
  86:Middlewares/ST/BlueNRG-MS/utils/ble_list.c ****   __disable_irq();                  /**< Disable all interrupts by setting PRIMASK bit on Cortex*/
 620              		.loc 1 86 3 view .LVU161
 621              	.LBB144:
 622              	.LBI144:
 382:Drivers/CMSIS/Include/cmsis_gcc.h **** {
 623              		.loc 2 382 31 view .LVU162
 624              	.LBB145:
 384:Drivers/CMSIS/Include/cmsis_gcc.h **** 
 625              		.loc 2 384 3 view .LVU163
 386:Drivers/CMSIS/Include/cmsis_gcc.h ****   return(result);
 626              		.loc 2 386 3 view .LVU164
 627              		.syntax unified
 628              	@ 386 "Drivers/CMSIS/Include/cmsis_gcc.h" 1
 629 000c EFF31080 		MRS r0, primask
 630              	@ 0 "" 2
 631              	.LVL32:
 387:Drivers/CMSIS/Include/cmsis_gcc.h **** }
 632              		.loc 2 387 3 view .LVU165
 387:Drivers/CMSIS/Include/cmsis_gcc.h **** }
 633              		.loc 2 387 3 is_stmt 0 view .LVU166
 634              		.thumb
 635              		.syntax unified
 636              	.LBE145:
 637              	.LBE144:
  87:Middlewares/ST/BlueNRG-MS/utils/ble_list.c ****   
 638              		.loc 1 87 3 is_stmt 1 view .LVU167
 639              	.LBB146:
 640              	.LBI146:
 140:Drivers/CMSIS/Include/cmsis_gcc.h **** {
 641              		.loc 2 140 27 view .LVU168
 642              	.LBB147:
 142:Drivers/CMSIS/Include/cmsis_gcc.h **** }
 643              		.loc 2 142 3 view .LVU169
 644              		.syntax unified
 645              	@ 142 "Drivers/CMSIS/Include/cmsis_gcc.h" 1
 646 0010 72B6     		cpsid i
 647              	@ 0 "" 2
 648              		.thumb
 649              		.syntax unified
 650              	.LBE147:
 651              	.LBE146:
  89:Middlewares/ST/BlueNRG-MS/utils/ble_list.c ****   (node->next)->prev = node->prev;
 652              		.loc 1 89 3 view .LVU170
  89:Middlewares/ST/BlueNRG-MS/utils/ble_list.c ****   (node->next)->prev = node->prev;
 653              		.loc 1 89 28 is_stmt 0 view .LVU171
 654 0012 D3E90032 		ldrd	r3, r2, [r3]
 655              	.LVL33:
  89:Middlewares/ST/BlueNRG-MS/utils/ble_list.c ****   (node->next)->prev = node->prev;
 656              		.loc 1 89 22 view .LVU172
 657 0016 1360     		str	r3, [r2]
 658              	.LVL34:
  90:Middlewares/ST/BlueNRG-MS/utils/ble_list.c ****   
 659              		.loc 1 90 3 is_stmt 1 view .LVU173
ARM GAS  /tmp/ccve0BGP.s 			page 23


  90:Middlewares/ST/BlueNRG-MS/utils/ble_list.c ****   
 660              		.loc 1 90 22 is_stmt 0 view .LVU174
 661 0018 5A60     		str	r2, [r3, #4]
  92:Middlewares/ST/BlueNRG-MS/utils/ble_list.c **** }
 662              		.loc 1 92 3 is_stmt 1 view .LVU175
 663              	.LVL35:
 664              	.LBB148:
 665              	.LBI148:
 412:Drivers/CMSIS/Include/cmsis_gcc.h **** {
 666              		.loc 2 412 27 view .LVU176
 667              	.LBB149:
 668              		.loc 2 414 3 view .LVU177
 669              		.syntax unified
 670              	@ 414 "Drivers/CMSIS/Include/cmsis_gcc.h" 1
 671 001a 80F31088 		MSR primask, r0
 672              	@ 0 "" 2
 673              	.LVL36:
 674              		.loc 2 414 3 is_stmt 0 view .LVU178
 675              		.thumb
 676              		.syntax unified
 677              	.LBE149:
 678              	.LBE148:
 679              	.LBE143:
 680              	.LBE142:
 117:Middlewares/ST/BlueNRG-MS/utils/ble_list.c ****   (*node)->next = NULL;
 681              		.loc 1 117 3 is_stmt 1 view .LVU179
 682              		.loc 1 117 4 is_stmt 0 view .LVU180
 683 001e 0A68     		ldr	r2, [r1]
 684              		.loc 1 117 17 view .LVU181
 685 0020 0023     		movs	r3, #0
 686 0022 1360     		str	r3, [r2]
 118:Middlewares/ST/BlueNRG-MS/utils/ble_list.c ****   (*node)->prev = NULL;
 687              		.loc 1 118 3 is_stmt 1 view .LVU182
 688              		.loc 1 118 4 is_stmt 0 view .LVU183
 689 0024 0A68     		ldr	r2, [r1]
 690              		.loc 1 118 17 view .LVU184
 691 0026 5360     		str	r3, [r2, #4]
 119:Middlewares/ST/BlueNRG-MS/utils/ble_list.c ****   
 120:Middlewares/ST/BlueNRG-MS/utils/ble_list.c ****   __set_PRIMASK(uwPRIMASK_Bit);     /**< Restore PRIMASK bit*/
 692              		.loc 1 120 3 is_stmt 1 view .LVU185
 693              	.LVL37:
 694              	.LBB150:
 695              	.LBI150:
 412:Drivers/CMSIS/Include/cmsis_gcc.h **** {
 696              		.loc 2 412 27 view .LVU186
 697              	.LBB151:
 698              		.loc 2 414 3 view .LVU187
 699              		.syntax unified
 700              	@ 414 "Drivers/CMSIS/Include/cmsis_gcc.h" 1
 701 0028 84F31088 		MSR primask, r4
 702              	@ 0 "" 2
 703              	.LVL38:
 704              		.loc 2 414 3 is_stmt 0 view .LVU188
 705              		.thumb
 706              		.syntax unified
 707              	.LBE151:
 708              	.LBE150:
ARM GAS  /tmp/ccve0BGP.s 			page 24


 121:Middlewares/ST/BlueNRG-MS/utils/ble_list.c **** }
 709              		.loc 1 121 1 view .LVU189
 710 002c 5DF8044B 		ldr	r4, [sp], #4
 711              	.LCFI3:
 712              		.cfi_restore 4
 713              		.cfi_def_cfa_offset 0
 714              	.LVL39:
 715              		.loc 1 121 1 view .LVU190
 716 0030 7047     		bx	lr
 717              		.cfi_endproc
 718              	.LFE139:
 720 0032 00BF     		.section	.text.list_insert_node_after,"ax",%progbits
 721              		.align	1
 722              		.p2align 2,,3
 723              		.global	list_insert_node_after
 724              		.syntax unified
 725              		.thumb
 726              		.thumb_func
 727              		.fpu fpv4-sp-d16
 729              	list_insert_node_after:
 730              	.LVL40:
 731              	.LFB140:
 122:Middlewares/ST/BlueNRG-MS/utils/ble_list.c **** 
 123:Middlewares/ST/BlueNRG-MS/utils/ble_list.c **** void list_insert_node_after (tListNode * node, tListNode * ref_node)
 124:Middlewares/ST/BlueNRG-MS/utils/ble_list.c **** {
 732              		.loc 1 124 1 is_stmt 1 view -0
 733              		.cfi_startproc
 734              		@ args = 0, pretend = 0, frame = 0
 735              		@ frame_needed = 0, uses_anonymous_args = 0
 736              		@ link register save eliminated.
 125:Middlewares/ST/BlueNRG-MS/utils/ble_list.c ****   uint32_t uwPRIMASK_Bit;
 737              		.loc 1 125 3 view .LVU192
 126:Middlewares/ST/BlueNRG-MS/utils/ble_list.c ****   uwPRIMASK_Bit = __get_PRIMASK();  /**< backup PRIMASK bit */
 738              		.loc 1 126 3 view .LVU193
 739              	.LBB152:
 740              	.LBI152:
 382:Drivers/CMSIS/Include/cmsis_gcc.h **** {
 741              		.loc 2 382 31 view .LVU194
 742              	.LBB153:
 384:Drivers/CMSIS/Include/cmsis_gcc.h **** 
 743              		.loc 2 384 3 view .LVU195
 386:Drivers/CMSIS/Include/cmsis_gcc.h ****   return(result);
 744              		.loc 2 386 3 view .LVU196
 745              		.syntax unified
 746              	@ 386 "Drivers/CMSIS/Include/cmsis_gcc.h" 1
 747 0000 EFF31083 		MRS r3, primask
 748              	@ 0 "" 2
 749              	.LVL41:
 387:Drivers/CMSIS/Include/cmsis_gcc.h **** }
 750              		.loc 2 387 3 view .LVU197
 387:Drivers/CMSIS/Include/cmsis_gcc.h **** }
 751              		.loc 2 387 3 is_stmt 0 view .LVU198
 752              		.thumb
 753              		.syntax unified
 754              	.LBE153:
 755              	.LBE152:
 127:Middlewares/ST/BlueNRG-MS/utils/ble_list.c ****   __disable_irq();                  /**< Disable all interrupts by setting PRIMASK bit on Cortex*/
ARM GAS  /tmp/ccve0BGP.s 			page 25


 756              		.loc 1 127 3 is_stmt 1 view .LVU199
 757              	.LBB154:
 758              	.LBI154:
 140:Drivers/CMSIS/Include/cmsis_gcc.h **** {
 759              		.loc 2 140 27 view .LVU200
 760              	.LBB155:
 142:Drivers/CMSIS/Include/cmsis_gcc.h **** }
 761              		.loc 2 142 3 view .LVU201
 762              		.syntax unified
 763              	@ 142 "Drivers/CMSIS/Include/cmsis_gcc.h" 1
 764 0004 72B6     		cpsid i
 765              	@ 0 "" 2
 766              		.thumb
 767              		.syntax unified
 768              	.LBE155:
 769              	.LBE154:
 128:Middlewares/ST/BlueNRG-MS/utils/ble_list.c ****   
 129:Middlewares/ST/BlueNRG-MS/utils/ble_list.c ****   node->next = ref_node->next;
 770              		.loc 1 129 3 view .LVU202
 771              		.loc 1 129 24 is_stmt 0 view .LVU203
 772 0006 0A68     		ldr	r2, [r1]
 130:Middlewares/ST/BlueNRG-MS/utils/ble_list.c ****   node->prev = ref_node;
 773              		.loc 1 130 14 view .LVU204
 774 0008 C0E90021 		strd	r2, r1, [r0]
 131:Middlewares/ST/BlueNRG-MS/utils/ble_list.c ****   ref_node->next = node;
 775              		.loc 1 131 3 is_stmt 1 view .LVU205
 776              		.loc 1 131 18 is_stmt 0 view .LVU206
 777 000c 0860     		str	r0, [r1]
 132:Middlewares/ST/BlueNRG-MS/utils/ble_list.c ****   (node->next)->prev = node;
 778              		.loc 1 132 3 is_stmt 1 view .LVU207
 779              		.loc 1 132 22 is_stmt 0 view .LVU208
 780 000e 0268     		ldr	r2, [r0]
 781 0010 5060     		str	r0, [r2, #4]
 133:Middlewares/ST/BlueNRG-MS/utils/ble_list.c ****   
 134:Middlewares/ST/BlueNRG-MS/utils/ble_list.c ****   __set_PRIMASK(uwPRIMASK_Bit);     /**< Restore PRIMASK bit*/
 782              		.loc 1 134 3 is_stmt 1 view .LVU209
 783              	.LVL42:
 784              	.LBB156:
 785              	.LBI156:
 412:Drivers/CMSIS/Include/cmsis_gcc.h **** {
 786              		.loc 2 412 27 view .LVU210
 787              	.LBB157:
 788              		.loc 2 414 3 view .LVU211
 789              		.syntax unified
 790              	@ 414 "Drivers/CMSIS/Include/cmsis_gcc.h" 1
 791 0012 83F31088 		MSR primask, r3
 792              	@ 0 "" 2
 793              	.LVL43:
 794              		.loc 2 414 3 is_stmt 0 view .LVU212
 795              		.thumb
 796              		.syntax unified
 797              	.LBE157:
 798              	.LBE156:
 135:Middlewares/ST/BlueNRG-MS/utils/ble_list.c **** }
 799              		.loc 1 135 1 view .LVU213
 800 0016 7047     		bx	lr
 801              		.cfi_endproc
ARM GAS  /tmp/ccve0BGP.s 			page 26


 802              	.LFE140:
 804              		.section	.text.list_insert_node_before,"ax",%progbits
 805              		.align	1
 806              		.p2align 2,,3
 807              		.global	list_insert_node_before
 808              		.syntax unified
 809              		.thumb
 810              		.thumb_func
 811              		.fpu fpv4-sp-d16
 813              	list_insert_node_before:
 814              	.LVL44:
 815              	.LFB141:
 136:Middlewares/ST/BlueNRG-MS/utils/ble_list.c **** 
 137:Middlewares/ST/BlueNRG-MS/utils/ble_list.c **** void list_insert_node_before (tListNode * node, tListNode * ref_node)
 138:Middlewares/ST/BlueNRG-MS/utils/ble_list.c **** {
 816              		.loc 1 138 1 is_stmt 1 view -0
 817              		.cfi_startproc
 818              		@ args = 0, pretend = 0, frame = 0
 819              		@ frame_needed = 0, uses_anonymous_args = 0
 820              		@ link register save eliminated.
 139:Middlewares/ST/BlueNRG-MS/utils/ble_list.c ****   uint32_t uwPRIMASK_Bit;
 821              		.loc 1 139 3 view .LVU215
 140:Middlewares/ST/BlueNRG-MS/utils/ble_list.c ****   uwPRIMASK_Bit = __get_PRIMASK();  /**< backup PRIMASK bit */
 822              		.loc 1 140 3 view .LVU216
 823              	.LBB158:
 824              	.LBI158:
 382:Drivers/CMSIS/Include/cmsis_gcc.h **** {
 825              		.loc 2 382 31 view .LVU217
 826              	.LBB159:
 384:Drivers/CMSIS/Include/cmsis_gcc.h **** 
 827              		.loc 2 384 3 view .LVU218
 386:Drivers/CMSIS/Include/cmsis_gcc.h ****   return(result);
 828              		.loc 2 386 3 view .LVU219
 829              		.syntax unified
 830              	@ 386 "Drivers/CMSIS/Include/cmsis_gcc.h" 1
 831 0000 EFF31083 		MRS r3, primask
 832              	@ 0 "" 2
 833              	.LVL45:
 387:Drivers/CMSIS/Include/cmsis_gcc.h **** }
 834              		.loc 2 387 3 view .LVU220
 387:Drivers/CMSIS/Include/cmsis_gcc.h **** }
 835              		.loc 2 387 3 is_stmt 0 view .LVU221
 836              		.thumb
 837              		.syntax unified
 838              	.LBE159:
 839              	.LBE158:
 141:Middlewares/ST/BlueNRG-MS/utils/ble_list.c ****   __disable_irq();                  /**< Disable all interrupts by setting PRIMASK bit on Cortex*/
 840              		.loc 1 141 3 is_stmt 1 view .LVU222
 841              	.LBB160:
 842              	.LBI160:
 140:Drivers/CMSIS/Include/cmsis_gcc.h **** {
 843              		.loc 2 140 27 view .LVU223
 844              	.LBB161:
 142:Drivers/CMSIS/Include/cmsis_gcc.h **** }
 845              		.loc 2 142 3 view .LVU224
 846              		.syntax unified
 847              	@ 142 "Drivers/CMSIS/Include/cmsis_gcc.h" 1
ARM GAS  /tmp/ccve0BGP.s 			page 27


 848 0004 72B6     		cpsid i
 849              	@ 0 "" 2
 850              		.thumb
 851              		.syntax unified
 852              	.LBE161:
 853              	.LBE160:
 142:Middlewares/ST/BlueNRG-MS/utils/ble_list.c ****   
 143:Middlewares/ST/BlueNRG-MS/utils/ble_list.c ****   node->next = ref_node;
 854              		.loc 1 143 3 view .LVU225
 144:Middlewares/ST/BlueNRG-MS/utils/ble_list.c ****   node->prev = ref_node->prev;
 855              		.loc 1 144 24 is_stmt 0 view .LVU226
 856 0006 4A68     		ldr	r2, [r1, #4]
 857              		.loc 1 144 14 view .LVU227
 858 0008 C0E90012 		strd	r1, r2, [r0]
 145:Middlewares/ST/BlueNRG-MS/utils/ble_list.c ****   ref_node->prev = node;
 859              		.loc 1 145 3 is_stmt 1 view .LVU228
 860              		.loc 1 145 18 is_stmt 0 view .LVU229
 861 000c 4860     		str	r0, [r1, #4]
 146:Middlewares/ST/BlueNRG-MS/utils/ble_list.c ****   (node->prev)->next = node;
 862              		.loc 1 146 3 is_stmt 1 view .LVU230
 863              		.loc 1 146 22 is_stmt 0 view .LVU231
 864 000e 4268     		ldr	r2, [r0, #4]
 865 0010 1060     		str	r0, [r2]
 147:Middlewares/ST/BlueNRG-MS/utils/ble_list.c ****   
 148:Middlewares/ST/BlueNRG-MS/utils/ble_list.c ****   __set_PRIMASK(uwPRIMASK_Bit);     /**< Restore PRIMASK bit*/
 866              		.loc 1 148 3 is_stmt 1 view .LVU232
 867              	.LVL46:
 868              	.LBB162:
 869              	.LBI162:
 412:Drivers/CMSIS/Include/cmsis_gcc.h **** {
 870              		.loc 2 412 27 view .LVU233
 871              	.LBB163:
 872              		.loc 2 414 3 view .LVU234
 873              		.syntax unified
 874              	@ 414 "Drivers/CMSIS/Include/cmsis_gcc.h" 1
 875 0012 83F31088 		MSR primask, r3
 876              	@ 0 "" 2
 877              	.LVL47:
 878              		.loc 2 414 3 is_stmt 0 view .LVU235
 879              		.thumb
 880              		.syntax unified
 881              	.LBE163:
 882              	.LBE162:
 149:Middlewares/ST/BlueNRG-MS/utils/ble_list.c **** }
 883              		.loc 1 149 1 view .LVU236
 884 0016 7047     		bx	lr
 885              		.cfi_endproc
 886              	.LFE141:
 888              		.section	.text.list_get_size,"ax",%progbits
 889              		.align	1
 890              		.p2align 2,,3
 891              		.global	list_get_size
 892              		.syntax unified
 893              		.thumb
 894              		.thumb_func
 895              		.fpu fpv4-sp-d16
 897              	list_get_size:
ARM GAS  /tmp/ccve0BGP.s 			page 28


 898              	.LVL48:
 899              	.LFB142:
 150:Middlewares/ST/BlueNRG-MS/utils/ble_list.c **** 
 151:Middlewares/ST/BlueNRG-MS/utils/ble_list.c **** int list_get_size (tListNode * listHead)
 152:Middlewares/ST/BlueNRG-MS/utils/ble_list.c **** {
 900              		.loc 1 152 1 is_stmt 1 view -0
 901              		.cfi_startproc
 902              		@ args = 0, pretend = 0, frame = 0
 903              		@ frame_needed = 0, uses_anonymous_args = 0
 904              		@ link register save eliminated.
 153:Middlewares/ST/BlueNRG-MS/utils/ble_list.c ****   int size = 0;
 905              		.loc 1 153 3 view .LVU238
 154:Middlewares/ST/BlueNRG-MS/utils/ble_list.c ****   tListNode * temp;
 906              		.loc 1 154 3 view .LVU239
 155:Middlewares/ST/BlueNRG-MS/utils/ble_list.c **** 
 156:Middlewares/ST/BlueNRG-MS/utils/ble_list.c ****   uint32_t uwPRIMASK_Bit;
 907              		.loc 1 156 3 view .LVU240
 157:Middlewares/ST/BlueNRG-MS/utils/ble_list.c ****   uwPRIMASK_Bit = __get_PRIMASK();  /**< backup PRIMASK bit */
 908              		.loc 1 157 3 view .LVU241
 909              	.LBB164:
 910              	.LBI164:
 382:Drivers/CMSIS/Include/cmsis_gcc.h **** {
 911              		.loc 2 382 31 view .LVU242
 912              	.LBB165:
 384:Drivers/CMSIS/Include/cmsis_gcc.h **** 
 913              		.loc 2 384 3 view .LVU243
 386:Drivers/CMSIS/Include/cmsis_gcc.h ****   return(result);
 914              		.loc 2 386 3 view .LVU244
 915              	.LBE165:
 916              	.LBE164:
 152:Middlewares/ST/BlueNRG-MS/utils/ble_list.c ****   int size = 0;
 917              		.loc 1 152 1 is_stmt 0 view .LVU245
 918 0000 0246     		mov	r2, r0
 919              	.LBB167:
 920              	.LBB166:
 386:Drivers/CMSIS/Include/cmsis_gcc.h ****   return(result);
 921              		.loc 2 386 3 view .LVU246
 922              		.syntax unified
 923              	@ 386 "Drivers/CMSIS/Include/cmsis_gcc.h" 1
 924 0002 EFF31081 		MRS r1, primask
 925              	@ 0 "" 2
 926              	.LVL49:
 387:Drivers/CMSIS/Include/cmsis_gcc.h **** }
 927              		.loc 2 387 3 is_stmt 1 view .LVU247
 387:Drivers/CMSIS/Include/cmsis_gcc.h **** }
 928              		.loc 2 387 3 is_stmt 0 view .LVU248
 929              		.thumb
 930              		.syntax unified
 931              	.LBE166:
 932              	.LBE167:
 158:Middlewares/ST/BlueNRG-MS/utils/ble_list.c ****   __disable_irq();                  /**< Disable all interrupts by setting PRIMASK bit on Cortex*/
 933              		.loc 1 158 3 is_stmt 1 view .LVU249
 934              	.LBB168:
 935              	.LBI168:
 140:Drivers/CMSIS/Include/cmsis_gcc.h **** {
 936              		.loc 2 140 27 view .LVU250
 937              	.LBB169:
ARM GAS  /tmp/ccve0BGP.s 			page 29


 142:Drivers/CMSIS/Include/cmsis_gcc.h **** }
 938              		.loc 2 142 3 view .LVU251
 939              		.syntax unified
 940              	@ 142 "Drivers/CMSIS/Include/cmsis_gcc.h" 1
 941 0006 72B6     		cpsid i
 942              	@ 0 "" 2
 943              		.thumb
 944              		.syntax unified
 945              	.LBE169:
 946              	.LBE168:
 159:Middlewares/ST/BlueNRG-MS/utils/ble_list.c **** 
 160:Middlewares/ST/BlueNRG-MS/utils/ble_list.c ****   temp = listHead->next;
 947              		.loc 1 160 3 view .LVU252
 948              		.loc 1 160 8 is_stmt 0 view .LVU253
 949 0008 0368     		ldr	r3, [r0]
 950              	.LVL50:
 161:Middlewares/ST/BlueNRG-MS/utils/ble_list.c ****   while (temp != listHead)
 951              		.loc 1 161 3 is_stmt 1 view .LVU254
 952              		.loc 1 161 9 view .LVU255
 953 000a 9A42     		cmp	r2, r3
 153:Middlewares/ST/BlueNRG-MS/utils/ble_list.c ****   tListNode * temp;
 954              		.loc 1 153 7 is_stmt 0 view .LVU256
 955 000c 4FF00000 		mov	r0, #0
 956              	.LVL51:
 957              		.loc 1 161 9 view .LVU257
 958 0010 04D0     		beq	.L14
 959              	.LVL52:
 960              	.L15:
 162:Middlewares/ST/BlueNRG-MS/utils/ble_list.c ****   {
 163:Middlewares/ST/BlueNRG-MS/utils/ble_list.c ****     size++;
 961              		.loc 1 163 5 is_stmt 1 view .LVU258
 164:Middlewares/ST/BlueNRG-MS/utils/ble_list.c ****     temp = temp->next;		
 962              		.loc 1 164 10 is_stmt 0 view .LVU259
 963 0012 1B68     		ldr	r3, [r3]
 964              	.LVL53:
 161:Middlewares/ST/BlueNRG-MS/utils/ble_list.c ****   {
 965              		.loc 1 161 9 view .LVU260
 966 0014 9A42     		cmp	r2, r3
 163:Middlewares/ST/BlueNRG-MS/utils/ble_list.c ****     temp = temp->next;		
 967              		.loc 1 163 9 view .LVU261
 968 0016 00F10100 		add	r0, r0, #1
 969              	.LVL54:
 970              		.loc 1 164 5 is_stmt 1 view .LVU262
 161:Middlewares/ST/BlueNRG-MS/utils/ble_list.c ****   {
 971              		.loc 1 161 9 view .LVU263
 972 001a FAD1     		bne	.L15
 973              	.LVL55:
 974              	.L14:
 165:Middlewares/ST/BlueNRG-MS/utils/ble_list.c ****   }
 166:Middlewares/ST/BlueNRG-MS/utils/ble_list.c ****   
 167:Middlewares/ST/BlueNRG-MS/utils/ble_list.c ****   __set_PRIMASK(uwPRIMASK_Bit);     /**< Restore PRIMASK bit*/
 975              		.loc 1 167 3 view .LVU264
 976              	.LBB170:
 977              	.LBI170:
 412:Drivers/CMSIS/Include/cmsis_gcc.h **** {
 978              		.loc 2 412 27 view .LVU265
 979              	.LBB171:
ARM GAS  /tmp/ccve0BGP.s 			page 30


 980              		.loc 2 414 3 view .LVU266
 981              		.syntax unified
 982              	@ 414 "Drivers/CMSIS/Include/cmsis_gcc.h" 1
 983 001c 81F31088 		MSR primask, r1
 984              	@ 0 "" 2
 985              	.LVL56:
 986              		.loc 2 414 3 is_stmt 0 view .LVU267
 987              		.thumb
 988              		.syntax unified
 989              	.LBE171:
 990              	.LBE170:
 168:Middlewares/ST/BlueNRG-MS/utils/ble_list.c ****   
 169:Middlewares/ST/BlueNRG-MS/utils/ble_list.c ****   return (size);
 991              		.loc 1 169 3 is_stmt 1 view .LVU268
 170:Middlewares/ST/BlueNRG-MS/utils/ble_list.c **** }
 992              		.loc 1 170 1 is_stmt 0 view .LVU269
 993 0020 7047     		bx	lr
 994              		.cfi_endproc
 995              	.LFE142:
 997 0022 00BF     		.section	.text.list_get_next_node,"ax",%progbits
 998              		.align	1
 999              		.p2align 2,,3
 1000              		.global	list_get_next_node
 1001              		.syntax unified
 1002              		.thumb
 1003              		.thumb_func
 1004              		.fpu fpv4-sp-d16
 1006              	list_get_next_node:
 1007              	.LVL57:
 1008              	.LFB143:
 171:Middlewares/ST/BlueNRG-MS/utils/ble_list.c **** 
 172:Middlewares/ST/BlueNRG-MS/utils/ble_list.c **** void list_get_next_node (tListNode * ref_node, tListNode ** node)
 173:Middlewares/ST/BlueNRG-MS/utils/ble_list.c **** {
 1009              		.loc 1 173 1 is_stmt 1 view -0
 1010              		.cfi_startproc
 1011              		@ args = 0, pretend = 0, frame = 0
 1012              		@ frame_needed = 0, uses_anonymous_args = 0
 1013              		@ link register save eliminated.
 174:Middlewares/ST/BlueNRG-MS/utils/ble_list.c ****   uint32_t uwPRIMASK_Bit;
 1014              		.loc 1 174 3 view .LVU271
 175:Middlewares/ST/BlueNRG-MS/utils/ble_list.c ****   uwPRIMASK_Bit = __get_PRIMASK();  /**< backup PRIMASK bit */
 1015              		.loc 1 175 3 view .LVU272
 1016              	.LBB172:
 1017              	.LBI172:
 382:Drivers/CMSIS/Include/cmsis_gcc.h **** {
 1018              		.loc 2 382 31 view .LVU273
 1019              	.LBB173:
 384:Drivers/CMSIS/Include/cmsis_gcc.h **** 
 1020              		.loc 2 384 3 view .LVU274
 386:Drivers/CMSIS/Include/cmsis_gcc.h ****   return(result);
 1021              		.loc 2 386 3 view .LVU275
 1022              		.syntax unified
 1023              	@ 386 "Drivers/CMSIS/Include/cmsis_gcc.h" 1
 1024 0000 EFF31083 		MRS r3, primask
 1025              	@ 0 "" 2
 1026              	.LVL58:
 387:Drivers/CMSIS/Include/cmsis_gcc.h **** }
ARM GAS  /tmp/ccve0BGP.s 			page 31


 1027              		.loc 2 387 3 view .LVU276
 387:Drivers/CMSIS/Include/cmsis_gcc.h **** }
 1028              		.loc 2 387 3 is_stmt 0 view .LVU277
 1029              		.thumb
 1030              		.syntax unified
 1031              	.LBE173:
 1032              	.LBE172:
 176:Middlewares/ST/BlueNRG-MS/utils/ble_list.c ****   __disable_irq();                  /**< Disable all interrupts by setting PRIMASK bit on Cortex*/
 1033              		.loc 1 176 3 is_stmt 1 view .LVU278
 1034              	.LBB174:
 1035              	.LBI174:
 140:Drivers/CMSIS/Include/cmsis_gcc.h **** {
 1036              		.loc 2 140 27 view .LVU279
 1037              	.LBB175:
 142:Drivers/CMSIS/Include/cmsis_gcc.h **** }
 1038              		.loc 2 142 3 view .LVU280
 1039              		.syntax unified
 1040              	@ 142 "Drivers/CMSIS/Include/cmsis_gcc.h" 1
 1041 0004 72B6     		cpsid i
 1042              	@ 0 "" 2
 1043              		.thumb
 1044              		.syntax unified
 1045              	.LBE175:
 1046              	.LBE174:
 177:Middlewares/ST/BlueNRG-MS/utils/ble_list.c ****   
 178:Middlewares/ST/BlueNRG-MS/utils/ble_list.c ****   *node = ref_node->next;
 1047              		.loc 1 178 3 view .LVU281
 1048              		.loc 1 178 19 is_stmt 0 view .LVU282
 1049 0006 0268     		ldr	r2, [r0]
 1050              		.loc 1 178 9 view .LVU283
 1051 0008 0A60     		str	r2, [r1]
 179:Middlewares/ST/BlueNRG-MS/utils/ble_list.c ****   
 180:Middlewares/ST/BlueNRG-MS/utils/ble_list.c ****   __set_PRIMASK(uwPRIMASK_Bit);     /**< Restore PRIMASK bit*/
 1052              		.loc 1 180 3 is_stmt 1 view .LVU284
 1053              	.LVL59:
 1054              	.LBB176:
 1055              	.LBI176:
 412:Drivers/CMSIS/Include/cmsis_gcc.h **** {
 1056              		.loc 2 412 27 view .LVU285
 1057              	.LBB177:
 1058              		.loc 2 414 3 view .LVU286
 1059              		.syntax unified
 1060              	@ 414 "Drivers/CMSIS/Include/cmsis_gcc.h" 1
 1061 000a 83F31088 		MSR primask, r3
 1062              	@ 0 "" 2
 1063              	.LVL60:
 1064              		.loc 2 414 3 is_stmt 0 view .LVU287
 1065              		.thumb
 1066              		.syntax unified
 1067              	.LBE177:
 1068              	.LBE176:
 181:Middlewares/ST/BlueNRG-MS/utils/ble_list.c **** }
 1069              		.loc 1 181 1 view .LVU288
 1070 000e 7047     		bx	lr
 1071              		.cfi_endproc
 1072              	.LFE143:
 1074              		.section	.text.list_get_prev_node,"ax",%progbits
ARM GAS  /tmp/ccve0BGP.s 			page 32


 1075              		.align	1
 1076              		.p2align 2,,3
 1077              		.global	list_get_prev_node
 1078              		.syntax unified
 1079              		.thumb
 1080              		.thumb_func
 1081              		.fpu fpv4-sp-d16
 1083              	list_get_prev_node:
 1084              	.LVL61:
 1085              	.LFB144:
 182:Middlewares/ST/BlueNRG-MS/utils/ble_list.c **** 
 183:Middlewares/ST/BlueNRG-MS/utils/ble_list.c **** void list_get_prev_node (tListNode * ref_node, tListNode ** node)
 184:Middlewares/ST/BlueNRG-MS/utils/ble_list.c **** {
 1086              		.loc 1 184 1 is_stmt 1 view -0
 1087              		.cfi_startproc
 1088              		@ args = 0, pretend = 0, frame = 0
 1089              		@ frame_needed = 0, uses_anonymous_args = 0
 1090              		@ link register save eliminated.
 185:Middlewares/ST/BlueNRG-MS/utils/ble_list.c ****   uint32_t uwPRIMASK_Bit;
 1091              		.loc 1 185 3 view .LVU290
 186:Middlewares/ST/BlueNRG-MS/utils/ble_list.c ****   uwPRIMASK_Bit = __get_PRIMASK();  /**< backup PRIMASK bit */
 1092              		.loc 1 186 3 view .LVU291
 1093              	.LBB178:
 1094              	.LBI178:
 382:Drivers/CMSIS/Include/cmsis_gcc.h **** {
 1095              		.loc 2 382 31 view .LVU292
 1096              	.LBB179:
 384:Drivers/CMSIS/Include/cmsis_gcc.h **** 
 1097              		.loc 2 384 3 view .LVU293
 386:Drivers/CMSIS/Include/cmsis_gcc.h ****   return(result);
 1098              		.loc 2 386 3 view .LVU294
 1099              		.syntax unified
 1100              	@ 386 "Drivers/CMSIS/Include/cmsis_gcc.h" 1
 1101 0000 EFF31083 		MRS r3, primask
 1102              	@ 0 "" 2
 1103              	.LVL62:
 387:Drivers/CMSIS/Include/cmsis_gcc.h **** }
 1104              		.loc 2 387 3 view .LVU295
 387:Drivers/CMSIS/Include/cmsis_gcc.h **** }
 1105              		.loc 2 387 3 is_stmt 0 view .LVU296
 1106              		.thumb
 1107              		.syntax unified
 1108              	.LBE179:
 1109              	.LBE178:
 187:Middlewares/ST/BlueNRG-MS/utils/ble_list.c ****   __disable_irq();                  /**< Disable all interrupts by setting PRIMASK bit on Cortex*/
 1110              		.loc 1 187 3 is_stmt 1 view .LVU297
 1111              	.LBB180:
 1112              	.LBI180:
 140:Drivers/CMSIS/Include/cmsis_gcc.h **** {
 1113              		.loc 2 140 27 view .LVU298
 1114              	.LBB181:
 142:Drivers/CMSIS/Include/cmsis_gcc.h **** }
 1115              		.loc 2 142 3 view .LVU299
 1116              		.syntax unified
 1117              	@ 142 "Drivers/CMSIS/Include/cmsis_gcc.h" 1
 1118 0004 72B6     		cpsid i
 1119              	@ 0 "" 2
ARM GAS  /tmp/ccve0BGP.s 			page 33


 1120              		.thumb
 1121              		.syntax unified
 1122              	.LBE181:
 1123              	.LBE180:
 188:Middlewares/ST/BlueNRG-MS/utils/ble_list.c ****   
 189:Middlewares/ST/BlueNRG-MS/utils/ble_list.c ****   *node = ref_node->prev;
 1124              		.loc 1 189 3 view .LVU300
 1125              		.loc 1 189 19 is_stmt 0 view .LVU301
 1126 0006 4268     		ldr	r2, [r0, #4]
 1127              		.loc 1 189 9 view .LVU302
 1128 0008 0A60     		str	r2, [r1]
 190:Middlewares/ST/BlueNRG-MS/utils/ble_list.c ****   
 191:Middlewares/ST/BlueNRG-MS/utils/ble_list.c ****   __set_PRIMASK(uwPRIMASK_Bit);     /**< Restore PRIMASK bit*/
 1129              		.loc 1 191 3 is_stmt 1 view .LVU303
 1130              	.LVL63:
 1131              	.LBB182:
 1132              	.LBI182:
 412:Drivers/CMSIS/Include/cmsis_gcc.h **** {
 1133              		.loc 2 412 27 view .LVU304
 1134              	.LBB183:
 1135              		.loc 2 414 3 view .LVU305
 1136              		.syntax unified
 1137              	@ 414 "Drivers/CMSIS/Include/cmsis_gcc.h" 1
 1138 000a 83F31088 		MSR primask, r3
 1139              	@ 0 "" 2
 1140              	.LVL64:
 1141              		.loc 2 414 3 is_stmt 0 view .LVU306
 1142              		.thumb
 1143              		.syntax unified
 1144              	.LBE183:
 1145              	.LBE182:
 192:Middlewares/ST/BlueNRG-MS/utils/ble_list.c **** }
 1146              		.loc 1 192 1 view .LVU307
 1147 000e 7047     		bx	lr
 1148              		.cfi_endproc
 1149              	.LFE144:
 1151              		.text
 1152              	.Letext0:
 1153              		.file 3 "/usr/lib/gcc/arm-none-eabi/9.2.1/include/stdint.h"
 1154              		.file 4 "Middlewares/ST/BlueNRG-MS/utils/ble_list.h"
 1155              		.file 5 "/usr/lib/gcc/arm-none-eabi/9.2.1/include/stddef.h"
 1156              		.file 6 "/usr/include/newlib/sys/_types.h"
 1157              		.file 7 "/usr/include/newlib/sys/reent.h"
 1158              		.file 8 "/usr/include/newlib/sys/lock.h"
 1159              		.file 9 "Drivers/CMSIS/Include/core_cm4.h"
 1160              		.file 10 "Drivers/CMSIS/Device/ST/STM32F4xx/Include/system_stm32f4xx.h"
 1161              		.file 11 "Drivers/STM32F4xx_HAL_Driver/Inc/stm32f4xx_hal.h"
ARM GAS  /tmp/ccve0BGP.s 			page 34

