ARM GAS  /tmp/ccgRl1dh.s 			page 1


   1              		.cpu cortex-m4
   2              		.eabi_attribute 27, 1
   3              		.eabi_attribute 28, 1
   4              		.eabi_attribute 20, 1
   5              		.eabi_attribute 21, 1
   6              		.eabi_attribute 23, 3
   7              		.eabi_attribute 24, 1
   8              		.eabi_attribute 25, 1
   9              		.eabi_attribute 26, 1
  10              		.eabi_attribute 30, 2
  11              		.eabi_attribute 34, 1
  12              		.eabi_attribute 18, 4
  13              		.file	"bluenrg_updater_aci.c"
  14              		.text
  15              	.Ltext0:
  16              		.cfi_sections	.debug_frame
  17              		.section	.text.aci_updater_start,"ax",%progbits
  18              		.align	1
  19              		.p2align 2,,3
  20              		.global	aci_updater_start
  21              		.arch armv7e-m
  22              		.syntax unified
  23              		.thumb
  24              		.thumb_func
  25              		.fpu fpv4-sp-d16
  27              	aci_updater_start:
  28              	.LFB130:
  29              		.file 1 "Middlewares/ST/BlueNRG-MS/hci/controller/bluenrg_updater_aci.c"
   1:Middlewares/ST/BlueNRG-MS/hci/controller/bluenrg_updater_aci.c **** /******************** (C) COPYRIGHT 2013 STMicroelectronics ********************
   2:Middlewares/ST/BlueNRG-MS/hci/controller/bluenrg_updater_aci.c **** * File Name          : bluenrg_hci.c
   3:Middlewares/ST/BlueNRG-MS/hci/controller/bluenrg_updater_aci.c **** * Author             : AMS - HEA&RF BU
   4:Middlewares/ST/BlueNRG-MS/hci/controller/bluenrg_updater_aci.c **** * Version            : V1.0.0
   5:Middlewares/ST/BlueNRG-MS/hci/controller/bluenrg_updater_aci.c **** * Date               : 4-Oct-2013
   6:Middlewares/ST/BlueNRG-MS/hci/controller/bluenrg_updater_aci.c **** * Description        : File with HCI commands for BlueNRG FW6.0 and above.
   7:Middlewares/ST/BlueNRG-MS/hci/controller/bluenrg_updater_aci.c **** ********************************************************************************
   8:Middlewares/ST/BlueNRG-MS/hci/controller/bluenrg_updater_aci.c **** * THE PRESENT FIRMWARE WHICH IS FOR GUIDANCE ONLY AIMS AT PROVIDING CUSTOMERS
   9:Middlewares/ST/BlueNRG-MS/hci/controller/bluenrg_updater_aci.c **** * WITH CODING INFORMATION REGARDING THEIR PRODUCTS IN ORDER FOR THEM TO SAVE TIME.
  10:Middlewares/ST/BlueNRG-MS/hci/controller/bluenrg_updater_aci.c **** * AS A RESULT, STMICROELECTRONICS SHALL NOT BE HELD LIABLE FOR ANY DIRECT,
  11:Middlewares/ST/BlueNRG-MS/hci/controller/bluenrg_updater_aci.c **** * INDIRECT OR CONSEQUENTIAL DAMAGES WITH RESPECT TO ANY CLAIMS ARISING FROM THE
  12:Middlewares/ST/BlueNRG-MS/hci/controller/bluenrg_updater_aci.c **** * CONTENT OF SUCH FIRMWARE AND/OR THE USE MADE BY CUSTOMERS OF THE CODING
  13:Middlewares/ST/BlueNRG-MS/hci/controller/bluenrg_updater_aci.c **** * INFORMATION CONTAINED HEREIN IN CONNECTION WITH THEIR PRODUCTS.
  14:Middlewares/ST/BlueNRG-MS/hci/controller/bluenrg_updater_aci.c **** *******************************************************************************/
  15:Middlewares/ST/BlueNRG-MS/hci/controller/bluenrg_updater_aci.c **** 
  16:Middlewares/ST/BlueNRG-MS/hci/controller/bluenrg_updater_aci.c **** #include "bluenrg_def.h"
  17:Middlewares/ST/BlueNRG-MS/hci/controller/bluenrg_updater_aci.c **** #include "bluenrg_types.h"
  18:Middlewares/ST/BlueNRG-MS/hci/controller/bluenrg_updater_aci.c **** #include "hci_const.h"
  19:Middlewares/ST/BlueNRG-MS/hci/controller/bluenrg_updater_aci.c **** #include "bluenrg_aci_const.h"
  20:Middlewares/ST/BlueNRG-MS/hci/controller/bluenrg_updater_aci.c **** #include "bluenrg_updater_aci.h"
  21:Middlewares/ST/BlueNRG-MS/hci/controller/bluenrg_updater_aci.c **** 
  22:Middlewares/ST/BlueNRG-MS/hci/controller/bluenrg_updater_aci.c **** #define MIN(a,b)            ((a) < (b) )? (a) : (b)
  23:Middlewares/ST/BlueNRG-MS/hci/controller/bluenrg_updater_aci.c **** #define MAX(a,b)            ((a) > (b) )? (a) : (b)
  24:Middlewares/ST/BlueNRG-MS/hci/controller/bluenrg_updater_aci.c **** 
  25:Middlewares/ST/BlueNRG-MS/hci/controller/bluenrg_updater_aci.c **** tBleStatus aci_updater_start(void)
  26:Middlewares/ST/BlueNRG-MS/hci/controller/bluenrg_updater_aci.c **** {
  30              		.loc 1 26 1 view -0
  31              		.cfi_startproc
  32              		@ args = 0, pretend = 0, frame = 32
ARM GAS  /tmp/ccgRl1dh.s 			page 2


  33              		@ frame_needed = 0, uses_anonymous_args = 0
  27:Middlewares/ST/BlueNRG-MS/hci/controller/bluenrg_updater_aci.c ****   struct hci_request rq;
  34              		.loc 1 27 3 view .LVU1
  28:Middlewares/ST/BlueNRG-MS/hci/controller/bluenrg_updater_aci.c ****   uint8_t status = 0;
  35              		.loc 1 28 3 view .LVU2
  26:Middlewares/ST/BlueNRG-MS/hci/controller/bluenrg_updater_aci.c ****   struct hci_request rq;
  36              		.loc 1 26 1 is_stmt 0 view .LVU3
  37 0000 10B5     		push	{r4, lr}
  38              	.LCFI0:
  39              		.cfi_def_cfa_offset 8
  40              		.cfi_offset 4, -8
  41              		.cfi_offset 14, -4
  42 0002 88B0     		sub	sp, sp, #32
  43              	.LCFI1:
  44              		.cfi_def_cfa_offset 40
  45              		.loc 1 28 11 view .LVU4
  46 0004 0021     		movs	r1, #0
  29:Middlewares/ST/BlueNRG-MS/hci/controller/bluenrg_updater_aci.c **** 
  30:Middlewares/ST/BlueNRG-MS/hci/controller/bluenrg_updater_aci.c ****   BLUENRG_memset(&rq, 0, sizeof(rq));
  31:Middlewares/ST/BlueNRG-MS/hci/controller/bluenrg_updater_aci.c ****   rq.ogf = OGF_VENDOR_CMD;
  32:Middlewares/ST/BlueNRG-MS/hci/controller/bluenrg_updater_aci.c ****   rq.ocf = OCF_UPDATER_START;
  33:Middlewares/ST/BlueNRG-MS/hci/controller/bluenrg_updater_aci.c ****   rq.rparam = &status;
  47              		.loc 1 33 13 view .LVU5
  48 0006 0DF10702 		add	r2, sp, #7
  34:Middlewares/ST/BlueNRG-MS/hci/controller/bluenrg_updater_aci.c ****   rq.rlen = 1;
  49              		.loc 1 34 11 view .LVU6
  50 000a 0123     		movs	r3, #1
  31:Middlewares/ST/BlueNRG-MS/hci/controller/bluenrg_updater_aci.c ****   rq.ocf = OCF_UPDATER_START;
  51              		.loc 1 31 10 view .LVU7
  52 000c 074C     		ldr	r4, .L4
  28:Middlewares/ST/BlueNRG-MS/hci/controller/bluenrg_updater_aci.c **** 
  53              		.loc 1 28 11 view .LVU8
  54 000e 8DF80710 		strb	r1, [sp, #7]
  30:Middlewares/ST/BlueNRG-MS/hci/controller/bluenrg_updater_aci.c ****   rq.ogf = OGF_VENDOR_CMD;
  55              		.loc 1 30 3 is_stmt 1 view .LVU9
  35:Middlewares/ST/BlueNRG-MS/hci/controller/bluenrg_updater_aci.c **** 
  36:Middlewares/ST/BlueNRG-MS/hci/controller/bluenrg_updater_aci.c ****   hci_send_req(&rq, FALSE); // No command complete is sent.
  56              		.loc 1 36 3 is_stmt 0 view .LVU10
  57 0012 02A8     		add	r0, sp, #8
  30:Middlewares/ST/BlueNRG-MS/hci/controller/bluenrg_updater_aci.c ****   rq.ogf = OGF_VENDOR_CMD;
  58              		.loc 1 30 3 view .LVU11
  59 0014 CDE90311 		strd	r1, r1, [sp, #12]
  34:Middlewares/ST/BlueNRG-MS/hci/controller/bluenrg_updater_aci.c **** 
  60              		.loc 1 34 11 view .LVU12
  61 0018 CDE90623 		strd	r2, r3, [sp, #24]
  30:Middlewares/ST/BlueNRG-MS/hci/controller/bluenrg_updater_aci.c ****   rq.ogf = OGF_VENDOR_CMD;
  62              		.loc 1 30 3 view .LVU13
  63 001c 0591     		str	r1, [sp, #20]
  31:Middlewares/ST/BlueNRG-MS/hci/controller/bluenrg_updater_aci.c ****   rq.ocf = OCF_UPDATER_START;
  64              		.loc 1 31 3 is_stmt 1 view .LVU14
  32:Middlewares/ST/BlueNRG-MS/hci/controller/bluenrg_updater_aci.c ****   rq.rparam = &status;
  65              		.loc 1 32 3 view .LVU15
  31:Middlewares/ST/BlueNRG-MS/hci/controller/bluenrg_updater_aci.c ****   rq.ocf = OCF_UPDATER_START;
  66              		.loc 1 31 10 is_stmt 0 view .LVU16
  67 001e 0294     		str	r4, [sp, #8]
  33:Middlewares/ST/BlueNRG-MS/hci/controller/bluenrg_updater_aci.c ****   rq.rlen = 1;
  68              		.loc 1 33 3 is_stmt 1 view .LVU17
ARM GAS  /tmp/ccgRl1dh.s 			page 3


  69              		.loc 1 36 3 view .LVU18
  70 0020 FFF7FEFF 		bl	hci_send_req
  71              	.LVL0:
  37:Middlewares/ST/BlueNRG-MS/hci/controller/bluenrg_updater_aci.c **** 
  38:Middlewares/ST/BlueNRG-MS/hci/controller/bluenrg_updater_aci.c ****   return status;  
  72              		.loc 1 38 3 view .LVU19
  39:Middlewares/ST/BlueNRG-MS/hci/controller/bluenrg_updater_aci.c **** }
  73              		.loc 1 39 1 is_stmt 0 view .LVU20
  74 0024 9DF80700 		ldrb	r0, [sp, #7]	@ zero_extendqisi2
  75 0028 08B0     		add	sp, sp, #32
  76              	.LCFI2:
  77              		.cfi_def_cfa_offset 8
  78              		@ sp needed
  79 002a 10BD     		pop	{r4, pc}
  80              	.L5:
  81              		.align	2
  82              	.L4:
  83 002c 3F002000 		.word	2097215
  84              		.cfi_endproc
  85              	.LFE130:
  87              		.section	.text.aci_updater_reboot,"ax",%progbits
  88              		.align	1
  89              		.p2align 2,,3
  90              		.global	aci_updater_reboot
  91              		.syntax unified
  92              		.thumb
  93              		.thumb_func
  94              		.fpu fpv4-sp-d16
  96              	aci_updater_reboot:
  97              	.LFB131:
  40:Middlewares/ST/BlueNRG-MS/hci/controller/bluenrg_updater_aci.c **** 
  41:Middlewares/ST/BlueNRG-MS/hci/controller/bluenrg_updater_aci.c **** tBleStatus aci_updater_reboot(void)
  42:Middlewares/ST/BlueNRG-MS/hci/controller/bluenrg_updater_aci.c **** {
  98              		.loc 1 42 1 is_stmt 1 view -0
  99              		.cfi_startproc
 100              		@ args = 0, pretend = 0, frame = 32
 101              		@ frame_needed = 0, uses_anonymous_args = 0
  43:Middlewares/ST/BlueNRG-MS/hci/controller/bluenrg_updater_aci.c ****   struct hci_request rq;
 102              		.loc 1 43 3 view .LVU22
  44:Middlewares/ST/BlueNRG-MS/hci/controller/bluenrg_updater_aci.c ****   uint8_t status = 0;
 103              		.loc 1 44 3 view .LVU23
  42:Middlewares/ST/BlueNRG-MS/hci/controller/bluenrg_updater_aci.c ****   struct hci_request rq;
 104              		.loc 1 42 1 is_stmt 0 view .LVU24
 105 0000 10B5     		push	{r4, lr}
 106              	.LCFI3:
 107              		.cfi_def_cfa_offset 8
 108              		.cfi_offset 4, -8
 109              		.cfi_offset 14, -4
 110 0002 88B0     		sub	sp, sp, #32
 111              	.LCFI4:
 112              		.cfi_def_cfa_offset 40
 113              		.loc 1 44 11 view .LVU25
 114 0004 0021     		movs	r1, #0
  45:Middlewares/ST/BlueNRG-MS/hci/controller/bluenrg_updater_aci.c **** 
  46:Middlewares/ST/BlueNRG-MS/hci/controller/bluenrg_updater_aci.c ****   BLUENRG_memset(&rq, 0, sizeof(rq));
  47:Middlewares/ST/BlueNRG-MS/hci/controller/bluenrg_updater_aci.c ****   rq.ogf = OGF_VENDOR_CMD;
  48:Middlewares/ST/BlueNRG-MS/hci/controller/bluenrg_updater_aci.c ****   rq.ocf = OCF_UPDATER_REBOOT;
ARM GAS  /tmp/ccgRl1dh.s 			page 4


  49:Middlewares/ST/BlueNRG-MS/hci/controller/bluenrg_updater_aci.c ****   rq.rparam = &status;
 115              		.loc 1 49 13 view .LVU26
 116 0006 0DF10702 		add	r2, sp, #7
  50:Middlewares/ST/BlueNRG-MS/hci/controller/bluenrg_updater_aci.c ****   rq.rlen = 1;
 117              		.loc 1 50 11 view .LVU27
 118 000a 0123     		movs	r3, #1
  47:Middlewares/ST/BlueNRG-MS/hci/controller/bluenrg_updater_aci.c ****   rq.ocf = OCF_UPDATER_REBOOT;
 119              		.loc 1 47 10 view .LVU28
 120 000c 074C     		ldr	r4, .L8
  44:Middlewares/ST/BlueNRG-MS/hci/controller/bluenrg_updater_aci.c **** 
 121              		.loc 1 44 11 view .LVU29
 122 000e 8DF80710 		strb	r1, [sp, #7]
  46:Middlewares/ST/BlueNRG-MS/hci/controller/bluenrg_updater_aci.c ****   rq.ogf = OGF_VENDOR_CMD;
 123              		.loc 1 46 3 is_stmt 1 view .LVU30
  51:Middlewares/ST/BlueNRG-MS/hci/controller/bluenrg_updater_aci.c **** 
  52:Middlewares/ST/BlueNRG-MS/hci/controller/bluenrg_updater_aci.c ****   hci_send_req(&rq, FALSE); // No command complete is sent.
 124              		.loc 1 52 3 is_stmt 0 view .LVU31
 125 0012 02A8     		add	r0, sp, #8
  46:Middlewares/ST/BlueNRG-MS/hci/controller/bluenrg_updater_aci.c ****   rq.ogf = OGF_VENDOR_CMD;
 126              		.loc 1 46 3 view .LVU32
 127 0014 CDE90311 		strd	r1, r1, [sp, #12]
  50:Middlewares/ST/BlueNRG-MS/hci/controller/bluenrg_updater_aci.c **** 
 128              		.loc 1 50 11 view .LVU33
 129 0018 CDE90623 		strd	r2, r3, [sp, #24]
  46:Middlewares/ST/BlueNRG-MS/hci/controller/bluenrg_updater_aci.c ****   rq.ogf = OGF_VENDOR_CMD;
 130              		.loc 1 46 3 view .LVU34
 131 001c 0591     		str	r1, [sp, #20]
  47:Middlewares/ST/BlueNRG-MS/hci/controller/bluenrg_updater_aci.c ****   rq.ocf = OCF_UPDATER_REBOOT;
 132              		.loc 1 47 3 is_stmt 1 view .LVU35
  48:Middlewares/ST/BlueNRG-MS/hci/controller/bluenrg_updater_aci.c ****   rq.rparam = &status;
 133              		.loc 1 48 3 view .LVU36
  47:Middlewares/ST/BlueNRG-MS/hci/controller/bluenrg_updater_aci.c ****   rq.ocf = OCF_UPDATER_REBOOT;
 134              		.loc 1 47 10 is_stmt 0 view .LVU37
 135 001e 0294     		str	r4, [sp, #8]
  49:Middlewares/ST/BlueNRG-MS/hci/controller/bluenrg_updater_aci.c ****   rq.rlen = 1;
 136              		.loc 1 49 3 is_stmt 1 view .LVU38
 137              		.loc 1 52 3 view .LVU39
 138 0020 FFF7FEFF 		bl	hci_send_req
 139              	.LVL1:
  53:Middlewares/ST/BlueNRG-MS/hci/controller/bluenrg_updater_aci.c **** 
  54:Middlewares/ST/BlueNRG-MS/hci/controller/bluenrg_updater_aci.c ****   return status;
 140              		.loc 1 54 3 view .LVU40
  55:Middlewares/ST/BlueNRG-MS/hci/controller/bluenrg_updater_aci.c **** }
 141              		.loc 1 55 1 is_stmt 0 view .LVU41
 142 0024 9DF80700 		ldrb	r0, [sp, #7]	@ zero_extendqisi2
 143 0028 08B0     		add	sp, sp, #32
 144              	.LCFI5:
 145              		.cfi_def_cfa_offset 8
 146              		@ sp needed
 147 002a 10BD     		pop	{r4, pc}
 148              	.L9:
 149              		.align	2
 150              	.L8:
 151 002c 3F002100 		.word	2162751
 152              		.cfi_endproc
 153              	.LFE131:
 155              		.section	.text.aci_get_updater_version,"ax",%progbits
ARM GAS  /tmp/ccgRl1dh.s 			page 5


 156              		.align	1
 157              		.p2align 2,,3
 158              		.global	aci_get_updater_version
 159              		.syntax unified
 160              		.thumb
 161              		.thumb_func
 162              		.fpu fpv4-sp-d16
 164              	aci_get_updater_version:
 165              	.LVL2:
 166              	.LFB132:
  56:Middlewares/ST/BlueNRG-MS/hci/controller/bluenrg_updater_aci.c **** 
  57:Middlewares/ST/BlueNRG-MS/hci/controller/bluenrg_updater_aci.c **** tBleStatus aci_get_updater_version(uint8_t *version)
  58:Middlewares/ST/BlueNRG-MS/hci/controller/bluenrg_updater_aci.c **** {
 167              		.loc 1 58 1 is_stmt 1 view -0
 168              		.cfi_startproc
 169              		@ args = 0, pretend = 0, frame = 32
 170              		@ frame_needed = 0, uses_anonymous_args = 0
  59:Middlewares/ST/BlueNRG-MS/hci/controller/bluenrg_updater_aci.c ****   struct hci_request rq;
 171              		.loc 1 59 3 view .LVU43
  60:Middlewares/ST/BlueNRG-MS/hci/controller/bluenrg_updater_aci.c ****   get_updater_version_rp resp;
 172              		.loc 1 60 3 view .LVU44
  61:Middlewares/ST/BlueNRG-MS/hci/controller/bluenrg_updater_aci.c **** 
  62:Middlewares/ST/BlueNRG-MS/hci/controller/bluenrg_updater_aci.c ****   BLUENRG_memset(&resp, 0, sizeof(resp));
 173              		.loc 1 62 3 view .LVU45
  58:Middlewares/ST/BlueNRG-MS/hci/controller/bluenrg_updater_aci.c ****   struct hci_request rq;
 174              		.loc 1 58 1 is_stmt 0 view .LVU46
 175 0000 30B5     		push	{r4, r5, lr}
 176              	.LCFI6:
 177              		.cfi_def_cfa_offset 12
 178              		.cfi_offset 4, -12
 179              		.cfi_offset 5, -8
 180              		.cfi_offset 14, -4
 181 0002 89B0     		sub	sp, sp, #36
 182              	.LCFI7:
 183              		.cfi_def_cfa_offset 48
 184              		.loc 1 62 3 view .LVU47
 185 0004 0021     		movs	r1, #0
  63:Middlewares/ST/BlueNRG-MS/hci/controller/bluenrg_updater_aci.c **** 
  64:Middlewares/ST/BlueNRG-MS/hci/controller/bluenrg_updater_aci.c ****   BLUENRG_memset(&rq, 0, sizeof(rq));
  65:Middlewares/ST/BlueNRG-MS/hci/controller/bluenrg_updater_aci.c ****   rq.ogf = OGF_VENDOR_CMD;
  66:Middlewares/ST/BlueNRG-MS/hci/controller/bluenrg_updater_aci.c ****   rq.ocf = OCF_GET_UPDATER_VERSION;
  67:Middlewares/ST/BlueNRG-MS/hci/controller/bluenrg_updater_aci.c ****   rq.rparam = &resp;
  68:Middlewares/ST/BlueNRG-MS/hci/controller/bluenrg_updater_aci.c ****   rq.rlen = GET_UPDATER_VERSION_RP_SIZE;
 186              		.loc 1 68 11 view .LVU48
 187 0006 0223     		movs	r3, #2
  65:Middlewares/ST/BlueNRG-MS/hci/controller/bluenrg_updater_aci.c ****   rq.ocf = OCF_GET_UPDATER_VERSION;
 188              		.loc 1 65 10 view .LVU49
 189 0008 0B4A     		ldr	r2, .L14
 190              		.loc 1 68 11 view .LVU50
 191 000a 0793     		str	r3, [sp, #28]
  58:Middlewares/ST/BlueNRG-MS/hci/controller/bluenrg_updater_aci.c ****   struct hci_request rq;
 192              		.loc 1 58 1 view .LVU51
 193 000c 0446     		mov	r4, r0
  62:Middlewares/ST/BlueNRG-MS/hci/controller/bluenrg_updater_aci.c **** 
 194              		.loc 1 62 3 view .LVU52
 195 000e 01AD     		add	r5, sp, #4
  69:Middlewares/ST/BlueNRG-MS/hci/controller/bluenrg_updater_aci.c **** 
ARM GAS  /tmp/ccgRl1dh.s 			page 6


  70:Middlewares/ST/BlueNRG-MS/hci/controller/bluenrg_updater_aci.c ****   if (hci_send_req(&rq, FALSE) < 0)
 196              		.loc 1 70 7 view .LVU53
 197 0010 02A8     		add	r0, sp, #8
 198              	.LVL3:
  64:Middlewares/ST/BlueNRG-MS/hci/controller/bluenrg_updater_aci.c ****   rq.ogf = OGF_VENDOR_CMD;
 199              		.loc 1 64 3 view .LVU54
 200 0012 CDE90311 		strd	r1, r1, [sp, #12]
  62:Middlewares/ST/BlueNRG-MS/hci/controller/bluenrg_updater_aci.c **** 
 201              		.loc 1 62 3 view .LVU55
 202 0016 ADF80410 		strh	r1, [sp, #4]	@ movhi
  64:Middlewares/ST/BlueNRG-MS/hci/controller/bluenrg_updater_aci.c ****   rq.ogf = OGF_VENDOR_CMD;
 203              		.loc 1 64 3 is_stmt 1 view .LVU56
 204 001a 0591     		str	r1, [sp, #20]
  65:Middlewares/ST/BlueNRG-MS/hci/controller/bluenrg_updater_aci.c ****   rq.ocf = OCF_GET_UPDATER_VERSION;
 205              		.loc 1 65 3 view .LVU57
  66:Middlewares/ST/BlueNRG-MS/hci/controller/bluenrg_updater_aci.c ****   rq.rparam = &resp;
 206              		.loc 1 66 3 view .LVU58
  67:Middlewares/ST/BlueNRG-MS/hci/controller/bluenrg_updater_aci.c ****   rq.rlen = GET_UPDATER_VERSION_RP_SIZE;
 207              		.loc 1 67 13 is_stmt 0 view .LVU59
 208 001c 0695     		str	r5, [sp, #24]
  65:Middlewares/ST/BlueNRG-MS/hci/controller/bluenrg_updater_aci.c ****   rq.ocf = OCF_GET_UPDATER_VERSION;
 209              		.loc 1 65 10 view .LVU60
 210 001e 0292     		str	r2, [sp, #8]
  67:Middlewares/ST/BlueNRG-MS/hci/controller/bluenrg_updater_aci.c ****   rq.rlen = GET_UPDATER_VERSION_RP_SIZE;
 211              		.loc 1 67 3 is_stmt 1 view .LVU61
  68:Middlewares/ST/BlueNRG-MS/hci/controller/bluenrg_updater_aci.c **** 
 212              		.loc 1 68 3 view .LVU62
 213              		.loc 1 70 3 view .LVU63
 214              		.loc 1 70 7 is_stmt 0 view .LVU64
 215 0020 FFF7FEFF 		bl	hci_send_req
 216              	.LVL4:
 217              		.loc 1 70 6 view .LVU65
 218 0024 0028     		cmp	r0, #0
  71:Middlewares/ST/BlueNRG-MS/hci/controller/bluenrg_updater_aci.c ****     return BLE_STATUS_TIMEOUT;
  72:Middlewares/ST/BlueNRG-MS/hci/controller/bluenrg_updater_aci.c ****     
  73:Middlewares/ST/BlueNRG-MS/hci/controller/bluenrg_updater_aci.c ****   *version = resp.version;
 219              		.loc 1 73 3 is_stmt 1 view .LVU66
 220              		.loc 1 73 12 is_stmt 0 view .LVU67
 221 0026 A3BF     		ittte	ge
 222 0028 9DF80530 		ldrbge	r3, [sp, #5]	@ zero_extendqisi2
  74:Middlewares/ST/BlueNRG-MS/hci/controller/bluenrg_updater_aci.c **** 
  75:Middlewares/ST/BlueNRG-MS/hci/controller/bluenrg_updater_aci.c ****   return resp.status;
 223              		.loc 1 75 14 view .LVU68
 224 002c 9DF80400 		ldrbge	r0, [sp, #4]	@ zero_extendqisi2
  73:Middlewares/ST/BlueNRG-MS/hci/controller/bluenrg_updater_aci.c **** 
 225              		.loc 1 73 12 view .LVU69
 226 0030 2370     		strbge	r3, [r4]
 227              		.loc 1 75 3 is_stmt 1 view .LVU70
  71:Middlewares/ST/BlueNRG-MS/hci/controller/bluenrg_updater_aci.c ****     return BLE_STATUS_TIMEOUT;
 228              		.loc 1 71 12 is_stmt 0 view .LVU71
 229 0032 FF20     		movlt	r0, #255
  76:Middlewares/ST/BlueNRG-MS/hci/controller/bluenrg_updater_aci.c **** }
 230              		.loc 1 76 1 view .LVU72
 231 0034 09B0     		add	sp, sp, #36
 232              	.LCFI8:
 233              		.cfi_def_cfa_offset 12
 234              		@ sp needed
ARM GAS  /tmp/ccgRl1dh.s 			page 7


 235 0036 30BD     		pop	{r4, r5, pc}
 236              	.LVL5:
 237              	.L15:
 238              		.loc 1 76 1 view .LVU73
 239              		.align	2
 240              	.L14:
 241 0038 3F002200 		.word	2228287
 242              		.cfi_endproc
 243              	.LFE132:
 245              		.section	.text.aci_get_updater_buffer_size,"ax",%progbits
 246              		.align	1
 247              		.p2align 2,,3
 248              		.global	aci_get_updater_buffer_size
 249              		.syntax unified
 250              		.thumb
 251              		.thumb_func
 252              		.fpu fpv4-sp-d16
 254              	aci_get_updater_buffer_size:
 255              	.LVL6:
 256              	.LFB133:
  77:Middlewares/ST/BlueNRG-MS/hci/controller/bluenrg_updater_aci.c **** 
  78:Middlewares/ST/BlueNRG-MS/hci/controller/bluenrg_updater_aci.c **** tBleStatus aci_get_updater_buffer_size(uint8_t *buffer_size)
  79:Middlewares/ST/BlueNRG-MS/hci/controller/bluenrg_updater_aci.c **** {
 257              		.loc 1 79 1 is_stmt 1 view -0
 258              		.cfi_startproc
 259              		@ args = 0, pretend = 0, frame = 32
 260              		@ frame_needed = 0, uses_anonymous_args = 0
  80:Middlewares/ST/BlueNRG-MS/hci/controller/bluenrg_updater_aci.c ****   struct hci_request rq;
 261              		.loc 1 80 3 view .LVU75
  81:Middlewares/ST/BlueNRG-MS/hci/controller/bluenrg_updater_aci.c ****   get_updater_bufsize_rp resp;
 262              		.loc 1 81 3 view .LVU76
  82:Middlewares/ST/BlueNRG-MS/hci/controller/bluenrg_updater_aci.c **** 
  83:Middlewares/ST/BlueNRG-MS/hci/controller/bluenrg_updater_aci.c ****   BLUENRG_memset(&resp, 0, sizeof(resp));
 263              		.loc 1 83 3 view .LVU77
  79:Middlewares/ST/BlueNRG-MS/hci/controller/bluenrg_updater_aci.c ****   struct hci_request rq;
 264              		.loc 1 79 1 is_stmt 0 view .LVU78
 265 0000 30B5     		push	{r4, r5, lr}
 266              	.LCFI9:
 267              		.cfi_def_cfa_offset 12
 268              		.cfi_offset 4, -12
 269              		.cfi_offset 5, -8
 270              		.cfi_offset 14, -4
 271 0002 89B0     		sub	sp, sp, #36
 272              	.LCFI10:
 273              		.cfi_def_cfa_offset 48
 274              		.loc 1 83 3 view .LVU79
 275 0004 0021     		movs	r1, #0
  84:Middlewares/ST/BlueNRG-MS/hci/controller/bluenrg_updater_aci.c **** 
  85:Middlewares/ST/BlueNRG-MS/hci/controller/bluenrg_updater_aci.c ****   BLUENRG_memset(&rq, 0, sizeof(rq));
  86:Middlewares/ST/BlueNRG-MS/hci/controller/bluenrg_updater_aci.c ****   rq.ogf = OGF_VENDOR_CMD;
  87:Middlewares/ST/BlueNRG-MS/hci/controller/bluenrg_updater_aci.c ****   rq.ocf = OCF_GET_UPDATER_BUFSIZE;
  88:Middlewares/ST/BlueNRG-MS/hci/controller/bluenrg_updater_aci.c ****   rq.rparam = &resp;
  89:Middlewares/ST/BlueNRG-MS/hci/controller/bluenrg_updater_aci.c ****   rq.rlen = GET_UPDATER_BUFSIZE_RP_SIZE;
 276              		.loc 1 89 11 view .LVU80
 277 0006 0223     		movs	r3, #2
  86:Middlewares/ST/BlueNRG-MS/hci/controller/bluenrg_updater_aci.c ****   rq.ocf = OCF_GET_UPDATER_BUFSIZE;
 278              		.loc 1 86 10 view .LVU81
ARM GAS  /tmp/ccgRl1dh.s 			page 8


 279 0008 0B4A     		ldr	r2, .L20
 280              		.loc 1 89 11 view .LVU82
 281 000a 0793     		str	r3, [sp, #28]
  79:Middlewares/ST/BlueNRG-MS/hci/controller/bluenrg_updater_aci.c ****   struct hci_request rq;
 282              		.loc 1 79 1 view .LVU83
 283 000c 0446     		mov	r4, r0
  83:Middlewares/ST/BlueNRG-MS/hci/controller/bluenrg_updater_aci.c **** 
 284              		.loc 1 83 3 view .LVU84
 285 000e 01AD     		add	r5, sp, #4
  90:Middlewares/ST/BlueNRG-MS/hci/controller/bluenrg_updater_aci.c **** 
  91:Middlewares/ST/BlueNRG-MS/hci/controller/bluenrg_updater_aci.c ****   if (hci_send_req(&rq, FALSE) < 0)
 286              		.loc 1 91 7 view .LVU85
 287 0010 02A8     		add	r0, sp, #8
 288              	.LVL7:
  85:Middlewares/ST/BlueNRG-MS/hci/controller/bluenrg_updater_aci.c ****   rq.ogf = OGF_VENDOR_CMD;
 289              		.loc 1 85 3 view .LVU86
 290 0012 CDE90311 		strd	r1, r1, [sp, #12]
  83:Middlewares/ST/BlueNRG-MS/hci/controller/bluenrg_updater_aci.c **** 
 291              		.loc 1 83 3 view .LVU87
 292 0016 ADF80410 		strh	r1, [sp, #4]	@ movhi
  85:Middlewares/ST/BlueNRG-MS/hci/controller/bluenrg_updater_aci.c ****   rq.ogf = OGF_VENDOR_CMD;
 293              		.loc 1 85 3 is_stmt 1 view .LVU88
 294 001a 0591     		str	r1, [sp, #20]
  86:Middlewares/ST/BlueNRG-MS/hci/controller/bluenrg_updater_aci.c ****   rq.ocf = OCF_GET_UPDATER_BUFSIZE;
 295              		.loc 1 86 3 view .LVU89
  87:Middlewares/ST/BlueNRG-MS/hci/controller/bluenrg_updater_aci.c ****   rq.rparam = &resp;
 296              		.loc 1 87 3 view .LVU90
  88:Middlewares/ST/BlueNRG-MS/hci/controller/bluenrg_updater_aci.c ****   rq.rlen = GET_UPDATER_BUFSIZE_RP_SIZE;
 297              		.loc 1 88 13 is_stmt 0 view .LVU91
 298 001c 0695     		str	r5, [sp, #24]
  86:Middlewares/ST/BlueNRG-MS/hci/controller/bluenrg_updater_aci.c ****   rq.ocf = OCF_GET_UPDATER_BUFSIZE;
 299              		.loc 1 86 10 view .LVU92
 300 001e 0292     		str	r2, [sp, #8]
  88:Middlewares/ST/BlueNRG-MS/hci/controller/bluenrg_updater_aci.c ****   rq.rlen = GET_UPDATER_BUFSIZE_RP_SIZE;
 301              		.loc 1 88 3 is_stmt 1 view .LVU93
  89:Middlewares/ST/BlueNRG-MS/hci/controller/bluenrg_updater_aci.c **** 
 302              		.loc 1 89 3 view .LVU94
 303              		.loc 1 91 3 view .LVU95
 304              		.loc 1 91 7 is_stmt 0 view .LVU96
 305 0020 FFF7FEFF 		bl	hci_send_req
 306              	.LVL8:
 307              		.loc 1 91 6 view .LVU97
 308 0024 0028     		cmp	r0, #0
  92:Middlewares/ST/BlueNRG-MS/hci/controller/bluenrg_updater_aci.c ****     return BLE_STATUS_TIMEOUT;
  93:Middlewares/ST/BlueNRG-MS/hci/controller/bluenrg_updater_aci.c ****     
  94:Middlewares/ST/BlueNRG-MS/hci/controller/bluenrg_updater_aci.c ****   *buffer_size = resp.buffer_size;
 309              		.loc 1 94 3 is_stmt 1 view .LVU98
 310              		.loc 1 94 16 is_stmt 0 view .LVU99
 311 0026 A3BF     		ittte	ge
 312 0028 9DF80530 		ldrbge	r3, [sp, #5]	@ zero_extendqisi2
  95:Middlewares/ST/BlueNRG-MS/hci/controller/bluenrg_updater_aci.c **** 
  96:Middlewares/ST/BlueNRG-MS/hci/controller/bluenrg_updater_aci.c ****   return resp.status;
 313              		.loc 1 96 14 view .LVU100
 314 002c 9DF80400 		ldrbge	r0, [sp, #4]	@ zero_extendqisi2
  94:Middlewares/ST/BlueNRG-MS/hci/controller/bluenrg_updater_aci.c **** 
 315              		.loc 1 94 16 view .LVU101
 316 0030 2370     		strbge	r3, [r4]
ARM GAS  /tmp/ccgRl1dh.s 			page 9


 317              		.loc 1 96 3 is_stmt 1 view .LVU102
  92:Middlewares/ST/BlueNRG-MS/hci/controller/bluenrg_updater_aci.c ****     return BLE_STATUS_TIMEOUT;
 318              		.loc 1 92 12 is_stmt 0 view .LVU103
 319 0032 FF20     		movlt	r0, #255
  97:Middlewares/ST/BlueNRG-MS/hci/controller/bluenrg_updater_aci.c **** }
 320              		.loc 1 97 1 view .LVU104
 321 0034 09B0     		add	sp, sp, #36
 322              	.LCFI11:
 323              		.cfi_def_cfa_offset 12
 324              		@ sp needed
 325 0036 30BD     		pop	{r4, r5, pc}
 326              	.LVL9:
 327              	.L21:
 328              		.loc 1 97 1 view .LVU105
 329              		.align	2
 330              	.L20:
 331 0038 3F002300 		.word	2293823
 332              		.cfi_endproc
 333              	.LFE133:
 335              		.section	.text.aci_erase_blue_flag,"ax",%progbits
 336              		.align	1
 337              		.p2align 2,,3
 338              		.global	aci_erase_blue_flag
 339              		.syntax unified
 340              		.thumb
 341              		.thumb_func
 342              		.fpu fpv4-sp-d16
 344              	aci_erase_blue_flag:
 345              	.LFB134:
  98:Middlewares/ST/BlueNRG-MS/hci/controller/bluenrg_updater_aci.c **** 
  99:Middlewares/ST/BlueNRG-MS/hci/controller/bluenrg_updater_aci.c **** tBleStatus aci_erase_blue_flag(void)
 100:Middlewares/ST/BlueNRG-MS/hci/controller/bluenrg_updater_aci.c **** {
 346              		.loc 1 100 1 is_stmt 1 view -0
 347              		.cfi_startproc
 348              		@ args = 0, pretend = 0, frame = 32
 349              		@ frame_needed = 0, uses_anonymous_args = 0
 101:Middlewares/ST/BlueNRG-MS/hci/controller/bluenrg_updater_aci.c ****   struct hci_request rq;
 350              		.loc 1 101 3 view .LVU107
 102:Middlewares/ST/BlueNRG-MS/hci/controller/bluenrg_updater_aci.c ****   uint8_t status;
 351              		.loc 1 102 3 view .LVU108
 103:Middlewares/ST/BlueNRG-MS/hci/controller/bluenrg_updater_aci.c **** 
 104:Middlewares/ST/BlueNRG-MS/hci/controller/bluenrg_updater_aci.c ****   BLUENRG_memset(&rq, 0, sizeof(rq));
 352              		.loc 1 104 3 view .LVU109
 100:Middlewares/ST/BlueNRG-MS/hci/controller/bluenrg_updater_aci.c ****   struct hci_request rq;
 353              		.loc 1 100 1 is_stmt 0 view .LVU110
 354 0000 10B5     		push	{r4, lr}
 355              	.LCFI12:
 356              		.cfi_def_cfa_offset 8
 357              		.cfi_offset 4, -8
 358              		.cfi_offset 14, -4
 359 0002 88B0     		sub	sp, sp, #32
 360              	.LCFI13:
 361              		.cfi_def_cfa_offset 40
 362              		.loc 1 104 3 view .LVU111
 363 0004 0021     		movs	r1, #0
 105:Middlewares/ST/BlueNRG-MS/hci/controller/bluenrg_updater_aci.c ****   rq.ogf = OGF_VENDOR_CMD;
 106:Middlewares/ST/BlueNRG-MS/hci/controller/bluenrg_updater_aci.c ****   rq.ocf = OCF_UPDATER_ERASE_BLUE_FLAG;
ARM GAS  /tmp/ccgRl1dh.s 			page 10


 107:Middlewares/ST/BlueNRG-MS/hci/controller/bluenrg_updater_aci.c ****   rq.rparam = &status;
 364              		.loc 1 107 13 view .LVU112
 365 0006 0DF10702 		add	r2, sp, #7
 108:Middlewares/ST/BlueNRG-MS/hci/controller/bluenrg_updater_aci.c ****   rq.rlen = 1;
 366              		.loc 1 108 11 view .LVU113
 367 000a 0123     		movs	r3, #1
 105:Middlewares/ST/BlueNRG-MS/hci/controller/bluenrg_updater_aci.c ****   rq.ogf = OGF_VENDOR_CMD;
 368              		.loc 1 105 10 view .LVU114
 369 000c 084C     		ldr	r4, .L26
 104:Middlewares/ST/BlueNRG-MS/hci/controller/bluenrg_updater_aci.c ****   rq.ogf = OGF_VENDOR_CMD;
 370              		.loc 1 104 3 view .LVU115
 371 000e 0491     		str	r1, [sp, #16]
 109:Middlewares/ST/BlueNRG-MS/hci/controller/bluenrg_updater_aci.c **** 
 110:Middlewares/ST/BlueNRG-MS/hci/controller/bluenrg_updater_aci.c ****   if (hci_send_req(&rq, FALSE) < 0)
 372              		.loc 1 110 7 view .LVU116
 373 0010 02A8     		add	r0, sp, #8
 108:Middlewares/ST/BlueNRG-MS/hci/controller/bluenrg_updater_aci.c **** 
 374              		.loc 1 108 11 view .LVU117
 375 0012 CDE90623 		strd	r2, r3, [sp, #24]
 104:Middlewares/ST/BlueNRG-MS/hci/controller/bluenrg_updater_aci.c ****   rq.ogf = OGF_VENDOR_CMD;
 376              		.loc 1 104 3 view .LVU118
 377 0016 0391     		str	r1, [sp, #12]
 378 0018 0591     		str	r1, [sp, #20]
 105:Middlewares/ST/BlueNRG-MS/hci/controller/bluenrg_updater_aci.c ****   rq.ocf = OCF_UPDATER_ERASE_BLUE_FLAG;
 379              		.loc 1 105 3 is_stmt 1 view .LVU119
 106:Middlewares/ST/BlueNRG-MS/hci/controller/bluenrg_updater_aci.c ****   rq.rparam = &status;
 380              		.loc 1 106 3 view .LVU120
 105:Middlewares/ST/BlueNRG-MS/hci/controller/bluenrg_updater_aci.c ****   rq.ocf = OCF_UPDATER_ERASE_BLUE_FLAG;
 381              		.loc 1 105 10 is_stmt 0 view .LVU121
 382 001a 0294     		str	r4, [sp, #8]
 107:Middlewares/ST/BlueNRG-MS/hci/controller/bluenrg_updater_aci.c ****   rq.rlen = 1;
 383              		.loc 1 107 3 is_stmt 1 view .LVU122
 384              		.loc 1 110 3 view .LVU123
 385              		.loc 1 110 7 is_stmt 0 view .LVU124
 386 001c FFF7FEFF 		bl	hci_send_req
 387              	.LVL10:
 388              		.loc 1 110 6 view .LVU125
 389 0020 0028     		cmp	r0, #0
 111:Middlewares/ST/BlueNRG-MS/hci/controller/bluenrg_updater_aci.c ****     return BLE_STATUS_TIMEOUT;
 112:Middlewares/ST/BlueNRG-MS/hci/controller/bluenrg_updater_aci.c **** 
 113:Middlewares/ST/BlueNRG-MS/hci/controller/bluenrg_updater_aci.c ****   return status;  
 390              		.loc 1 113 3 is_stmt 1 view .LVU126
 391              		.loc 1 113 10 is_stmt 0 view .LVU127
 392 0022 ACBF     		ite	ge
 393 0024 9DF80700 		ldrbge	r0, [sp, #7]	@ zero_extendqisi2
 111:Middlewares/ST/BlueNRG-MS/hci/controller/bluenrg_updater_aci.c ****     return BLE_STATUS_TIMEOUT;
 394              		.loc 1 111 12 view .LVU128
 395 0028 FF20     		movlt	r0, #255
 114:Middlewares/ST/BlueNRG-MS/hci/controller/bluenrg_updater_aci.c **** }
 396              		.loc 1 114 1 view .LVU129
 397 002a 08B0     		add	sp, sp, #32
 398              	.LCFI14:
 399              		.cfi_def_cfa_offset 8
 400              		@ sp needed
 401 002c 10BD     		pop	{r4, pc}
 402              	.L27:
 403 002e 00BF     		.align	2
ARM GAS  /tmp/ccgRl1dh.s 			page 11


 404              	.L26:
 405 0030 3F002400 		.word	2359359
 406              		.cfi_endproc
 407              	.LFE134:
 409              		.section	.text.aci_reset_blue_flag,"ax",%progbits
 410              		.align	1
 411              		.p2align 2,,3
 412              		.global	aci_reset_blue_flag
 413              		.syntax unified
 414              		.thumb
 415              		.thumb_func
 416              		.fpu fpv4-sp-d16
 418              	aci_reset_blue_flag:
 419              	.LFB135:
 115:Middlewares/ST/BlueNRG-MS/hci/controller/bluenrg_updater_aci.c **** 
 116:Middlewares/ST/BlueNRG-MS/hci/controller/bluenrg_updater_aci.c **** tBleStatus aci_reset_blue_flag(void)
 117:Middlewares/ST/BlueNRG-MS/hci/controller/bluenrg_updater_aci.c **** {
 420              		.loc 1 117 1 is_stmt 1 view -0
 421              		.cfi_startproc
 422              		@ args = 0, pretend = 0, frame = 32
 423              		@ frame_needed = 0, uses_anonymous_args = 0
 118:Middlewares/ST/BlueNRG-MS/hci/controller/bluenrg_updater_aci.c ****   struct hci_request rq;
 424              		.loc 1 118 3 view .LVU131
 119:Middlewares/ST/BlueNRG-MS/hci/controller/bluenrg_updater_aci.c ****   uint8_t status;
 425              		.loc 1 119 3 view .LVU132
 120:Middlewares/ST/BlueNRG-MS/hci/controller/bluenrg_updater_aci.c **** 
 121:Middlewares/ST/BlueNRG-MS/hci/controller/bluenrg_updater_aci.c ****   BLUENRG_memset(&rq, 0, sizeof(rq));
 426              		.loc 1 121 3 view .LVU133
 117:Middlewares/ST/BlueNRG-MS/hci/controller/bluenrg_updater_aci.c ****   struct hci_request rq;
 427              		.loc 1 117 1 is_stmt 0 view .LVU134
 428 0000 10B5     		push	{r4, lr}
 429              	.LCFI15:
 430              		.cfi_def_cfa_offset 8
 431              		.cfi_offset 4, -8
 432              		.cfi_offset 14, -4
 433 0002 88B0     		sub	sp, sp, #32
 434              	.LCFI16:
 435              		.cfi_def_cfa_offset 40
 436              		.loc 1 121 3 view .LVU135
 437 0004 0021     		movs	r1, #0
 122:Middlewares/ST/BlueNRG-MS/hci/controller/bluenrg_updater_aci.c ****   rq.ogf = OGF_VENDOR_CMD;
 123:Middlewares/ST/BlueNRG-MS/hci/controller/bluenrg_updater_aci.c ****   rq.ocf = OCF_UPDATER_RESET_BLUE_FLAG;
 124:Middlewares/ST/BlueNRG-MS/hci/controller/bluenrg_updater_aci.c ****   rq.rparam = &status;
 438              		.loc 1 124 13 view .LVU136
 439 0006 0DF10702 		add	r2, sp, #7
 125:Middlewares/ST/BlueNRG-MS/hci/controller/bluenrg_updater_aci.c ****   rq.rlen = 1;
 440              		.loc 1 125 11 view .LVU137
 441 000a 0123     		movs	r3, #1
 122:Middlewares/ST/BlueNRG-MS/hci/controller/bluenrg_updater_aci.c ****   rq.ogf = OGF_VENDOR_CMD;
 442              		.loc 1 122 10 view .LVU138
 443 000c 084C     		ldr	r4, .L32
 121:Middlewares/ST/BlueNRG-MS/hci/controller/bluenrg_updater_aci.c ****   rq.ogf = OGF_VENDOR_CMD;
 444              		.loc 1 121 3 view .LVU139
 445 000e 0491     		str	r1, [sp, #16]
 126:Middlewares/ST/BlueNRG-MS/hci/controller/bluenrg_updater_aci.c **** 
 127:Middlewares/ST/BlueNRG-MS/hci/controller/bluenrg_updater_aci.c ****   if (hci_send_req(&rq, FALSE) < 0)
 446              		.loc 1 127 7 view .LVU140
ARM GAS  /tmp/ccgRl1dh.s 			page 12


 447 0010 02A8     		add	r0, sp, #8
 125:Middlewares/ST/BlueNRG-MS/hci/controller/bluenrg_updater_aci.c **** 
 448              		.loc 1 125 11 view .LVU141
 449 0012 CDE90623 		strd	r2, r3, [sp, #24]
 121:Middlewares/ST/BlueNRG-MS/hci/controller/bluenrg_updater_aci.c ****   rq.ogf = OGF_VENDOR_CMD;
 450              		.loc 1 121 3 view .LVU142
 451 0016 0391     		str	r1, [sp, #12]
 452 0018 0591     		str	r1, [sp, #20]
 122:Middlewares/ST/BlueNRG-MS/hci/controller/bluenrg_updater_aci.c ****   rq.ocf = OCF_UPDATER_RESET_BLUE_FLAG;
 453              		.loc 1 122 3 is_stmt 1 view .LVU143
 123:Middlewares/ST/BlueNRG-MS/hci/controller/bluenrg_updater_aci.c ****   rq.rparam = &status;
 454              		.loc 1 123 3 view .LVU144
 122:Middlewares/ST/BlueNRG-MS/hci/controller/bluenrg_updater_aci.c ****   rq.ocf = OCF_UPDATER_RESET_BLUE_FLAG;
 455              		.loc 1 122 10 is_stmt 0 view .LVU145
 456 001a 0294     		str	r4, [sp, #8]
 124:Middlewares/ST/BlueNRG-MS/hci/controller/bluenrg_updater_aci.c ****   rq.rlen = 1;
 457              		.loc 1 124 3 is_stmt 1 view .LVU146
 458              		.loc 1 127 3 view .LVU147
 459              		.loc 1 127 7 is_stmt 0 view .LVU148
 460 001c FFF7FEFF 		bl	hci_send_req
 461              	.LVL11:
 462              		.loc 1 127 6 view .LVU149
 463 0020 0028     		cmp	r0, #0
 128:Middlewares/ST/BlueNRG-MS/hci/controller/bluenrg_updater_aci.c ****     return BLE_STATUS_TIMEOUT;
 129:Middlewares/ST/BlueNRG-MS/hci/controller/bluenrg_updater_aci.c **** 
 130:Middlewares/ST/BlueNRG-MS/hci/controller/bluenrg_updater_aci.c ****   return status;  
 464              		.loc 1 130 3 is_stmt 1 view .LVU150
 465              		.loc 1 130 10 is_stmt 0 view .LVU151
 466 0022 ACBF     		ite	ge
 467 0024 9DF80700 		ldrbge	r0, [sp, #7]	@ zero_extendqisi2
 128:Middlewares/ST/BlueNRG-MS/hci/controller/bluenrg_updater_aci.c ****     return BLE_STATUS_TIMEOUT;
 468              		.loc 1 128 12 view .LVU152
 469 0028 FF20     		movlt	r0, #255
 131:Middlewares/ST/BlueNRG-MS/hci/controller/bluenrg_updater_aci.c **** }
 470              		.loc 1 131 1 view .LVU153
 471 002a 08B0     		add	sp, sp, #32
 472              	.LCFI17:
 473              		.cfi_def_cfa_offset 8
 474              		@ sp needed
 475 002c 10BD     		pop	{r4, pc}
 476              	.L33:
 477 002e 00BF     		.align	2
 478              	.L32:
 479 0030 3F002500 		.word	2424895
 480              		.cfi_endproc
 481              	.LFE135:
 483              		.section	.text.aci_updater_erase_sector,"ax",%progbits
 484              		.align	1
 485              		.p2align 2,,3
 486              		.global	aci_updater_erase_sector
 487              		.syntax unified
 488              		.thumb
 489              		.thumb_func
 490              		.fpu fpv4-sp-d16
 492              	aci_updater_erase_sector:
 493              	.LVL12:
 494              	.LFB136:
ARM GAS  /tmp/ccgRl1dh.s 			page 13


 132:Middlewares/ST/BlueNRG-MS/hci/controller/bluenrg_updater_aci.c **** 
 133:Middlewares/ST/BlueNRG-MS/hci/controller/bluenrg_updater_aci.c **** tBleStatus aci_updater_erase_sector(uint32_t address)
 134:Middlewares/ST/BlueNRG-MS/hci/controller/bluenrg_updater_aci.c **** {
 495              		.loc 1 134 1 is_stmt 1 view -0
 496              		.cfi_startproc
 497              		@ args = 0, pretend = 0, frame = 32
 498              		@ frame_needed = 0, uses_anonymous_args = 0
 135:Middlewares/ST/BlueNRG-MS/hci/controller/bluenrg_updater_aci.c ****   struct hci_request rq;
 499              		.loc 1 135 3 view .LVU155
 136:Middlewares/ST/BlueNRG-MS/hci/controller/bluenrg_updater_aci.c ****   updater_erase_sector_cp cp;    
 500              		.loc 1 136 3 view .LVU156
 137:Middlewares/ST/BlueNRG-MS/hci/controller/bluenrg_updater_aci.c ****   uint8_t status;
 501              		.loc 1 137 3 view .LVU157
 138:Middlewares/ST/BlueNRG-MS/hci/controller/bluenrg_updater_aci.c ****     
 139:Middlewares/ST/BlueNRG-MS/hci/controller/bluenrg_updater_aci.c ****   cp.address = htobl(address);
 502              		.loc 1 139 3 view .LVU158
 134:Middlewares/ST/BlueNRG-MS/hci/controller/bluenrg_updater_aci.c ****   struct hci_request rq;
 503              		.loc 1 134 1 is_stmt 0 view .LVU159
 504 0000 70B5     		push	{r4, r5, r6, lr}
 505              	.LCFI18:
 506              		.cfi_def_cfa_offset 16
 507              		.cfi_offset 4, -16
 508              		.cfi_offset 5, -12
 509              		.cfi_offset 6, -8
 510              		.cfi_offset 14, -4
 511 0002 88B0     		sub	sp, sp, #32
 512              	.LCFI19:
 513              		.cfi_def_cfa_offset 48
 140:Middlewares/ST/BlueNRG-MS/hci/controller/bluenrg_updater_aci.c **** 
 141:Middlewares/ST/BlueNRG-MS/hci/controller/bluenrg_updater_aci.c ****   BLUENRG_memset(&rq, 0, sizeof(rq));
 514              		.loc 1 141 3 view .LVU160
 515 0004 0021     		movs	r1, #0
 139:Middlewares/ST/BlueNRG-MS/hci/controller/bluenrg_updater_aci.c **** 
 516              		.loc 1 139 14 view .LVU161
 517 0006 0190     		str	r0, [sp, #4]
 518              		.loc 1 141 3 is_stmt 1 view .LVU162
 142:Middlewares/ST/BlueNRG-MS/hci/controller/bluenrg_updater_aci.c ****   rq.ogf = OGF_VENDOR_CMD;
 143:Middlewares/ST/BlueNRG-MS/hci/controller/bluenrg_updater_aci.c ****   rq.ocf = OCF_UPDATER_ERASE_SECTOR;
 144:Middlewares/ST/BlueNRG-MS/hci/controller/bluenrg_updater_aci.c ****   rq.cparam = &cp;
 145:Middlewares/ST/BlueNRG-MS/hci/controller/bluenrg_updater_aci.c ****   rq.clen = UPDATER_ERASE_SECTOR_CP_SIZE;
 146:Middlewares/ST/BlueNRG-MS/hci/controller/bluenrg_updater_aci.c ****   rq.rparam = &status;
 519              		.loc 1 146 13 is_stmt 0 view .LVU163
 520 0008 0DF10302 		add	r2, sp, #3
 147:Middlewares/ST/BlueNRG-MS/hci/controller/bluenrg_updater_aci.c ****   rq.rlen = 1;
 521              		.loc 1 147 11 view .LVU164
 522 000c 0123     		movs	r3, #1
 142:Middlewares/ST/BlueNRG-MS/hci/controller/bluenrg_updater_aci.c ****   rq.ogf = OGF_VENDOR_CMD;
 523              		.loc 1 142 10 view .LVU165
 524 000e 094E     		ldr	r6, .L38
 141:Middlewares/ST/BlueNRG-MS/hci/controller/bluenrg_updater_aci.c ****   rq.ogf = OGF_VENDOR_CMD;
 525              		.loc 1 141 3 view .LVU166
 526 0010 0391     		str	r1, [sp, #12]
 142:Middlewares/ST/BlueNRG-MS/hci/controller/bluenrg_updater_aci.c ****   rq.ogf = OGF_VENDOR_CMD;
 527              		.loc 1 142 3 is_stmt 1 view .LVU167
 143:Middlewares/ST/BlueNRG-MS/hci/controller/bluenrg_updater_aci.c ****   rq.cparam = &cp;
 528              		.loc 1 143 3 view .LVU168
 144:Middlewares/ST/BlueNRG-MS/hci/controller/bluenrg_updater_aci.c ****   rq.clen = UPDATER_ERASE_SECTOR_CP_SIZE;
ARM GAS  /tmp/ccgRl1dh.s 			page 14


 529              		.loc 1 144 13 is_stmt 0 view .LVU169
 530 0012 01AD     		add	r5, sp, #4
 145:Middlewares/ST/BlueNRG-MS/hci/controller/bluenrg_updater_aci.c ****   rq.rparam = &status;
 531              		.loc 1 145 11 view .LVU170
 532 0014 0424     		movs	r4, #4
 148:Middlewares/ST/BlueNRG-MS/hci/controller/bluenrg_updater_aci.c **** 
 149:Middlewares/ST/BlueNRG-MS/hci/controller/bluenrg_updater_aci.c ****   if (hci_send_req(&rq, FALSE) < 0)
 533              		.loc 1 149 7 view .LVU171
 534 0016 02A8     		add	r0, sp, #8
 535              	.LVL13:
 145:Middlewares/ST/BlueNRG-MS/hci/controller/bluenrg_updater_aci.c ****   rq.rparam = &status;
 536              		.loc 1 145 11 view .LVU172
 537 0018 CDE90454 		strd	r5, r4, [sp, #16]
 147:Middlewares/ST/BlueNRG-MS/hci/controller/bluenrg_updater_aci.c **** 
 538              		.loc 1 147 11 view .LVU173
 539 001c CDE90623 		strd	r2, r3, [sp, #24]
 142:Middlewares/ST/BlueNRG-MS/hci/controller/bluenrg_updater_aci.c ****   rq.ocf = OCF_UPDATER_ERASE_SECTOR;
 540              		.loc 1 142 10 view .LVU174
 541 0020 0296     		str	r6, [sp, #8]
 144:Middlewares/ST/BlueNRG-MS/hci/controller/bluenrg_updater_aci.c ****   rq.clen = UPDATER_ERASE_SECTOR_CP_SIZE;
 542              		.loc 1 144 3 is_stmt 1 view .LVU175
 146:Middlewares/ST/BlueNRG-MS/hci/controller/bluenrg_updater_aci.c ****   rq.rlen = 1;
 543              		.loc 1 146 3 view .LVU176
 544              		.loc 1 149 3 view .LVU177
 545              		.loc 1 149 7 is_stmt 0 view .LVU178
 546 0022 FFF7FEFF 		bl	hci_send_req
 547              	.LVL14:
 548              		.loc 1 149 6 view .LVU179
 549 0026 0028     		cmp	r0, #0
 150:Middlewares/ST/BlueNRG-MS/hci/controller/bluenrg_updater_aci.c ****     return BLE_STATUS_TIMEOUT;
 151:Middlewares/ST/BlueNRG-MS/hci/controller/bluenrg_updater_aci.c **** 
 152:Middlewares/ST/BlueNRG-MS/hci/controller/bluenrg_updater_aci.c ****   return status;
 550              		.loc 1 152 3 is_stmt 1 view .LVU180
 551              		.loc 1 152 10 is_stmt 0 view .LVU181
 552 0028 ACBF     		ite	ge
 553 002a 9DF80300 		ldrbge	r0, [sp, #3]	@ zero_extendqisi2
 150:Middlewares/ST/BlueNRG-MS/hci/controller/bluenrg_updater_aci.c ****     return BLE_STATUS_TIMEOUT;
 554              		.loc 1 150 12 view .LVU182
 555 002e FF20     		movlt	r0, #255
 153:Middlewares/ST/BlueNRG-MS/hci/controller/bluenrg_updater_aci.c **** }
 556              		.loc 1 153 1 view .LVU183
 557 0030 08B0     		add	sp, sp, #32
 558              	.LCFI20:
 559              		.cfi_def_cfa_offset 16
 560              		@ sp needed
 561 0032 70BD     		pop	{r4, r5, r6, pc}
 562              	.L39:
 563              		.align	2
 564              	.L38:
 565 0034 3F002600 		.word	2490431
 566              		.cfi_endproc
 567              	.LFE136:
 569              		.section	.text.aci_updater_program_data_block,"ax",%progbits
 570              		.align	1
 571              		.p2align 2,,3
 572              		.global	aci_updater_program_data_block
 573              		.syntax unified
ARM GAS  /tmp/ccgRl1dh.s 			page 15


 574              		.thumb
 575              		.thumb_func
 576              		.fpu fpv4-sp-d16
 578              	aci_updater_program_data_block:
 579              	.LVL15:
 580              	.LFB137:
 154:Middlewares/ST/BlueNRG-MS/hci/controller/bluenrg_updater_aci.c **** 
 155:Middlewares/ST/BlueNRG-MS/hci/controller/bluenrg_updater_aci.c **** tBleStatus aci_updater_program_data_block(uint32_t address, 
 156:Middlewares/ST/BlueNRG-MS/hci/controller/bluenrg_updater_aci.c **** 				   uint16_t len,
 157:Middlewares/ST/BlueNRG-MS/hci/controller/bluenrg_updater_aci.c **** 				   const uint8_t *data)
 158:Middlewares/ST/BlueNRG-MS/hci/controller/bluenrg_updater_aci.c **** {
 581              		.loc 1 158 1 is_stmt 1 view -0
 582              		.cfi_startproc
 583              		@ args = 0, pretend = 0, frame = 160
 584              		@ frame_needed = 0, uses_anonymous_args = 0
 159:Middlewares/ST/BlueNRG-MS/hci/controller/bluenrg_updater_aci.c ****   struct hci_request rq;
 585              		.loc 1 159 3 view .LVU185
 160:Middlewares/ST/BlueNRG-MS/hci/controller/bluenrg_updater_aci.c ****   uint8_t status;
 586              		.loc 1 160 3 view .LVU186
 161:Middlewares/ST/BlueNRG-MS/hci/controller/bluenrg_updater_aci.c ****   updater_prog_data_block_cp cp;
 587              		.loc 1 161 3 view .LVU187
 162:Middlewares/ST/BlueNRG-MS/hci/controller/bluenrg_updater_aci.c ****     
 163:Middlewares/ST/BlueNRG-MS/hci/controller/bluenrg_updater_aci.c ****   if( len > sizeof(cp.data))
 588              		.loc 1 163 3 view .LVU188
 158:Middlewares/ST/BlueNRG-MS/hci/controller/bluenrg_updater_aci.c ****   struct hci_request rq;
 589              		.loc 1 158 1 is_stmt 0 view .LVU189
 590 0000 70B5     		push	{r4, r5, r6, lr}
 591              	.LCFI21:
 592              		.cfi_def_cfa_offset 16
 593              		.cfi_offset 4, -16
 594              		.cfi_offset 5, -12
 595              		.cfi_offset 6, -8
 596              		.cfi_offset 14, -4
 597              		.loc 1 163 5 view .LVU190
 598 0002 7A29     		cmp	r1, #122
 158:Middlewares/ST/BlueNRG-MS/hci/controller/bluenrg_updater_aci.c ****   struct hci_request rq;
 599              		.loc 1 158 1 view .LVU191
 600 0004 A8B0     		sub	sp, sp, #160
 601              	.LCFI22:
 602              		.cfi_def_cfa_offset 176
 158:Middlewares/ST/BlueNRG-MS/hci/controller/bluenrg_updater_aci.c ****   struct hci_request rq;
 603              		.loc 1 158 1 view .LVU192
 604 0006 0C46     		mov	r4, r1
 605              		.loc 1 163 5 view .LVU193
 606 0008 1FD8     		bhi	.L42
 164:Middlewares/ST/BlueNRG-MS/hci/controller/bluenrg_updater_aci.c ****     return BLE_STATUS_INVALID_PARAMS;
 165:Middlewares/ST/BlueNRG-MS/hci/controller/bluenrg_updater_aci.c ****   
 166:Middlewares/ST/BlueNRG-MS/hci/controller/bluenrg_updater_aci.c ****   cp.address = htobl(address);
 607              		.loc 1 166 3 is_stmt 1 view .LVU194
 608 000a 0346     		mov	r3, r0
 609 000c 1146     		mov	r1, r2
 610              	.LVL16:
 167:Middlewares/ST/BlueNRG-MS/hci/controller/bluenrg_updater_aci.c ****   cp.data_len = htobs(len);        
 168:Middlewares/ST/BlueNRG-MS/hci/controller/bluenrg_updater_aci.c ****   BLUENRG_memcpy(cp.data, data, len);
 611              		.loc 1 168 3 is_stmt 0 view .LVU195
 612 000e 0DF12600 		add	r0, sp, #38
 613              	.LVL17:
ARM GAS  /tmp/ccgRl1dh.s 			page 16


 614              		.loc 1 168 3 view .LVU196
 615 0012 2246     		mov	r2, r4
 616              	.LVL18:
 166:Middlewares/ST/BlueNRG-MS/hci/controller/bluenrg_updater_aci.c ****   cp.data_len = htobs(len);        
 617              		.loc 1 166 14 view .LVU197
 618 0014 0893     		str	r3, [sp, #32]
 167:Middlewares/ST/BlueNRG-MS/hci/controller/bluenrg_updater_aci.c ****   cp.data_len = htobs(len);        
 619              		.loc 1 167 3 is_stmt 1 view .LVU198
 167:Middlewares/ST/BlueNRG-MS/hci/controller/bluenrg_updater_aci.c ****   cp.data_len = htobs(len);        
 620              		.loc 1 167 15 is_stmt 0 view .LVU199
 621 0016 ADF82440 		strh	r4, [sp, #36]	@ movhi
 622              		.loc 1 168 3 is_stmt 1 view .LVU200
 169:Middlewares/ST/BlueNRG-MS/hci/controller/bluenrg_updater_aci.c **** 
 170:Middlewares/ST/BlueNRG-MS/hci/controller/bluenrg_updater_aci.c ****   BLUENRG_memset(&rq, 0, sizeof(rq));
 171:Middlewares/ST/BlueNRG-MS/hci/controller/bluenrg_updater_aci.c ****   rq.ogf = OGF_VENDOR_CMD;
 623              		.loc 1 171 10 is_stmt 0 view .LVU201
 624 001a 0F4D     		ldr	r5, .L45
 168:Middlewares/ST/BlueNRG-MS/hci/controller/bluenrg_updater_aci.c **** 
 625              		.loc 1 168 3 view .LVU202
 626 001c FFF7FEFF 		bl	memcpy
 627              	.LVL19:
 170:Middlewares/ST/BlueNRG-MS/hci/controller/bluenrg_updater_aci.c ****   rq.ogf = OGF_VENDOR_CMD;
 628              		.loc 1 170 3 is_stmt 1 view .LVU203
 172:Middlewares/ST/BlueNRG-MS/hci/controller/bluenrg_updater_aci.c ****   rq.ocf = OCF_UPDATER_PROG_DATA_BLOCK;
 173:Middlewares/ST/BlueNRG-MS/hci/controller/bluenrg_updater_aci.c ****   rq.cparam = &cp;
 174:Middlewares/ST/BlueNRG-MS/hci/controller/bluenrg_updater_aci.c ****   rq.clen = UPDATER_PROG_DATA_BLOCK_CP_SIZE+len;
 629              		.loc 1 174 44 is_stmt 0 view .LVU204
 630 0020 0634     		adds	r4, r4, #6
 170:Middlewares/ST/BlueNRG-MS/hci/controller/bluenrg_updater_aci.c ****   rq.ogf = OGF_VENDOR_CMD;
 631              		.loc 1 170 3 view .LVU205
 632 0022 0021     		movs	r1, #0
 175:Middlewares/ST/BlueNRG-MS/hci/controller/bluenrg_updater_aci.c ****   rq.rparam = &status;
 633              		.loc 1 175 13 view .LVU206
 634 0024 0DF10702 		add	r2, sp, #7
 176:Middlewares/ST/BlueNRG-MS/hci/controller/bluenrg_updater_aci.c ****   rq.rlen = 1;
 635              		.loc 1 176 11 view .LVU207
 636 0028 0123     		movs	r3, #1
 168:Middlewares/ST/BlueNRG-MS/hci/controller/bluenrg_updater_aci.c **** 
 637              		.loc 1 168 3 view .LVU208
 638 002a 08AE     		add	r6, sp, #32
 177:Middlewares/ST/BlueNRG-MS/hci/controller/bluenrg_updater_aci.c **** 
 178:Middlewares/ST/BlueNRG-MS/hci/controller/bluenrg_updater_aci.c ****   if (hci_send_req(&rq, FALSE) < 0)
 639              		.loc 1 178 7 view .LVU209
 640 002c 02A8     		add	r0, sp, #8
 176:Middlewares/ST/BlueNRG-MS/hci/controller/bluenrg_updater_aci.c **** 
 641              		.loc 1 176 11 view .LVU210
 642 002e CDE90623 		strd	r2, r3, [sp, #24]
 174:Middlewares/ST/BlueNRG-MS/hci/controller/bluenrg_updater_aci.c ****   rq.rparam = &status;
 643              		.loc 1 174 11 view .LVU211
 644 0032 0594     		str	r4, [sp, #20]
 170:Middlewares/ST/BlueNRG-MS/hci/controller/bluenrg_updater_aci.c ****   rq.ogf = OGF_VENDOR_CMD;
 645              		.loc 1 170 3 view .LVU212
 646 0034 0391     		str	r1, [sp, #12]
 171:Middlewares/ST/BlueNRG-MS/hci/controller/bluenrg_updater_aci.c ****   rq.ocf = OCF_UPDATER_PROG_DATA_BLOCK;
 647              		.loc 1 171 3 is_stmt 1 view .LVU213
 172:Middlewares/ST/BlueNRG-MS/hci/controller/bluenrg_updater_aci.c ****   rq.cparam = &cp;
 648              		.loc 1 172 3 view .LVU214
ARM GAS  /tmp/ccgRl1dh.s 			page 17


 173:Middlewares/ST/BlueNRG-MS/hci/controller/bluenrg_updater_aci.c ****   rq.clen = UPDATER_PROG_DATA_BLOCK_CP_SIZE+len;
 649              		.loc 1 173 13 is_stmt 0 view .LVU215
 650 0036 0496     		str	r6, [sp, #16]
 171:Middlewares/ST/BlueNRG-MS/hci/controller/bluenrg_updater_aci.c ****   rq.ocf = OCF_UPDATER_PROG_DATA_BLOCK;
 651              		.loc 1 171 10 view .LVU216
 652 0038 0295     		str	r5, [sp, #8]
 173:Middlewares/ST/BlueNRG-MS/hci/controller/bluenrg_updater_aci.c ****   rq.clen = UPDATER_PROG_DATA_BLOCK_CP_SIZE+len;
 653              		.loc 1 173 3 is_stmt 1 view .LVU217
 174:Middlewares/ST/BlueNRG-MS/hci/controller/bluenrg_updater_aci.c ****   rq.rparam = &status;
 654              		.loc 1 174 3 view .LVU218
 175:Middlewares/ST/BlueNRG-MS/hci/controller/bluenrg_updater_aci.c ****   rq.rlen = 1;
 655              		.loc 1 175 3 view .LVU219
 656              		.loc 1 178 3 view .LVU220
 657              		.loc 1 178 7 is_stmt 0 view .LVU221
 658 003a FFF7FEFF 		bl	hci_send_req
 659              	.LVL20:
 660              		.loc 1 178 6 view .LVU222
 661 003e 0028     		cmp	r0, #0
 662 0040 06DB     		blt	.L43
 179:Middlewares/ST/BlueNRG-MS/hci/controller/bluenrg_updater_aci.c ****     return BLE_STATUS_TIMEOUT;
 180:Middlewares/ST/BlueNRG-MS/hci/controller/bluenrg_updater_aci.c ****     
 181:Middlewares/ST/BlueNRG-MS/hci/controller/bluenrg_updater_aci.c ****   return status;
 663              		.loc 1 181 3 is_stmt 1 view .LVU223
 664              		.loc 1 181 10 is_stmt 0 view .LVU224
 665 0042 9DF80700 		ldrb	r0, [sp, #7]	@ zero_extendqisi2
 182:Middlewares/ST/BlueNRG-MS/hci/controller/bluenrg_updater_aci.c **** }
 666              		.loc 1 182 1 view .LVU225
 667 0046 28B0     		add	sp, sp, #160
 668              	.LCFI23:
 669              		.cfi_remember_state
 670              		.cfi_def_cfa_offset 16
 671              		@ sp needed
 672 0048 70BD     		pop	{r4, r5, r6, pc}
 673              	.LVL21:
 674              	.L42:
 675              	.LCFI24:
 676              		.cfi_restore_state
 164:Middlewares/ST/BlueNRG-MS/hci/controller/bluenrg_updater_aci.c ****   
 677              		.loc 1 164 12 view .LVU226
 678 004a 4220     		movs	r0, #66
 679              	.LVL22:
 680              		.loc 1 182 1 view .LVU227
 681 004c 28B0     		add	sp, sp, #160
 682              	.LCFI25:
 683              		.cfi_remember_state
 684              		.cfi_def_cfa_offset 16
 685              		@ sp needed
 686 004e 70BD     		pop	{r4, r5, r6, pc}
 687              	.LVL23:
 688              	.L43:
 689              	.LCFI26:
 690              		.cfi_restore_state
 179:Middlewares/ST/BlueNRG-MS/hci/controller/bluenrg_updater_aci.c ****     return BLE_STATUS_TIMEOUT;
 691              		.loc 1 179 12 view .LVU228
 692 0050 FF20     		movs	r0, #255
 693              		.loc 1 182 1 view .LVU229
 694 0052 28B0     		add	sp, sp, #160
ARM GAS  /tmp/ccgRl1dh.s 			page 18


 695              	.LCFI27:
 696              		.cfi_def_cfa_offset 16
 697              		@ sp needed
 698 0054 70BD     		pop	{r4, r5, r6, pc}
 699              	.L46:
 700 0056 00BF     		.align	2
 701              	.L45:
 702 0058 3F002700 		.word	2555967
 703              		.cfi_endproc
 704              	.LFE137:
 706              		.section	.text.aci_updater_read_data_block,"ax",%progbits
 707              		.align	1
 708              		.p2align 2,,3
 709              		.global	aci_updater_read_data_block
 710              		.syntax unified
 711              		.thumb
 712              		.thumb_func
 713              		.fpu fpv4-sp-d16
 715              	aci_updater_read_data_block:
 716              	.LVL24:
 717              	.LFB138:
 183:Middlewares/ST/BlueNRG-MS/hci/controller/bluenrg_updater_aci.c **** 
 184:Middlewares/ST/BlueNRG-MS/hci/controller/bluenrg_updater_aci.c **** tBleStatus aci_updater_read_data_block(uint32_t address,
 185:Middlewares/ST/BlueNRG-MS/hci/controller/bluenrg_updater_aci.c **** 				uint16_t data_len,
 186:Middlewares/ST/BlueNRG-MS/hci/controller/bluenrg_updater_aci.c **** 				uint8_t *data)
 187:Middlewares/ST/BlueNRG-MS/hci/controller/bluenrg_updater_aci.c **** {
 718              		.loc 1 187 1 is_stmt 1 view -0
 719              		.cfi_startproc
 720              		@ args = 0, pretend = 0, frame = 160
 721              		@ frame_needed = 0, uses_anonymous_args = 0
 188:Middlewares/ST/BlueNRG-MS/hci/controller/bluenrg_updater_aci.c ****   struct hci_request rq;
 722              		.loc 1 188 3 view .LVU231
 189:Middlewares/ST/BlueNRG-MS/hci/controller/bluenrg_updater_aci.c ****   updater_read_data_block_cp cp;
 723              		.loc 1 189 3 view .LVU232
 190:Middlewares/ST/BlueNRG-MS/hci/controller/bluenrg_updater_aci.c ****   uint8_t buffer[HCI_MAX_PAYLOAD_SIZE];
 724              		.loc 1 190 3 view .LVU233
 191:Middlewares/ST/BlueNRG-MS/hci/controller/bluenrg_updater_aci.c ****     
 192:Middlewares/ST/BlueNRG-MS/hci/controller/bluenrg_updater_aci.c ****   if((data_len+1) > HCI_MAX_PAYLOAD_SIZE)
 725              		.loc 1 192 3 view .LVU234
 726              		.loc 1 192 5 is_stmt 0 view .LVU235
 727 0000 7F29     		cmp	r1, #127
 728 0002 21D8     		bhi	.L49
 193:Middlewares/ST/BlueNRG-MS/hci/controller/bluenrg_updater_aci.c ****     return BLE_STATUS_INVALID_PARAMS;
 194:Middlewares/ST/BlueNRG-MS/hci/controller/bluenrg_updater_aci.c ****     
 195:Middlewares/ST/BlueNRG-MS/hci/controller/bluenrg_updater_aci.c ****   cp.address = htobl(address);
 729              		.loc 1 195 3 is_stmt 1 view .LVU236
 187:Middlewares/ST/BlueNRG-MS/hci/controller/bluenrg_updater_aci.c ****   struct hci_request rq;
 730              		.loc 1 187 1 is_stmt 0 view .LVU237
 731 0004 30B5     		push	{r4, r5, lr}
 732              	.LCFI28:
 733              		.cfi_def_cfa_offset 12
 734              		.cfi_offset 4, -12
 735              		.cfi_offset 5, -8
 736              		.cfi_offset 14, -4
 737 0006 A9B0     		sub	sp, sp, #164
 738              	.LCFI29:
 739              		.cfi_def_cfa_offset 176
ARM GAS  /tmp/ccgRl1dh.s 			page 19


 740 0008 0C46     		mov	r4, r1
 196:Middlewares/ST/BlueNRG-MS/hci/controller/bluenrg_updater_aci.c ****   cp.data_len = htobs(data_len);
 197:Middlewares/ST/BlueNRG-MS/hci/controller/bluenrg_updater_aci.c **** 
 198:Middlewares/ST/BlueNRG-MS/hci/controller/bluenrg_updater_aci.c ****   BLUENRG_memset(&rq, 0, sizeof(rq));
 199:Middlewares/ST/BlueNRG-MS/hci/controller/bluenrg_updater_aci.c ****   rq.ogf = OGF_VENDOR_CMD;
 741              		.loc 1 199 10 view .LVU238
 742 000a 124B     		ldr	r3, .L55
 195:Middlewares/ST/BlueNRG-MS/hci/controller/bluenrg_updater_aci.c ****   cp.data_len = htobs(data_len);
 743              		.loc 1 195 14 view .LVU239
 744 000c 0090     		str	r0, [sp]
 196:Middlewares/ST/BlueNRG-MS/hci/controller/bluenrg_updater_aci.c ****   cp.data_len = htobs(data_len);
 745              		.loc 1 196 3 is_stmt 1 view .LVU240
 200:Middlewares/ST/BlueNRG-MS/hci/controller/bluenrg_updater_aci.c ****   rq.ocf = OCF_UPDATER_READ_DATA_BLOCK;
 201:Middlewares/ST/BlueNRG-MS/hci/controller/bluenrg_updater_aci.c ****   rq.cparam = &cp;
 202:Middlewares/ST/BlueNRG-MS/hci/controller/bluenrg_updater_aci.c ****   rq.clen = UPDATER_READ_DATA_BLOCK_CP_SIZE;
 746              		.loc 1 202 11 is_stmt 0 view .LVU241
 747 000e 0620     		movs	r0, #6
 748              	.LVL25:
 198:Middlewares/ST/BlueNRG-MS/hci/controller/bluenrg_updater_aci.c ****   rq.ogf = OGF_VENDOR_CMD;
 749              		.loc 1 198 3 view .LVU242
 750 0010 0021     		movs	r1, #0
 751              	.LVL26:
 199:Middlewares/ST/BlueNRG-MS/hci/controller/bluenrg_updater_aci.c ****   rq.ocf = OCF_UPDATER_READ_DATA_BLOCK;
 752              		.loc 1 199 10 view .LVU243
 753 0012 0293     		str	r3, [sp, #8]
 754              		.loc 1 202 11 view .LVU244
 755 0014 0590     		str	r0, [sp, #20]
 203:Middlewares/ST/BlueNRG-MS/hci/controller/bluenrg_updater_aci.c ****   rq.rparam = buffer;
 204:Middlewares/ST/BlueNRG-MS/hci/controller/bluenrg_updater_aci.c ****   rq.rlen = data_len + 1;
 756              		.loc 1 204 22 view .LVU245
 757 0016 631C     		adds	r3, r4, #1
 758 0018 1546     		mov	r5, r2
 205:Middlewares/ST/BlueNRG-MS/hci/controller/bluenrg_updater_aci.c **** 
 206:Middlewares/ST/BlueNRG-MS/hci/controller/bluenrg_updater_aci.c ****   if (hci_send_req(&rq, FALSE) < 0)
 759              		.loc 1 206 7 view .LVU246
 760 001a 02A8     		add	r0, sp, #8
 203:Middlewares/ST/BlueNRG-MS/hci/controller/bluenrg_updater_aci.c ****   rq.rparam = buffer;
 761              		.loc 1 203 13 view .LVU247
 762 001c 08AA     		add	r2, sp, #32
 763              	.LVL27:
 204:Middlewares/ST/BlueNRG-MS/hci/controller/bluenrg_updater_aci.c **** 
 764              		.loc 1 204 11 view .LVU248
 765 001e CDE90623 		strd	r2, r3, [sp, #24]
 196:Middlewares/ST/BlueNRG-MS/hci/controller/bluenrg_updater_aci.c **** 
 766              		.loc 1 196 15 view .LVU249
 767 0022 ADF80440 		strh	r4, [sp, #4]	@ movhi
 198:Middlewares/ST/BlueNRG-MS/hci/controller/bluenrg_updater_aci.c ****   rq.ogf = OGF_VENDOR_CMD;
 768              		.loc 1 198 3 is_stmt 1 view .LVU250
 769 0026 0391     		str	r1, [sp, #12]
 199:Middlewares/ST/BlueNRG-MS/hci/controller/bluenrg_updater_aci.c ****   rq.ocf = OCF_UPDATER_READ_DATA_BLOCK;
 770              		.loc 1 199 3 view .LVU251
 200:Middlewares/ST/BlueNRG-MS/hci/controller/bluenrg_updater_aci.c ****   rq.cparam = &cp;
 771              		.loc 1 200 3 view .LVU252
 201:Middlewares/ST/BlueNRG-MS/hci/controller/bluenrg_updater_aci.c ****   rq.clen = UPDATER_READ_DATA_BLOCK_CP_SIZE;
 772              		.loc 1 201 3 view .LVU253
 201:Middlewares/ST/BlueNRG-MS/hci/controller/bluenrg_updater_aci.c ****   rq.clen = UPDATER_READ_DATA_BLOCK_CP_SIZE;
 773              		.loc 1 201 13 is_stmt 0 view .LVU254
ARM GAS  /tmp/ccgRl1dh.s 			page 20


 774 0028 CDF810D0 		str	sp, [sp, #16]
 202:Middlewares/ST/BlueNRG-MS/hci/controller/bluenrg_updater_aci.c ****   rq.rparam = buffer;
 775              		.loc 1 202 3 is_stmt 1 view .LVU255
 203:Middlewares/ST/BlueNRG-MS/hci/controller/bluenrg_updater_aci.c ****   rq.rlen = data_len + 1;
 776              		.loc 1 203 3 view .LVU256
 777              		.loc 1 206 3 view .LVU257
 778              		.loc 1 206 7 is_stmt 0 view .LVU258
 779 002c FFF7FEFF 		bl	hci_send_req
 780              	.LVL28:
 781              		.loc 1 206 6 view .LVU259
 782 0030 0028     		cmp	r0, #0
 783 0032 0BDB     		blt	.L50
 207:Middlewares/ST/BlueNRG-MS/hci/controller/bluenrg_updater_aci.c ****     return BLE_STATUS_TIMEOUT;
 208:Middlewares/ST/BlueNRG-MS/hci/controller/bluenrg_updater_aci.c ****     
 209:Middlewares/ST/BlueNRG-MS/hci/controller/bluenrg_updater_aci.c ****   // First byte is status
 210:Middlewares/ST/BlueNRG-MS/hci/controller/bluenrg_updater_aci.c ****   BLUENRG_memcpy(data, buffer+1, data_len);
 784              		.loc 1 210 3 is_stmt 1 view .LVU260
 785 0034 2246     		mov	r2, r4
 786 0036 2846     		mov	r0, r5
 787 0038 0DF12101 		add	r1, sp, #33
 788 003c FFF7FEFF 		bl	memcpy
 789              	.LVL29:
 211:Middlewares/ST/BlueNRG-MS/hci/controller/bluenrg_updater_aci.c **** 
 212:Middlewares/ST/BlueNRG-MS/hci/controller/bluenrg_updater_aci.c ****   return buffer[0];
 790              		.loc 1 212 3 view .LVU261
 791              		.loc 1 212 16 is_stmt 0 view .LVU262
 792 0040 9DF82000 		ldrb	r0, [sp, #32]	@ zero_extendqisi2
 213:Middlewares/ST/BlueNRG-MS/hci/controller/bluenrg_updater_aci.c **** }
 793              		.loc 1 213 1 view .LVU263
 794 0044 29B0     		add	sp, sp, #164
 795              	.LCFI30:
 796              		.cfi_def_cfa_offset 12
 797              		@ sp needed
 798 0046 30BD     		pop	{r4, r5, pc}
 799              	.LVL30:
 800              	.L49:
 801              	.LCFI31:
 802              		.cfi_def_cfa_offset 0
 803              		.cfi_restore 4
 804              		.cfi_restore 5
 805              		.cfi_restore 14
 193:Middlewares/ST/BlueNRG-MS/hci/controller/bluenrg_updater_aci.c ****     
 806              		.loc 1 193 12 view .LVU264
 807 0048 4220     		movs	r0, #66
 808              	.LVL31:
 809              		.loc 1 213 1 view .LVU265
 810 004a 7047     		bx	lr
 811              	.LVL32:
 812              	.L50:
 813              	.LCFI32:
 814              		.cfi_def_cfa_offset 176
 815              		.cfi_offset 4, -12
 816              		.cfi_offset 5, -8
 817              		.cfi_offset 14, -4
 207:Middlewares/ST/BlueNRG-MS/hci/controller/bluenrg_updater_aci.c ****     
 818              		.loc 1 207 12 view .LVU266
 819 004c FF20     		movs	r0, #255
ARM GAS  /tmp/ccgRl1dh.s 			page 21


 820              		.loc 1 213 1 view .LVU267
 821 004e 29B0     		add	sp, sp, #164
 822              	.LCFI33:
 823              		.cfi_def_cfa_offset 12
 824              		@ sp needed
 825 0050 30BD     		pop	{r4, r5, pc}
 826              	.LVL33:
 827              	.L56:
 828              		.loc 1 213 1 view .LVU268
 829 0052 00BF     		.align	2
 830              	.L55:
 831 0054 3F002800 		.word	2621503
 832              		.cfi_endproc
 833              	.LFE138:
 835              		.section	.text.aci_updater_calc_crc,"ax",%progbits
 836              		.align	1
 837              		.p2align 2,,3
 838              		.global	aci_updater_calc_crc
 839              		.syntax unified
 840              		.thumb
 841              		.thumb_func
 842              		.fpu fpv4-sp-d16
 844              	aci_updater_calc_crc:
 845              	.LVL34:
 846              	.LFB139:
 214:Middlewares/ST/BlueNRG-MS/hci/controller/bluenrg_updater_aci.c **** 
 215:Middlewares/ST/BlueNRG-MS/hci/controller/bluenrg_updater_aci.c **** tBleStatus aci_updater_calc_crc(uint32_t address,
 216:Middlewares/ST/BlueNRG-MS/hci/controller/bluenrg_updater_aci.c ****                          uint8_t num_sectors,
 217:Middlewares/ST/BlueNRG-MS/hci/controller/bluenrg_updater_aci.c ****                          uint32_t *crc)
 218:Middlewares/ST/BlueNRG-MS/hci/controller/bluenrg_updater_aci.c **** {
 847              		.loc 1 218 1 is_stmt 1 view -0
 848              		.cfi_startproc
 849              		@ args = 0, pretend = 0, frame = 40
 850              		@ frame_needed = 0, uses_anonymous_args = 0
 219:Middlewares/ST/BlueNRG-MS/hci/controller/bluenrg_updater_aci.c ****   struct hci_request rq;
 851              		.loc 1 219 3 view .LVU270
 220:Middlewares/ST/BlueNRG-MS/hci/controller/bluenrg_updater_aci.c ****   updater_calc_crc_cp cp;
 852              		.loc 1 220 3 view .LVU271
 221:Middlewares/ST/BlueNRG-MS/hci/controller/bluenrg_updater_aci.c ****   updater_calc_crc_rp resp;
 853              		.loc 1 221 3 view .LVU272
 222:Middlewares/ST/BlueNRG-MS/hci/controller/bluenrg_updater_aci.c ****     
 223:Middlewares/ST/BlueNRG-MS/hci/controller/bluenrg_updater_aci.c ****   BLUENRG_memset(&resp, 0, sizeof(resp));
 854              		.loc 1 223 3 view .LVU273
 218:Middlewares/ST/BlueNRG-MS/hci/controller/bluenrg_updater_aci.c ****   struct hci_request rq;
 855              		.loc 1 218 1 is_stmt 0 view .LVU274
 856 0000 70B5     		push	{r4, r5, r6, lr}
 857              	.LCFI34:
 858              		.cfi_def_cfa_offset 16
 859              		.cfi_offset 4, -16
 860              		.cfi_offset 5, -12
 861              		.cfi_offset 6, -8
 862              		.cfi_offset 14, -4
 863 0002 8AB0     		sub	sp, sp, #40
 864              	.LCFI35:
 865              		.cfi_def_cfa_offset 56
 866              		.loc 1 223 3 view .LVU275
 867 0004 0023     		movs	r3, #0
ARM GAS  /tmp/ccgRl1dh.s 			page 22


 218:Middlewares/ST/BlueNRG-MS/hci/controller/bluenrg_updater_aci.c ****   struct hci_request rq;
 868              		.loc 1 218 1 view .LVU276
 869 0006 0C46     		mov	r4, r1
 224:Middlewares/ST/BlueNRG-MS/hci/controller/bluenrg_updater_aci.c ****     
 225:Middlewares/ST/BlueNRG-MS/hci/controller/bluenrg_updater_aci.c ****   cp.address = htobl(address);
 870              		.loc 1 225 14 view .LVU277
 871 0008 0090     		str	r0, [sp]
 226:Middlewares/ST/BlueNRG-MS/hci/controller/bluenrg_updater_aci.c ****   cp.num_sectors = num_sectors;
 227:Middlewares/ST/BlueNRG-MS/hci/controller/bluenrg_updater_aci.c **** 
 228:Middlewares/ST/BlueNRG-MS/hci/controller/bluenrg_updater_aci.c ****   BLUENRG_memset(&rq, 0, sizeof(rq));
 229:Middlewares/ST/BlueNRG-MS/hci/controller/bluenrg_updater_aci.c ****   rq.ogf = OGF_VENDOR_CMD;
 230:Middlewares/ST/BlueNRG-MS/hci/controller/bluenrg_updater_aci.c ****   rq.ocf = OCF_UPDATER_CALC_CRC;
 231:Middlewares/ST/BlueNRG-MS/hci/controller/bluenrg_updater_aci.c ****   rq.cparam = &cp;
 232:Middlewares/ST/BlueNRG-MS/hci/controller/bluenrg_updater_aci.c ****   rq.clen = UPDATER_CALC_CRC_CP_SIZE;
 233:Middlewares/ST/BlueNRG-MS/hci/controller/bluenrg_updater_aci.c ****   rq.rparam = &resp;
 234:Middlewares/ST/BlueNRG-MS/hci/controller/bluenrg_updater_aci.c ****   rq.rlen = UPDATER_CALC_CRC_RP_SIZE;
 235:Middlewares/ST/BlueNRG-MS/hci/controller/bluenrg_updater_aci.c **** 
 236:Middlewares/ST/BlueNRG-MS/hci/controller/bluenrg_updater_aci.c ****   if (hci_send_req(&rq, FALSE) < 0)
 872              		.loc 1 236 7 view .LVU278
 873 000a 1946     		mov	r1, r3
 874              	.LVL35:
 226:Middlewares/ST/BlueNRG-MS/hci/controller/bluenrg_updater_aci.c ****   cp.num_sectors = num_sectors;
 875              		.loc 1 226 18 view .LVU279
 876 000c 8DF80440 		strb	r4, [sp, #4]
 229:Middlewares/ST/BlueNRG-MS/hci/controller/bluenrg_updater_aci.c ****   rq.ocf = OCF_UPDATER_CALC_CRC;
 877              		.loc 1 229 10 view .LVU280
 878 0010 0D4E     		ldr	r6, .L61
 223:Middlewares/ST/BlueNRG-MS/hci/controller/bluenrg_updater_aci.c ****     
 879              		.loc 1 223 3 view .LVU281
 880 0012 8DF80C30 		strb	r3, [sp, #12]
 225:Middlewares/ST/BlueNRG-MS/hci/controller/bluenrg_updater_aci.c ****   cp.num_sectors = num_sectors;
 881              		.loc 1 225 3 is_stmt 1 view .LVU282
 226:Middlewares/ST/BlueNRG-MS/hci/controller/bluenrg_updater_aci.c **** 
 882              		.loc 1 226 3 view .LVU283
 228:Middlewares/ST/BlueNRG-MS/hci/controller/bluenrg_updater_aci.c ****   rq.ogf = OGF_VENDOR_CMD;
 883              		.loc 1 228 3 view .LVU284
 218:Middlewares/ST/BlueNRG-MS/hci/controller/bluenrg_updater_aci.c ****   struct hci_request rq;
 884              		.loc 1 218 1 is_stmt 0 view .LVU285
 885 0016 1446     		mov	r4, r2
 223:Middlewares/ST/BlueNRG-MS/hci/controller/bluenrg_updater_aci.c ****     
 886              		.loc 1 223 3 view .LVU286
 887 0018 02AD     		add	r5, sp, #8
 232:Middlewares/ST/BlueNRG-MS/hci/controller/bluenrg_updater_aci.c ****   rq.rparam = &resp;
 888              		.loc 1 232 11 view .LVU287
 889 001a 0522     		movs	r2, #5
 890              	.LVL36:
 891              		.loc 1 236 7 view .LVU288
 892 001c 04A8     		add	r0, sp, #16
 893              	.LVL37:
 223:Middlewares/ST/BlueNRG-MS/hci/controller/bluenrg_updater_aci.c ****     
 894              		.loc 1 223 3 view .LVU289
 895 001e 0293     		str	r3, [sp, #8]
 228:Middlewares/ST/BlueNRG-MS/hci/controller/bluenrg_updater_aci.c ****   rq.ogf = OGF_VENDOR_CMD;
 896              		.loc 1 228 3 view .LVU290
 897 0020 0593     		str	r3, [sp, #20]
 229:Middlewares/ST/BlueNRG-MS/hci/controller/bluenrg_updater_aci.c ****   rq.ocf = OCF_UPDATER_CALC_CRC;
 898              		.loc 1 229 3 is_stmt 1 view .LVU291
ARM GAS  /tmp/ccgRl1dh.s 			page 23


 230:Middlewares/ST/BlueNRG-MS/hci/controller/bluenrg_updater_aci.c ****   rq.cparam = &cp;
 899              		.loc 1 230 3 view .LVU292
 233:Middlewares/ST/BlueNRG-MS/hci/controller/bluenrg_updater_aci.c ****   rq.rlen = UPDATER_CALC_CRC_RP_SIZE;
 900              		.loc 1 233 13 is_stmt 0 view .LVU293
 901 0022 0895     		str	r5, [sp, #32]
 229:Middlewares/ST/BlueNRG-MS/hci/controller/bluenrg_updater_aci.c ****   rq.ocf = OCF_UPDATER_CALC_CRC;
 902              		.loc 1 229 10 view .LVU294
 903 0024 0496     		str	r6, [sp, #16]
 231:Middlewares/ST/BlueNRG-MS/hci/controller/bluenrg_updater_aci.c ****   rq.clen = UPDATER_CALC_CRC_CP_SIZE;
 904              		.loc 1 231 3 is_stmt 1 view .LVU295
 231:Middlewares/ST/BlueNRG-MS/hci/controller/bluenrg_updater_aci.c ****   rq.clen = UPDATER_CALC_CRC_CP_SIZE;
 905              		.loc 1 231 13 is_stmt 0 view .LVU296
 906 0026 CDF818D0 		str	sp, [sp, #24]
 232:Middlewares/ST/BlueNRG-MS/hci/controller/bluenrg_updater_aci.c ****   rq.rparam = &resp;
 907              		.loc 1 232 3 is_stmt 1 view .LVU297
 232:Middlewares/ST/BlueNRG-MS/hci/controller/bluenrg_updater_aci.c ****   rq.rparam = &resp;
 908              		.loc 1 232 11 is_stmt 0 view .LVU298
 909 002a 0792     		str	r2, [sp, #28]
 233:Middlewares/ST/BlueNRG-MS/hci/controller/bluenrg_updater_aci.c ****   rq.rlen = UPDATER_CALC_CRC_RP_SIZE;
 910              		.loc 1 233 3 is_stmt 1 view .LVU299
 234:Middlewares/ST/BlueNRG-MS/hci/controller/bluenrg_updater_aci.c **** 
 911              		.loc 1 234 3 view .LVU300
 234:Middlewares/ST/BlueNRG-MS/hci/controller/bluenrg_updater_aci.c **** 
 912              		.loc 1 234 11 is_stmt 0 view .LVU301
 913 002c 0992     		str	r2, [sp, #36]
 914              		.loc 1 236 3 is_stmt 1 view .LVU302
 915              		.loc 1 236 7 is_stmt 0 view .LVU303
 916 002e FFF7FEFF 		bl	hci_send_req
 917              	.LVL38:
 918              		.loc 1 236 6 view .LVU304
 919 0032 0028     		cmp	r0, #0
 237:Middlewares/ST/BlueNRG-MS/hci/controller/bluenrg_updater_aci.c ****     return BLE_STATUS_TIMEOUT;
 238:Middlewares/ST/BlueNRG-MS/hci/controller/bluenrg_updater_aci.c ****     
 239:Middlewares/ST/BlueNRG-MS/hci/controller/bluenrg_updater_aci.c ****   *crc = btohl(resp.crc);
 920              		.loc 1 239 3 is_stmt 1 view .LVU305
 921              		.loc 1 239 10 is_stmt 0 view .LVU306
 922 0034 A3BF     		ittte	ge
 923 0036 DDF80930 		ldrge	r3, [sp, #9]	@ unaligned
 240:Middlewares/ST/BlueNRG-MS/hci/controller/bluenrg_updater_aci.c ****     
 241:Middlewares/ST/BlueNRG-MS/hci/controller/bluenrg_updater_aci.c ****   return resp.status;
 924              		.loc 1 241 14 view .LVU307
 925 003a 9DF80800 		ldrbge	r0, [sp, #8]	@ zero_extendqisi2
 239:Middlewares/ST/BlueNRG-MS/hci/controller/bluenrg_updater_aci.c ****     
 926              		.loc 1 239 8 view .LVU308
 927 003e 2360     		strge	r3, [r4]
 928              		.loc 1 241 3 is_stmt 1 view .LVU309
 237:Middlewares/ST/BlueNRG-MS/hci/controller/bluenrg_updater_aci.c ****     return BLE_STATUS_TIMEOUT;
 929              		.loc 1 237 12 is_stmt 0 view .LVU310
 930 0040 FF20     		movlt	r0, #255
 242:Middlewares/ST/BlueNRG-MS/hci/controller/bluenrg_updater_aci.c **** }
 931              		.loc 1 242 1 view .LVU311
 932 0042 0AB0     		add	sp, sp, #40
 933              	.LCFI36:
 934              		.cfi_def_cfa_offset 16
 935              		@ sp needed
 936 0044 70BD     		pop	{r4, r5, r6, pc}
 937              	.LVL39:
ARM GAS  /tmp/ccgRl1dh.s 			page 24


 938              	.L62:
 939              		.loc 1 242 1 view .LVU312
 940 0046 00BF     		.align	2
 941              	.L61:
 942 0048 3F002900 		.word	2687039
 943              		.cfi_endproc
 944              	.LFE139:
 946              		.section	.text.aci_updater_hw_version,"ax",%progbits
 947              		.align	1
 948              		.p2align 2,,3
 949              		.global	aci_updater_hw_version
 950              		.syntax unified
 951              		.thumb
 952              		.thumb_func
 953              		.fpu fpv4-sp-d16
 955              	aci_updater_hw_version:
 956              	.LVL40:
 957              	.LFB140:
 243:Middlewares/ST/BlueNRG-MS/hci/controller/bluenrg_updater_aci.c **** 
 244:Middlewares/ST/BlueNRG-MS/hci/controller/bluenrg_updater_aci.c **** tBleStatus aci_updater_hw_version(uint8_t *version)
 245:Middlewares/ST/BlueNRG-MS/hci/controller/bluenrg_updater_aci.c **** {
 958              		.loc 1 245 1 is_stmt 1 view -0
 959              		.cfi_startproc
 960              		@ args = 0, pretend = 0, frame = 32
 961              		@ frame_needed = 0, uses_anonymous_args = 0
 246:Middlewares/ST/BlueNRG-MS/hci/controller/bluenrg_updater_aci.c ****   struct hci_request rq;
 962              		.loc 1 246 3 view .LVU314
 247:Middlewares/ST/BlueNRG-MS/hci/controller/bluenrg_updater_aci.c ****   updater_hw_version_rp resp;
 963              		.loc 1 247 3 view .LVU315
 248:Middlewares/ST/BlueNRG-MS/hci/controller/bluenrg_updater_aci.c **** 
 249:Middlewares/ST/BlueNRG-MS/hci/controller/bluenrg_updater_aci.c ****   BLUENRG_memset(&resp, 0, sizeof(resp));
 964              		.loc 1 249 3 view .LVU316
 245:Middlewares/ST/BlueNRG-MS/hci/controller/bluenrg_updater_aci.c ****   struct hci_request rq;
 965              		.loc 1 245 1 is_stmt 0 view .LVU317
 966 0000 30B5     		push	{r4, r5, lr}
 967              	.LCFI37:
 968              		.cfi_def_cfa_offset 12
 969              		.cfi_offset 4, -12
 970              		.cfi_offset 5, -8
 971              		.cfi_offset 14, -4
 972 0002 89B0     		sub	sp, sp, #36
 973              	.LCFI38:
 974              		.cfi_def_cfa_offset 48
 975              		.loc 1 249 3 view .LVU318
 976 0004 0021     		movs	r1, #0
 250:Middlewares/ST/BlueNRG-MS/hci/controller/bluenrg_updater_aci.c **** 
 251:Middlewares/ST/BlueNRG-MS/hci/controller/bluenrg_updater_aci.c ****   BLUENRG_memset(&rq, 0, sizeof(rq));
 252:Middlewares/ST/BlueNRG-MS/hci/controller/bluenrg_updater_aci.c ****   rq.ogf = OGF_VENDOR_CMD;
 253:Middlewares/ST/BlueNRG-MS/hci/controller/bluenrg_updater_aci.c ****   rq.ocf = OCF_UPDATER_HW_VERSION;
 254:Middlewares/ST/BlueNRG-MS/hci/controller/bluenrg_updater_aci.c ****   rq.rparam = &resp;
 255:Middlewares/ST/BlueNRG-MS/hci/controller/bluenrg_updater_aci.c ****   rq.rlen = UPDATER_HW_VERSION_RP_SIZE;
 977              		.loc 1 255 11 view .LVU319
 978 0006 0223     		movs	r3, #2
 252:Middlewares/ST/BlueNRG-MS/hci/controller/bluenrg_updater_aci.c ****   rq.ocf = OCF_UPDATER_HW_VERSION;
 979              		.loc 1 252 10 view .LVU320
 980 0008 0B4A     		ldr	r2, .L67
 981              		.loc 1 255 11 view .LVU321
ARM GAS  /tmp/ccgRl1dh.s 			page 25


 982 000a 0793     		str	r3, [sp, #28]
 245:Middlewares/ST/BlueNRG-MS/hci/controller/bluenrg_updater_aci.c ****   struct hci_request rq;
 983              		.loc 1 245 1 view .LVU322
 984 000c 0446     		mov	r4, r0
 249:Middlewares/ST/BlueNRG-MS/hci/controller/bluenrg_updater_aci.c **** 
 985              		.loc 1 249 3 view .LVU323
 986 000e 01AD     		add	r5, sp, #4
 256:Middlewares/ST/BlueNRG-MS/hci/controller/bluenrg_updater_aci.c **** 
 257:Middlewares/ST/BlueNRG-MS/hci/controller/bluenrg_updater_aci.c ****   if (hci_send_req(&rq, FALSE) < 0)
 987              		.loc 1 257 7 view .LVU324
 988 0010 02A8     		add	r0, sp, #8
 989              	.LVL41:
 251:Middlewares/ST/BlueNRG-MS/hci/controller/bluenrg_updater_aci.c ****   rq.ogf = OGF_VENDOR_CMD;
 990              		.loc 1 251 3 view .LVU325
 991 0012 CDE90311 		strd	r1, r1, [sp, #12]
 249:Middlewares/ST/BlueNRG-MS/hci/controller/bluenrg_updater_aci.c **** 
 992              		.loc 1 249 3 view .LVU326
 993 0016 ADF80410 		strh	r1, [sp, #4]	@ movhi
 251:Middlewares/ST/BlueNRG-MS/hci/controller/bluenrg_updater_aci.c ****   rq.ogf = OGF_VENDOR_CMD;
 994              		.loc 1 251 3 is_stmt 1 view .LVU327
 995 001a 0591     		str	r1, [sp, #20]
 252:Middlewares/ST/BlueNRG-MS/hci/controller/bluenrg_updater_aci.c ****   rq.ocf = OCF_UPDATER_HW_VERSION;
 996              		.loc 1 252 3 view .LVU328
 253:Middlewares/ST/BlueNRG-MS/hci/controller/bluenrg_updater_aci.c ****   rq.rparam = &resp;
 997              		.loc 1 253 3 view .LVU329
 254:Middlewares/ST/BlueNRG-MS/hci/controller/bluenrg_updater_aci.c ****   rq.rlen = UPDATER_HW_VERSION_RP_SIZE;
 998              		.loc 1 254 13 is_stmt 0 view .LVU330
 999 001c 0695     		str	r5, [sp, #24]
 252:Middlewares/ST/BlueNRG-MS/hci/controller/bluenrg_updater_aci.c ****   rq.ocf = OCF_UPDATER_HW_VERSION;
 1000              		.loc 1 252 10 view .LVU331
 1001 001e 0292     		str	r2, [sp, #8]
 254:Middlewares/ST/BlueNRG-MS/hci/controller/bluenrg_updater_aci.c ****   rq.rlen = UPDATER_HW_VERSION_RP_SIZE;
 1002              		.loc 1 254 3 is_stmt 1 view .LVU332
 255:Middlewares/ST/BlueNRG-MS/hci/controller/bluenrg_updater_aci.c **** 
 1003              		.loc 1 255 3 view .LVU333
 1004              		.loc 1 257 3 view .LVU334
 1005              		.loc 1 257 7 is_stmt 0 view .LVU335
 1006 0020 FFF7FEFF 		bl	hci_send_req
 1007              	.LVL42:
 1008              		.loc 1 257 6 view .LVU336
 1009 0024 0028     		cmp	r0, #0
 258:Middlewares/ST/BlueNRG-MS/hci/controller/bluenrg_updater_aci.c ****     return BLE_STATUS_TIMEOUT;
 259:Middlewares/ST/BlueNRG-MS/hci/controller/bluenrg_updater_aci.c ****     
 260:Middlewares/ST/BlueNRG-MS/hci/controller/bluenrg_updater_aci.c ****   *version = resp.version;
 1010              		.loc 1 260 3 is_stmt 1 view .LVU337
 1011              		.loc 1 260 12 is_stmt 0 view .LVU338
 1012 0026 A3BF     		ittte	ge
 1013 0028 9DF80530 		ldrbge	r3, [sp, #5]	@ zero_extendqisi2
 261:Middlewares/ST/BlueNRG-MS/hci/controller/bluenrg_updater_aci.c **** 
 262:Middlewares/ST/BlueNRG-MS/hci/controller/bluenrg_updater_aci.c ****   return resp.status;
 1014              		.loc 1 262 14 view .LVU339
 1015 002c 9DF80400 		ldrbge	r0, [sp, #4]	@ zero_extendqisi2
 260:Middlewares/ST/BlueNRG-MS/hci/controller/bluenrg_updater_aci.c **** 
 1016              		.loc 1 260 12 view .LVU340
 1017 0030 2370     		strbge	r3, [r4]
 1018              		.loc 1 262 3 is_stmt 1 view .LVU341
 258:Middlewares/ST/BlueNRG-MS/hci/controller/bluenrg_updater_aci.c ****     return BLE_STATUS_TIMEOUT;
ARM GAS  /tmp/ccgRl1dh.s 			page 26


 1019              		.loc 1 258 12 is_stmt 0 view .LVU342
 1020 0032 FF20     		movlt	r0, #255
 263:Middlewares/ST/BlueNRG-MS/hci/controller/bluenrg_updater_aci.c **** }
 1021              		.loc 1 263 1 view .LVU343
 1022 0034 09B0     		add	sp, sp, #36
 1023              	.LCFI39:
 1024              		.cfi_def_cfa_offset 12
 1025              		@ sp needed
 1026 0036 30BD     		pop	{r4, r5, pc}
 1027              	.LVL43:
 1028              	.L68:
 1029              		.loc 1 263 1 view .LVU344
 1030              		.align	2
 1031              	.L67:
 1032 0038 3F002A00 		.word	2752575
 1033              		.cfi_endproc
 1034              	.LFE140:
 1036              		.text
 1037              	.Letext0:
 1038              		.file 2 "/usr/lib/gcc/arm-none-eabi/9.2.1/include/stdint.h"
 1039              		.file 3 "Middlewares/ST/BlueNRG-MS/includes/bluenrg_def.h"
 1040              		.file 4 "Drivers/CMSIS/Include/core_cm4.h"
 1041              		.file 5 "Drivers/CMSIS/Device/ST/STM32F4xx/Include/system_stm32f4xx.h"
 1042              		.file 6 "Drivers/CMSIS/Device/ST/STM32F4xx/Include/stm32f446xx.h"
 1043              		.file 7 "Drivers/STM32F4xx_HAL_Driver/Inc/stm32f4xx_hal_def.h"
 1044              		.file 8 "Drivers/STM32F4xx_HAL_Driver/Inc/stm32f4xx_hal_exti.h"
 1045              		.file 9 "Drivers/STM32F4xx_HAL_Driver/Inc/stm32f4xx_hal_dma.h"
 1046              		.file 10 "Drivers/STM32F4xx_HAL_Driver/Inc/stm32f4xx_hal_spi.h"
 1047              		.file 11 "Drivers/STM32F4xx_HAL_Driver/Inc/stm32f4xx_hal.h"
 1048              		.file 12 "Inc/stm32f4xx_nucleo_bus.h"
 1049              		.file 13 "Inc/hci_tl_interface.h"
 1050              		.file 14 "/usr/lib/gcc/arm-none-eabi/9.2.1/include/stddef.h"
 1051              		.file 15 "/usr/include/newlib/sys/_types.h"
 1052              		.file 16 "/usr/include/newlib/sys/reent.h"
 1053              		.file 17 "/usr/include/newlib/sys/lock.h"
 1054              		.file 18 "Middlewares/ST/BlueNRG-MS/hci/hci_tl_patterns/Basic/hci_tl.h"
 1055              		.file 19 "Middlewares/ST/BlueNRG-MS/includes/bluenrg_aci_const.h"
 1056              		.file 20 "<built-in>"
ARM GAS  /tmp/ccgRl1dh.s 			page 27

