ARM GAS  /tmp/cc7GlVmR.s 			page 1


   1              		.cpu cortex-m4
   2              		.eabi_attribute 27, 1
   3              		.eabi_attribute 28, 1
   4              		.eabi_attribute 20, 1
   5              		.eabi_attribute 21, 1
   6              		.eabi_attribute 23, 3
   7              		.eabi_attribute 24, 1
   8              		.eabi_attribute 25, 1
   9              		.eabi_attribute 26, 1
  10              		.eabi_attribute 30, 2
  11              		.eabi_attribute 34, 1
  12              		.eabi_attribute 18, 4
  13              		.file	"hci_tl_interface.c"
  14              		.text
  15              	.Ltext0:
  16              		.cfi_sections	.debug_frame
  17              		.section	.text.HCI_TL_SPI_Init,"ax",%progbits
  18              		.align	1
  19              		.p2align 2,,3
  20              		.global	HCI_TL_SPI_Init
  21              		.arch armv7e-m
  22              		.syntax unified
  23              		.thumb
  24              		.thumb_func
  25              		.fpu fpv4-sp-d16
  27              	HCI_TL_SPI_Init:
  28              	.LVL0:
  29              	.LFB130:
  30              		.file 1 "Src/hci_tl_interface.c"
   1:Src/hci_tl_interface.c **** /**
   2:Src/hci_tl_interface.c ****   ******************************************************************************
   3:Src/hci_tl_interface.c ****   * @file  : hci_tl_interface.c
   4:Src/hci_tl_interface.c ****   * @brief : This file provides the implementation for all functions prototypes 
   5:Src/hci_tl_interface.c ****   *          for the STM32 BlueNRG-MS HCI Transport Layer interface
   6:Src/hci_tl_interface.c ****   ******************************************************************************
   7:Src/hci_tl_interface.c ****   *
   8:Src/hci_tl_interface.c ****   * COPYRIGHT 2020 STMicroelectronics
   9:Src/hci_tl_interface.c ****   *
  10:Src/hci_tl_interface.c ****   * Licensed under MCD-ST Liberty SW License Agreement V2, (the "License");
  11:Src/hci_tl_interface.c ****   * You may not use this file except in compliance with the License.
  12:Src/hci_tl_interface.c ****   * You may obtain a copy of the License at:
  13:Src/hci_tl_interface.c ****   *
  14:Src/hci_tl_interface.c ****   *        http://www.st.com/software_license_agreement_liberty_v2
  15:Src/hci_tl_interface.c ****   *
  16:Src/hci_tl_interface.c ****   * Unless required by applicable law or agreed to in writing, software 
  17:Src/hci_tl_interface.c ****   * distributed under the License is distributed on an "AS IS" BASIS, 
  18:Src/hci_tl_interface.c ****   * WITHOUT WARRANTIES OR CONDITIONS OF ANY KIND, either express or implied.
  19:Src/hci_tl_interface.c ****   * See the License for the specific language governing permissions and
  20:Src/hci_tl_interface.c ****   * limitations under the License.
  21:Src/hci_tl_interface.c ****   ******************************************************************************
  22:Src/hci_tl_interface.c ****   */
  23:Src/hci_tl_interface.c **** 
  24:Src/hci_tl_interface.c **** /* Includes ------------------------------------------------------------------*/
  25:Src/hci_tl_interface.c **** #include "RTE_Components.h"
  26:Src/hci_tl_interface.c **** 
  27:Src/hci_tl_interface.c **** #include "hci_tl.h"
  28:Src/hci_tl_interface.c **** 
ARM GAS  /tmp/cc7GlVmR.s 			page 2


  29:Src/hci_tl_interface.c **** #define HEADER_SIZE       5U
  30:Src/hci_tl_interface.c **** #define MAX_BUFFER_SIZE   255U
  31:Src/hci_tl_interface.c **** #define TIMEOUT_DURATION  15U
  32:Src/hci_tl_interface.c **** 
  33:Src/hci_tl_interface.c **** EXTI_HandleTypeDef hexti0;
  34:Src/hci_tl_interface.c **** 
  35:Src/hci_tl_interface.c **** /******************** IO Operation and BUS services ***************************/
  36:Src/hci_tl_interface.c **** 
  37:Src/hci_tl_interface.c **** /**
  38:Src/hci_tl_interface.c ****  * @brief  Initializes the peripherals communication with the BlueNRG
  39:Src/hci_tl_interface.c ****  *         Expansion Board (via SPI, I2C, USART, ...)
  40:Src/hci_tl_interface.c ****  *
  41:Src/hci_tl_interface.c ****  * @param  void* Pointer to configuration struct 
  42:Src/hci_tl_interface.c ****  * @retval int32_t Status
  43:Src/hci_tl_interface.c ****  */
  44:Src/hci_tl_interface.c **** int32_t HCI_TL_SPI_Init(void* pConf)
  45:Src/hci_tl_interface.c **** {
  31              		.loc 1 45 1 view -0
  32              		.cfi_startproc
  33              		@ args = 0, pretend = 0, frame = 24
  34              		@ frame_needed = 0, uses_anonymous_args = 0
  46:Src/hci_tl_interface.c ****   GPIO_InitTypeDef GPIO_InitStruct;
  35              		.loc 1 46 3 view .LVU1
  47:Src/hci_tl_interface.c ****   
  48:Src/hci_tl_interface.c ****   __HAL_RCC_GPIOA_CLK_ENABLE();
  36              		.loc 1 48 3 view .LVU2
  37              	.LBB4:
  38              		.loc 1 48 3 view .LVU3
  39              	.LBE4:
  45:Src/hci_tl_interface.c ****   GPIO_InitTypeDef GPIO_InitStruct;
  40              		.loc 1 45 1 is_stmt 0 view .LVU4
  41 0000 70B5     		push	{r4, r5, r6, lr}
  42              	.LCFI0:
  43              		.cfi_def_cfa_offset 16
  44              		.cfi_offset 4, -16
  45              		.cfi_offset 5, -12
  46              		.cfi_offset 6, -8
  47              		.cfi_offset 14, -4
  48 0002 86B0     		sub	sp, sp, #24
  49              	.LCFI1:
  50              		.cfi_def_cfa_offset 40
  51              	.LBB5:
  52              		.loc 1 48 3 view .LVU5
  53 0004 0024     		movs	r4, #0
  54 0006 154B     		ldr	r3, .L4
  55 0008 0094     		str	r4, [sp]
  56              		.loc 1 48 3 is_stmt 1 view .LVU6
  57 000a 1A6B     		ldr	r2, [r3, #48]
  58              	.LBE5:
  49:Src/hci_tl_interface.c ****   
  50:Src/hci_tl_interface.c ****   /*Configure EXTI Line */
  51:Src/hci_tl_interface.c ****   GPIO_InitStruct.Pin = HCI_TL_SPI_EXTI_PIN;
  52:Src/hci_tl_interface.c ****   GPIO_InitStruct.Mode = GPIO_MODE_IT_RISING;
  59              		.loc 1 52 24 is_stmt 0 view .LVU7
  60 000c 144E     		ldr	r6, .L4+4
  53:Src/hci_tl_interface.c ****   GPIO_InitStruct.Pull = GPIO_NOPULL;
  54:Src/hci_tl_interface.c ****   HAL_GPIO_Init(HCI_TL_SPI_EXTI_PORT, &GPIO_InitStruct);
ARM GAS  /tmp/cc7GlVmR.s 			page 3


  61              		.loc 1 54 3 view .LVU8
  62 000e 1548     		ldr	r0, .L4+8
  63              	.LVL1:
  64              	.LBB6:
  48:Src/hci_tl_interface.c ****   
  65              		.loc 1 48 3 view .LVU9
  66 0010 42F00102 		orr	r2, r2, #1
  67 0014 1A63     		str	r2, [r3, #48]
  48:Src/hci_tl_interface.c ****   
  68              		.loc 1 48 3 is_stmt 1 view .LVU10
  69 0016 1B6B     		ldr	r3, [r3, #48]
  70              	.LBE6:
  53:Src/hci_tl_interface.c ****   GPIO_InitStruct.Pull = GPIO_NOPULL;
  71              		.loc 1 53 24 is_stmt 0 view .LVU11
  72 0018 0394     		str	r4, [sp, #12]
  73              	.LBB7:
  48:Src/hci_tl_interface.c ****   
  74              		.loc 1 48 3 view .LVU12
  75 001a 03F00103 		and	r3, r3, #1
  76              	.LBE7:
  51:Src/hci_tl_interface.c ****   GPIO_InitStruct.Mode = GPIO_MODE_IT_RISING;
  77              		.loc 1 51 23 view .LVU13
  78 001e 0125     		movs	r5, #1
  79              	.LBB8:
  48:Src/hci_tl_interface.c ****   
  80              		.loc 1 48 3 view .LVU14
  81 0020 0093     		str	r3, [sp]
  48:Src/hci_tl_interface.c ****   
  82              		.loc 1 48 3 is_stmt 1 view .LVU15
  83              	.LBE8:
  84              		.loc 1 54 3 is_stmt 0 view .LVU16
  85 0022 01A9     		add	r1, sp, #4
  86              	.LBB9:
  48:Src/hci_tl_interface.c ****   
  87              		.loc 1 48 3 view .LVU17
  88 0024 009B     		ldr	r3, [sp]
  89              	.LBE9:
  48:Src/hci_tl_interface.c ****   
  90              		.loc 1 48 3 is_stmt 1 view .LVU18
  51:Src/hci_tl_interface.c ****   GPIO_InitStruct.Mode = GPIO_MODE_IT_RISING;
  91              		.loc 1 51 3 view .LVU19
  52:Src/hci_tl_interface.c ****   GPIO_InitStruct.Pull = GPIO_NOPULL;
  92              		.loc 1 52 24 is_stmt 0 view .LVU20
  93 0026 CDE90156 		strd	r5, r6, [sp, #4]
  53:Src/hci_tl_interface.c ****   HAL_GPIO_Init(HCI_TL_SPI_EXTI_PORT, &GPIO_InitStruct);
  94              		.loc 1 53 3 is_stmt 1 view .LVU21
  95              		.loc 1 54 3 view .LVU22
  96 002a FFF7FEFF 		bl	HAL_GPIO_Init
  97              	.LVL2:
  55:Src/hci_tl_interface.c ****    
  56:Src/hci_tl_interface.c ****   /*Configure CS & RESET Line */
  57:Src/hci_tl_interface.c ****   GPIO_InitStruct.Pin =  HCI_TL_RST_PIN ;
  98              		.loc 1 57 3 view .LVU23
  58:Src/hci_tl_interface.c ****   GPIO_InitStruct.Mode = GPIO_MODE_OUTPUT_PP;
  59:Src/hci_tl_interface.c ****   GPIO_InitStruct.Pull = GPIO_NOPULL;
  60:Src/hci_tl_interface.c ****   GPIO_InitStruct.Speed = GPIO_SPEED_FREQ_LOW;
  61:Src/hci_tl_interface.c ****   HAL_GPIO_Init(HCI_TL_RST_PORT, &GPIO_InitStruct);
ARM GAS  /tmp/cc7GlVmR.s 			page 4


  99              		.loc 1 61 3 is_stmt 0 view .LVU24
 100 002e 01A9     		add	r1, sp, #4
  57:Src/hci_tl_interface.c ****   GPIO_InitStruct.Mode = GPIO_MODE_OUTPUT_PP;
 101              		.loc 1 57 23 view .LVU25
 102 0030 4FF48073 		mov	r3, #256
 103              		.loc 1 61 3 view .LVU26
 104 0034 0B48     		ldr	r0, .L4+8
  57:Src/hci_tl_interface.c ****   GPIO_InitStruct.Mode = GPIO_MODE_OUTPUT_PP;
 105              		.loc 1 57 23 view .LVU27
 106 0036 0193     		str	r3, [sp, #4]
  58:Src/hci_tl_interface.c ****   GPIO_InitStruct.Mode = GPIO_MODE_OUTPUT_PP;
 107              		.loc 1 58 3 is_stmt 1 view .LVU28
  59:Src/hci_tl_interface.c ****   GPIO_InitStruct.Speed = GPIO_SPEED_FREQ_LOW;
 108              		.loc 1 59 3 view .LVU29
  60:Src/hci_tl_interface.c ****   HAL_GPIO_Init(HCI_TL_RST_PORT, &GPIO_InitStruct);
 109              		.loc 1 60 3 view .LVU30
 110              		.loc 1 61 3 view .LVU31
  59:Src/hci_tl_interface.c ****   GPIO_InitStruct.Speed = GPIO_SPEED_FREQ_LOW;
 111              		.loc 1 59 24 is_stmt 0 view .LVU32
 112 0038 CDE90254 		strd	r5, r4, [sp, #8]
  60:Src/hci_tl_interface.c ****   HAL_GPIO_Init(HCI_TL_RST_PORT, &GPIO_InitStruct);
 113              		.loc 1 60 25 view .LVU33
 114 003c 0494     		str	r4, [sp, #16]
 115              		.loc 1 61 3 view .LVU34
 116 003e FFF7FEFF 		bl	HAL_GPIO_Init
 117              	.LVL3:
  62:Src/hci_tl_interface.c ****   
  63:Src/hci_tl_interface.c ****   GPIO_InitStruct.Pin = HCI_TL_SPI_CS_PIN ;
 118              		.loc 1 63 3 is_stmt 1 view .LVU35
 119              		.loc 1 63 23 is_stmt 0 view .LVU36
 120 0042 0223     		movs	r3, #2
  64:Src/hci_tl_interface.c ****   GPIO_InitStruct.Mode = GPIO_MODE_OUTPUT_PP;
  65:Src/hci_tl_interface.c ****   GPIO_InitStruct.Pull = GPIO_NOPULL;
  66:Src/hci_tl_interface.c ****   GPIO_InitStruct.Speed = GPIO_SPEED_FREQ_LOW;
  67:Src/hci_tl_interface.c ****   HAL_GPIO_Init(HCI_TL_SPI_CS_PORT, &GPIO_InitStruct); 
 121              		.loc 1 67 3 view .LVU37
 122 0044 01A9     		add	r1, sp, #4
 123 0046 0748     		ldr	r0, .L4+8
  63:Src/hci_tl_interface.c ****   GPIO_InitStruct.Mode = GPIO_MODE_OUTPUT_PP;
 124              		.loc 1 63 23 view .LVU38
 125 0048 0193     		str	r3, [sp, #4]
  64:Src/hci_tl_interface.c ****   GPIO_InitStruct.Mode = GPIO_MODE_OUTPUT_PP;
 126              		.loc 1 64 3 is_stmt 1 view .LVU39
  65:Src/hci_tl_interface.c ****   GPIO_InitStruct.Speed = GPIO_SPEED_FREQ_LOW;
 127              		.loc 1 65 3 view .LVU40
  66:Src/hci_tl_interface.c ****   HAL_GPIO_Init(HCI_TL_SPI_CS_PORT, &GPIO_InitStruct); 
 128              		.loc 1 66 3 view .LVU41
 129              		.loc 1 67 3 view .LVU42
  65:Src/hci_tl_interface.c ****   GPIO_InitStruct.Speed = GPIO_SPEED_FREQ_LOW;
 130              		.loc 1 65 24 is_stmt 0 view .LVU43
 131 004a CDE90254 		strd	r5, r4, [sp, #8]
  66:Src/hci_tl_interface.c ****   HAL_GPIO_Init(HCI_TL_SPI_CS_PORT, &GPIO_InitStruct); 
 132              		.loc 1 66 25 view .LVU44
 133 004e 0494     		str	r4, [sp, #16]
 134              		.loc 1 67 3 view .LVU45
 135 0050 FFF7FEFF 		bl	HAL_GPIO_Init
 136              	.LVL4:
ARM GAS  /tmp/cc7GlVmR.s 			page 5


  68:Src/hci_tl_interface.c ****     
  69:Src/hci_tl_interface.c ****   return BSP_SPI1_Init();
 137              		.loc 1 69 3 is_stmt 1 view .LVU46
 138              		.loc 1 69 10 is_stmt 0 view .LVU47
 139 0054 FFF7FEFF 		bl	BSP_SPI1_Init
 140              	.LVL5:
  70:Src/hci_tl_interface.c **** }
 141              		.loc 1 70 1 view .LVU48
 142 0058 06B0     		add	sp, sp, #24
 143              	.LCFI2:
 144              		.cfi_def_cfa_offset 16
 145              		@ sp needed
 146 005a 70BD     		pop	{r4, r5, r6, pc}
 147              	.L5:
 148              		.align	2
 149              	.L4:
 150 005c 00380240 		.word	1073887232
 151 0060 00001110 		.word	269549568
 152 0064 00000240 		.word	1073872896
 153              		.cfi_endproc
 154              	.LFE130:
 156              		.section	.text.HCI_TL_SPI_DeInit,"ax",%progbits
 157              		.align	1
 158              		.p2align 2,,3
 159              		.global	HCI_TL_SPI_DeInit
 160              		.syntax unified
 161              		.thumb
 162              		.thumb_func
 163              		.fpu fpv4-sp-d16
 165              	HCI_TL_SPI_DeInit:
 166              	.LFB131:
  71:Src/hci_tl_interface.c **** 
  72:Src/hci_tl_interface.c **** /**
  73:Src/hci_tl_interface.c ****  * @brief  DeInitializes the peripherals communication with the BlueNRG
  74:Src/hci_tl_interface.c ****  *         Expansion Board (via SPI, I2C, USART, ...)
  75:Src/hci_tl_interface.c ****  *
  76:Src/hci_tl_interface.c ****  * @param  None
  77:Src/hci_tl_interface.c ****  * @retval int32_t 0
  78:Src/hci_tl_interface.c ****  */
  79:Src/hci_tl_interface.c **** int32_t HCI_TL_SPI_DeInit(void)
  80:Src/hci_tl_interface.c **** {
 167              		.loc 1 80 1 is_stmt 1 view -0
 168              		.cfi_startproc
 169              		@ args = 0, pretend = 0, frame = 0
 170              		@ frame_needed = 0, uses_anonymous_args = 0
  81:Src/hci_tl_interface.c ****   HAL_GPIO_DeInit(HCI_TL_SPI_EXTI_PORT, HCI_TL_SPI_EXTI_PIN); 
 171              		.loc 1 81 3 view .LVU50
  80:Src/hci_tl_interface.c ****   HAL_GPIO_DeInit(HCI_TL_SPI_EXTI_PORT, HCI_TL_SPI_EXTI_PIN); 
 172              		.loc 1 80 1 is_stmt 0 view .LVU51
 173 0000 08B5     		push	{r3, lr}
 174              	.LCFI3:
 175              		.cfi_def_cfa_offset 8
 176              		.cfi_offset 3, -8
 177              		.cfi_offset 14, -4
 178              		.loc 1 81 3 view .LVU52
 179 0002 0748     		ldr	r0, .L8
 180 0004 0121     		movs	r1, #1
ARM GAS  /tmp/cc7GlVmR.s 			page 6


 181 0006 FFF7FEFF 		bl	HAL_GPIO_DeInit
 182              	.LVL6:
  82:Src/hci_tl_interface.c ****   HAL_GPIO_DeInit(HCI_TL_SPI_CS_PORT, HCI_TL_SPI_CS_PIN); 
 183              		.loc 1 82 3 is_stmt 1 view .LVU53
 184 000a 0548     		ldr	r0, .L8
 185 000c 0221     		movs	r1, #2
 186 000e FFF7FEFF 		bl	HAL_GPIO_DeInit
 187              	.LVL7:
  83:Src/hci_tl_interface.c ****   HAL_GPIO_DeInit(HCI_TL_RST_PORT, HCI_TL_RST_PIN);   
 188              		.loc 1 83 3 view .LVU54
 189 0012 0348     		ldr	r0, .L8
 190 0014 4FF48071 		mov	r1, #256
 191 0018 FFF7FEFF 		bl	HAL_GPIO_DeInit
 192              	.LVL8:
  84:Src/hci_tl_interface.c ****   return 0;
 193              		.loc 1 84 3 view .LVU55
  85:Src/hci_tl_interface.c **** }
 194              		.loc 1 85 1 is_stmt 0 view .LVU56
 195 001c 0020     		movs	r0, #0
 196 001e 08BD     		pop	{r3, pc}
 197              	.L9:
 198              		.align	2
 199              	.L8:
 200 0020 00000240 		.word	1073872896
 201              		.cfi_endproc
 202              	.LFE131:
 204              		.section	.text.HCI_TL_SPI_Reset,"ax",%progbits
 205              		.align	1
 206              		.p2align 2,,3
 207              		.global	HCI_TL_SPI_Reset
 208              		.syntax unified
 209              		.thumb
 210              		.thumb_func
 211              		.fpu fpv4-sp-d16
 213              	HCI_TL_SPI_Reset:
 214              	.LFB132:
  86:Src/hci_tl_interface.c **** 
  87:Src/hci_tl_interface.c **** /**
  88:Src/hci_tl_interface.c ****  * @brief Reset BlueNRG module.
  89:Src/hci_tl_interface.c ****  *
  90:Src/hci_tl_interface.c ****  * @param  None
  91:Src/hci_tl_interface.c ****  * @retval int32_t 0
  92:Src/hci_tl_interface.c ****  */
  93:Src/hci_tl_interface.c **** int32_t HCI_TL_SPI_Reset(void)
  94:Src/hci_tl_interface.c **** {
 215              		.loc 1 94 1 is_stmt 1 view -0
 216              		.cfi_startproc
 217              		@ args = 0, pretend = 0, frame = 0
 218              		@ frame_needed = 0, uses_anonymous_args = 0
  95:Src/hci_tl_interface.c ****   HAL_GPIO_WritePin(HCI_TL_RST_PORT, HCI_TL_RST_PIN, GPIO_PIN_RESET);
 219              		.loc 1 95 3 view .LVU58
  94:Src/hci_tl_interface.c ****   HAL_GPIO_WritePin(HCI_TL_RST_PORT, HCI_TL_RST_PIN, GPIO_PIN_RESET);
 220              		.loc 1 94 1 is_stmt 0 view .LVU59
 221 0000 10B5     		push	{r4, lr}
 222              	.LCFI4:
 223              		.cfi_def_cfa_offset 8
 224              		.cfi_offset 4, -8
ARM GAS  /tmp/cc7GlVmR.s 			page 7


 225              		.cfi_offset 14, -4
 226              		.loc 1 95 3 view .LVU60
 227 0002 0A4C     		ldr	r4, .L12
 228 0004 0022     		movs	r2, #0
 229 0006 2046     		mov	r0, r4
 230 0008 4FF48071 		mov	r1, #256
 231 000c FFF7FEFF 		bl	HAL_GPIO_WritePin
 232              	.LVL9:
  96:Src/hci_tl_interface.c ****   HAL_Delay(5);
 233              		.loc 1 96 3 is_stmt 1 view .LVU61
 234 0010 0520     		movs	r0, #5
 235 0012 FFF7FEFF 		bl	HAL_Delay
 236              	.LVL10:
  97:Src/hci_tl_interface.c ****   HAL_GPIO_WritePin(HCI_TL_RST_PORT, HCI_TL_RST_PIN, GPIO_PIN_SET);
 237              		.loc 1 97 3 view .LVU62
 238 0016 2046     		mov	r0, r4
 239 0018 0122     		movs	r2, #1
 240 001a 4FF48071 		mov	r1, #256
 241 001e FFF7FEFF 		bl	HAL_GPIO_WritePin
 242              	.LVL11:
  98:Src/hci_tl_interface.c ****   HAL_Delay(5);    
 243              		.loc 1 98 3 view .LVU63
 244 0022 0520     		movs	r0, #5
 245 0024 FFF7FEFF 		bl	HAL_Delay
 246              	.LVL12:
  99:Src/hci_tl_interface.c ****   return 0;
 247              		.loc 1 99 3 view .LVU64
 100:Src/hci_tl_interface.c **** }  
 248              		.loc 1 100 1 is_stmt 0 view .LVU65
 249 0028 0020     		movs	r0, #0
 250 002a 10BD     		pop	{r4, pc}
 251              	.L13:
 252              		.align	2
 253              	.L12:
 254 002c 00000240 		.word	1073872896
 255              		.cfi_endproc
 256              	.LFE132:
 258              		.section	.text.HCI_TL_SPI_Receive,"ax",%progbits
 259              		.align	1
 260              		.p2align 2,,3
 261              		.global	HCI_TL_SPI_Receive
 262              		.syntax unified
 263              		.thumb
 264              		.thumb_func
 265              		.fpu fpv4-sp-d16
 267              	HCI_TL_SPI_Receive:
 268              	.LVL13:
 269              	.LFB133:
 101:Src/hci_tl_interface.c **** 
 102:Src/hci_tl_interface.c **** /**
 103:Src/hci_tl_interface.c ****  * @brief  Reads from BlueNRG SPI buffer and store data into local buffer.
 104:Src/hci_tl_interface.c ****  *
 105:Src/hci_tl_interface.c ****  * @param  buffer : Buffer where data from SPI are stored
 106:Src/hci_tl_interface.c ****  * @param  size   : Buffer size
 107:Src/hci_tl_interface.c ****  * @retval int32_t: Number of read bytes
 108:Src/hci_tl_interface.c ****  */
 109:Src/hci_tl_interface.c **** int32_t HCI_TL_SPI_Receive(uint8_t* buffer, uint16_t size)
ARM GAS  /tmp/cc7GlVmR.s 			page 8


 110:Src/hci_tl_interface.c **** {
 270              		.loc 1 110 1 is_stmt 1 view -0
 271              		.cfi_startproc
 272              		@ args = 0, pretend = 0, frame = 24
 273              		@ frame_needed = 0, uses_anonymous_args = 0
 111:Src/hci_tl_interface.c ****   uint16_t byte_count;
 274              		.loc 1 111 3 view .LVU67
 112:Src/hci_tl_interface.c ****   uint8_t len = 0;
 275              		.loc 1 112 3 view .LVU68
 113:Src/hci_tl_interface.c ****   uint8_t char_ff = 0xff;
 276              		.loc 1 113 3 view .LVU69
 110:Src/hci_tl_interface.c ****   uint16_t byte_count;
 277              		.loc 1 110 1 is_stmt 0 view .LVU70
 278 0000 70B5     		push	{r4, r5, r6, lr}
 279              	.LCFI5:
 280              		.cfi_def_cfa_offset 16
 281              		.cfi_offset 4, -16
 282              		.cfi_offset 5, -12
 283              		.cfi_offset 6, -8
 284              		.cfi_offset 14, -4
 114:Src/hci_tl_interface.c ****   volatile uint8_t read_char;
 115:Src/hci_tl_interface.c **** 
 116:Src/hci_tl_interface.c ****   uint8_t header_master[HEADER_SIZE] = {0x0b, 0x00, 0x00, 0x00, 0x00};
 285              		.loc 1 116 11 view .LVU71
 286 0002 204B     		ldr	r3, .L23
 110:Src/hci_tl_interface.c ****   uint16_t byte_count;
 287              		.loc 1 110 1 view .LVU72
 288 0004 0646     		mov	r6, r0
 289 0006 0D46     		mov	r5, r1
 290              		.loc 1 116 11 view .LVU73
 291 0008 93E80300 		ldm	r3, {r0, r1}
 292              	.LVL14:
 110:Src/hci_tl_interface.c ****   uint16_t byte_count;
 293              		.loc 1 110 1 view .LVU74
 294 000c 86B0     		sub	sp, sp, #24
 295              	.LCFI6:
 296              		.cfi_def_cfa_offset 40
 113:Src/hci_tl_interface.c ****   volatile uint8_t read_char;
 297              		.loc 1 113 11 view .LVU75
 298 000e FF23     		movs	r3, #255
 299              		.loc 1 116 11 view .LVU76
 300 0010 0290     		str	r0, [sp, #8]
 301 0012 8DF80C10 		strb	r1, [sp, #12]
 117:Src/hci_tl_interface.c ****   uint8_t header_slave[HEADER_SIZE];
 118:Src/hci_tl_interface.c **** 
 119:Src/hci_tl_interface.c ****   /* CS reset */
 120:Src/hci_tl_interface.c ****   HAL_GPIO_WritePin(HCI_TL_SPI_CS_PORT, HCI_TL_SPI_CS_PIN, GPIO_PIN_RESET);
 302              		.loc 1 120 3 view .LVU77
 303 0016 1C48     		ldr	r0, .L23+4
 113:Src/hci_tl_interface.c ****   volatile uint8_t read_char;
 304              		.loc 1 113 11 view .LVU78
 305 0018 8DF80630 		strb	r3, [sp, #6]
 114:Src/hci_tl_interface.c **** 
 306              		.loc 1 114 3 is_stmt 1 view .LVU79
 116:Src/hci_tl_interface.c ****   uint8_t header_slave[HEADER_SIZE];
 307              		.loc 1 116 3 view .LVU80
 117:Src/hci_tl_interface.c ****   uint8_t header_slave[HEADER_SIZE];
ARM GAS  /tmp/cc7GlVmR.s 			page 9


 308              		.loc 1 117 3 view .LVU81
 309              		.loc 1 120 3 view .LVU82
 310 001c 0022     		movs	r2, #0
 311 001e 0221     		movs	r1, #2
 312 0020 FFF7FEFF 		bl	HAL_GPIO_WritePin
 313              	.LVL15:
 121:Src/hci_tl_interface.c **** 
 122:Src/hci_tl_interface.c ****   /* Read the header */  
 123:Src/hci_tl_interface.c ****   BSP_SPI1_SendRecv(header_master, header_slave, HEADER_SIZE);
 314              		.loc 1 123 3 view .LVU83
 315 0024 0522     		movs	r2, #5
 316 0026 04A9     		add	r1, sp, #16
 317 0028 02A8     		add	r0, sp, #8
 318 002a FFF7FEFF 		bl	BSP_SPI1_SendRecv
 319              	.LVL16:
 124:Src/hci_tl_interface.c ****   	
 125:Src/hci_tl_interface.c ****   if(header_slave[0] == 0x02) 
 320              		.loc 1 125 3 view .LVU84
 321              		.loc 1 125 5 is_stmt 0 view .LVU85
 322 002e 9DF81030 		ldrb	r3, [sp, #16]	@ zero_extendqisi2
 323 0032 022B     		cmp	r3, #2
 324 0034 08D0     		beq	.L22
 325 0036 0024     		movs	r4, #0
 326              	.LVL17:
 327              	.L15:
 126:Src/hci_tl_interface.c ****   {
 127:Src/hci_tl_interface.c ****     /* device is ready */
 128:Src/hci_tl_interface.c ****     byte_count = (header_slave[4] << 8)| header_slave[3];
 129:Src/hci_tl_interface.c ****   
 130:Src/hci_tl_interface.c ****     if(byte_count > 0) {
 131:Src/hci_tl_interface.c ****   
 132:Src/hci_tl_interface.c ****       /* avoid to read more data that size of the buffer */
 133:Src/hci_tl_interface.c **** 
 134:Src/hci_tl_interface.c ****       if (byte_count > size){
 135:Src/hci_tl_interface.c ****         byte_count = size;
 136:Src/hci_tl_interface.c ****       }        
 137:Src/hci_tl_interface.c ****   
 138:Src/hci_tl_interface.c ****       for(len = 0; len < byte_count; len++)
 139:Src/hci_tl_interface.c ****       {                                               
 140:Src/hci_tl_interface.c ****         BSP_SPI1_SendRecv(&char_ff, (uint8_t*)&read_char, 1);  
 141:Src/hci_tl_interface.c ****         buffer[len] = read_char;
 142:Src/hci_tl_interface.c ****       }      
 143:Src/hci_tl_interface.c ****     }    
 144:Src/hci_tl_interface.c ****   }
 145:Src/hci_tl_interface.c ****   /* Release CS line */
 146:Src/hci_tl_interface.c ****   HAL_GPIO_WritePin(HCI_TL_SPI_CS_PORT, HCI_TL_SPI_CS_PIN, GPIO_PIN_SET);
 328              		.loc 1 146 3 is_stmt 1 view .LVU86
 329 0038 1348     		ldr	r0, .L23+4
 330 003a 0122     		movs	r2, #1
 331 003c 0221     		movs	r1, #2
 332 003e FFF7FEFF 		bl	HAL_GPIO_WritePin
 333              	.LVL18:
 147:Src/hci_tl_interface.c ****   
 148:Src/hci_tl_interface.c **** #if PRINT_CSV_FORMAT
 149:Src/hci_tl_interface.c ****   if (len > 0) {
 150:Src/hci_tl_interface.c ****     print_csv_time();
 151:Src/hci_tl_interface.c ****     for (int i=0; i<len; i++) {
ARM GAS  /tmp/cc7GlVmR.s 			page 10


 152:Src/hci_tl_interface.c ****       PRINT_CSV(" %02x", buffer[i]);
 153:Src/hci_tl_interface.c ****     }
 154:Src/hci_tl_interface.c ****     PRINT_CSV("\n");
 155:Src/hci_tl_interface.c ****   }
 156:Src/hci_tl_interface.c **** #endif
 157:Src/hci_tl_interface.c ****   
 158:Src/hci_tl_interface.c ****   return len;  
 334              		.loc 1 158 3 view .LVU87
 159:Src/hci_tl_interface.c **** }
 335              		.loc 1 159 1 is_stmt 0 view .LVU88
 336 0042 2046     		mov	r0, r4
 337 0044 06B0     		add	sp, sp, #24
 338              	.LCFI7:
 339              		.cfi_remember_state
 340              		.cfi_def_cfa_offset 16
 341              		@ sp needed
 342 0046 70BD     		pop	{r4, r5, r6, pc}
 343              	.LVL19:
 344              	.L22:
 345              	.LCFI8:
 346              		.cfi_restore_state
 128:Src/hci_tl_interface.c ****   
 347              		.loc 1 128 5 is_stmt 1 view .LVU89
 128:Src/hci_tl_interface.c ****   
 348              		.loc 1 128 31 is_stmt 0 view .LVU90
 349 0048 9DF81440 		ldrb	r4, [sp, #20]	@ zero_extendqisi2
 128:Src/hci_tl_interface.c ****   
 350              		.loc 1 128 54 view .LVU91
 351 004c 9DF81330 		ldrb	r3, [sp, #19]	@ zero_extendqisi2
 352              	.LVL20:
 130:Src/hci_tl_interface.c ****   
 353              		.loc 1 130 5 is_stmt 1 view .LVU92
 130:Src/hci_tl_interface.c ****   
 354              		.loc 1 130 7 is_stmt 0 view .LVU93
 355 0050 53EA0424 		orrs	r4, r3, r4, lsl #8
 356              	.LVL21:
 130:Src/hci_tl_interface.c ****   
 357              		.loc 1 130 7 view .LVU94
 358 0054 F0D0     		beq	.L15
 134:Src/hci_tl_interface.c ****         byte_count = size;
 359              		.loc 1 134 7 is_stmt 1 view .LVU95
 360 0056 AC42     		cmp	r4, r5
 361 0058 28BF     		it	cs
 362 005a 2C46     		movcs	r4, r5
 363              	.LVL22:
 138:Src/hci_tl_interface.c ****       {                                               
 364              		.loc 1 138 7 view .LVU96
 138:Src/hci_tl_interface.c ****       {                                               
 365              		.loc 1 138 20 view .LVU97
 138:Src/hci_tl_interface.c ****       {                                               
 366              		.loc 1 138 7 is_stmt 0 view .LVU98
 367 005c 002C     		cmp	r4, #0
 368 005e EBD0     		beq	.L15
 138:Src/hci_tl_interface.c ****       {                                               
 369              		.loc 1 138 15 view .LVU99
 370 0060 0025     		movs	r5, #0
 371              	.LVL23:
ARM GAS  /tmp/cc7GlVmR.s 			page 11


 372              	.L16:
 140:Src/hci_tl_interface.c ****         buffer[len] = read_char;
 373              		.loc 1 140 9 is_stmt 1 discriminator 3 view .LVU100
 374 0062 0122     		movs	r2, #1
 375 0064 0DF10701 		add	r1, sp, #7
 376 0068 0DF10600 		add	r0, sp, #6
 377 006c FFF7FEFF 		bl	BSP_SPI1_SendRecv
 378              	.LVL24:
 141:Src/hci_tl_interface.c ****       }      
 379              		.loc 1 141 9 discriminator 3 view .LVU101
 141:Src/hci_tl_interface.c ****       }      
 380              		.loc 1 141 21 is_stmt 0 discriminator 3 view .LVU102
 381 0070 9DF80720 		ldrb	r2, [sp, #7]	@ zero_extendqisi2
 382 0074 7255     		strb	r2, [r6, r5]
 138:Src/hci_tl_interface.c ****       {                                               
 383              		.loc 1 138 38 is_stmt 1 discriminator 3 view .LVU103
 138:Src/hci_tl_interface.c ****       {                                               
 384              		.loc 1 138 41 is_stmt 0 discriminator 3 view .LVU104
 385 0076 6B1C     		adds	r3, r5, #1
 138:Src/hci_tl_interface.c ****       {                                               
 386              		.loc 1 138 7 discriminator 3 view .LVU105
 387 0078 DAB2     		uxtb	r2, r3
 388 007a 9442     		cmp	r4, r2
 138:Src/hci_tl_interface.c ****       {                                               
 389              		.loc 1 138 41 discriminator 3 view .LVU106
 390 007c 1546     		mov	r5, r2
 391              	.LVL25:
 138:Src/hci_tl_interface.c ****       {                                               
 392              		.loc 1 138 20 is_stmt 1 discriminator 3 view .LVU107
 138:Src/hci_tl_interface.c ****       {                                               
 393              		.loc 1 138 7 is_stmt 0 discriminator 3 view .LVU108
 394 007e F0D8     		bhi	.L16
 395 0080 1446     		mov	r4, r2
 396              	.LVL26:
 138:Src/hci_tl_interface.c ****       {                                               
 397              		.loc 1 138 7 discriminator 3 view .LVU109
 398 0082 D9E7     		b	.L15
 399              	.L24:
 400              		.align	2
 401              	.L23:
 402 0084 00000000 		.word	.LANCHOR0
 403 0088 00000240 		.word	1073872896
 404              		.cfi_endproc
 405              	.LFE133:
 407              		.section	.text.HCI_TL_SPI_Send,"ax",%progbits
 408              		.align	1
 409              		.p2align 2,,3
 410              		.global	HCI_TL_SPI_Send
 411              		.syntax unified
 412              		.thumb
 413              		.thumb_func
 414              		.fpu fpv4-sp-d16
 416              	HCI_TL_SPI_Send:
 417              	.LVL27:
 418              	.LFB134:
 160:Src/hci_tl_interface.c **** 
 161:Src/hci_tl_interface.c **** /**
ARM GAS  /tmp/cc7GlVmR.s 			page 12


 162:Src/hci_tl_interface.c ****  * @brief  Writes data from local buffer to SPI.
 163:Src/hci_tl_interface.c ****  *
 164:Src/hci_tl_interface.c ****  * @param  buffer : data buffer to be written
 165:Src/hci_tl_interface.c ****  * @param  size   : size of first data buffer to be written
 166:Src/hci_tl_interface.c ****  * @retval int32_t: Number of read bytes
 167:Src/hci_tl_interface.c ****  */
 168:Src/hci_tl_interface.c **** int32_t HCI_TL_SPI_Send(uint8_t* buffer, uint16_t size)
 169:Src/hci_tl_interface.c **** {  
 419              		.loc 1 169 1 is_stmt 1 view -0
 420              		.cfi_startproc
 421              		@ args = 0, pretend = 0, frame = 16
 422              		@ frame_needed = 0, uses_anonymous_args = 0
 170:Src/hci_tl_interface.c ****   int32_t result;  
 423              		.loc 1 170 3 view .LVU111
 171:Src/hci_tl_interface.c ****   
 172:Src/hci_tl_interface.c ****   uint8_t header_master[HEADER_SIZE] = {0x0a, 0x00, 0x00, 0x00, 0x00};
 424              		.loc 1 172 3 view .LVU112
 169:Src/hci_tl_interface.c ****   int32_t result;  
 425              		.loc 1 169 1 is_stmt 0 view .LVU113
 426 0000 2DE9F041 		push	{r4, r5, r6, r7, r8, lr}
 427              	.LCFI9:
 428              		.cfi_def_cfa_offset 24
 429              		.cfi_offset 4, -24
 430              		.cfi_offset 5, -20
 431              		.cfi_offset 6, -16
 432              		.cfi_offset 7, -12
 433              		.cfi_offset 8, -8
 434              		.cfi_offset 14, -4
 435              		.loc 1 172 11 view .LVU114
 436 0004 214B     		ldr	r3, .L32
 173:Src/hci_tl_interface.c ****   uint8_t header_slave[HEADER_SIZE];
 174:Src/hci_tl_interface.c ****   
 175:Src/hci_tl_interface.c ****   static uint8_t read_char_buf[MAX_BUFFER_SIZE];
 176:Src/hci_tl_interface.c ****   uint32_t tickstart = HAL_GetTick();
 177:Src/hci_tl_interface.c ****   
 178:Src/hci_tl_interface.c ****   do
 179:Src/hci_tl_interface.c ****   {
 180:Src/hci_tl_interface.c ****     result = 0;
 181:Src/hci_tl_interface.c ****     
 182:Src/hci_tl_interface.c ****     /* CS reset */
 183:Src/hci_tl_interface.c ****     HAL_GPIO_WritePin(HCI_TL_SPI_CS_PORT, HCI_TL_SPI_CS_PIN, GPIO_PIN_RESET);
 437              		.loc 1 183 5 view .LVU115
 438 0006 224D     		ldr	r5, .L32+4
 169:Src/hci_tl_interface.c ****   int32_t result;  
 439              		.loc 1 169 1 view .LVU116
 440 0008 8046     		mov	r8, r0
 441 000a 0F46     		mov	r7, r1
 172:Src/hci_tl_interface.c ****   uint8_t header_slave[HEADER_SIZE];
 442              		.loc 1 172 11 view .LVU117
 443 000c 93E80300 		ldm	r3, {r0, r1}
 444              	.LVL28:
 169:Src/hci_tl_interface.c ****   int32_t result;  
 445              		.loc 1 169 1 view .LVU118
 446 0010 84B0     		sub	sp, sp, #16
 447              	.LCFI10:
 448              		.cfi_def_cfa_offset 40
 172:Src/hci_tl_interface.c ****   uint8_t header_slave[HEADER_SIZE];
ARM GAS  /tmp/cc7GlVmR.s 			page 13


 449              		.loc 1 172 11 view .LVU119
 450 0012 0090     		str	r0, [sp]
 451 0014 8DF80410 		strb	r1, [sp, #4]
 173:Src/hci_tl_interface.c ****   uint8_t header_slave[HEADER_SIZE];
 452              		.loc 1 173 3 is_stmt 1 view .LVU120
 175:Src/hci_tl_interface.c ****   uint32_t tickstart = HAL_GetTick();
 453              		.loc 1 175 3 view .LVU121
 176:Src/hci_tl_interface.c ****   
 454              		.loc 1 176 3 view .LVU122
 176:Src/hci_tl_interface.c ****   
 455              		.loc 1 176 24 is_stmt 0 view .LVU123
 456 0018 FFF7FEFF 		bl	HAL_GetTick
 457              	.LVL29:
 458 001c 0646     		mov	r6, r0
 459              	.LVL30:
 176:Src/hci_tl_interface.c ****   
 460              		.loc 1 176 24 view .LVU124
 461 001e 06E0     		b	.L29
 462              	.LVL31:
 463              	.L26:
 184:Src/hci_tl_interface.c ****     
 185:Src/hci_tl_interface.c ****     /* Read header */  
 186:Src/hci_tl_interface.c ****     BSP_SPI1_SendRecv(header_master, header_slave, HEADER_SIZE);
 187:Src/hci_tl_interface.c ****     
 188:Src/hci_tl_interface.c ****     if(header_slave[0] == 0x02) 
 189:Src/hci_tl_interface.c ****     {
 190:Src/hci_tl_interface.c ****       /* SPI is ready */
 191:Src/hci_tl_interface.c ****       if(header_slave[1] >= size) 
 192:Src/hci_tl_interface.c ****       {
 193:Src/hci_tl_interface.c ****         BSP_SPI1_SendRecv(buffer, read_char_buf, size);
 194:Src/hci_tl_interface.c ****       } 
 195:Src/hci_tl_interface.c ****       else 
 196:Src/hci_tl_interface.c ****       {
 197:Src/hci_tl_interface.c ****         /* Buffer is too small */
 198:Src/hci_tl_interface.c ****         result = -2;
 199:Src/hci_tl_interface.c ****       }
 200:Src/hci_tl_interface.c ****     } else {
 201:Src/hci_tl_interface.c ****       /* SPI is not ready */
 202:Src/hci_tl_interface.c ****       result = -1;
 203:Src/hci_tl_interface.c ****     }
 204:Src/hci_tl_interface.c ****     
 205:Src/hci_tl_interface.c ****     /* Release CS line */
 206:Src/hci_tl_interface.c ****     HAL_GPIO_WritePin(HCI_TL_SPI_CS_PORT, HCI_TL_SPI_CS_PIN, GPIO_PIN_SET);
 464              		.loc 1 206 5 view .LVU125
 465 0020 FFF7FEFF 		bl	HAL_GPIO_WritePin
 466              	.LVL32:
 207:Src/hci_tl_interface.c ****     
 208:Src/hci_tl_interface.c ****     if((HAL_GetTick() - tickstart) > TIMEOUT_DURATION)
 467              		.loc 1 208 5 is_stmt 1 view .LVU126
 468              		.loc 1 208 9 is_stmt 0 view .LVU127
 469 0024 FFF7FEFF 		bl	HAL_GetTick
 470              	.LVL33:
 471              		.loc 1 208 23 view .LVU128
 472 0028 831B     		subs	r3, r0, r6
 473              		.loc 1 208 7 view .LVU129
 474 002a 0F2B     		cmp	r3, #15
 475 002c 24D8     		bhi	.L28
ARM GAS  /tmp/cc7GlVmR.s 			page 14


 476              	.L29:
 178:Src/hci_tl_interface.c ****   {
 477              		.loc 1 178 3 is_stmt 1 view .LVU130
 180:Src/hci_tl_interface.c ****     
 478              		.loc 1 180 5 view .LVU131
 479              	.LVL34:
 183:Src/hci_tl_interface.c ****     
 480              		.loc 1 183 5 view .LVU132
 481 002e 0022     		movs	r2, #0
 482 0030 0221     		movs	r1, #2
 483 0032 2846     		mov	r0, r5
 484 0034 FFF7FEFF 		bl	HAL_GPIO_WritePin
 485              	.LVL35:
 186:Src/hci_tl_interface.c ****     
 486              		.loc 1 186 5 view .LVU133
 487 0038 0522     		movs	r2, #5
 488 003a 02A9     		add	r1, sp, #8
 489 003c 6846     		mov	r0, sp
 490 003e FFF7FEFF 		bl	BSP_SPI1_SendRecv
 491              	.LVL36:
 188:Src/hci_tl_interface.c ****     {
 492              		.loc 1 188 5 view .LVU134
 206:Src/hci_tl_interface.c ****     
 493              		.loc 1 206 5 view .LVU135
 188:Src/hci_tl_interface.c ****     {
 494              		.loc 1 188 7 is_stmt 0 view .LVU136
 495 0042 9DF80840 		ldrb	r4, [sp, #8]	@ zero_extendqisi2
 206:Src/hci_tl_interface.c ****     
 496              		.loc 1 206 5 view .LVU137
 497 0046 0221     		movs	r1, #2
 188:Src/hci_tl_interface.c ****     {
 498              		.loc 1 188 7 view .LVU138
 499 0048 8C42     		cmp	r4, r1
 206:Src/hci_tl_interface.c ****     
 500              		.loc 1 206 5 view .LVU139
 501 004a 4FF00102 		mov	r2, #1
 502 004e 2846     		mov	r0, r5
 188:Src/hci_tl_interface.c ****     {
 503              		.loc 1 188 7 view .LVU140
 504 0050 E6D1     		bne	.L26
 191:Src/hci_tl_interface.c ****       {
 505              		.loc 1 191 7 is_stmt 1 view .LVU141
 191:Src/hci_tl_interface.c ****       {
 506              		.loc 1 191 9 is_stmt 0 view .LVU142
 507 0052 9DF80930 		ldrb	r3, [sp, #9]	@ zero_extendqisi2
 508 0056 BB42     		cmp	r3, r7
 509 0058 E2D3     		bcc	.L26
 193:Src/hci_tl_interface.c ****       } 
 510              		.loc 1 193 9 is_stmt 1 view .LVU143
 511 005a 0E49     		ldr	r1, .L32+8
 512 005c 3A46     		mov	r2, r7
 513 005e 4046     		mov	r0, r8
 514 0060 FFF7FEFF 		bl	BSP_SPI1_SendRecv
 515              	.LVL37:
 206:Src/hci_tl_interface.c ****     
 516              		.loc 1 206 5 view .LVU144
 517 0064 0A48     		ldr	r0, .L32+4
ARM GAS  /tmp/cc7GlVmR.s 			page 15


 518 0066 2146     		mov	r1, r4
 519 0068 0122     		movs	r2, #1
 520 006a FFF7FEFF 		bl	HAL_GPIO_WritePin
 521              	.LVL38:
 522              		.loc 1 208 5 view .LVU145
 523              		.loc 1 208 9 is_stmt 0 view .LVU146
 524 006e FFF7FEFF 		bl	HAL_GetTick
 525              	.LVL39:
 526              		.loc 1 208 23 view .LVU147
 527 0072 801B     		subs	r0, r0, r6
 528              		.loc 1 208 7 view .LVU148
 529 0074 0F28     		cmp	r0, #15
 530 0076 04D9     		bls	.L30
 531              	.LVL40:
 532              	.L28:
 209:Src/hci_tl_interface.c ****     {
 210:Src/hci_tl_interface.c ****       result = -3;
 533              		.loc 1 210 14 view .LVU149
 534 0078 6FF00200 		mvn	r0, #2
 211:Src/hci_tl_interface.c ****       break;
 212:Src/hci_tl_interface.c ****     }
 213:Src/hci_tl_interface.c ****   } while(result < 0);
 214:Src/hci_tl_interface.c ****   
 215:Src/hci_tl_interface.c ****   return result;
 216:Src/hci_tl_interface.c **** }
 535              		.loc 1 216 1 view .LVU150
 536 007c 04B0     		add	sp, sp, #16
 537              	.LCFI11:
 538              		.cfi_remember_state
 539              		.cfi_def_cfa_offset 24
 540              		@ sp needed
 541 007e BDE8F081 		pop	{r4, r5, r6, r7, r8, pc}
 542              	.LVL41:
 543              	.L30:
 544              	.LCFI12:
 545              		.cfi_restore_state
 208:Src/hci_tl_interface.c ****     {
 546              		.loc 1 208 7 view .LVU151
 547 0082 0020     		movs	r0, #0
 215:Src/hci_tl_interface.c **** }
 548              		.loc 1 215 3 is_stmt 1 view .LVU152
 549              		.loc 1 216 1 is_stmt 0 view .LVU153
 550 0084 04B0     		add	sp, sp, #16
 551              	.LCFI13:
 552              		.cfi_def_cfa_offset 24
 553              		@ sp needed
 554 0086 BDE8F081 		pop	{r4, r5, r6, r7, r8, pc}
 555              	.LVL42:
 556              	.L33:
 557              		.loc 1 216 1 view .LVU154
 558 008a 00BF     		.align	2
 559              	.L32:
 560 008c 08000000 		.word	.LANCHOR0+8
 561 0090 00000240 		.word	1073872896
 562 0094 00000000 		.word	.LANCHOR1
 563              		.cfi_endproc
 564              	.LFE134:
ARM GAS  /tmp/cc7GlVmR.s 			page 16


 566              		.section	.text.hci_tl_lowlevel_isr,"ax",%progbits
 567              		.align	1
 568              		.p2align 2,,3
 569              		.global	hci_tl_lowlevel_isr
 570              		.syntax unified
 571              		.thumb
 572              		.thumb_func
 573              		.fpu fpv4-sp-d16
 575              	hci_tl_lowlevel_isr:
 576              	.LFB137:
 217:Src/hci_tl_interface.c **** 
 218:Src/hci_tl_interface.c **** /**
 219:Src/hci_tl_interface.c ****  * @brief  Reports if the BlueNRG has data for the host micro.
 220:Src/hci_tl_interface.c ****  *
 221:Src/hci_tl_interface.c ****  * @param  None
 222:Src/hci_tl_interface.c ****  * @retval int32_t: 1 if data are present, 0 otherwise
 223:Src/hci_tl_interface.c ****  */
 224:Src/hci_tl_interface.c **** static int32_t IsDataAvailable(void)
 225:Src/hci_tl_interface.c **** {
 226:Src/hci_tl_interface.c ****   return (HAL_GPIO_ReadPin(HCI_TL_SPI_EXTI_PORT, HCI_TL_SPI_EXTI_PIN) == GPIO_PIN_SET);
 227:Src/hci_tl_interface.c **** } 
 228:Src/hci_tl_interface.c **** 
 229:Src/hci_tl_interface.c **** /***************************** hci_tl_interface main functions *****************************/
 230:Src/hci_tl_interface.c **** /**
 231:Src/hci_tl_interface.c ****  * @brief  Register hci_tl_interface IO bus services
 232:Src/hci_tl_interface.c ****  *
 233:Src/hci_tl_interface.c ****  * @param  None
 234:Src/hci_tl_interface.c ****  * @retval None
 235:Src/hci_tl_interface.c ****  */ 
 236:Src/hci_tl_interface.c **** void hci_tl_lowlevel_init(void)
 237:Src/hci_tl_interface.c **** {
 238:Src/hci_tl_interface.c ****   /* USER CODE BEGIN hci_tl_lowlevel_init 1 */
 239:Src/hci_tl_interface.c ****   
 240:Src/hci_tl_interface.c ****   /* USER CODE END hci_tl_lowlevel_init 1 */
 241:Src/hci_tl_interface.c ****   tHciIO fops;  
 242:Src/hci_tl_interface.c ****   
 243:Src/hci_tl_interface.c ****   /* Register IO bus services */
 244:Src/hci_tl_interface.c ****   fops.Init    = HCI_TL_SPI_Init;
 245:Src/hci_tl_interface.c ****   fops.DeInit  = HCI_TL_SPI_DeInit;
 246:Src/hci_tl_interface.c ****   fops.Send    = HCI_TL_SPI_Send;
 247:Src/hci_tl_interface.c ****   fops.Receive = HCI_TL_SPI_Receive;
 248:Src/hci_tl_interface.c ****   fops.Reset   = HCI_TL_SPI_Reset;
 249:Src/hci_tl_interface.c ****   fops.GetTick = BSP_GetTick;
 250:Src/hci_tl_interface.c ****   
 251:Src/hci_tl_interface.c ****   hci_register_io_bus (&fops);
 252:Src/hci_tl_interface.c ****   
 253:Src/hci_tl_interface.c ****   /* USER CODE BEGIN hci_tl_lowlevel_init 2 */
 254:Src/hci_tl_interface.c ****   
 255:Src/hci_tl_interface.c ****   /* USER CODE END hci_tl_lowlevel_init 2 */
 256:Src/hci_tl_interface.c ****   
 257:Src/hci_tl_interface.c ****   /* Register event irq handler */
 258:Src/hci_tl_interface.c ****   HAL_EXTI_GetHandle(&hexti0, EXTI_LINE_0);
 259:Src/hci_tl_interface.c ****   HAL_EXTI_RegisterCallback(&hexti0, HAL_EXTI_COMMON_CB_ID, hci_tl_lowlevel_isr);
 260:Src/hci_tl_interface.c ****   HAL_NVIC_SetPriority(EXTI0_IRQn, 0, 0);
 261:Src/hci_tl_interface.c ****   HAL_NVIC_EnableIRQ(EXTI0_IRQn);
 262:Src/hci_tl_interface.c **** 
 263:Src/hci_tl_interface.c ****   /* USER CODE BEGIN hci_tl_lowlevel_init 3 */
ARM GAS  /tmp/cc7GlVmR.s 			page 17


 264:Src/hci_tl_interface.c ****   
 265:Src/hci_tl_interface.c ****   /* USER CODE END hci_tl_lowlevel_init 3 */
 266:Src/hci_tl_interface.c **** 
 267:Src/hci_tl_interface.c **** }
 268:Src/hci_tl_interface.c **** 
 269:Src/hci_tl_interface.c **** /**
 270:Src/hci_tl_interface.c ****   * @brief HCI Transport Layer Low Level Interrupt Service Routine
 271:Src/hci_tl_interface.c ****   *
 272:Src/hci_tl_interface.c ****   * @param  None
 273:Src/hci_tl_interface.c ****   * @retval None
 274:Src/hci_tl_interface.c ****   */
 275:Src/hci_tl_interface.c **** void hci_tl_lowlevel_isr(void)
 276:Src/hci_tl_interface.c **** {
 577              		.loc 1 276 1 is_stmt 1 view -0
 578              		.cfi_startproc
 579              		@ args = 0, pretend = 0, frame = 0
 580              		@ frame_needed = 0, uses_anonymous_args = 0
 277:Src/hci_tl_interface.c ****   /* Call hci_notify_asynch_evt() */
 278:Src/hci_tl_interface.c ****   while(IsDataAvailable())
 581              		.loc 1 278 3 view .LVU156
 276:Src/hci_tl_interface.c ****   /* Call hci_notify_asynch_evt() */
 582              		.loc 1 276 1 is_stmt 0 view .LVU157
 583 0000 10B5     		push	{r4, lr}
 584              	.LCFI14:
 585              		.cfi_def_cfa_offset 8
 586              		.cfi_offset 4, -8
 587              		.cfi_offset 14, -4
 588              	.LBB10:
 589              	.LBB11:
 226:Src/hci_tl_interface.c **** } 
 590              		.loc 1 226 11 view .LVU158
 591 0002 074C     		ldr	r4, .L41
 592              	.LBE11:
 593              	.LBE10:
 594              		.loc 1 278 8 view .LVU159
 595 0004 02E0     		b	.L35
 596              	.L36:
 279:Src/hci_tl_interface.c ****   {        
 280:Src/hci_tl_interface.c ****     if (hci_notify_asynch_evt(NULL))
 597              		.loc 1 280 9 view .LVU160
 598 0006 FFF7FEFF 		bl	hci_notify_asynch_evt
 599              	.LVL43:
 600              		.loc 1 280 8 view .LVU161
 601 000a 40B9     		cbnz	r0, .L34
 602              	.L35:
 278:Src/hci_tl_interface.c ****   {        
 603              		.loc 1 278 8 is_stmt 1 view .LVU162
 604              	.LBB14:
 605              	.LBI10:
 224:Src/hci_tl_interface.c **** {
 606              		.loc 1 224 16 view .LVU163
 607              	.LBB12:
 226:Src/hci_tl_interface.c **** } 
 608              		.loc 1 226 3 view .LVU164
 226:Src/hci_tl_interface.c **** } 
 609              		.loc 1 226 11 is_stmt 0 view .LVU165
 610 000c 0121     		movs	r1, #1
ARM GAS  /tmp/cc7GlVmR.s 			page 18


 611 000e 2046     		mov	r0, r4
 612 0010 FFF7FEFF 		bl	HAL_GPIO_ReadPin
 613              	.LVL44:
 614              	.LBE12:
 615              	.LBE14:
 616              		.loc 1 280 5 is_stmt 1 view .LVU166
 617              	.LBB15:
 618              	.LBB13:
 226:Src/hci_tl_interface.c **** } 
 619              		.loc 1 226 11 is_stmt 0 view .LVU167
 620 0014 0346     		mov	r3, r0
 621              	.LBE13:
 622              	.LBE15:
 278:Src/hci_tl_interface.c ****   {        
 623              		.loc 1 278 8 view .LVU168
 624 0016 012B     		cmp	r3, #1
 625              		.loc 1 280 9 view .LVU169
 626 0018 4FF00000 		mov	r0, #0
 278:Src/hci_tl_interface.c ****   {        
 627              		.loc 1 278 8 view .LVU170
 628 001c F3D0     		beq	.L36
 629              	.L34:
 281:Src/hci_tl_interface.c ****     {
 282:Src/hci_tl_interface.c ****       return;
 283:Src/hci_tl_interface.c ****     }
 284:Src/hci_tl_interface.c ****   }
 285:Src/hci_tl_interface.c **** 
 286:Src/hci_tl_interface.c ****   /* USER CODE BEGIN hci_tl_lowlevel_isr */
 287:Src/hci_tl_interface.c **** 
 288:Src/hci_tl_interface.c ****   /* USER CODE END hci_tl_lowlevel_isr */ 
 289:Src/hci_tl_interface.c **** }
 630              		.loc 1 289 1 view .LVU171
 631 001e 10BD     		pop	{r4, pc}
 632              	.L42:
 633              		.align	2
 634              	.L41:
 635 0020 00000240 		.word	1073872896
 636              		.cfi_endproc
 637              	.LFE137:
 639              		.section	.text.hci_tl_lowlevel_init,"ax",%progbits
 640              		.align	1
 641              		.p2align 2,,3
 642              		.global	hci_tl_lowlevel_init
 643              		.syntax unified
 644              		.thumb
 645              		.thumb_func
 646              		.fpu fpv4-sp-d16
 648              	hci_tl_lowlevel_init:
 649              	.LFB136:
 237:Src/hci_tl_interface.c ****   /* USER CODE BEGIN hci_tl_lowlevel_init 1 */
 650              		.loc 1 237 1 is_stmt 1 view -0
 651              		.cfi_startproc
 652              		@ args = 0, pretend = 0, frame = 32
 653              		@ frame_needed = 0, uses_anonymous_args = 0
 241:Src/hci_tl_interface.c ****   
 654              		.loc 1 241 3 view .LVU173
 244:Src/hci_tl_interface.c ****   fops.DeInit  = HCI_TL_SPI_DeInit;
ARM GAS  /tmp/cc7GlVmR.s 			page 19


 655              		.loc 1 244 3 view .LVU174
 237:Src/hci_tl_interface.c ****   /* USER CODE BEGIN hci_tl_lowlevel_init 1 */
 656              		.loc 1 237 1 is_stmt 0 view .LVU175
 657 0000 30B5     		push	{r4, r5, lr}
 658              	.LCFI15:
 659              		.cfi_def_cfa_offset 12
 660              		.cfi_offset 4, -12
 661              		.cfi_offset 5, -8
 662              		.cfi_offset 14, -4
 663 0002 89B0     		sub	sp, sp, #36
 664              	.LCFI16:
 665              		.cfi_def_cfa_offset 48
 258:Src/hci_tl_interface.c ****   HAL_EXTI_RegisterCallback(&hexti0, HAL_EXTI_COMMON_CB_ID, hci_tl_lowlevel_isr);
 666              		.loc 1 258 3 view .LVU176
 667 0004 114C     		ldr	r4, .L45
 247:Src/hci_tl_interface.c ****   fops.Reset   = HCI_TL_SPI_Reset;
 668              		.loc 1 247 16 view .LVU177
 669 0006 1249     		ldr	r1, .L45+4
 244:Src/hci_tl_interface.c ****   fops.DeInit  = HCI_TL_SPI_DeInit;
 670              		.loc 1 244 16 view .LVU178
 671 0008 124B     		ldr	r3, .L45+8
 245:Src/hci_tl_interface.c ****   fops.Send    = HCI_TL_SPI_Send;
 672              		.loc 1 245 16 view .LVU179
 673 000a 1348     		ldr	r0, .L45+12
 246:Src/hci_tl_interface.c ****   fops.Receive = HCI_TL_SPI_Receive;
 674              		.loc 1 246 16 view .LVU180
 675 000c 134D     		ldr	r5, .L45+16
 248:Src/hci_tl_interface.c ****   fops.GetTick = BSP_GetTick;
 676              		.loc 1 248 16 view .LVU181
 677 000e 144A     		ldr	r2, .L45+20
 244:Src/hci_tl_interface.c ****   fops.DeInit  = HCI_TL_SPI_DeInit;
 678              		.loc 1 244 16 view .LVU182
 679 0010 0193     		str	r3, [sp, #4]
 245:Src/hci_tl_interface.c ****   fops.Send    = HCI_TL_SPI_Send;
 680              		.loc 1 245 3 is_stmt 1 view .LVU183
 245:Src/hci_tl_interface.c ****   fops.Send    = HCI_TL_SPI_Send;
 681              		.loc 1 245 16 is_stmt 0 view .LVU184
 682 0012 0290     		str	r0, [sp, #8]
 246:Src/hci_tl_interface.c ****   fops.Receive = HCI_TL_SPI_Receive;
 683              		.loc 1 246 3 is_stmt 1 view .LVU185
 249:Src/hci_tl_interface.c ****   
 684              		.loc 1 249 16 is_stmt 0 view .LVU186
 685 0014 134B     		ldr	r3, .L45+24
 686 0016 0793     		str	r3, [sp, #28]
 251:Src/hci_tl_interface.c ****   
 687              		.loc 1 251 3 view .LVU187
 688 0018 01A8     		add	r0, sp, #4
 248:Src/hci_tl_interface.c ****   fops.GetTick = BSP_GetTick;
 689              		.loc 1 248 16 view .LVU188
 690 001a 0392     		str	r2, [sp, #12]
 247:Src/hci_tl_interface.c ****   fops.Reset   = HCI_TL_SPI_Reset;
 691              		.loc 1 247 16 view .LVU189
 692 001c CDE90415 		strd	r1, r5, [sp, #16]
 248:Src/hci_tl_interface.c ****   fops.GetTick = BSP_GetTick;
 693              		.loc 1 248 3 is_stmt 1 view .LVU190
 249:Src/hci_tl_interface.c ****   
 694              		.loc 1 249 3 view .LVU191
ARM GAS  /tmp/cc7GlVmR.s 			page 20


 251:Src/hci_tl_interface.c ****   
 695              		.loc 1 251 3 view .LVU192
 696 0020 FFF7FEFF 		bl	hci_register_io_bus
 697              	.LVL45:
 258:Src/hci_tl_interface.c ****   HAL_EXTI_RegisterCallback(&hexti0, HAL_EXTI_COMMON_CB_ID, hci_tl_lowlevel_isr);
 698              		.loc 1 258 3 view .LVU193
 699 0024 2046     		mov	r0, r4
 700 0026 4FF0C061 		mov	r1, #100663296
 701 002a FFF7FEFF 		bl	HAL_EXTI_GetHandle
 702              	.LVL46:
 259:Src/hci_tl_interface.c ****   HAL_NVIC_SetPriority(EXTI0_IRQn, 0, 0);
 703              		.loc 1 259 3 view .LVU194
 704 002e 0E4A     		ldr	r2, .L45+28
 705 0030 2046     		mov	r0, r4
 706 0032 0021     		movs	r1, #0
 707 0034 FFF7FEFF 		bl	HAL_EXTI_RegisterCallback
 708              	.LVL47:
 260:Src/hci_tl_interface.c ****   HAL_NVIC_EnableIRQ(EXTI0_IRQn);
 709              		.loc 1 260 3 view .LVU195
 710 0038 0022     		movs	r2, #0
 711 003a 1146     		mov	r1, r2
 712 003c 0620     		movs	r0, #6
 713 003e FFF7FEFF 		bl	HAL_NVIC_SetPriority
 714              	.LVL48:
 261:Src/hci_tl_interface.c **** 
 715              		.loc 1 261 3 view .LVU196
 716 0042 0620     		movs	r0, #6
 717 0044 FFF7FEFF 		bl	HAL_NVIC_EnableIRQ
 718              	.LVL49:
 267:Src/hci_tl_interface.c **** 
 719              		.loc 1 267 1 is_stmt 0 view .LVU197
 720 0048 09B0     		add	sp, sp, #36
 721              	.LCFI17:
 722              		.cfi_def_cfa_offset 12
 723              		@ sp needed
 724 004a 30BD     		pop	{r4, r5, pc}
 725              	.L46:
 726              		.align	2
 727              	.L45:
 728 004c 00000000 		.word	hexti0
 729 0050 00000000 		.word	HCI_TL_SPI_Receive
 730 0054 00000000 		.word	HCI_TL_SPI_Init
 731 0058 00000000 		.word	HCI_TL_SPI_DeInit
 732 005c 00000000 		.word	HCI_TL_SPI_Send
 733 0060 00000000 		.word	HCI_TL_SPI_Reset
 734 0064 00000000 		.word	BSP_GetTick
 735 0068 00000000 		.word	hci_tl_lowlevel_isr
 736              		.cfi_endproc
 737              	.LFE136:
 739              		.comm	hexti0,8,4
 740              		.section	.rodata
 741              		.align	2
 742              		.set	.LANCHOR0,. + 0
 743              	.LC0:
 744 0000 0B000000 		.ascii	"\013\000\000\000\000"
 744      00
 745 0005 000000   		.space	3
ARM GAS  /tmp/cc7GlVmR.s 			page 21


 746              	.LC1:
 747 0008 0A000000 		.ascii	"\012\000\000\000\000"
 747      00
 748              		.section	.bss.read_char_buf.8847,"aw",%nobits
 749              		.align	2
 750              		.set	.LANCHOR1,. + 0
 753              	read_char_buf.8847:
 754 0000 00000000 		.space	255
 754      00000000 
 754      00000000 
 754      00000000 
 754      00000000 
 755              		.text
 756              	.Letext0:
 757              		.file 2 "/usr/lib/gcc/arm-none-eabi/9.2.1/include/stdint.h"
 758              		.file 3 "Drivers/CMSIS/Include/core_cm4.h"
 759              		.file 4 "Drivers/CMSIS/Device/ST/STM32F4xx/Include/system_stm32f4xx.h"
 760              		.file 5 "Drivers/CMSIS/Device/ST/STM32F4xx/Include/stm32f446xx.h"
 761              		.file 6 "Drivers/STM32F4xx_HAL_Driver/Inc/stm32f4xx_hal_def.h"
 762              		.file 7 "Drivers/STM32F4xx_HAL_Driver/Inc/stm32f4xx_hal_exti.h"
 763              		.file 8 "Drivers/STM32F4xx_HAL_Driver/Inc/stm32f4xx_hal_gpio.h"
 764              		.file 9 "Drivers/STM32F4xx_HAL_Driver/Inc/stm32f4xx_hal_dma.h"
 765              		.file 10 "Drivers/STM32F4xx_HAL_Driver/Inc/stm32f4xx_hal_spi.h"
 766              		.file 11 "Drivers/STM32F4xx_HAL_Driver/Inc/stm32f4xx_hal.h"
 767              		.file 12 "Inc/stm32f4xx_nucleo_bus.h"
 768              		.file 13 "Inc/hci_tl_interface.h"
 769              		.file 14 "/usr/lib/gcc/arm-none-eabi/9.2.1/include/stddef.h"
 770              		.file 15 "/usr/include/newlib/sys/_types.h"
 771              		.file 16 "/usr/include/newlib/sys/reent.h"
 772              		.file 17 "/usr/include/newlib/sys/lock.h"
 773              		.file 18 "Middlewares/ST/BlueNRG-MS/hci/hci_tl_patterns/Basic/hci_tl.h"
 774              		.file 19 "Drivers/STM32F4xx_HAL_Driver/Inc/stm32f4xx_hal_cortex.h"
ARM GAS  /tmp/cc7GlVmR.s 			page 22

