ARM GAS  /tmp/ccCJ9vpL.s 			page 1


   1              		.cpu cortex-m4
   2              		.eabi_attribute 27, 1
   3              		.eabi_attribute 28, 1
   4              		.eabi_attribute 20, 1
   5              		.eabi_attribute 21, 1
   6              		.eabi_attribute 23, 3
   7              		.eabi_attribute 24, 1
   8              		.eabi_attribute 25, 1
   9              		.eabi_attribute 26, 1
  10              		.eabi_attribute 30, 2
  11              		.eabi_attribute 34, 1
  12              		.eabi_attribute 18, 4
  13              		.file	"hci_le.c"
  14              		.text
  15              	.Ltext0:
  16              		.cfi_sections	.debug_frame
  17              		.section	.text.hci_reset,"ax",%progbits
  18              		.align	1
  19              		.p2align 2,,3
  20              		.global	hci_reset
  21              		.arch armv7e-m
  22              		.syntax unified
  23              		.thumb
  24              		.thumb_func
  25              		.fpu fpv4-sp-d16
  27              	hci_reset:
  28              	.LFB130:
  29              		.file 1 "Middlewares/ST/BlueNRG-MS/hci/hci_le.c"
   1:Middlewares/ST/BlueNRG-MS/hci/hci_le.c **** /**
   2:Middlewares/ST/BlueNRG-MS/hci/hci_le.c ****   ******************************************************************************
   3:Middlewares/ST/BlueNRG-MS/hci/hci_le.c ****   * @file    hci_le.c 
   4:Middlewares/ST/BlueNRG-MS/hci/hci_le.c ****   * @author  AMG RF  Application Team
   5:Middlewares/ST/BlueNRG-MS/hci/hci_le.c ****   * @brief   Function for managing HCI interface.
   6:Middlewares/ST/BlueNRG-MS/hci/hci_le.c ****   ******************************************************************************
   7:Middlewares/ST/BlueNRG-MS/hci/hci_le.c ****   *
   8:Middlewares/ST/BlueNRG-MS/hci/hci_le.c ****   *
   9:Middlewares/ST/BlueNRG-MS/hci/hci_le.c ****   * THE PRESENT FIRMWARE WHICH IS FOR GUIDANCE ONLY AIMS AT PROVIDING CUSTOMERS
  10:Middlewares/ST/BlueNRG-MS/hci/hci_le.c ****   * WITH CODING INFORMATION REGARDING THEIR PRODUCTS IN ORDER FOR THEM TO SAVE
  11:Middlewares/ST/BlueNRG-MS/hci/hci_le.c ****   * TIME. AS A RESULT, STMICROELECTRONICS SHALL NOT BE HELD LIABLE FOR ANY
  12:Middlewares/ST/BlueNRG-MS/hci/hci_le.c ****   * DIRECT, INDIRECT OR CONSEQUENTIAL DAMAGES WITH RESPECT TO ANY CLAIMS ARISING
  13:Middlewares/ST/BlueNRG-MS/hci/hci_le.c ****   * FROM THE CONTENT OF SUCH FIRMWARE AND/OR THE USE MADE BY CUSTOMERS OF THE
  14:Middlewares/ST/BlueNRG-MS/hci/hci_le.c ****   * CODING INFORMATION CONTAINED HEREIN IN CONNECTION WITH THEIR PRODUCTS.
  15:Middlewares/ST/BlueNRG-MS/hci/hci_le.c ****   *
  16:Middlewares/ST/BlueNRG-MS/hci/hci_le.c ****   * <h2><center>&copy; COPYRIGHT 2013 STMicroelectronics</center></h2>
  17:Middlewares/ST/BlueNRG-MS/hci/hci_le.c ****   */ 
  18:Middlewares/ST/BlueNRG-MS/hci/hci_le.c **** 
  19:Middlewares/ST/BlueNRG-MS/hci/hci_le.c **** #include "hci_le.h"
  20:Middlewares/ST/BlueNRG-MS/hci/hci_le.c **** #include "bluenrg_types.h"
  21:Middlewares/ST/BlueNRG-MS/hci/hci_le.c **** #include "bluenrg_def.h"
  22:Middlewares/ST/BlueNRG-MS/hci/hci_le.c **** #include "hci_const.h"
  23:Middlewares/ST/BlueNRG-MS/hci/hci_le.c **** #include "bluenrg_conf.h"
  24:Middlewares/ST/BlueNRG-MS/hci/hci_le.c **** 
  25:Middlewares/ST/BlueNRG-MS/hci/hci_le.c **** #define MIN(a,b)            ((a) < (b) )? (a) : (b)
  26:Middlewares/ST/BlueNRG-MS/hci/hci_le.c **** #define MAX(a,b)            ((a) > (b) )? (a) : (b)
  27:Middlewares/ST/BlueNRG-MS/hci/hci_le.c **** 
  28:Middlewares/ST/BlueNRG-MS/hci/hci_le.c **** int hci_reset(void)
  29:Middlewares/ST/BlueNRG-MS/hci/hci_le.c **** {
ARM GAS  /tmp/ccCJ9vpL.s 			page 2


  30              		.loc 1 29 1 view -0
  31              		.cfi_startproc
  32              		@ args = 0, pretend = 0, frame = 32
  33              		@ frame_needed = 0, uses_anonymous_args = 0
  30:Middlewares/ST/BlueNRG-MS/hci/hci_le.c ****   struct hci_request rq;
  34              		.loc 1 30 3 view .LVU1
  31:Middlewares/ST/BlueNRG-MS/hci/hci_le.c ****   uint8_t status;
  35              		.loc 1 31 3 view .LVU2
  32:Middlewares/ST/BlueNRG-MS/hci/hci_le.c ****   
  33:Middlewares/ST/BlueNRG-MS/hci/hci_le.c ****   BLUENRG_memset(&rq, 0, sizeof(rq));
  36              		.loc 1 33 3 view .LVU3
  29:Middlewares/ST/BlueNRG-MS/hci/hci_le.c ****   struct hci_request rq;
  37              		.loc 1 29 1 is_stmt 0 view .LVU4
  38 0000 10B5     		push	{r4, lr}
  39              	.LCFI0:
  40              		.cfi_def_cfa_offset 8
  41              		.cfi_offset 4, -8
  42              		.cfi_offset 14, -4
  43 0002 88B0     		sub	sp, sp, #32
  44              	.LCFI1:
  45              		.cfi_def_cfa_offset 40
  46              		.loc 1 33 3 view .LVU5
  47 0004 0021     		movs	r1, #0
  34:Middlewares/ST/BlueNRG-MS/hci/hci_le.c ****   rq.ogf = OGF_HOST_CTL;
  35:Middlewares/ST/BlueNRG-MS/hci/hci_le.c ****   rq.ocf = OCF_RESET;
  36:Middlewares/ST/BlueNRG-MS/hci/hci_le.c ****   rq.rparam = &status;
  48              		.loc 1 36 13 view .LVU6
  49 0006 0DF10702 		add	r2, sp, #7
  37:Middlewares/ST/BlueNRG-MS/hci/hci_le.c ****   rq.rlen = 1;
  50              		.loc 1 37 11 view .LVU7
  51 000a 0123     		movs	r3, #1
  34:Middlewares/ST/BlueNRG-MS/hci/hci_le.c ****   rq.ogf = OGF_HOST_CTL;
  52              		.loc 1 34 10 view .LVU8
  53 000c 4FF00314 		mov	r4, #196611
  38:Middlewares/ST/BlueNRG-MS/hci/hci_le.c ****   
  39:Middlewares/ST/BlueNRG-MS/hci/hci_le.c ****   if (hci_send_req(&rq, FALSE) < 0)
  54              		.loc 1 39 7 view .LVU9
  55 0010 02A8     		add	r0, sp, #8
  33:Middlewares/ST/BlueNRG-MS/hci/hci_le.c ****   rq.ogf = OGF_HOST_CTL;
  56              		.loc 1 33 3 view .LVU10
  57 0012 CDE90311 		strd	r1, r1, [sp, #12]
  37:Middlewares/ST/BlueNRG-MS/hci/hci_le.c ****   rq.rlen = 1;
  58              		.loc 1 37 11 view .LVU11
  59 0016 CDE90623 		strd	r2, r3, [sp, #24]
  33:Middlewares/ST/BlueNRG-MS/hci/hci_le.c ****   rq.ogf = OGF_HOST_CTL;
  60              		.loc 1 33 3 view .LVU12
  61 001a 0591     		str	r1, [sp, #20]
  34:Middlewares/ST/BlueNRG-MS/hci/hci_le.c ****   rq.ocf = OCF_RESET;
  62              		.loc 1 34 3 is_stmt 1 view .LVU13
  35:Middlewares/ST/BlueNRG-MS/hci/hci_le.c ****   rq.rparam = &status;
  63              		.loc 1 35 3 view .LVU14
  34:Middlewares/ST/BlueNRG-MS/hci/hci_le.c ****   rq.ocf = OCF_RESET;
  64              		.loc 1 34 10 is_stmt 0 view .LVU15
  65 001c 0294     		str	r4, [sp, #8]
  36:Middlewares/ST/BlueNRG-MS/hci/hci_le.c ****   rq.rlen = 1;
  66              		.loc 1 36 3 is_stmt 1 view .LVU16
  67              		.loc 1 39 3 view .LVU17
ARM GAS  /tmp/ccCJ9vpL.s 			page 3


  68              		.loc 1 39 7 is_stmt 0 view .LVU18
  69 001e FFF7FEFF 		bl	hci_send_req
  70              	.LVL0:
  71              		.loc 1 39 6 view .LVU19
  72 0022 0028     		cmp	r0, #0
  40:Middlewares/ST/BlueNRG-MS/hci/hci_le.c ****     return BLE_STATUS_TIMEOUT;
  41:Middlewares/ST/BlueNRG-MS/hci/hci_le.c ****   
  42:Middlewares/ST/BlueNRG-MS/hci/hci_le.c ****   return status;  
  73              		.loc 1 42 3 is_stmt 1 view .LVU20
  74              		.loc 1 42 10 is_stmt 0 view .LVU21
  75 0024 ACBF     		ite	ge
  76 0026 9DF80700 		ldrbge	r0, [sp, #7]	@ zero_extendqisi2
  40:Middlewares/ST/BlueNRG-MS/hci/hci_le.c ****     return BLE_STATUS_TIMEOUT;
  77              		.loc 1 40 12 view .LVU22
  78 002a FF20     		movlt	r0, #255
  43:Middlewares/ST/BlueNRG-MS/hci/hci_le.c **** }
  79              		.loc 1 43 1 view .LVU23
  80 002c 08B0     		add	sp, sp, #32
  81              	.LCFI2:
  82              		.cfi_def_cfa_offset 8
  83              		@ sp needed
  84 002e 10BD     		pop	{r4, pc}
  85              		.cfi_endproc
  86              	.LFE130:
  88              		.section	.text.hci_disconnect,"ax",%progbits
  89              		.align	1
  90              		.p2align 2,,3
  91              		.global	hci_disconnect
  92              		.syntax unified
  93              		.thumb
  94              		.thumb_func
  95              		.fpu fpv4-sp-d16
  97              	hci_disconnect:
  98              	.LVL1:
  99              	.LFB131:
  44:Middlewares/ST/BlueNRG-MS/hci/hci_le.c **** 
  45:Middlewares/ST/BlueNRG-MS/hci/hci_le.c **** int hci_disconnect(uint16_t handle, uint8_t reason)
  46:Middlewares/ST/BlueNRG-MS/hci/hci_le.c **** {
 100              		.loc 1 46 1 is_stmt 1 view -0
 101              		.cfi_startproc
 102              		@ args = 0, pretend = 0, frame = 32
 103              		@ frame_needed = 0, uses_anonymous_args = 0
  47:Middlewares/ST/BlueNRG-MS/hci/hci_le.c ****   struct hci_request rq;
 104              		.loc 1 47 3 view .LVU25
  48:Middlewares/ST/BlueNRG-MS/hci/hci_le.c ****   disconnect_cp cp;
 105              		.loc 1 48 3 view .LVU26
  49:Middlewares/ST/BlueNRG-MS/hci/hci_le.c ****   uint8_t status;
 106              		.loc 1 49 3 view .LVU27
  50:Middlewares/ST/BlueNRG-MS/hci/hci_le.c ****   
  51:Middlewares/ST/BlueNRG-MS/hci/hci_le.c ****   cp.handle = handle;
 107              		.loc 1 51 3 view .LVU28
  46:Middlewares/ST/BlueNRG-MS/hci/hci_le.c ****   struct hci_request rq;
 108              		.loc 1 46 1 is_stmt 0 view .LVU29
 109 0000 F0B5     		push	{r4, r5, r6, r7, lr}
 110              	.LCFI3:
 111              		.cfi_def_cfa_offset 20
 112              		.cfi_offset 4, -20
ARM GAS  /tmp/ccCJ9vpL.s 			page 4


 113              		.cfi_offset 5, -16
 114              		.cfi_offset 6, -12
 115              		.cfi_offset 7, -8
 116              		.cfi_offset 14, -4
 117 0002 89B0     		sub	sp, sp, #36
 118              	.LCFI4:
 119              		.cfi_def_cfa_offset 56
  52:Middlewares/ST/BlueNRG-MS/hci/hci_le.c ****   cp.reason = reason;
  53:Middlewares/ST/BlueNRG-MS/hci/hci_le.c ****   
  54:Middlewares/ST/BlueNRG-MS/hci/hci_le.c ****   BLUENRG_memset(&rq, 0, sizeof(rq));
  55:Middlewares/ST/BlueNRG-MS/hci/hci_le.c ****   rq.ogf = OGF_LINK_CTL;
  56:Middlewares/ST/BlueNRG-MS/hci/hci_le.c ****   rq.ocf = OCF_DISCONNECT;
  57:Middlewares/ST/BlueNRG-MS/hci/hci_le.c ****   rq.cparam = &cp;
  58:Middlewares/ST/BlueNRG-MS/hci/hci_le.c ****   rq.clen = DISCONNECT_CP_SIZE;
 120              		.loc 1 58 11 view .LVU30
 121 0004 0326     		movs	r6, #3
  55:Middlewares/ST/BlueNRG-MS/hci/hci_le.c ****   rq.ocf = OCF_DISCONNECT;
 122              		.loc 1 55 10 view .LVU31
 123 0006 0D4D     		ldr	r5, .L10
  51:Middlewares/ST/BlueNRG-MS/hci/hci_le.c ****   cp.reason = reason;
 124              		.loc 1 51 13 view .LVU32
 125 0008 ADF80400 		strh	r0, [sp, #4]	@ movhi
  52:Middlewares/ST/BlueNRG-MS/hci/hci_le.c ****   cp.reason = reason;
 126              		.loc 1 52 3 is_stmt 1 view .LVU33
  59:Middlewares/ST/BlueNRG-MS/hci/hci_le.c ****   rq.event = EVT_CMD_STATUS;
  60:Middlewares/ST/BlueNRG-MS/hci/hci_le.c ****   rq.rparam = &status;
 127              		.loc 1 60 13 is_stmt 0 view .LVU34
 128 000c 0DEB0602 		add	r2, sp, r6
  52:Middlewares/ST/BlueNRG-MS/hci/hci_le.c ****   
 129              		.loc 1 52 13 view .LVU35
 130 0010 8DF80610 		strb	r1, [sp, #6]
  54:Middlewares/ST/BlueNRG-MS/hci/hci_le.c ****   rq.ogf = OGF_LINK_CTL;
 131              		.loc 1 54 3 is_stmt 1 view .LVU36
  55:Middlewares/ST/BlueNRG-MS/hci/hci_le.c ****   rq.ocf = OCF_DISCONNECT;
 132              		.loc 1 55 3 view .LVU37
  56:Middlewares/ST/BlueNRG-MS/hci/hci_le.c ****   rq.cparam = &cp;
 133              		.loc 1 56 3 view .LVU38
  57:Middlewares/ST/BlueNRG-MS/hci/hci_le.c ****   rq.clen = DISCONNECT_CP_SIZE;
 134              		.loc 1 57 3 view .LVU39
  61:Middlewares/ST/BlueNRG-MS/hci/hci_le.c ****   rq.rlen = 1;
 135              		.loc 1 61 11 is_stmt 0 view .LVU40
 136 0014 0123     		movs	r3, #1
  57:Middlewares/ST/BlueNRG-MS/hci/hci_le.c ****   rq.clen = DISCONNECT_CP_SIZE;
 137              		.loc 1 57 13 view .LVU41
 138 0016 01AF     		add	r7, sp, #4
  59:Middlewares/ST/BlueNRG-MS/hci/hci_le.c ****   rq.rparam = &status;
 139              		.loc 1 59 12 view .LVU42
 140 0018 0F24     		movs	r4, #15
  62:Middlewares/ST/BlueNRG-MS/hci/hci_le.c ****   
  63:Middlewares/ST/BlueNRG-MS/hci/hci_le.c ****   if (hci_send_req(&rq, FALSE) < 0)
 141              		.loc 1 63 7 view .LVU43
 142 001a 0021     		movs	r1, #0
 143              	.LVL2:
 144              		.loc 1 63 7 view .LVU44
 145 001c 02A8     		add	r0, sp, #8
 146              	.LVL3:
  59:Middlewares/ST/BlueNRG-MS/hci/hci_le.c ****   rq.rparam = &status;
ARM GAS  /tmp/ccCJ9vpL.s 			page 5


 147              		.loc 1 59 12 view .LVU45
 148 001e CDE90254 		strd	r5, r4, [sp, #8]
  61:Middlewares/ST/BlueNRG-MS/hci/hci_le.c ****   
 149              		.loc 1 61 11 view .LVU46
 150 0022 CDE90623 		strd	r2, r3, [sp, #24]
  57:Middlewares/ST/BlueNRG-MS/hci/hci_le.c ****   rq.clen = DISCONNECT_CP_SIZE;
 151              		.loc 1 57 13 view .LVU47
 152 0026 0497     		str	r7, [sp, #16]
  58:Middlewares/ST/BlueNRG-MS/hci/hci_le.c ****   rq.event = EVT_CMD_STATUS;
 153              		.loc 1 58 3 is_stmt 1 view .LVU48
  58:Middlewares/ST/BlueNRG-MS/hci/hci_le.c ****   rq.event = EVT_CMD_STATUS;
 154              		.loc 1 58 11 is_stmt 0 view .LVU49
 155 0028 0596     		str	r6, [sp, #20]
  59:Middlewares/ST/BlueNRG-MS/hci/hci_le.c ****   rq.rparam = &status;
 156              		.loc 1 59 3 is_stmt 1 view .LVU50
  60:Middlewares/ST/BlueNRG-MS/hci/hci_le.c ****   rq.rlen = 1;
 157              		.loc 1 60 3 view .LVU51
 158              		.loc 1 63 3 view .LVU52
 159              		.loc 1 63 7 is_stmt 0 view .LVU53
 160 002a FFF7FEFF 		bl	hci_send_req
 161              	.LVL4:
 162              		.loc 1 63 6 view .LVU54
 163 002e 0028     		cmp	r0, #0
  64:Middlewares/ST/BlueNRG-MS/hci/hci_le.c ****     return BLE_STATUS_TIMEOUT;
  65:Middlewares/ST/BlueNRG-MS/hci/hci_le.c ****   
  66:Middlewares/ST/BlueNRG-MS/hci/hci_le.c ****   return status;  
 164              		.loc 1 66 3 is_stmt 1 view .LVU55
 165              		.loc 1 66 10 is_stmt 0 view .LVU56
 166 0030 ACBF     		ite	ge
 167 0032 9DF80300 		ldrbge	r0, [sp, #3]	@ zero_extendqisi2
  64:Middlewares/ST/BlueNRG-MS/hci/hci_le.c ****     return BLE_STATUS_TIMEOUT;
 168              		.loc 1 64 12 view .LVU57
 169 0036 FF20     		movlt	r0, #255
  67:Middlewares/ST/BlueNRG-MS/hci/hci_le.c **** }
 170              		.loc 1 67 1 view .LVU58
 171 0038 09B0     		add	sp, sp, #36
 172              	.LCFI5:
 173              		.cfi_def_cfa_offset 20
 174              		@ sp needed
 175 003a F0BD     		pop	{r4, r5, r6, r7, pc}
 176              	.L11:
 177              		.align	2
 178              	.L10:
 179 003c 01000600 		.word	393217
 180              		.cfi_endproc
 181              	.LFE131:
 183              		.section	.text.hci_le_read_local_version,"ax",%progbits
 184              		.align	1
 185              		.p2align 2,,3
 186              		.global	hci_le_read_local_version
 187              		.syntax unified
 188              		.thumb
 189              		.thumb_func
 190              		.fpu fpv4-sp-d16
 192              	hci_le_read_local_version:
 193              	.LVL5:
 194              	.LFB132:
ARM GAS  /tmp/ccCJ9vpL.s 			page 6


  68:Middlewares/ST/BlueNRG-MS/hci/hci_le.c **** 
  69:Middlewares/ST/BlueNRG-MS/hci/hci_le.c **** int hci_le_read_local_version(uint8_t *hci_version, uint16_t *hci_revision, uint8_t *lmp_pal_versio
  70:Middlewares/ST/BlueNRG-MS/hci/hci_le.c ****                               uint16_t *manufacturer_name, uint16_t *lmp_pal_subversion)
  71:Middlewares/ST/BlueNRG-MS/hci/hci_le.c **** {
 195              		.loc 1 71 1 is_stmt 1 view -0
 196              		.cfi_startproc
 197              		@ args = 4, pretend = 0, frame = 40
 198              		@ frame_needed = 0, uses_anonymous_args = 0
  72:Middlewares/ST/BlueNRG-MS/hci/hci_le.c ****   struct hci_request rq;
 199              		.loc 1 72 3 view .LVU60
  73:Middlewares/ST/BlueNRG-MS/hci/hci_le.c ****   read_local_version_rp resp;
 200              		.loc 1 73 3 view .LVU61
  74:Middlewares/ST/BlueNRG-MS/hci/hci_le.c ****   
  75:Middlewares/ST/BlueNRG-MS/hci/hci_le.c ****   BLUENRG_memset(&resp, 0, sizeof(resp));
 201              		.loc 1 75 3 view .LVU62
  71:Middlewares/ST/BlueNRG-MS/hci/hci_le.c ****   struct hci_request rq;
 202              		.loc 1 71 1 is_stmt 0 view .LVU63
 203 0000 2DE9F043 		push	{r4, r5, r6, r7, r8, r9, lr}
 204              	.LCFI6:
 205              		.cfi_def_cfa_offset 28
 206              		.cfi_offset 4, -28
 207              		.cfi_offset 5, -24
 208              		.cfi_offset 6, -20
 209              		.cfi_offset 7, -16
 210              		.cfi_offset 8, -12
 211              		.cfi_offset 9, -8
 212              		.cfi_offset 14, -4
 213              		.loc 1 75 3 view .LVU64
 214 0004 0024     		movs	r4, #0
  71:Middlewares/ST/BlueNRG-MS/hci/hci_le.c ****   struct hci_request rq;
 215              		.loc 1 71 1 view .LVU65
 216 0006 8BB0     		sub	sp, sp, #44
 217              	.LCFI7:
 218              		.cfi_def_cfa_offset 72
 219              		.loc 1 75 3 view .LVU66
 220 0008 01AD     		add	r5, sp, #4
  71:Middlewares/ST/BlueNRG-MS/hci/hci_le.c ****   struct hci_request rq;
 221              		.loc 1 71 1 view .LVU67
 222 000a 8846     		mov	r8, r1
 223 000c 8146     		mov	r9, r0
  76:Middlewares/ST/BlueNRG-MS/hci/hci_le.c ****   
  77:Middlewares/ST/BlueNRG-MS/hci/hci_le.c ****   BLUENRG_memset(&rq, 0, sizeof(rq));
  78:Middlewares/ST/BlueNRG-MS/hci/hci_le.c ****   rq.ogf = OGF_INFO_PARAM;
  79:Middlewares/ST/BlueNRG-MS/hci/hci_le.c ****   rq.ocf = OCF_READ_LOCAL_VERSION;
  80:Middlewares/ST/BlueNRG-MS/hci/hci_le.c ****   rq.cparam = NULL;
  81:Middlewares/ST/BlueNRG-MS/hci/hci_le.c ****   rq.clen = 0;
  82:Middlewares/ST/BlueNRG-MS/hci/hci_le.c ****   rq.rparam = &resp;
  83:Middlewares/ST/BlueNRG-MS/hci/hci_le.c ****   rq.rlen = READ_LOCAL_VERSION_RP_SIZE;
  84:Middlewares/ST/BlueNRG-MS/hci/hci_le.c ****   
  85:Middlewares/ST/BlueNRG-MS/hci/hci_le.c ****   if (hci_send_req(&rq, FALSE) < 0)
 224              		.loc 1 85 7 view .LVU68
 225 000e 2146     		mov	r1, r4
 226              	.LVL6:
  71:Middlewares/ST/BlueNRG-MS/hci/hci_le.c ****   struct hci_request rq;
 227              		.loc 1 71 1 view .LVU69
 228 0010 1746     		mov	r7, r2
 229 0012 1E46     		mov	r6, r3
ARM GAS  /tmp/ccCJ9vpL.s 			page 7


  78:Middlewares/ST/BlueNRG-MS/hci/hci_le.c ****   rq.ocf = OCF_READ_LOCAL_VERSION;
 230              		.loc 1 78 10 view .LVU70
 231 0014 1B4A     		ldr	r2, .L18
 232              	.LVL7:
  82:Middlewares/ST/BlueNRG-MS/hci/hci_le.c ****   rq.rlen = READ_LOCAL_VERSION_RP_SIZE;
 233              		.loc 1 82 13 view .LVU71
 234 0016 0895     		str	r5, [sp, #32]
  83:Middlewares/ST/BlueNRG-MS/hci/hci_le.c ****   
 235              		.loc 1 83 11 view .LVU72
 236 0018 0923     		movs	r3, #9
 237              	.LVL8:
 238              		.loc 1 85 7 view .LVU73
 239 001a 04A8     		add	r0, sp, #16
 240              	.LVL9:
  75:Middlewares/ST/BlueNRG-MS/hci/hci_le.c ****   
 241              		.loc 1 75 3 view .LVU74
 242 001c CDE90144 		strd	r4, r4, [sp, #4]
  80:Middlewares/ST/BlueNRG-MS/hci/hci_le.c ****   rq.clen = 0;
 243              		.loc 1 80 13 view .LVU75
 244 0020 CDE90544 		strd	r4, r4, [sp, #20]
  75:Middlewares/ST/BlueNRG-MS/hci/hci_le.c ****   
 245              		.loc 1 75 3 view .LVU76
 246 0024 8DF80C40 		strb	r4, [sp, #12]
  77:Middlewares/ST/BlueNRG-MS/hci/hci_le.c ****   rq.ogf = OGF_INFO_PARAM;
 247              		.loc 1 77 3 is_stmt 1 view .LVU77
  81:Middlewares/ST/BlueNRG-MS/hci/hci_le.c ****   rq.rparam = &resp;
 248              		.loc 1 81 11 is_stmt 0 view .LVU78
 249 0028 0794     		str	r4, [sp, #28]
  78:Middlewares/ST/BlueNRG-MS/hci/hci_le.c ****   rq.ocf = OCF_READ_LOCAL_VERSION;
 250              		.loc 1 78 10 view .LVU79
 251 002a 0492     		str	r2, [sp, #16]
  80:Middlewares/ST/BlueNRG-MS/hci/hci_le.c ****   rq.clen = 0;
 252              		.loc 1 80 3 is_stmt 1 view .LVU80
  81:Middlewares/ST/BlueNRG-MS/hci/hci_le.c ****   rq.rparam = &resp;
 253              		.loc 1 81 3 view .LVU81
  82:Middlewares/ST/BlueNRG-MS/hci/hci_le.c ****   rq.rlen = READ_LOCAL_VERSION_RP_SIZE;
 254              		.loc 1 82 3 view .LVU82
  83:Middlewares/ST/BlueNRG-MS/hci/hci_le.c ****   
 255              		.loc 1 83 3 view .LVU83
  83:Middlewares/ST/BlueNRG-MS/hci/hci_le.c ****   
 256              		.loc 1 83 11 is_stmt 0 view .LVU84
 257 002c 0993     		str	r3, [sp, #36]
 258              		.loc 1 85 3 is_stmt 1 view .LVU85
 259              		.loc 1 85 7 is_stmt 0 view .LVU86
 260 002e FFF7FEFF 		bl	hci_send_req
 261              	.LVL10:
 262              		.loc 1 85 6 view .LVU87
 263 0032 A042     		cmp	r0, r4
 264 0034 21DB     		blt	.L15
  86:Middlewares/ST/BlueNRG-MS/hci/hci_le.c ****     return BLE_STATUS_TIMEOUT;
  87:Middlewares/ST/BlueNRG-MS/hci/hci_le.c ****   
  88:Middlewares/ST/BlueNRG-MS/hci/hci_le.c ****   if (resp.status) {
 265              		.loc 1 88 3 is_stmt 1 view .LVU88
 266              		.loc 1 88 11 is_stmt 0 view .LVU89
 267 0036 9DF80440 		ldrb	r4, [sp, #4]	@ zero_extendqisi2
 268              		.loc 1 88 6 view .LVU90
 269 003a D4B9     		cbnz	r4, .L17
ARM GAS  /tmp/ccCJ9vpL.s 			page 8


  89:Middlewares/ST/BlueNRG-MS/hci/hci_le.c ****     return resp.status;
  90:Middlewares/ST/BlueNRG-MS/hci/hci_le.c ****   }
  91:Middlewares/ST/BlueNRG-MS/hci/hci_le.c ****   
  92:Middlewares/ST/BlueNRG-MS/hci/hci_le.c ****   
  93:Middlewares/ST/BlueNRG-MS/hci/hci_le.c ****   *hci_version = resp.hci_version;
 270              		.loc 1 93 3 is_stmt 1 view .LVU91
  94:Middlewares/ST/BlueNRG-MS/hci/hci_le.c ****   *hci_revision =  btohs(resp.hci_revision);
  95:Middlewares/ST/BlueNRG-MS/hci/hci_le.c ****   *lmp_pal_version = resp.lmp_pal_version;
  96:Middlewares/ST/BlueNRG-MS/hci/hci_le.c ****   *manufacturer_name = btohs(resp.manufacturer_name);
 271              		.loc 1 96 24 is_stmt 0 view .LVU92
 272 003c 029A     		ldr	r2, [sp, #8]
  93:Middlewares/ST/BlueNRG-MS/hci/hci_le.c ****   *hci_revision =  btohs(resp.hci_revision);
 273              		.loc 1 93 16 view .LVU93
 274 003e 9DF80510 		ldrb	r1, [sp, #5]	@ zero_extendqisi2
  97:Middlewares/ST/BlueNRG-MS/hci/hci_le.c ****   *lmp_pal_subversion = btohs(resp.lmp_pal_subversion);
 275              		.loc 1 97 25 view .LVU94
 276 0042 9DF80B30 		ldrb	r3, [sp, #11]	@ zero_extendqisi2
  94:Middlewares/ST/BlueNRG-MS/hci/hci_le.c ****   *hci_revision =  btohs(resp.hci_revision);
 277              		.loc 1 94 17 view .LVU95
 278 0046 BDF80600 		ldrh	r0, [sp, #6]
  93:Middlewares/ST/BlueNRG-MS/hci/hci_le.c ****   *hci_revision =  btohs(resp.hci_revision);
 279              		.loc 1 93 16 view .LVU96
 280 004a 89F80010 		strb	r1, [r9]
  94:Middlewares/ST/BlueNRG-MS/hci/hci_le.c ****   *hci_revision =  btohs(resp.hci_revision);
 281              		.loc 1 94 3 is_stmt 1 view .LVU97
 282              		.loc 1 97 25 is_stmt 0 view .LVU98
 283 004e 9DF80C10 		ldrb	r1, [sp, #12]	@ zero_extendqisi2
  94:Middlewares/ST/BlueNRG-MS/hci/hci_le.c ****   *hci_revision =  btohs(resp.hci_revision);
 284              		.loc 1 94 17 view .LVU99
 285 0052 A8F80000 		strh	r0, [r8]	@ movhi
  95:Middlewares/ST/BlueNRG-MS/hci/hci_le.c ****   *manufacturer_name = btohs(resp.manufacturer_name);
 286              		.loc 1 95 3 is_stmt 1 view .LVU100
  96:Middlewares/ST/BlueNRG-MS/hci/hci_le.c ****   *lmp_pal_subversion = btohs(resp.lmp_pal_subversion);
 287              		.loc 1 96 24 is_stmt 0 view .LVU101
 288 0056 C2F30F22 		ubfx	r2, r2, #8, #16
  95:Middlewares/ST/BlueNRG-MS/hci/hci_le.c ****   *manufacturer_name = btohs(resp.manufacturer_name);
 289              		.loc 1 95 20 view .LVU102
 290 005a 9DF80800 		ldrb	r0, [sp, #8]	@ zero_extendqisi2
 291 005e 3870     		strb	r0, [r7]
  96:Middlewares/ST/BlueNRG-MS/hci/hci_le.c ****   *lmp_pal_subversion = btohs(resp.lmp_pal_subversion);
 292              		.loc 1 96 3 is_stmt 1 view .LVU103
  96:Middlewares/ST/BlueNRG-MS/hci/hci_le.c ****   *lmp_pal_subversion = btohs(resp.lmp_pal_subversion);
 293              		.loc 1 96 22 is_stmt 0 view .LVU104
 294 0060 3280     		strh	r2, [r6]	@ movhi
 295              		.loc 1 97 3 is_stmt 1 view .LVU105
 296              		.loc 1 97 23 is_stmt 0 view .LVU106
 297 0062 129A     		ldr	r2, [sp, #72]
 298              		.loc 1 97 25 view .LVU107
 299 0064 43EA0123 		orr	r3, r3, r1, lsl #8
  98:Middlewares/ST/BlueNRG-MS/hci/hci_le.c ****   
  99:Middlewares/ST/BlueNRG-MS/hci/hci_le.c ****   return 0;
 300              		.loc 1 99 10 view .LVU108
 301 0068 2046     		mov	r0, r4
  97:Middlewares/ST/BlueNRG-MS/hci/hci_le.c ****   
 302              		.loc 1 97 23 view .LVU109
 303 006a 1380     		strh	r3, [r2]	@ movhi
 304              		.loc 1 99 3 is_stmt 1 view .LVU110
ARM GAS  /tmp/ccCJ9vpL.s 			page 9


 100:Middlewares/ST/BlueNRG-MS/hci/hci_le.c **** }
 305              		.loc 1 100 1 is_stmt 0 view .LVU111
 306 006c 0BB0     		add	sp, sp, #44
 307              	.LCFI8:
 308              		.cfi_remember_state
 309              		.cfi_def_cfa_offset 28
 310              		@ sp needed
 311 006e BDE8F083 		pop	{r4, r5, r6, r7, r8, r9, pc}
 312              	.LVL11:
 313              	.L17:
 314              	.LCFI9:
 315              		.cfi_restore_state
  89:Middlewares/ST/BlueNRG-MS/hci/hci_le.c ****   }
 316              		.loc 1 89 5 is_stmt 1 view .LVU112
  89:Middlewares/ST/BlueNRG-MS/hci/hci_le.c ****   }
 317              		.loc 1 89 16 is_stmt 0 view .LVU113
 318 0072 2046     		mov	r0, r4
 319              		.loc 1 100 1 view .LVU114
 320 0074 0BB0     		add	sp, sp, #44
 321              	.LCFI10:
 322              		.cfi_remember_state
 323              		.cfi_def_cfa_offset 28
 324              		@ sp needed
 325 0076 BDE8F083 		pop	{r4, r5, r6, r7, r8, r9, pc}
 326              	.LVL12:
 327              	.L15:
 328              	.LCFI11:
 329              		.cfi_restore_state
  86:Middlewares/ST/BlueNRG-MS/hci/hci_le.c ****   
 330              		.loc 1 86 12 view .LVU115
 331 007a FF20     		movs	r0, #255
 332              		.loc 1 100 1 view .LVU116
 333 007c 0BB0     		add	sp, sp, #44
 334              	.LCFI12:
 335              		.cfi_def_cfa_offset 28
 336              		@ sp needed
 337 007e BDE8F083 		pop	{r4, r5, r6, r7, r8, r9, pc}
 338              	.LVL13:
 339              	.L19:
 340              		.loc 1 100 1 view .LVU117
 341 0082 00BF     		.align	2
 342              	.L18:
 343 0084 04000100 		.word	65540
 344              		.cfi_endproc
 345              	.LFE132:
 347              		.section	.text.hci_le_read_buffer_size,"ax",%progbits
 348              		.align	1
 349              		.p2align 2,,3
 350              		.global	hci_le_read_buffer_size
 351              		.syntax unified
 352              		.thumb
 353              		.thumb_func
 354              		.fpu fpv4-sp-d16
 356              	hci_le_read_buffer_size:
 357              	.LVL14:
 358              	.LFB133:
 101:Middlewares/ST/BlueNRG-MS/hci/hci_le.c **** 
ARM GAS  /tmp/ccCJ9vpL.s 			page 10


 102:Middlewares/ST/BlueNRG-MS/hci/hci_le.c **** int hci_le_read_buffer_size(uint16_t *pkt_len, uint8_t *max_pkt)
 103:Middlewares/ST/BlueNRG-MS/hci/hci_le.c **** {
 359              		.loc 1 103 1 is_stmt 1 view -0
 360              		.cfi_startproc
 361              		@ args = 0, pretend = 0, frame = 32
 362              		@ frame_needed = 0, uses_anonymous_args = 0
 104:Middlewares/ST/BlueNRG-MS/hci/hci_le.c ****   struct hci_request rq;
 363              		.loc 1 104 3 view .LVU119
 105:Middlewares/ST/BlueNRG-MS/hci/hci_le.c ****   le_read_buffer_size_rp resp;
 364              		.loc 1 105 3 view .LVU120
 106:Middlewares/ST/BlueNRG-MS/hci/hci_le.c ****   
 107:Middlewares/ST/BlueNRG-MS/hci/hci_le.c ****   BLUENRG_memset(&resp, 0, sizeof(resp));
 365              		.loc 1 107 3 view .LVU121
 103:Middlewares/ST/BlueNRG-MS/hci/hci_le.c ****   struct hci_request rq;
 366              		.loc 1 103 1 is_stmt 0 view .LVU122
 367 0000 70B5     		push	{r4, r5, r6, lr}
 368              	.LCFI13:
 369              		.cfi_def_cfa_offset 16
 370              		.cfi_offset 4, -16
 371              		.cfi_offset 5, -12
 372              		.cfi_offset 6, -8
 373              		.cfi_offset 14, -4
 374 0002 88B0     		sub	sp, sp, #32
 375              	.LCFI14:
 376              		.cfi_def_cfa_offset 48
 377              		.loc 1 107 3 view .LVU123
 378 0004 0023     		movs	r3, #0
 108:Middlewares/ST/BlueNRG-MS/hci/hci_le.c ****   
 109:Middlewares/ST/BlueNRG-MS/hci/hci_le.c ****   BLUENRG_memset(&rq, 0, sizeof(rq));
 110:Middlewares/ST/BlueNRG-MS/hci/hci_le.c ****   rq.ogf = OGF_LE_CTL;
 111:Middlewares/ST/BlueNRG-MS/hci/hci_le.c ****   rq.ocf = OCF_LE_READ_BUFFER_SIZE;
 112:Middlewares/ST/BlueNRG-MS/hci/hci_le.c ****   rq.cparam = NULL;
 379              		.loc 1 112 13 view .LVU124
 380 0006 CDE90333 		strd	r3, r3, [sp, #12]
 110:Middlewares/ST/BlueNRG-MS/hci/hci_le.c ****   rq.ocf = OCF_LE_READ_BUFFER_SIZE;
 381              		.loc 1 110 10 view .LVU125
 382 000a 0F4A     		ldr	r2, .L25
 107:Middlewares/ST/BlueNRG-MS/hci/hci_le.c ****   
 383              		.loc 1 107 3 view .LVU126
 384 000c 0193     		str	r3, [sp, #4]
 109:Middlewares/ST/BlueNRG-MS/hci/hci_le.c ****   rq.ogf = OGF_LE_CTL;
 385              		.loc 1 109 3 is_stmt 1 view .LVU127
 113:Middlewares/ST/BlueNRG-MS/hci/hci_le.c ****   rq.clen = 0;
 386              		.loc 1 113 11 is_stmt 0 view .LVU128
 387 000e 0593     		str	r3, [sp, #20]
 103:Middlewares/ST/BlueNRG-MS/hci/hci_le.c ****   struct hci_request rq;
 388              		.loc 1 103 1 view .LVU129
 389 0010 0C46     		mov	r4, r1
 107:Middlewares/ST/BlueNRG-MS/hci/hci_le.c ****   
 390              		.loc 1 107 3 view .LVU130
 391 0012 01AE     		add	r6, sp, #4
 114:Middlewares/ST/BlueNRG-MS/hci/hci_le.c ****   rq.rparam = &resp;
 115:Middlewares/ST/BlueNRG-MS/hci/hci_le.c ****   rq.rlen = LE_READ_BUFFER_SIZE_RP_SIZE;
 116:Middlewares/ST/BlueNRG-MS/hci/hci_le.c ****   
 117:Middlewares/ST/BlueNRG-MS/hci/hci_le.c ****   if (hci_send_req(&rq, FALSE) < 0)
 392              		.loc 1 117 7 view .LVU131
 393 0014 1946     		mov	r1, r3
ARM GAS  /tmp/ccCJ9vpL.s 			page 11


 394              	.LVL15:
 103:Middlewares/ST/BlueNRG-MS/hci/hci_le.c ****   struct hci_request rq;
 395              		.loc 1 103 1 view .LVU132
 396 0016 0546     		mov	r5, r0
 115:Middlewares/ST/BlueNRG-MS/hci/hci_le.c ****   
 397              		.loc 1 115 11 view .LVU133
 398 0018 0423     		movs	r3, #4
 399              		.loc 1 117 7 view .LVU134
 400 001a 02A8     		add	r0, sp, #8
 401              	.LVL16:
 114:Middlewares/ST/BlueNRG-MS/hci/hci_le.c ****   rq.rparam = &resp;
 402              		.loc 1 114 13 view .LVU135
 403 001c 0696     		str	r6, [sp, #24]
 110:Middlewares/ST/BlueNRG-MS/hci/hci_le.c ****   rq.ocf = OCF_LE_READ_BUFFER_SIZE;
 404              		.loc 1 110 10 view .LVU136
 405 001e 0292     		str	r2, [sp, #8]
 112:Middlewares/ST/BlueNRG-MS/hci/hci_le.c ****   rq.clen = 0;
 406              		.loc 1 112 3 is_stmt 1 view .LVU137
 113:Middlewares/ST/BlueNRG-MS/hci/hci_le.c ****   rq.rparam = &resp;
 407              		.loc 1 113 3 view .LVU138
 114:Middlewares/ST/BlueNRG-MS/hci/hci_le.c ****   rq.rlen = LE_READ_BUFFER_SIZE_RP_SIZE;
 408              		.loc 1 114 3 view .LVU139
 115:Middlewares/ST/BlueNRG-MS/hci/hci_le.c ****   
 409              		.loc 1 115 3 view .LVU140
 115:Middlewares/ST/BlueNRG-MS/hci/hci_le.c ****   
 410              		.loc 1 115 11 is_stmt 0 view .LVU141
 411 0020 0793     		str	r3, [sp, #28]
 412              		.loc 1 117 3 is_stmt 1 view .LVU142
 413              		.loc 1 117 7 is_stmt 0 view .LVU143
 414 0022 FFF7FEFF 		bl	hci_send_req
 415              	.LVL17:
 416              		.loc 1 117 6 view .LVU144
 417 0026 0028     		cmp	r0, #0
 418 0028 0BDB     		blt	.L23
 118:Middlewares/ST/BlueNRG-MS/hci/hci_le.c ****     return BLE_STATUS_TIMEOUT;
 119:Middlewares/ST/BlueNRG-MS/hci/hci_le.c ****   
 120:Middlewares/ST/BlueNRG-MS/hci/hci_le.c ****   if (resp.status) {
 419              		.loc 1 120 3 is_stmt 1 view .LVU145
 420              		.loc 1 120 11 is_stmt 0 view .LVU146
 421 002a 9DF80400 		ldrb	r0, [sp, #4]	@ zero_extendqisi2
 422              		.loc 1 120 6 view .LVU147
 423 002e 30B9     		cbnz	r0, .L20
 121:Middlewares/ST/BlueNRG-MS/hci/hci_le.c ****     return resp.status;
 122:Middlewares/ST/BlueNRG-MS/hci/hci_le.c ****   }
 123:Middlewares/ST/BlueNRG-MS/hci/hci_le.c ****   
 124:Middlewares/ST/BlueNRG-MS/hci/hci_le.c ****   *pkt_len = resp.pkt_len;
 424              		.loc 1 124 3 is_stmt 1 view .LVU148
 425              		.loc 1 124 18 is_stmt 0 view .LVU149
 426 0030 019A     		ldr	r2, [sp, #4]
 125:Middlewares/ST/BlueNRG-MS/hci/hci_le.c ****   *max_pkt = resp.max_pkt;
 427              		.loc 1 125 12 view .LVU150
 428 0032 9DF80710 		ldrb	r1, [sp, #7]	@ zero_extendqisi2
 124:Middlewares/ST/BlueNRG-MS/hci/hci_le.c ****   *max_pkt = resp.max_pkt;
 429              		.loc 1 124 18 view .LVU151
 430 0036 C2F30F22 		ubfx	r2, r2, #8, #16
 124:Middlewares/ST/BlueNRG-MS/hci/hci_le.c ****   *max_pkt = resp.max_pkt;
 431              		.loc 1 124 12 view .LVU152
ARM GAS  /tmp/ccCJ9vpL.s 			page 12


 432 003a 2A80     		strh	r2, [r5]	@ movhi
 433              		.loc 1 125 3 is_stmt 1 view .LVU153
 434              		.loc 1 125 12 is_stmt 0 view .LVU154
 435 003c 2170     		strb	r1, [r4]
 126:Middlewares/ST/BlueNRG-MS/hci/hci_le.c ****   
 127:Middlewares/ST/BlueNRG-MS/hci/hci_le.c ****   return 0;
 436              		.loc 1 127 3 is_stmt 1 view .LVU155
 437              	.L20:
 128:Middlewares/ST/BlueNRG-MS/hci/hci_le.c **** }
 438              		.loc 1 128 1 is_stmt 0 view .LVU156
 439 003e 08B0     		add	sp, sp, #32
 440              	.LCFI15:
 441              		.cfi_remember_state
 442              		.cfi_def_cfa_offset 16
 443              		@ sp needed
 444 0040 70BD     		pop	{r4, r5, r6, pc}
 445              	.LVL18:
 446              	.L23:
 447              	.LCFI16:
 448              		.cfi_restore_state
 118:Middlewares/ST/BlueNRG-MS/hci/hci_le.c ****   
 449              		.loc 1 118 12 view .LVU157
 450 0042 FF20     		movs	r0, #255
 451              		.loc 1 128 1 view .LVU158
 452 0044 08B0     		add	sp, sp, #32
 453              	.LCFI17:
 454              		.cfi_def_cfa_offset 16
 455              		@ sp needed
 456 0046 70BD     		pop	{r4, r5, r6, pc}
 457              	.LVL19:
 458              	.L26:
 459              		.loc 1 128 1 view .LVU159
 460              		.align	2
 461              	.L25:
 462 0048 08000200 		.word	131080
 463              		.cfi_endproc
 464              	.LFE133:
 466              		.section	.text.hci_le_set_advertising_parameters,"ax",%progbits
 467              		.align	1
 468              		.p2align 2,,3
 469              		.global	hci_le_set_advertising_parameters
 470              		.syntax unified
 471              		.thumb
 472              		.thumb_func
 473              		.fpu fpv4-sp-d16
 475              	hci_le_set_advertising_parameters:
 476              	.LVL20:
 477              	.LFB134:
 129:Middlewares/ST/BlueNRG-MS/hci/hci_le.c **** 
 130:Middlewares/ST/BlueNRG-MS/hci/hci_le.c **** int hci_le_set_advertising_parameters(uint16_t min_interval, uint16_t max_interval, uint8_t advtype
 131:Middlewares/ST/BlueNRG-MS/hci/hci_le.c ****                                       uint8_t own_bdaddr_type, uint8_t direct_bdaddr_type, const tB
 132:Middlewares/ST/BlueNRG-MS/hci/hci_le.c ****                                       uint8_t filter)
 133:Middlewares/ST/BlueNRG-MS/hci/hci_le.c **** {
 478              		.loc 1 133 1 is_stmt 1 view -0
 479              		.cfi_startproc
 480              		@ args = 16, pretend = 0, frame = 48
 481              		@ frame_needed = 0, uses_anonymous_args = 0
ARM GAS  /tmp/ccCJ9vpL.s 			page 13


 134:Middlewares/ST/BlueNRG-MS/hci/hci_le.c ****   struct hci_request rq;
 482              		.loc 1 134 3 view .LVU161
 135:Middlewares/ST/BlueNRG-MS/hci/hci_le.c ****   le_set_adv_parameters_cp adv_cp;
 483              		.loc 1 135 3 view .LVU162
 136:Middlewares/ST/BlueNRG-MS/hci/hci_le.c ****   uint8_t status;
 484              		.loc 1 136 3 view .LVU163
 137:Middlewares/ST/BlueNRG-MS/hci/hci_le.c ****   
 138:Middlewares/ST/BlueNRG-MS/hci/hci_le.c ****   BLUENRG_memset(&adv_cp, 0, sizeof(adv_cp));
 485              		.loc 1 138 3 view .LVU164
 133:Middlewares/ST/BlueNRG-MS/hci/hci_le.c ****   struct hci_request rq;
 486              		.loc 1 133 1 is_stmt 0 view .LVU165
 487 0000 30B5     		push	{r4, r5, lr}
 488              	.LCFI18:
 489              		.cfi_def_cfa_offset 12
 490              		.cfi_offset 4, -12
 491              		.cfi_offset 5, -8
 492              		.cfi_offset 14, -4
 493 0002 8DB0     		sub	sp, sp, #52
 494              	.LCFI19:
 495              		.cfi_def_cfa_offset 64
 133:Middlewares/ST/BlueNRG-MS/hci/hci_le.c ****   struct hci_request rq;
 496              		.loc 1 133 1 view .LVU166
 497 0004 119C     		ldr	r4, [sp, #68]
 498 0006 9DF84050 		ldrb	r5, [sp, #64]	@ zero_extendqisi2
 139:Middlewares/ST/BlueNRG-MS/hci/hci_le.c ****   adv_cp.min_interval = min_interval;
 140:Middlewares/ST/BlueNRG-MS/hci/hci_le.c ****   adv_cp.max_interval = max_interval;
 499              		.loc 1 140 23 view .LVU167
 500 000a ADF80A10 		strh	r1, [sp, #10]	@ movhi
 138:Middlewares/ST/BlueNRG-MS/hci/hci_le.c ****   adv_cp.min_interval = min_interval;
 501              		.loc 1 138 3 view .LVU168
 502 000e 0021     		movs	r1, #0
 503              	.LVL21:
 138:Middlewares/ST/BlueNRG-MS/hci/hci_le.c ****   adv_cp.min_interval = min_interval;
 504              		.loc 1 138 3 view .LVU169
 505 0010 CDE90311 		strd	r1, r1, [sp, #12]
 139:Middlewares/ST/BlueNRG-MS/hci/hci_le.c ****   adv_cp.min_interval = min_interval;
 506              		.loc 1 139 23 view .LVU170
 507 0014 ADF80800 		strh	r0, [sp, #8]	@ movhi
 141:Middlewares/ST/BlueNRG-MS/hci/hci_le.c ****   adv_cp.advtype = advtype;
 508              		.loc 1 141 18 view .LVU171
 509 0018 8DF80C20 		strb	r2, [sp, #12]
 142:Middlewares/ST/BlueNRG-MS/hci/hci_le.c ****   adv_cp.own_bdaddr_type = own_bdaddr_type;
 510              		.loc 1 142 26 view .LVU172
 511 001c 8DF80D30 		strb	r3, [sp, #13]
 133:Middlewares/ST/BlueNRG-MS/hci/hci_le.c ****   struct hci_request rq;
 512              		.loc 1 133 1 view .LVU173
 513 0020 9DF84820 		ldrb	r2, [sp, #72]	@ zero_extendqisi2
 514              	.LVL22:
 133:Middlewares/ST/BlueNRG-MS/hci/hci_le.c ****   struct hci_request rq;
 515              		.loc 1 133 1 view .LVU174
 516 0024 9DF84C30 		ldrb	r3, [sp, #76]	@ zero_extendqisi2
 517              	.LVL23:
 138:Middlewares/ST/BlueNRG-MS/hci/hci_le.c ****   adv_cp.min_interval = min_interval;
 518              		.loc 1 138 3 view .LVU175
 519 0028 8DF81410 		strb	r1, [sp, #20]
 139:Middlewares/ST/BlueNRG-MS/hci/hci_le.c ****   adv_cp.max_interval = max_interval;
 520              		.loc 1 139 3 is_stmt 1 view .LVU176
ARM GAS  /tmp/ccCJ9vpL.s 			page 14


 140:Middlewares/ST/BlueNRG-MS/hci/hci_le.c ****   adv_cp.advtype = advtype;
 521              		.loc 1 140 3 view .LVU177
 141:Middlewares/ST/BlueNRG-MS/hci/hci_le.c ****   adv_cp.own_bdaddr_type = own_bdaddr_type;
 522              		.loc 1 141 3 view .LVU178
 523              		.loc 1 142 3 view .LVU179
 143:Middlewares/ST/BlueNRG-MS/hci/hci_le.c ****   adv_cp.direct_bdaddr_type = direct_bdaddr_type;
 524              		.loc 1 143 3 view .LVU180
 525              		.loc 1 143 29 is_stmt 0 view .LVU181
 526 002c 8DF80E50 		strb	r5, [sp, #14]
 144:Middlewares/ST/BlueNRG-MS/hci/hci_le.c ****   if(direct_bdaddr != NULL)
 527              		.loc 1 144 3 is_stmt 1 view .LVU182
 528              		.loc 1 144 5 is_stmt 0 view .LVU183
 529 0030 2CB1     		cbz	r4, .L28
 145:Middlewares/ST/BlueNRG-MS/hci/hci_le.c ****     BLUENRG_memcpy(adv_cp.direct_bdaddr,direct_bdaddr,sizeof(adv_cp.direct_bdaddr));
 530              		.loc 1 145 5 is_stmt 1 view .LVU184
 531 0032 2068     		ldr	r0, [r4]	@ unaligned
 532              	.LVL24:
 533              		.loc 1 145 5 is_stmt 0 view .LVU185
 534 0034 A188     		ldrh	r1, [r4, #4]	@ unaligned
 535 0036 CDF80F00 		str	r0, [sp, #15]	@ unaligned
 536 003a ADF81310 		strh	r1, [sp, #19]	@ unaligned
 537              	.L28:
 146:Middlewares/ST/BlueNRG-MS/hci/hci_le.c ****   adv_cp.chan_map = chan_map;
 538              		.loc 1 146 3 is_stmt 1 view .LVU186
 147:Middlewares/ST/BlueNRG-MS/hci/hci_le.c ****   adv_cp.filter = filter;
 148:Middlewares/ST/BlueNRG-MS/hci/hci_le.c ****   
 149:Middlewares/ST/BlueNRG-MS/hci/hci_le.c ****   BLUENRG_memset(&rq, 0, sizeof(rq));
 150:Middlewares/ST/BlueNRG-MS/hci/hci_le.c ****   rq.ogf = OGF_LE_CTL;
 539              		.loc 1 150 10 is_stmt 0 view .LVU187
 540 003e 0D48     		ldr	r0, .L35
 146:Middlewares/ST/BlueNRG-MS/hci/hci_le.c ****   adv_cp.chan_map = chan_map;
 541              		.loc 1 146 19 view .LVU188
 542 0040 8DF81520 		strb	r2, [sp, #21]
 147:Middlewares/ST/BlueNRG-MS/hci/hci_le.c ****   adv_cp.filter = filter;
 543              		.loc 1 147 3 is_stmt 1 view .LVU189
 149:Middlewares/ST/BlueNRG-MS/hci/hci_le.c ****   rq.ogf = OGF_LE_CTL;
 544              		.loc 1 149 3 is_stmt 0 view .LVU190
 545 0044 0021     		movs	r1, #0
 147:Middlewares/ST/BlueNRG-MS/hci/hci_le.c ****   adv_cp.filter = filter;
 546              		.loc 1 147 17 view .LVU191
 547 0046 8DF81630 		strb	r3, [sp, #22]
 149:Middlewares/ST/BlueNRG-MS/hci/hci_le.c ****   rq.ogf = OGF_LE_CTL;
 548              		.loc 1 149 3 is_stmt 1 view .LVU192
 151:Middlewares/ST/BlueNRG-MS/hci/hci_le.c ****   rq.ocf = OCF_LE_SET_ADV_PARAMETERS;
 152:Middlewares/ST/BlueNRG-MS/hci/hci_le.c ****   rq.cparam = &adv_cp;
 153:Middlewares/ST/BlueNRG-MS/hci/hci_le.c ****   rq.clen = LE_SET_ADV_PARAMETERS_CP_SIZE;
 154:Middlewares/ST/BlueNRG-MS/hci/hci_le.c ****   rq.rparam = &status;
 549              		.loc 1 154 13 is_stmt 0 view .LVU193
 550 004a 0DF10702 		add	r2, sp, #7
 155:Middlewares/ST/BlueNRG-MS/hci/hci_le.c ****   rq.rlen = 1;
 551              		.loc 1 155 11 view .LVU194
 552 004e 0123     		movs	r3, #1
 150:Middlewares/ST/BlueNRG-MS/hci/hci_le.c ****   rq.ocf = OCF_LE_SET_ADV_PARAMETERS;
 553              		.loc 1 150 10 view .LVU195
 554 0050 0690     		str	r0, [sp, #24]
 152:Middlewares/ST/BlueNRG-MS/hci/hci_le.c ****   rq.clen = LE_SET_ADV_PARAMETERS_CP_SIZE;
 555              		.loc 1 152 13 view .LVU196
ARM GAS  /tmp/ccCJ9vpL.s 			page 15


 556 0052 02AD     		add	r5, sp, #8
 557              	.LVL25:
 153:Middlewares/ST/BlueNRG-MS/hci/hci_le.c ****   rq.rparam = &status;
 558              		.loc 1 153 11 view .LVU197
 559 0054 0F24     		movs	r4, #15
 156:Middlewares/ST/BlueNRG-MS/hci/hci_le.c ****   
 157:Middlewares/ST/BlueNRG-MS/hci/hci_le.c ****   if (hci_send_req(&rq, FALSE) < 0)
 560              		.loc 1 157 7 view .LVU198
 561 0056 06A8     		add	r0, sp, #24
 153:Middlewares/ST/BlueNRG-MS/hci/hci_le.c ****   rq.rparam = &status;
 562              		.loc 1 153 11 view .LVU199
 563 0058 CDE90854 		strd	r5, r4, [sp, #32]
 155:Middlewares/ST/BlueNRG-MS/hci/hci_le.c ****   
 564              		.loc 1 155 11 view .LVU200
 565 005c CDE90A23 		strd	r2, r3, [sp, #40]
 149:Middlewares/ST/BlueNRG-MS/hci/hci_le.c ****   rq.ogf = OGF_LE_CTL;
 566              		.loc 1 149 3 view .LVU201
 567 0060 0791     		str	r1, [sp, #28]
 150:Middlewares/ST/BlueNRG-MS/hci/hci_le.c ****   rq.ocf = OCF_LE_SET_ADV_PARAMETERS;
 568              		.loc 1 150 3 is_stmt 1 view .LVU202
 151:Middlewares/ST/BlueNRG-MS/hci/hci_le.c ****   rq.cparam = &adv_cp;
 569              		.loc 1 151 3 view .LVU203
 152:Middlewares/ST/BlueNRG-MS/hci/hci_le.c ****   rq.clen = LE_SET_ADV_PARAMETERS_CP_SIZE;
 570              		.loc 1 152 3 view .LVU204
 154:Middlewares/ST/BlueNRG-MS/hci/hci_le.c ****   rq.rlen = 1;
 571              		.loc 1 154 3 view .LVU205
 572              		.loc 1 157 3 view .LVU206
 573              		.loc 1 157 7 is_stmt 0 view .LVU207
 574 0062 FFF7FEFF 		bl	hci_send_req
 575              	.LVL26:
 576              		.loc 1 157 6 view .LVU208
 577 0066 0028     		cmp	r0, #0
 158:Middlewares/ST/BlueNRG-MS/hci/hci_le.c ****     return BLE_STATUS_TIMEOUT;
 159:Middlewares/ST/BlueNRG-MS/hci/hci_le.c ****   
 160:Middlewares/ST/BlueNRG-MS/hci/hci_le.c ****   return status;
 578              		.loc 1 160 3 is_stmt 1 view .LVU209
 579              		.loc 1 160 10 is_stmt 0 view .LVU210
 580 0068 ACBF     		ite	ge
 581 006a 9DF80700 		ldrbge	r0, [sp, #7]	@ zero_extendqisi2
 158:Middlewares/ST/BlueNRG-MS/hci/hci_le.c ****     return BLE_STATUS_TIMEOUT;
 582              		.loc 1 158 12 view .LVU211
 583 006e FF20     		movlt	r0, #255
 161:Middlewares/ST/BlueNRG-MS/hci/hci_le.c **** }
 584              		.loc 1 161 1 view .LVU212
 585 0070 0DB0     		add	sp, sp, #52
 586              	.LCFI20:
 587              		.cfi_def_cfa_offset 12
 588              		@ sp needed
 589 0072 30BD     		pop	{r4, r5, pc}
 590              	.LVL27:
 591              	.L36:
 592              		.loc 1 161 1 view .LVU213
 593              		.align	2
 594              	.L35:
 595 0074 08000600 		.word	393224
 596              		.cfi_endproc
 597              	.LFE134:
ARM GAS  /tmp/ccCJ9vpL.s 			page 16


 599              		.section	.text.hci_le_set_advertising_data,"ax",%progbits
 600              		.align	1
 601              		.p2align 2,,3
 602              		.global	hci_le_set_advertising_data
 603              		.syntax unified
 604              		.thumb
 605              		.thumb_func
 606              		.fpu fpv4-sp-d16
 608              	hci_le_set_advertising_data:
 609              	.LVL28:
 610              	.LFB135:
 162:Middlewares/ST/BlueNRG-MS/hci/hci_le.c **** 
 163:Middlewares/ST/BlueNRG-MS/hci/hci_le.c **** int hci_le_set_advertising_data(uint8_t length, const uint8_t data[])
 164:Middlewares/ST/BlueNRG-MS/hci/hci_le.c **** {
 611              		.loc 1 164 1 is_stmt 1 view -0
 612              		.cfi_startproc
 613              		@ args = 0, pretend = 0, frame = 64
 614              		@ frame_needed = 0, uses_anonymous_args = 0
 165:Middlewares/ST/BlueNRG-MS/hci/hci_le.c ****   struct hci_request rq;
 615              		.loc 1 165 3 view .LVU215
 166:Middlewares/ST/BlueNRG-MS/hci/hci_le.c ****   le_set_adv_data_cp adv_cp;
 616              		.loc 1 166 3 view .LVU216
 167:Middlewares/ST/BlueNRG-MS/hci/hci_le.c ****   uint8_t status;
 617              		.loc 1 167 3 view .LVU217
 168:Middlewares/ST/BlueNRG-MS/hci/hci_le.c ****   
 169:Middlewares/ST/BlueNRG-MS/hci/hci_le.c ****   BLUENRG_memset(&adv_cp, 0, sizeof(adv_cp));
 618              		.loc 1 169 3 view .LVU218
 164:Middlewares/ST/BlueNRG-MS/hci/hci_le.c ****   struct hci_request rq;
 619              		.loc 1 164 1 is_stmt 0 view .LVU219
 620 0000 F0B5     		push	{r4, r5, r6, r7, lr}
 621              	.LCFI21:
 622              		.cfi_def_cfa_offset 20
 623              		.cfi_offset 4, -20
 624              		.cfi_offset 5, -16
 625              		.cfi_offset 6, -12
 626              		.cfi_offset 7, -8
 627              		.cfi_offset 14, -4
 628 0002 91B0     		sub	sp, sp, #68
 629              	.LCFI22:
 630              		.cfi_def_cfa_offset 88
 631              		.loc 1 169 3 view .LVU220
 632 0004 08AF     		add	r7, sp, #32
 633 0006 2026     		movs	r6, #32
 164:Middlewares/ST/BlueNRG-MS/hci/hci_le.c ****   struct hci_request rq;
 634              		.loc 1 164 1 view .LVU221
 635 0008 0446     		mov	r4, r0
 636 000a 0D46     		mov	r5, r1
 637              		.loc 1 169 3 view .LVU222
 638 000c 3246     		mov	r2, r6
 639 000e 3846     		mov	r0, r7
 640              	.LVL29:
 641              		.loc 1 169 3 view .LVU223
 642 0010 0021     		movs	r1, #0
 643              	.LVL30:
 644              		.loc 1 169 3 view .LVU224
 645 0012 FFF7FEFF 		bl	memset
 646              	.LVL31:
ARM GAS  /tmp/ccCJ9vpL.s 			page 17


 170:Middlewares/ST/BlueNRG-MS/hci/hci_le.c ****   adv_cp.length = length;
 647              		.loc 1 170 3 is_stmt 1 view .LVU225
 171:Middlewares/ST/BlueNRG-MS/hci/hci_le.c ****   BLUENRG_memcpy(adv_cp.data, data, MIN(31,length));
 648              		.loc 1 171 3 is_stmt 0 view .LVU226
 649 0016 1F2C     		cmp	r4, #31
 650 0018 2246     		mov	r2, r4
 651 001a 2946     		mov	r1, r5
 652 001c 28BF     		it	cs
 653 001e 1F22     		movcs	r2, #31
 654 0020 0DF12100 		add	r0, sp, #33
 170:Middlewares/ST/BlueNRG-MS/hci/hci_le.c ****   adv_cp.length = length;
 655              		.loc 1 170 17 view .LVU227
 656 0024 8DF82040 		strb	r4, [sp, #32]
 657              		.loc 1 171 3 is_stmt 1 view .LVU228
 658 0028 FFF7FEFF 		bl	memcpy
 659              	.LVL32:
 172:Middlewares/ST/BlueNRG-MS/hci/hci_le.c ****   
 173:Middlewares/ST/BlueNRG-MS/hci/hci_le.c ****   BLUENRG_memset(&rq, 0, sizeof(rq));
 660              		.loc 1 173 3 view .LVU229
 174:Middlewares/ST/BlueNRG-MS/hci/hci_le.c ****   rq.ogf = OGF_LE_CTL;
 661              		.loc 1 174 10 is_stmt 0 view .LVU230
 662 002c 4FF00814 		mov	r4, #524296
 173:Middlewares/ST/BlueNRG-MS/hci/hci_le.c ****   rq.ogf = OGF_LE_CTL;
 663              		.loc 1 173 3 view .LVU231
 664 0030 0021     		movs	r1, #0
 175:Middlewares/ST/BlueNRG-MS/hci/hci_le.c ****   rq.ocf = OCF_LE_SET_ADV_DATA;
 176:Middlewares/ST/BlueNRG-MS/hci/hci_le.c ****   rq.cparam = &adv_cp;
 177:Middlewares/ST/BlueNRG-MS/hci/hci_le.c ****   rq.clen = LE_SET_ADV_DATA_CP_SIZE;
 178:Middlewares/ST/BlueNRG-MS/hci/hci_le.c ****   rq.rparam = &status;
 665              		.loc 1 178 13 view .LVU232
 666 0032 0DF10702 		add	r2, sp, #7
 179:Middlewares/ST/BlueNRG-MS/hci/hci_le.c ****   rq.rlen = 1;
 667              		.loc 1 179 11 view .LVU233
 668 0036 0123     		movs	r3, #1
 180:Middlewares/ST/BlueNRG-MS/hci/hci_le.c ****   
 181:Middlewares/ST/BlueNRG-MS/hci/hci_le.c ****   if (hci_send_req(&rq, FALSE) < 0)
 669              		.loc 1 181 7 view .LVU234
 670 0038 02A8     		add	r0, sp, #8
 177:Middlewares/ST/BlueNRG-MS/hci/hci_le.c ****   rq.rparam = &status;
 671              		.loc 1 177 11 view .LVU235
 672 003a CDE90476 		strd	r7, r6, [sp, #16]
 174:Middlewares/ST/BlueNRG-MS/hci/hci_le.c ****   rq.ocf = OCF_LE_SET_ADV_DATA;
 673              		.loc 1 174 10 view .LVU236
 674 003e CDE90241 		strd	r4, r1, [sp, #8]
 176:Middlewares/ST/BlueNRG-MS/hci/hci_le.c ****   rq.clen = LE_SET_ADV_DATA_CP_SIZE;
 675              		.loc 1 176 3 is_stmt 1 view .LVU237
 177:Middlewares/ST/BlueNRG-MS/hci/hci_le.c ****   rq.rparam = &status;
 676              		.loc 1 177 3 view .LVU238
 178:Middlewares/ST/BlueNRG-MS/hci/hci_le.c ****   rq.rlen = 1;
 677              		.loc 1 178 3 view .LVU239
 179:Middlewares/ST/BlueNRG-MS/hci/hci_le.c ****   
 678              		.loc 1 179 11 is_stmt 0 view .LVU240
 679 0042 CDE90623 		strd	r2, r3, [sp, #24]
 680              		.loc 1 181 3 is_stmt 1 view .LVU241
 681              		.loc 1 181 7 is_stmt 0 view .LVU242
 682 0046 FFF7FEFF 		bl	hci_send_req
 683              	.LVL33:
ARM GAS  /tmp/ccCJ9vpL.s 			page 18


 684              		.loc 1 181 6 view .LVU243
 685 004a 0028     		cmp	r0, #0
 182:Middlewares/ST/BlueNRG-MS/hci/hci_le.c ****     return BLE_STATUS_TIMEOUT;
 183:Middlewares/ST/BlueNRG-MS/hci/hci_le.c ****   
 184:Middlewares/ST/BlueNRG-MS/hci/hci_le.c ****   return status;
 686              		.loc 1 184 3 is_stmt 1 view .LVU244
 687              		.loc 1 184 10 is_stmt 0 view .LVU245
 688 004c ACBF     		ite	ge
 689 004e 9DF80700 		ldrbge	r0, [sp, #7]	@ zero_extendqisi2
 182:Middlewares/ST/BlueNRG-MS/hci/hci_le.c ****     return BLE_STATUS_TIMEOUT;
 690              		.loc 1 182 12 view .LVU246
 691 0052 FF20     		movlt	r0, #255
 185:Middlewares/ST/BlueNRG-MS/hci/hci_le.c **** }
 692              		.loc 1 185 1 view .LVU247
 693 0054 11B0     		add	sp, sp, #68
 694              	.LCFI23:
 695              		.cfi_def_cfa_offset 20
 696              		@ sp needed
 697 0056 F0BD     		pop	{r4, r5, r6, r7, pc}
 698              		.loc 1 185 1 view .LVU248
 699              		.cfi_endproc
 700              	.LFE135:
 702              		.section	.text.hci_le_set_advertise_enable,"ax",%progbits
 703              		.align	1
 704              		.p2align 2,,3
 705              		.global	hci_le_set_advertise_enable
 706              		.syntax unified
 707              		.thumb
 708              		.thumb_func
 709              		.fpu fpv4-sp-d16
 711              	hci_le_set_advertise_enable:
 712              	.LVL34:
 713              	.LFB136:
 186:Middlewares/ST/BlueNRG-MS/hci/hci_le.c **** 
 187:Middlewares/ST/BlueNRG-MS/hci/hci_le.c **** int hci_le_set_advertise_enable(uint8_t enable)
 188:Middlewares/ST/BlueNRG-MS/hci/hci_le.c **** {
 714              		.loc 1 188 1 is_stmt 1 view -0
 715              		.cfi_startproc
 716              		@ args = 0, pretend = 0, frame = 32
 717              		@ frame_needed = 0, uses_anonymous_args = 0
 189:Middlewares/ST/BlueNRG-MS/hci/hci_le.c ****   struct hci_request rq;
 718              		.loc 1 189 3 view .LVU250
 190:Middlewares/ST/BlueNRG-MS/hci/hci_le.c ****   le_set_advertise_enable_cp adv_cp;
 719              		.loc 1 190 3 view .LVU251
 191:Middlewares/ST/BlueNRG-MS/hci/hci_le.c ****   uint8_t status;
 720              		.loc 1 191 3 view .LVU252
 192:Middlewares/ST/BlueNRG-MS/hci/hci_le.c ****   
 193:Middlewares/ST/BlueNRG-MS/hci/hci_le.c ****   BLUENRG_memset(&adv_cp, 0, sizeof(adv_cp));
 721              		.loc 1 193 3 view .LVU253
 194:Middlewares/ST/BlueNRG-MS/hci/hci_le.c ****   adv_cp.enable = enable?1:0;
 722              		.loc 1 194 3 view .LVU254
 188:Middlewares/ST/BlueNRG-MS/hci/hci_le.c ****   struct hci_request rq;
 723              		.loc 1 188 1 is_stmt 0 view .LVU255
 724 0000 30B5     		push	{r4, r5, lr}
 725              	.LCFI24:
 726              		.cfi_def_cfa_offset 12
 727              		.cfi_offset 4, -12
ARM GAS  /tmp/ccCJ9vpL.s 			page 19


 728              		.cfi_offset 5, -8
 729              		.cfi_offset 14, -4
 195:Middlewares/ST/BlueNRG-MS/hci/hci_le.c ****   
 196:Middlewares/ST/BlueNRG-MS/hci/hci_le.c ****   BLUENRG_memset(&rq, 0, sizeof(rq));
 730              		.loc 1 196 3 view .LVU256
 731 0002 0021     		movs	r1, #0
 188:Middlewares/ST/BlueNRG-MS/hci/hci_le.c ****   struct hci_request rq;
 732              		.loc 1 188 1 view .LVU257
 733 0004 89B0     		sub	sp, sp, #36
 734              	.LCFI25:
 735              		.cfi_def_cfa_offset 48
 194:Middlewares/ST/BlueNRG-MS/hci/hci_le.c ****   
 736              		.loc 1 194 27 view .LVU258
 737 0006 401A     		subs	r0, r0, r1
 738              	.LVL35:
 194:Middlewares/ST/BlueNRG-MS/hci/hci_le.c ****   
 739              		.loc 1 194 27 view .LVU259
 740 0008 18BF     		it	ne
 741 000a 0120     		movne	r0, #1
 197:Middlewares/ST/BlueNRG-MS/hci/hci_le.c ****   rq.ogf = OGF_LE_CTL;
 198:Middlewares/ST/BlueNRG-MS/hci/hci_le.c ****   rq.ocf = OCF_LE_SET_ADVERTISE_ENABLE;
 199:Middlewares/ST/BlueNRG-MS/hci/hci_le.c ****   rq.cparam = &adv_cp;
 200:Middlewares/ST/BlueNRG-MS/hci/hci_le.c ****   rq.clen = LE_SET_ADVERTISE_ENABLE_CP_SIZE;
 742              		.loc 1 200 11 view .LVU260
 743 000c 0123     		movs	r3, #1
 194:Middlewares/ST/BlueNRG-MS/hci/hci_le.c ****   
 744              		.loc 1 194 27 view .LVU261
 745 000e 8DF80400 		strb	r0, [sp, #4]
 196:Middlewares/ST/BlueNRG-MS/hci/hci_le.c ****   rq.ogf = OGF_LE_CTL;
 746              		.loc 1 196 3 is_stmt 1 view .LVU262
 201:Middlewares/ST/BlueNRG-MS/hci/hci_le.c ****   rq.rparam = &status;
 747              		.loc 1 201 13 is_stmt 0 view .LVU263
 748 0012 0DF10702 		add	r2, sp, #7
 197:Middlewares/ST/BlueNRG-MS/hci/hci_le.c ****   rq.ogf = OGF_LE_CTL;
 749              		.loc 1 197 10 view .LVU264
 750 0016 094D     		ldr	r5, .L45
 196:Middlewares/ST/BlueNRG-MS/hci/hci_le.c ****   rq.ogf = OGF_LE_CTL;
 751              		.loc 1 196 3 view .LVU265
 752 0018 0391     		str	r1, [sp, #12]
 197:Middlewares/ST/BlueNRG-MS/hci/hci_le.c ****   rq.ogf = OGF_LE_CTL;
 753              		.loc 1 197 3 is_stmt 1 view .LVU266
 198:Middlewares/ST/BlueNRG-MS/hci/hci_le.c ****   rq.cparam = &adv_cp;
 754              		.loc 1 198 3 view .LVU267
 199:Middlewares/ST/BlueNRG-MS/hci/hci_le.c ****   rq.clen = LE_SET_ADVERTISE_ENABLE_CP_SIZE;
 755              		.loc 1 199 13 is_stmt 0 view .LVU268
 756 001a 01AC     		add	r4, sp, #4
 202:Middlewares/ST/BlueNRG-MS/hci/hci_le.c ****   rq.rlen = 1;
 203:Middlewares/ST/BlueNRG-MS/hci/hci_le.c ****   
 204:Middlewares/ST/BlueNRG-MS/hci/hci_le.c ****   if (hci_send_req(&rq, FALSE) < 0)
 757              		.loc 1 204 7 view .LVU269
 758 001c 02A8     		add	r0, sp, #8
 200:Middlewares/ST/BlueNRG-MS/hci/hci_le.c ****   rq.rparam = &status;
 759              		.loc 1 200 11 view .LVU270
 760 001e CDE90443 		strd	r4, r3, [sp, #16]
 201:Middlewares/ST/BlueNRG-MS/hci/hci_le.c ****   rq.rlen = 1;
 761              		.loc 1 201 13 view .LVU271
 762 0022 CDE90623 		strd	r2, r3, [sp, #24]
ARM GAS  /tmp/ccCJ9vpL.s 			page 20


 197:Middlewares/ST/BlueNRG-MS/hci/hci_le.c ****   rq.ocf = OCF_LE_SET_ADVERTISE_ENABLE;
 763              		.loc 1 197 10 view .LVU272
 764 0026 0295     		str	r5, [sp, #8]
 199:Middlewares/ST/BlueNRG-MS/hci/hci_le.c ****   rq.clen = LE_SET_ADVERTISE_ENABLE_CP_SIZE;
 765              		.loc 1 199 3 is_stmt 1 view .LVU273
 201:Middlewares/ST/BlueNRG-MS/hci/hci_le.c ****   rq.rlen = 1;
 766              		.loc 1 201 3 view .LVU274
 202:Middlewares/ST/BlueNRG-MS/hci/hci_le.c ****   
 767              		.loc 1 202 3 view .LVU275
 768              		.loc 1 204 3 view .LVU276
 769              		.loc 1 204 7 is_stmt 0 view .LVU277
 770 0028 FFF7FEFF 		bl	hci_send_req
 771              	.LVL36:
 772              		.loc 1 204 6 view .LVU278
 773 002c 0028     		cmp	r0, #0
 205:Middlewares/ST/BlueNRG-MS/hci/hci_le.c ****     return BLE_STATUS_TIMEOUT;
 206:Middlewares/ST/BlueNRG-MS/hci/hci_le.c ****   
 207:Middlewares/ST/BlueNRG-MS/hci/hci_le.c ****   return status;
 774              		.loc 1 207 3 is_stmt 1 view .LVU279
 775              		.loc 1 207 10 is_stmt 0 view .LVU280
 776 002e ACBF     		ite	ge
 777 0030 9DF80700 		ldrbge	r0, [sp, #7]	@ zero_extendqisi2
 205:Middlewares/ST/BlueNRG-MS/hci/hci_le.c ****     return BLE_STATUS_TIMEOUT;
 778              		.loc 1 205 12 view .LVU281
 779 0034 FF20     		movlt	r0, #255
 208:Middlewares/ST/BlueNRG-MS/hci/hci_le.c **** }
 780              		.loc 1 208 1 view .LVU282
 781 0036 09B0     		add	sp, sp, #36
 782              	.LCFI26:
 783              		.cfi_def_cfa_offset 12
 784              		@ sp needed
 785 0038 30BD     		pop	{r4, r5, pc}
 786              	.L46:
 787 003a 00BF     		.align	2
 788              	.L45:
 789 003c 08000A00 		.word	655368
 790              		.cfi_endproc
 791              	.LFE136:
 793              		.section	.text.hci_le_set_scan_parameters,"ax",%progbits
 794              		.align	1
 795              		.p2align 2,,3
 796              		.global	hci_le_set_scan_parameters
 797              		.syntax unified
 798              		.thumb
 799              		.thumb_func
 800              		.fpu fpv4-sp-d16
 802              	hci_le_set_scan_parameters:
 803              	.LVL37:
 804              	.LFB137:
 209:Middlewares/ST/BlueNRG-MS/hci/hci_le.c **** 
 210:Middlewares/ST/BlueNRG-MS/hci/hci_le.c **** int hci_le_set_scan_parameters(uint8_t	type, uint16_t interval,
 211:Middlewares/ST/BlueNRG-MS/hci/hci_le.c ****                                uint16_t window, uint8_t own_bdaddr_type,
 212:Middlewares/ST/BlueNRG-MS/hci/hci_le.c ****                                uint8_t	filter)
 213:Middlewares/ST/BlueNRG-MS/hci/hci_le.c **** {
 805              		.loc 1 213 1 is_stmt 1 view -0
 806              		.cfi_startproc
 807              		@ args = 4, pretend = 0, frame = 40
ARM GAS  /tmp/ccCJ9vpL.s 			page 21


 808              		@ frame_needed = 0, uses_anonymous_args = 0
 214:Middlewares/ST/BlueNRG-MS/hci/hci_le.c ****   struct hci_request rq;
 809              		.loc 1 214 3 view .LVU284
 215:Middlewares/ST/BlueNRG-MS/hci/hci_le.c ****   le_set_scan_parameters_cp scan_cp;
 810              		.loc 1 215 3 view .LVU285
 216:Middlewares/ST/BlueNRG-MS/hci/hci_le.c ****   uint8_t status;
 811              		.loc 1 216 3 view .LVU286
 217:Middlewares/ST/BlueNRG-MS/hci/hci_le.c ****   
 218:Middlewares/ST/BlueNRG-MS/hci/hci_le.c ****   BLUENRG_memset(&scan_cp, 0, sizeof(scan_cp));
 812              		.loc 1 218 3 view .LVU287
 219:Middlewares/ST/BlueNRG-MS/hci/hci_le.c ****   scan_cp.type = type;
 813              		.loc 1 219 3 view .LVU288
 213:Middlewares/ST/BlueNRG-MS/hci/hci_le.c ****   struct hci_request rq;
 814              		.loc 1 213 1 is_stmt 0 view .LVU289
 815 0000 F0B5     		push	{r4, r5, r6, r7, lr}
 816              	.LCFI27:
 817              		.cfi_def_cfa_offset 20
 818              		.cfi_offset 4, -20
 819              		.cfi_offset 5, -16
 820              		.cfi_offset 6, -12
 821              		.cfi_offset 7, -8
 822              		.cfi_offset 14, -4
 823 0002 8BB0     		sub	sp, sp, #44
 824              	.LCFI28:
 825              		.cfi_def_cfa_offset 64
 213:Middlewares/ST/BlueNRG-MS/hci/hci_le.c ****   struct hci_request rq;
 826              		.loc 1 213 1 view .LVU290
 827 0004 0D46     		mov	r5, r1
 220:Middlewares/ST/BlueNRG-MS/hci/hci_le.c ****   scan_cp.interval = interval;
 221:Middlewares/ST/BlueNRG-MS/hci/hci_le.c ****   scan_cp.window = window;
 222:Middlewares/ST/BlueNRG-MS/hci/hci_le.c ****   scan_cp.own_bdaddr_type = own_bdaddr_type;
 223:Middlewares/ST/BlueNRG-MS/hci/hci_le.c ****   scan_cp.filter = filter;
 224:Middlewares/ST/BlueNRG-MS/hci/hci_le.c ****   
 225:Middlewares/ST/BlueNRG-MS/hci/hci_le.c ****   BLUENRG_memset(&rq, 0, sizeof(rq));
 828              		.loc 1 225 3 view .LVU291
 829 0006 0024     		movs	r4, #0
 219:Middlewares/ST/BlueNRG-MS/hci/hci_le.c ****   scan_cp.interval = interval;
 830              		.loc 1 219 16 view .LVU292
 831 0008 8DF80800 		strb	r0, [sp, #8]
 220:Middlewares/ST/BlueNRG-MS/hci/hci_le.c ****   scan_cp.interval = interval;
 832              		.loc 1 220 3 is_stmt 1 view .LVU293
 220:Middlewares/ST/BlueNRG-MS/hci/hci_le.c ****   scan_cp.interval = interval;
 833              		.loc 1 220 20 is_stmt 0 view .LVU294
 834 000c ADF80950 		strh	r5, [sp, #9]	@ unaligned
 221:Middlewares/ST/BlueNRG-MS/hci/hci_le.c ****   scan_cp.own_bdaddr_type = own_bdaddr_type;
 835              		.loc 1 221 3 is_stmt 1 view .LVU295
 226:Middlewares/ST/BlueNRG-MS/hci/hci_le.c ****   rq.ogf = OGF_LE_CTL;
 836              		.loc 1 226 10 is_stmt 0 view .LVU296
 837 0010 0F48     		ldr	r0, .L51
 838              	.LVL38:
 213:Middlewares/ST/BlueNRG-MS/hci/hci_le.c ****   struct hci_request rq;
 839              		.loc 1 213 1 view .LVU297
 840 0012 9DF84070 		ldrb	r7, [sp, #64]	@ zero_extendqisi2
 221:Middlewares/ST/BlueNRG-MS/hci/hci_le.c ****   scan_cp.own_bdaddr_type = own_bdaddr_type;
 841              		.loc 1 221 18 view .LVU298
 842 0016 ADF80B20 		strh	r2, [sp, #11]	@ unaligned
 222:Middlewares/ST/BlueNRG-MS/hci/hci_le.c ****   scan_cp.filter = filter;
ARM GAS  /tmp/ccCJ9vpL.s 			page 22


 843              		.loc 1 222 3 is_stmt 1 view .LVU299
 227:Middlewares/ST/BlueNRG-MS/hci/hci_le.c ****   rq.ocf = OCF_LE_SET_SCAN_PARAMETERS;
 228:Middlewares/ST/BlueNRG-MS/hci/hci_le.c ****   rq.cparam = &scan_cp;
 229:Middlewares/ST/BlueNRG-MS/hci/hci_le.c ****   rq.clen = LE_SET_SCAN_PARAMETERS_CP_SIZE;
 844              		.loc 1 229 11 is_stmt 0 view .LVU300
 845 001a 0725     		movs	r5, #7
 222:Middlewares/ST/BlueNRG-MS/hci/hci_le.c ****   scan_cp.filter = filter;
 846              		.loc 1 222 27 view .LVU301
 847 001c 8DF80D30 		strb	r3, [sp, #13]
 223:Middlewares/ST/BlueNRG-MS/hci/hci_le.c ****   
 848              		.loc 1 223 3 is_stmt 1 view .LVU302
 230:Middlewares/ST/BlueNRG-MS/hci/hci_le.c ****   rq.rparam = &status;
 849              		.loc 1 230 13 is_stmt 0 view .LVU303
 850 0020 0DEB0502 		add	r2, sp, r5
 851              	.LVL39:
 231:Middlewares/ST/BlueNRG-MS/hci/hci_le.c ****   rq.rlen = 1;
 852              		.loc 1 231 11 view .LVU304
 853 0024 0123     		movs	r3, #1
 854              	.LVL40:
 226:Middlewares/ST/BlueNRG-MS/hci/hci_le.c ****   rq.ocf = OCF_LE_SET_SCAN_PARAMETERS;
 855              		.loc 1 226 10 view .LVU305
 856 0026 0490     		str	r0, [sp, #16]
 232:Middlewares/ST/BlueNRG-MS/hci/hci_le.c ****   
 233:Middlewares/ST/BlueNRG-MS/hci/hci_le.c ****   if (hci_send_req(&rq, FALSE) < 0)
 857              		.loc 1 233 7 view .LVU306
 858 0028 2146     		mov	r1, r4
 859              	.LVL41:
 228:Middlewares/ST/BlueNRG-MS/hci/hci_le.c ****   rq.clen = LE_SET_SCAN_PARAMETERS_CP_SIZE;
 860              		.loc 1 228 13 view .LVU307
 861 002a 02AE     		add	r6, sp, #8
 862              	.LVL42:
 863              		.loc 1 233 7 view .LVU308
 864 002c 04A8     		add	r0, sp, #16
 229:Middlewares/ST/BlueNRG-MS/hci/hci_le.c ****   rq.rparam = &status;
 865              		.loc 1 229 11 view .LVU309
 866 002e CDE90665 		strd	r6, r5, [sp, #24]
 231:Middlewares/ST/BlueNRG-MS/hci/hci_le.c ****   
 867              		.loc 1 231 11 view .LVU310
 868 0032 CDE90823 		strd	r2, r3, [sp, #32]
 225:Middlewares/ST/BlueNRG-MS/hci/hci_le.c ****   rq.ogf = OGF_LE_CTL;
 869              		.loc 1 225 3 view .LVU311
 870 0036 0594     		str	r4, [sp, #20]
 223:Middlewares/ST/BlueNRG-MS/hci/hci_le.c ****   
 871              		.loc 1 223 18 view .LVU312
 872 0038 8DF80E70 		strb	r7, [sp, #14]
 225:Middlewares/ST/BlueNRG-MS/hci/hci_le.c ****   rq.ogf = OGF_LE_CTL;
 873              		.loc 1 225 3 is_stmt 1 view .LVU313
 226:Middlewares/ST/BlueNRG-MS/hci/hci_le.c ****   rq.ocf = OCF_LE_SET_SCAN_PARAMETERS;
 874              		.loc 1 226 3 view .LVU314
 227:Middlewares/ST/BlueNRG-MS/hci/hci_le.c ****   rq.cparam = &scan_cp;
 875              		.loc 1 227 3 view .LVU315
 228:Middlewares/ST/BlueNRG-MS/hci/hci_le.c ****   rq.clen = LE_SET_SCAN_PARAMETERS_CP_SIZE;
 876              		.loc 1 228 3 view .LVU316
 230:Middlewares/ST/BlueNRG-MS/hci/hci_le.c ****   rq.rlen = 1;
 877              		.loc 1 230 3 view .LVU317
 878              		.loc 1 233 3 view .LVU318
 879              		.loc 1 233 7 is_stmt 0 view .LVU319
ARM GAS  /tmp/ccCJ9vpL.s 			page 23


 880 003c FFF7FEFF 		bl	hci_send_req
 881              	.LVL43:
 882              		.loc 1 233 6 view .LVU320
 883 0040 A042     		cmp	r0, r4
 234:Middlewares/ST/BlueNRG-MS/hci/hci_le.c ****     return BLE_STATUS_TIMEOUT;
 235:Middlewares/ST/BlueNRG-MS/hci/hci_le.c ****   
 236:Middlewares/ST/BlueNRG-MS/hci/hci_le.c ****   return status;
 884              		.loc 1 236 3 is_stmt 1 view .LVU321
 885              		.loc 1 236 10 is_stmt 0 view .LVU322
 886 0042 ACBF     		ite	ge
 887 0044 9DF80700 		ldrbge	r0, [sp, #7]	@ zero_extendqisi2
 234:Middlewares/ST/BlueNRG-MS/hci/hci_le.c ****     return BLE_STATUS_TIMEOUT;
 888              		.loc 1 234 12 view .LVU323
 889 0048 FF20     		movlt	r0, #255
 237:Middlewares/ST/BlueNRG-MS/hci/hci_le.c **** }
 890              		.loc 1 237 1 view .LVU324
 891 004a 0BB0     		add	sp, sp, #44
 892              	.LCFI29:
 893              		.cfi_def_cfa_offset 20
 894              		@ sp needed
 895 004c F0BD     		pop	{r4, r5, r6, r7, pc}
 896              	.LVL44:
 897              	.L52:
 898              		.loc 1 237 1 view .LVU325
 899 004e 00BF     		.align	2
 900              	.L51:
 901 0050 08000B00 		.word	720904
 902              		.cfi_endproc
 903              	.LFE137:
 905              		.section	.text.hci_le_set_scan_enable,"ax",%progbits
 906              		.align	1
 907              		.p2align 2,,3
 908              		.global	hci_le_set_scan_enable
 909              		.syntax unified
 910              		.thumb
 911              		.thumb_func
 912              		.fpu fpv4-sp-d16
 914              	hci_le_set_scan_enable:
 915              	.LVL45:
 916              	.LFB138:
 238:Middlewares/ST/BlueNRG-MS/hci/hci_le.c **** 
 239:Middlewares/ST/BlueNRG-MS/hci/hci_le.c **** int hci_le_set_scan_enable(uint8_t enable, uint8_t filter_dup)
 240:Middlewares/ST/BlueNRG-MS/hci/hci_le.c **** {
 917              		.loc 1 240 1 is_stmt 1 view -0
 918              		.cfi_startproc
 919              		@ args = 0, pretend = 0, frame = 32
 920              		@ frame_needed = 0, uses_anonymous_args = 0
 241:Middlewares/ST/BlueNRG-MS/hci/hci_le.c ****   struct hci_request rq;
 921              		.loc 1 241 3 view .LVU327
 242:Middlewares/ST/BlueNRG-MS/hci/hci_le.c ****   le_set_scan_enable_cp scan_cp;
 922              		.loc 1 242 3 view .LVU328
 243:Middlewares/ST/BlueNRG-MS/hci/hci_le.c ****   uint8_t status;
 923              		.loc 1 243 3 view .LVU329
 244:Middlewares/ST/BlueNRG-MS/hci/hci_le.c ****   
 245:Middlewares/ST/BlueNRG-MS/hci/hci_le.c ****   BLUENRG_memset(&scan_cp, 0, sizeof(scan_cp));
 924              		.loc 1 245 3 view .LVU330
 246:Middlewares/ST/BlueNRG-MS/hci/hci_le.c ****   scan_cp.enable = enable?1:0;
ARM GAS  /tmp/ccCJ9vpL.s 			page 24


 925              		.loc 1 246 3 view .LVU331
 240:Middlewares/ST/BlueNRG-MS/hci/hci_le.c ****   struct hci_request rq;
 926              		.loc 1 240 1 is_stmt 0 view .LVU332
 927 0000 70B5     		push	{r4, r5, r6, lr}
 928              	.LCFI30:
 929              		.cfi_def_cfa_offset 16
 930              		.cfi_offset 4, -16
 931              		.cfi_offset 5, -12
 932              		.cfi_offset 6, -8
 933              		.cfi_offset 14, -4
 247:Middlewares/ST/BlueNRG-MS/hci/hci_le.c ****   scan_cp.filter_dup = filter_dup;
 248:Middlewares/ST/BlueNRG-MS/hci/hci_le.c ****   
 249:Middlewares/ST/BlueNRG-MS/hci/hci_le.c ****   BLUENRG_memset(&rq, 0, sizeof(rq));
 934              		.loc 1 249 3 view .LVU333
 935 0002 0023     		movs	r3, #0
 240:Middlewares/ST/BlueNRG-MS/hci/hci_le.c ****   struct hci_request rq;
 936              		.loc 1 240 1 view .LVU334
 937 0004 88B0     		sub	sp, sp, #32
 938              	.LCFI31:
 939              		.cfi_def_cfa_offset 48
 246:Middlewares/ST/BlueNRG-MS/hci/hci_le.c ****   scan_cp.filter_dup = filter_dup;
 940              		.loc 1 246 28 view .LVU335
 941 0006 C01A     		subs	r0, r0, r3
 942              	.LVL46:
 246:Middlewares/ST/BlueNRG-MS/hci/hci_le.c ****   scan_cp.filter_dup = filter_dup;
 943              		.loc 1 246 28 view .LVU336
 944 0008 18BF     		it	ne
 945 000a 0120     		movne	r0, #1
 240:Middlewares/ST/BlueNRG-MS/hci/hci_le.c ****   struct hci_request rq;
 946              		.loc 1 240 1 view .LVU337
 947 000c 0A46     		mov	r2, r1
 246:Middlewares/ST/BlueNRG-MS/hci/hci_le.c ****   scan_cp.filter_dup = filter_dup;
 948              		.loc 1 246 28 view .LVU338
 949 000e 8DF80400 		strb	r0, [sp, #4]
 247:Middlewares/ST/BlueNRG-MS/hci/hci_le.c ****   scan_cp.filter_dup = filter_dup;
 950              		.loc 1 247 3 is_stmt 1 view .LVU339
 250:Middlewares/ST/BlueNRG-MS/hci/hci_le.c ****   rq.ogf = OGF_LE_CTL;
 251:Middlewares/ST/BlueNRG-MS/hci/hci_le.c ****   rq.ocf = OCF_LE_SET_SCAN_ENABLE;
 252:Middlewares/ST/BlueNRG-MS/hci/hci_le.c ****   rq.cparam = &scan_cp;
 253:Middlewares/ST/BlueNRG-MS/hci/hci_le.c ****   rq.clen = LE_SET_SCAN_ENABLE_CP_SIZE;
 254:Middlewares/ST/BlueNRG-MS/hci/hci_le.c ****   rq.rparam = &status;
 255:Middlewares/ST/BlueNRG-MS/hci/hci_le.c ****   rq.rlen = 1;
 256:Middlewares/ST/BlueNRG-MS/hci/hci_le.c ****   
 257:Middlewares/ST/BlueNRG-MS/hci/hci_le.c ****   if (hci_send_req(&rq, FALSE) < 0)
 951              		.loc 1 257 7 is_stmt 0 view .LVU340
 952 0012 1946     		mov	r1, r3
 953              	.LVL47:
 247:Middlewares/ST/BlueNRG-MS/hci/hci_le.c ****   
 954              		.loc 1 247 22 view .LVU341
 955 0014 8DF80520 		strb	r2, [sp, #5]
 249:Middlewares/ST/BlueNRG-MS/hci/hci_le.c ****   rq.ogf = OGF_LE_CTL;
 956              		.loc 1 249 3 is_stmt 1 view .LVU342
 957 0018 0393     		str	r3, [sp, #12]
 250:Middlewares/ST/BlueNRG-MS/hci/hci_le.c ****   rq.ogf = OGF_LE_CTL;
 958              		.loc 1 250 3 view .LVU343
 251:Middlewares/ST/BlueNRG-MS/hci/hci_le.c ****   rq.cparam = &scan_cp;
 959              		.loc 1 251 3 view .LVU344
ARM GAS  /tmp/ccCJ9vpL.s 			page 25


 254:Middlewares/ST/BlueNRG-MS/hci/hci_le.c ****   rq.rlen = 1;
 960              		.loc 1 254 13 is_stmt 0 view .LVU345
 961 001a 0DF10302 		add	r2, sp, #3
 255:Middlewares/ST/BlueNRG-MS/hci/hci_le.c ****   
 962              		.loc 1 255 11 view .LVU346
 963 001e 0123     		movs	r3, #1
 250:Middlewares/ST/BlueNRG-MS/hci/hci_le.c ****   rq.ocf = OCF_LE_SET_SCAN_ENABLE;
 964              		.loc 1 250 10 view .LVU347
 965 0020 084E     		ldr	r6, .L57
 966 0022 0296     		str	r6, [sp, #8]
 252:Middlewares/ST/BlueNRG-MS/hci/hci_le.c ****   rq.clen = LE_SET_SCAN_ENABLE_CP_SIZE;
 967              		.loc 1 252 3 is_stmt 1 view .LVU348
 252:Middlewares/ST/BlueNRG-MS/hci/hci_le.c ****   rq.clen = LE_SET_SCAN_ENABLE_CP_SIZE;
 968              		.loc 1 252 13 is_stmt 0 view .LVU349
 969 0024 01AD     		add	r5, sp, #4
 253:Middlewares/ST/BlueNRG-MS/hci/hci_le.c ****   rq.rparam = &status;
 970              		.loc 1 253 11 view .LVU350
 971 0026 0224     		movs	r4, #2
 972              		.loc 1 257 7 view .LVU351
 973 0028 02A8     		add	r0, sp, #8
 253:Middlewares/ST/BlueNRG-MS/hci/hci_le.c ****   rq.rparam = &status;
 974              		.loc 1 253 11 view .LVU352
 975 002a CDE90454 		strd	r5, r4, [sp, #16]
 254:Middlewares/ST/BlueNRG-MS/hci/hci_le.c ****   rq.rlen = 1;
 976              		.loc 1 254 3 is_stmt 1 view .LVU353
 255:Middlewares/ST/BlueNRG-MS/hci/hci_le.c ****   
 977              		.loc 1 255 11 is_stmt 0 view .LVU354
 978 002e CDE90623 		strd	r2, r3, [sp, #24]
 979              		.loc 1 257 3 is_stmt 1 view .LVU355
 980              		.loc 1 257 7 is_stmt 0 view .LVU356
 981 0032 FFF7FEFF 		bl	hci_send_req
 982              	.LVL48:
 983              		.loc 1 257 6 view .LVU357
 984 0036 0028     		cmp	r0, #0
 258:Middlewares/ST/BlueNRG-MS/hci/hci_le.c ****     return BLE_STATUS_TIMEOUT;
 259:Middlewares/ST/BlueNRG-MS/hci/hci_le.c ****   
 260:Middlewares/ST/BlueNRG-MS/hci/hci_le.c ****   return status;
 985              		.loc 1 260 3 is_stmt 1 view .LVU358
 986              		.loc 1 260 10 is_stmt 0 view .LVU359
 987 0038 ACBF     		ite	ge
 988 003a 9DF80300 		ldrbge	r0, [sp, #3]	@ zero_extendqisi2
 258:Middlewares/ST/BlueNRG-MS/hci/hci_le.c ****     return BLE_STATUS_TIMEOUT;
 989              		.loc 1 258 12 view .LVU360
 990 003e FF20     		movlt	r0, #255
 261:Middlewares/ST/BlueNRG-MS/hci/hci_le.c **** }
 991              		.loc 1 261 1 view .LVU361
 992 0040 08B0     		add	sp, sp, #32
 993              	.LCFI32:
 994              		.cfi_def_cfa_offset 16
 995              		@ sp needed
 996 0042 70BD     		pop	{r4, r5, r6, pc}
 997              	.L58:
 998              		.align	2
 999              	.L57:
 1000 0044 08000C00 		.word	786440
 1001              		.cfi_endproc
 1002              	.LFE138:
ARM GAS  /tmp/ccCJ9vpL.s 			page 26


 1004              		.section	.text.hci_le_rand,"ax",%progbits
 1005              		.align	1
 1006              		.p2align 2,,3
 1007              		.global	hci_le_rand
 1008              		.syntax unified
 1009              		.thumb
 1010              		.thumb_func
 1011              		.fpu fpv4-sp-d16
 1013              	hci_le_rand:
 1014              	.LVL49:
 1015              	.LFB139:
 262:Middlewares/ST/BlueNRG-MS/hci/hci_le.c **** 
 263:Middlewares/ST/BlueNRG-MS/hci/hci_le.c **** int hci_le_rand(uint8_t random_number[8])
 264:Middlewares/ST/BlueNRG-MS/hci/hci_le.c **** {
 1016              		.loc 1 264 1 is_stmt 1 view -0
 1017              		.cfi_startproc
 1018              		@ args = 0, pretend = 0, frame = 40
 1019              		@ frame_needed = 0, uses_anonymous_args = 0
 265:Middlewares/ST/BlueNRG-MS/hci/hci_le.c ****   struct hci_request rq;
 1020              		.loc 1 265 3 view .LVU363
 266:Middlewares/ST/BlueNRG-MS/hci/hci_le.c ****   le_rand_rp resp;
 1021              		.loc 1 266 3 view .LVU364
 267:Middlewares/ST/BlueNRG-MS/hci/hci_le.c ****   
 268:Middlewares/ST/BlueNRG-MS/hci/hci_le.c ****   BLUENRG_memset(&resp, 0, sizeof(resp));
 1022              		.loc 1 268 3 view .LVU365
 264:Middlewares/ST/BlueNRG-MS/hci/hci_le.c ****   struct hci_request rq;
 1023              		.loc 1 264 1 is_stmt 0 view .LVU366
 1024 0000 30B5     		push	{r4, r5, lr}
 1025              	.LCFI33:
 1026              		.cfi_def_cfa_offset 12
 1027              		.cfi_offset 4, -12
 1028              		.cfi_offset 5, -8
 1029              		.cfi_offset 14, -4
 1030 0002 8BB0     		sub	sp, sp, #44
 1031              	.LCFI34:
 1032              		.cfi_def_cfa_offset 56
 1033              		.loc 1 268 3 view .LVU367
 1034 0004 0021     		movs	r1, #0
 1035 0006 01AB     		add	r3, sp, #4
 269:Middlewares/ST/BlueNRG-MS/hci/hci_le.c ****   
 270:Middlewares/ST/BlueNRG-MS/hci/hci_le.c ****   BLUENRG_memset(&rq, 0, sizeof(rq));
 271:Middlewares/ST/BlueNRG-MS/hci/hci_le.c ****   rq.ogf = OGF_LE_CTL;
 272:Middlewares/ST/BlueNRG-MS/hci/hci_le.c ****   rq.ocf = OCF_LE_RAND;
 273:Middlewares/ST/BlueNRG-MS/hci/hci_le.c ****   rq.cparam = NULL;
 274:Middlewares/ST/BlueNRG-MS/hci/hci_le.c ****   rq.clen = 0;
 275:Middlewares/ST/BlueNRG-MS/hci/hci_le.c ****   rq.rparam = &resp;
 276:Middlewares/ST/BlueNRG-MS/hci/hci_le.c ****   rq.rlen = LE_RAND_RP_SIZE;
 1036              		.loc 1 276 11 view .LVU368
 1037 0008 0922     		movs	r2, #9
 271:Middlewares/ST/BlueNRG-MS/hci/hci_le.c ****   rq.ocf = OCF_LE_RAND;
 1038              		.loc 1 271 10 view .LVU369
 1039 000a 0F4D     		ldr	r5, .L64
 275:Middlewares/ST/BlueNRG-MS/hci/hci_le.c ****   rq.rlen = LE_RAND_RP_SIZE;
 1040              		.loc 1 275 13 view .LVU370
 1041 000c 0893     		str	r3, [sp, #32]
 264:Middlewares/ST/BlueNRG-MS/hci/hci_le.c ****   struct hci_request rq;
 1042              		.loc 1 264 1 view .LVU371
ARM GAS  /tmp/ccCJ9vpL.s 			page 27


 1043 000e 0446     		mov	r4, r0
 277:Middlewares/ST/BlueNRG-MS/hci/hci_le.c ****   
 278:Middlewares/ST/BlueNRG-MS/hci/hci_le.c ****   if (hci_send_req(&rq, FALSE) < 0)
 1044              		.loc 1 278 7 view .LVU372
 1045 0010 04A8     		add	r0, sp, #16
 1046              	.LVL50:
 268:Middlewares/ST/BlueNRG-MS/hci/hci_le.c ****   
 1047              		.loc 1 268 3 view .LVU373
 1048 0012 CDE90111 		strd	r1, r1, [sp, #4]
 273:Middlewares/ST/BlueNRG-MS/hci/hci_le.c ****   rq.clen = 0;
 1049              		.loc 1 273 13 view .LVU374
 1050 0016 CDE90511 		strd	r1, r1, [sp, #20]
 268:Middlewares/ST/BlueNRG-MS/hci/hci_le.c ****   
 1051              		.loc 1 268 3 view .LVU375
 1052 001a 8DF80C10 		strb	r1, [sp, #12]
 270:Middlewares/ST/BlueNRG-MS/hci/hci_le.c ****   rq.ogf = OGF_LE_CTL;
 1053              		.loc 1 270 3 is_stmt 1 view .LVU376
 274:Middlewares/ST/BlueNRG-MS/hci/hci_le.c ****   rq.rparam = &resp;
 1054              		.loc 1 274 11 is_stmt 0 view .LVU377
 1055 001e 0791     		str	r1, [sp, #28]
 271:Middlewares/ST/BlueNRG-MS/hci/hci_le.c ****   rq.ocf = OCF_LE_RAND;
 1056              		.loc 1 271 10 view .LVU378
 1057 0020 0495     		str	r5, [sp, #16]
 273:Middlewares/ST/BlueNRG-MS/hci/hci_le.c ****   rq.clen = 0;
 1058              		.loc 1 273 3 is_stmt 1 view .LVU379
 274:Middlewares/ST/BlueNRG-MS/hci/hci_le.c ****   rq.rparam = &resp;
 1059              		.loc 1 274 3 view .LVU380
 275:Middlewares/ST/BlueNRG-MS/hci/hci_le.c ****   rq.rlen = LE_RAND_RP_SIZE;
 1060              		.loc 1 275 3 view .LVU381
 276:Middlewares/ST/BlueNRG-MS/hci/hci_le.c ****   
 1061              		.loc 1 276 3 view .LVU382
 276:Middlewares/ST/BlueNRG-MS/hci/hci_le.c ****   
 1062              		.loc 1 276 11 is_stmt 0 view .LVU383
 1063 0022 0992     		str	r2, [sp, #36]
 1064              		.loc 1 278 3 is_stmt 1 view .LVU384
 1065              		.loc 1 278 7 is_stmt 0 view .LVU385
 1066 0024 FFF7FEFF 		bl	hci_send_req
 1067              	.LVL51:
 1068              		.loc 1 278 6 view .LVU386
 1069 0028 0028     		cmp	r0, #0
 1070 002a 0ADB     		blt	.L62
 279:Middlewares/ST/BlueNRG-MS/hci/hci_le.c ****     return BLE_STATUS_TIMEOUT;
 280:Middlewares/ST/BlueNRG-MS/hci/hci_le.c ****   
 281:Middlewares/ST/BlueNRG-MS/hci/hci_le.c ****   if (resp.status) {
 1071              		.loc 1 281 3 is_stmt 1 view .LVU387
 1072              		.loc 1 281 11 is_stmt 0 view .LVU388
 1073 002c 9DF80400 		ldrb	r0, [sp, #4]	@ zero_extendqisi2
 1074              		.loc 1 281 6 view .LVU389
 1075 0030 28B9     		cbnz	r0, .L59
 282:Middlewares/ST/BlueNRG-MS/hci/hci_le.c ****     return resp.status;
 283:Middlewares/ST/BlueNRG-MS/hci/hci_le.c ****   }
 284:Middlewares/ST/BlueNRG-MS/hci/hci_le.c ****   
 285:Middlewares/ST/BlueNRG-MS/hci/hci_le.c ****   BLUENRG_memcpy(random_number, resp.random, 8);
 1076              		.loc 1 285 3 is_stmt 1 view .LVU390
 1077 0032 DDF80510 		ldr	r1, [sp, #5]	@ unaligned
 1078 0036 DDF80920 		ldr	r2, [sp, #9]	@ unaligned
 1079 003a 2160     		str	r1, [r4]	@ unaligned
ARM GAS  /tmp/ccCJ9vpL.s 			page 28


 1080 003c 6260     		str	r2, [r4, #4]	@ unaligned
 286:Middlewares/ST/BlueNRG-MS/hci/hci_le.c ****   
 287:Middlewares/ST/BlueNRG-MS/hci/hci_le.c ****   return 0;
 1081              		.loc 1 287 3 view .LVU391
 1082              	.L59:
 288:Middlewares/ST/BlueNRG-MS/hci/hci_le.c **** }
 1083              		.loc 1 288 1 is_stmt 0 view .LVU392
 1084 003e 0BB0     		add	sp, sp, #44
 1085              	.LCFI35:
 1086              		.cfi_remember_state
 1087              		.cfi_def_cfa_offset 12
 1088              		@ sp needed
 1089 0040 30BD     		pop	{r4, r5, pc}
 1090              	.LVL52:
 1091              	.L62:
 1092              	.LCFI36:
 1093              		.cfi_restore_state
 279:Middlewares/ST/BlueNRG-MS/hci/hci_le.c ****   
 1094              		.loc 1 279 12 view .LVU393
 1095 0042 FF20     		movs	r0, #255
 1096              		.loc 1 288 1 view .LVU394
 1097 0044 0BB0     		add	sp, sp, #44
 1098              	.LCFI37:
 1099              		.cfi_def_cfa_offset 12
 1100              		@ sp needed
 1101 0046 30BD     		pop	{r4, r5, pc}
 1102              	.LVL53:
 1103              	.L65:
 1104              		.loc 1 288 1 view .LVU395
 1105              		.align	2
 1106              	.L64:
 1107 0048 08001800 		.word	1572872
 1108              		.cfi_endproc
 1109              	.LFE139:
 1111              		.section	.text.hci_le_set_scan_resp_data,"ax",%progbits
 1112              		.align	1
 1113              		.p2align 2,,3
 1114              		.global	hci_le_set_scan_resp_data
 1115              		.syntax unified
 1116              		.thumb
 1117              		.thumb_func
 1118              		.fpu fpv4-sp-d16
 1120              	hci_le_set_scan_resp_data:
 1121              	.LVL54:
 1122              	.LFB140:
 289:Middlewares/ST/BlueNRG-MS/hci/hci_le.c **** 
 290:Middlewares/ST/BlueNRG-MS/hci/hci_le.c **** int hci_le_set_scan_resp_data(uint8_t length, const uint8_t data[])
 291:Middlewares/ST/BlueNRG-MS/hci/hci_le.c **** {
 1123              		.loc 1 291 1 is_stmt 1 view -0
 1124              		.cfi_startproc
 1125              		@ args = 0, pretend = 0, frame = 64
 1126              		@ frame_needed = 0, uses_anonymous_args = 0
 292:Middlewares/ST/BlueNRG-MS/hci/hci_le.c ****   struct hci_request rq;
 1127              		.loc 1 292 3 view .LVU397
 293:Middlewares/ST/BlueNRG-MS/hci/hci_le.c ****   le_set_scan_response_data_cp scan_resp_cp;
 1128              		.loc 1 293 3 view .LVU398
 294:Middlewares/ST/BlueNRG-MS/hci/hci_le.c ****   uint8_t status;
ARM GAS  /tmp/ccCJ9vpL.s 			page 29


 1129              		.loc 1 294 3 view .LVU399
 295:Middlewares/ST/BlueNRG-MS/hci/hci_le.c ****   
 296:Middlewares/ST/BlueNRG-MS/hci/hci_le.c ****   BLUENRG_memset(&scan_resp_cp, 0, sizeof(scan_resp_cp));
 1130              		.loc 1 296 3 view .LVU400
 291:Middlewares/ST/BlueNRG-MS/hci/hci_le.c ****   struct hci_request rq;
 1131              		.loc 1 291 1 is_stmt 0 view .LVU401
 1132 0000 F0B5     		push	{r4, r5, r6, r7, lr}
 1133              	.LCFI38:
 1134              		.cfi_def_cfa_offset 20
 1135              		.cfi_offset 4, -20
 1136              		.cfi_offset 5, -16
 1137              		.cfi_offset 6, -12
 1138              		.cfi_offset 7, -8
 1139              		.cfi_offset 14, -4
 1140 0002 91B0     		sub	sp, sp, #68
 1141              	.LCFI39:
 1142              		.cfi_def_cfa_offset 88
 1143              		.loc 1 296 3 view .LVU402
 1144 0004 08AF     		add	r7, sp, #32
 1145 0006 2026     		movs	r6, #32
 291:Middlewares/ST/BlueNRG-MS/hci/hci_le.c ****   struct hci_request rq;
 1146              		.loc 1 291 1 view .LVU403
 1147 0008 0446     		mov	r4, r0
 1148 000a 0D46     		mov	r5, r1
 1149              		.loc 1 296 3 view .LVU404
 1150 000c 3246     		mov	r2, r6
 1151 000e 3846     		mov	r0, r7
 1152              	.LVL55:
 1153              		.loc 1 296 3 view .LVU405
 1154 0010 0021     		movs	r1, #0
 1155              	.LVL56:
 1156              		.loc 1 296 3 view .LVU406
 1157 0012 FFF7FEFF 		bl	memset
 1158              	.LVL57:
 297:Middlewares/ST/BlueNRG-MS/hci/hci_le.c ****   scan_resp_cp.length = length;
 1159              		.loc 1 297 3 is_stmt 1 view .LVU407
 298:Middlewares/ST/BlueNRG-MS/hci/hci_le.c ****   BLUENRG_memcpy(scan_resp_cp.data, data, MIN(31,length));
 1160              		.loc 1 298 3 is_stmt 0 view .LVU408
 1161 0016 1F2C     		cmp	r4, #31
 1162 0018 2246     		mov	r2, r4
 1163 001a 2946     		mov	r1, r5
 1164 001c 28BF     		it	cs
 1165 001e 1F22     		movcs	r2, #31
 297:Middlewares/ST/BlueNRG-MS/hci/hci_le.c ****   scan_resp_cp.length = length;
 1166              		.loc 1 297 23 view .LVU409
 1167 0020 8DF82040 		strb	r4, [sp, #32]
 1168              		.loc 1 298 3 is_stmt 1 view .LVU410
 1169 0024 0DF12100 		add	r0, sp, #33
 299:Middlewares/ST/BlueNRG-MS/hci/hci_le.c ****   
 300:Middlewares/ST/BlueNRG-MS/hci/hci_le.c ****   BLUENRG_memset(&rq, 0, sizeof(rq));
 301:Middlewares/ST/BlueNRG-MS/hci/hci_le.c ****   rq.ogf = OGF_LE_CTL;
 1170              		.loc 1 301 10 is_stmt 0 view .LVU411
 1171 0028 0B4C     		ldr	r4, .L70
 298:Middlewares/ST/BlueNRG-MS/hci/hci_le.c ****   BLUENRG_memcpy(scan_resp_cp.data, data, MIN(31,length));
 1172              		.loc 1 298 3 view .LVU412
 1173 002a FFF7FEFF 		bl	memcpy
 1174              	.LVL58:
ARM GAS  /tmp/ccCJ9vpL.s 			page 30


 300:Middlewares/ST/BlueNRG-MS/hci/hci_le.c ****   rq.ogf = OGF_LE_CTL;
 1175              		.loc 1 300 3 is_stmt 1 view .LVU413
 1176 002e 0021     		movs	r1, #0
 302:Middlewares/ST/BlueNRG-MS/hci/hci_le.c ****   rq.ocf = OCF_LE_SET_SCAN_RESPONSE_DATA;
 303:Middlewares/ST/BlueNRG-MS/hci/hci_le.c ****   rq.cparam = &scan_resp_cp;
 304:Middlewares/ST/BlueNRG-MS/hci/hci_le.c ****   rq.clen = LE_SET_SCAN_RESPONSE_DATA_CP_SIZE;
 305:Middlewares/ST/BlueNRG-MS/hci/hci_le.c ****   rq.rparam = &status;
 1177              		.loc 1 305 13 is_stmt 0 view .LVU414
 1178 0030 0DF10702 		add	r2, sp, #7
 306:Middlewares/ST/BlueNRG-MS/hci/hci_le.c ****   rq.rlen = 1;
 1179              		.loc 1 306 11 view .LVU415
 1180 0034 0123     		movs	r3, #1
 307:Middlewares/ST/BlueNRG-MS/hci/hci_le.c ****   
 308:Middlewares/ST/BlueNRG-MS/hci/hci_le.c ****   if (hci_send_req(&rq, FALSE) < 0)
 1181              		.loc 1 308 7 view .LVU416
 1182 0036 02A8     		add	r0, sp, #8
 301:Middlewares/ST/BlueNRG-MS/hci/hci_le.c ****   rq.ocf = OCF_LE_SET_SCAN_RESPONSE_DATA;
 1183              		.loc 1 301 10 view .LVU417
 1184 0038 CDE90241 		strd	r4, r1, [sp, #8]
 303:Middlewares/ST/BlueNRG-MS/hci/hci_le.c ****   rq.clen = LE_SET_SCAN_RESPONSE_DATA_CP_SIZE;
 1185              		.loc 1 303 3 is_stmt 1 view .LVU418
 304:Middlewares/ST/BlueNRG-MS/hci/hci_le.c ****   rq.rparam = &status;
 1186              		.loc 1 304 3 view .LVU419
 305:Middlewares/ST/BlueNRG-MS/hci/hci_le.c ****   rq.rlen = 1;
 1187              		.loc 1 305 3 view .LVU420
 306:Middlewares/ST/BlueNRG-MS/hci/hci_le.c ****   
 1188              		.loc 1 306 11 is_stmt 0 view .LVU421
 1189 003c CDE90623 		strd	r2, r3, [sp, #24]
 1190              		.loc 1 308 3 is_stmt 1 view .LVU422
 303:Middlewares/ST/BlueNRG-MS/hci/hci_le.c ****   rq.clen = LE_SET_SCAN_RESPONSE_DATA_CP_SIZE;
 1191              		.loc 1 303 13 is_stmt 0 view .LVU423
 1192 0040 0497     		str	r7, [sp, #16]
 304:Middlewares/ST/BlueNRG-MS/hci/hci_le.c ****   rq.rparam = &status;
 1193              		.loc 1 304 11 view .LVU424
 1194 0042 0596     		str	r6, [sp, #20]
 1195              		.loc 1 308 7 view .LVU425
 1196 0044 FFF7FEFF 		bl	hci_send_req
 1197              	.LVL59:
 1198              		.loc 1 308 6 view .LVU426
 1199 0048 0028     		cmp	r0, #0
 309:Middlewares/ST/BlueNRG-MS/hci/hci_le.c ****     return BLE_STATUS_TIMEOUT;
 310:Middlewares/ST/BlueNRG-MS/hci/hci_le.c ****   
 311:Middlewares/ST/BlueNRG-MS/hci/hci_le.c ****   return status;
 1200              		.loc 1 311 3 is_stmt 1 view .LVU427
 1201              		.loc 1 311 10 is_stmt 0 view .LVU428
 1202 004a ACBF     		ite	ge
 1203 004c 9DF80700 		ldrbge	r0, [sp, #7]	@ zero_extendqisi2
 309:Middlewares/ST/BlueNRG-MS/hci/hci_le.c ****     return BLE_STATUS_TIMEOUT;
 1204              		.loc 1 309 12 view .LVU429
 1205 0050 FF20     		movlt	r0, #255
 312:Middlewares/ST/BlueNRG-MS/hci/hci_le.c **** }
 1206              		.loc 1 312 1 view .LVU430
 1207 0052 11B0     		add	sp, sp, #68
 1208              	.LCFI40:
 1209              		.cfi_def_cfa_offset 20
 1210              		@ sp needed
 1211 0054 F0BD     		pop	{r4, r5, r6, r7, pc}
ARM GAS  /tmp/ccCJ9vpL.s 			page 31


 1212              	.LVL60:
 1213              	.L71:
 1214              		.loc 1 312 1 view .LVU431
 1215 0056 00BF     		.align	2
 1216              	.L70:
 1217 0058 08000900 		.word	589832
 1218              		.cfi_endproc
 1219              	.LFE140:
 1221              		.section	.text.hci_le_read_advertising_channel_tx_power,"ax",%progbits
 1222              		.align	1
 1223              		.p2align 2,,3
 1224              		.global	hci_le_read_advertising_channel_tx_power
 1225              		.syntax unified
 1226              		.thumb
 1227              		.thumb_func
 1228              		.fpu fpv4-sp-d16
 1230              	hci_le_read_advertising_channel_tx_power:
 1231              	.LVL61:
 1232              	.LFB141:
 313:Middlewares/ST/BlueNRG-MS/hci/hci_le.c **** 
 314:Middlewares/ST/BlueNRG-MS/hci/hci_le.c **** int hci_le_read_advertising_channel_tx_power(int8_t *tx_power_level)
 315:Middlewares/ST/BlueNRG-MS/hci/hci_le.c **** {
 1233              		.loc 1 315 1 is_stmt 1 view -0
 1234              		.cfi_startproc
 1235              		@ args = 0, pretend = 0, frame = 32
 1236              		@ frame_needed = 0, uses_anonymous_args = 0
 316:Middlewares/ST/BlueNRG-MS/hci/hci_le.c ****   struct hci_request rq;
 1237              		.loc 1 316 3 view .LVU433
 317:Middlewares/ST/BlueNRG-MS/hci/hci_le.c ****   le_read_adv_channel_tx_power_rp resp;
 1238              		.loc 1 317 3 view .LVU434
 318:Middlewares/ST/BlueNRG-MS/hci/hci_le.c ****   
 319:Middlewares/ST/BlueNRG-MS/hci/hci_le.c ****   BLUENRG_memset(&resp, 0, sizeof(resp));
 1239              		.loc 1 319 3 view .LVU435
 315:Middlewares/ST/BlueNRG-MS/hci/hci_le.c ****   struct hci_request rq;
 1240              		.loc 1 315 1 is_stmt 0 view .LVU436
 1241 0000 30B5     		push	{r4, r5, lr}
 1242              	.LCFI41:
 1243              		.cfi_def_cfa_offset 12
 1244              		.cfi_offset 4, -12
 1245              		.cfi_offset 5, -8
 1246              		.cfi_offset 14, -4
 1247 0002 89B0     		sub	sp, sp, #36
 1248              	.LCFI42:
 1249              		.cfi_def_cfa_offset 48
 1250              		.loc 1 319 3 view .LVU437
 1251 0004 0021     		movs	r1, #0
 320:Middlewares/ST/BlueNRG-MS/hci/hci_le.c ****   
 321:Middlewares/ST/BlueNRG-MS/hci/hci_le.c ****   BLUENRG_memset(&rq, 0, sizeof(rq));
 322:Middlewares/ST/BlueNRG-MS/hci/hci_le.c ****   rq.ogf = OGF_LE_CTL;
 1252              		.loc 1 322 10 view .LVU438
 1253 0006 0E4A     		ldr	r2, .L77
 319:Middlewares/ST/BlueNRG-MS/hci/hci_le.c ****   
 1254              		.loc 1 319 3 view .LVU439
 1255 0008 ADF80410 		strh	r1, [sp, #4]	@ movhi
 321:Middlewares/ST/BlueNRG-MS/hci/hci_le.c ****   rq.ogf = OGF_LE_CTL;
 1256              		.loc 1 321 3 is_stmt 1 view .LVU440
 323:Middlewares/ST/BlueNRG-MS/hci/hci_le.c ****   rq.ocf = OCF_LE_READ_ADV_CHANNEL_TX_POWER;
ARM GAS  /tmp/ccCJ9vpL.s 			page 32


 324:Middlewares/ST/BlueNRG-MS/hci/hci_le.c ****   rq.cparam = NULL;
 325:Middlewares/ST/BlueNRG-MS/hci/hci_le.c ****   rq.clen = 0;
 326:Middlewares/ST/BlueNRG-MS/hci/hci_le.c ****   rq.rparam = &resp;
 327:Middlewares/ST/BlueNRG-MS/hci/hci_le.c ****   rq.rlen = LE_RAND_RP_SIZE;
 1257              		.loc 1 327 11 is_stmt 0 view .LVU441
 1258 000c 0923     		movs	r3, #9
 319:Middlewares/ST/BlueNRG-MS/hci/hci_le.c ****   
 1259              		.loc 1 319 3 view .LVU442
 1260 000e 01AD     		add	r5, sp, #4
 315:Middlewares/ST/BlueNRG-MS/hci/hci_le.c ****   struct hci_request rq;
 1261              		.loc 1 315 1 view .LVU443
 1262 0010 0446     		mov	r4, r0
 328:Middlewares/ST/BlueNRG-MS/hci/hci_le.c ****   
 329:Middlewares/ST/BlueNRG-MS/hci/hci_le.c ****   if (hci_send_req(&rq, FALSE) < 0)
 1263              		.loc 1 329 7 view .LVU444
 1264 0012 02A8     		add	r0, sp, #8
 1265              	.LVL62:
 324:Middlewares/ST/BlueNRG-MS/hci/hci_le.c ****   rq.clen = 0;
 1266              		.loc 1 324 13 view .LVU445
 1267 0014 CDE90311 		strd	r1, r1, [sp, #12]
 325:Middlewares/ST/BlueNRG-MS/hci/hci_le.c ****   rq.rparam = &resp;
 1268              		.loc 1 325 11 view .LVU446
 1269 0018 0591     		str	r1, [sp, #20]
 326:Middlewares/ST/BlueNRG-MS/hci/hci_le.c ****   rq.rlen = LE_RAND_RP_SIZE;
 1270              		.loc 1 326 13 view .LVU447
 1271 001a 0695     		str	r5, [sp, #24]
 322:Middlewares/ST/BlueNRG-MS/hci/hci_le.c ****   rq.ocf = OCF_LE_READ_ADV_CHANNEL_TX_POWER;
 1272              		.loc 1 322 10 view .LVU448
 1273 001c 0292     		str	r2, [sp, #8]
 324:Middlewares/ST/BlueNRG-MS/hci/hci_le.c ****   rq.clen = 0;
 1274              		.loc 1 324 3 is_stmt 1 view .LVU449
 325:Middlewares/ST/BlueNRG-MS/hci/hci_le.c ****   rq.rparam = &resp;
 1275              		.loc 1 325 3 view .LVU450
 326:Middlewares/ST/BlueNRG-MS/hci/hci_le.c ****   rq.rlen = LE_RAND_RP_SIZE;
 1276              		.loc 1 326 3 view .LVU451
 327:Middlewares/ST/BlueNRG-MS/hci/hci_le.c ****   
 1277              		.loc 1 327 3 view .LVU452
 327:Middlewares/ST/BlueNRG-MS/hci/hci_le.c ****   
 1278              		.loc 1 327 11 is_stmt 0 view .LVU453
 1279 001e 0793     		str	r3, [sp, #28]
 1280              		.loc 1 329 3 is_stmt 1 view .LVU454
 1281              		.loc 1 329 7 is_stmt 0 view .LVU455
 1282 0020 FFF7FEFF 		bl	hci_send_req
 1283              	.LVL63:
 1284              		.loc 1 329 6 view .LVU456
 1285 0024 0028     		cmp	r0, #0
 1286 0026 07DB     		blt	.L75
 330:Middlewares/ST/BlueNRG-MS/hci/hci_le.c ****     return BLE_STATUS_TIMEOUT;
 331:Middlewares/ST/BlueNRG-MS/hci/hci_le.c ****   
 332:Middlewares/ST/BlueNRG-MS/hci/hci_le.c ****   if (resp.status) {
 1287              		.loc 1 332 3 is_stmt 1 view .LVU457
 1288              		.loc 1 332 11 is_stmt 0 view .LVU458
 1289 0028 9DF80400 		ldrb	r0, [sp, #4]	@ zero_extendqisi2
 1290              		.loc 1 332 6 view .LVU459
 1291 002c 10B9     		cbnz	r0, .L72
 333:Middlewares/ST/BlueNRG-MS/hci/hci_le.c ****     return resp.status;
 334:Middlewares/ST/BlueNRG-MS/hci/hci_le.c ****   }
ARM GAS  /tmp/ccCJ9vpL.s 			page 33


 335:Middlewares/ST/BlueNRG-MS/hci/hci_le.c ****   
 336:Middlewares/ST/BlueNRG-MS/hci/hci_le.c ****   *tx_power_level = resp.level;
 1292              		.loc 1 336 3 is_stmt 1 view .LVU460
 1293              		.loc 1 336 19 is_stmt 0 view .LVU461
 1294 002e 9DF80520 		ldrb	r2, [sp, #5]	@ zero_extendqisi2
 1295 0032 2270     		strb	r2, [r4]
 337:Middlewares/ST/BlueNRG-MS/hci/hci_le.c ****   
 338:Middlewares/ST/BlueNRG-MS/hci/hci_le.c ****   return 0;
 1296              		.loc 1 338 3 is_stmt 1 view .LVU462
 1297              	.L72:
 339:Middlewares/ST/BlueNRG-MS/hci/hci_le.c **** }
 1298              		.loc 1 339 1 is_stmt 0 view .LVU463
 1299 0034 09B0     		add	sp, sp, #36
 1300              	.LCFI43:
 1301              		.cfi_remember_state
 1302              		.cfi_def_cfa_offset 12
 1303              		@ sp needed
 1304 0036 30BD     		pop	{r4, r5, pc}
 1305              	.LVL64:
 1306              	.L75:
 1307              	.LCFI44:
 1308              		.cfi_restore_state
 330:Middlewares/ST/BlueNRG-MS/hci/hci_le.c ****   
 1309              		.loc 1 330 12 view .LVU464
 1310 0038 FF20     		movs	r0, #255
 1311              		.loc 1 339 1 view .LVU465
 1312 003a 09B0     		add	sp, sp, #36
 1313              	.LCFI45:
 1314              		.cfi_def_cfa_offset 12
 1315              		@ sp needed
 1316 003c 30BD     		pop	{r4, r5, pc}
 1317              	.LVL65:
 1318              	.L78:
 1319              		.loc 1 339 1 view .LVU466
 1320 003e 00BF     		.align	2
 1321              	.L77:
 1322 0040 08000700 		.word	458760
 1323              		.cfi_endproc
 1324              	.LFE141:
 1326              		.section	.text.hci_le_set_random_address,"ax",%progbits
 1327              		.align	1
 1328              		.p2align 2,,3
 1329              		.global	hci_le_set_random_address
 1330              		.syntax unified
 1331              		.thumb
 1332              		.thumb_func
 1333              		.fpu fpv4-sp-d16
 1335              	hci_le_set_random_address:
 1336              	.LVL66:
 1337              	.LFB142:
 340:Middlewares/ST/BlueNRG-MS/hci/hci_le.c **** 
 341:Middlewares/ST/BlueNRG-MS/hci/hci_le.c **** int hci_le_set_random_address(tBDAddr bdaddr)
 342:Middlewares/ST/BlueNRG-MS/hci/hci_le.c **** {
 1338              		.loc 1 342 1 is_stmt 1 view -0
 1339              		.cfi_startproc
 1340              		@ args = 0, pretend = 0, frame = 40
 1341              		@ frame_needed = 0, uses_anonymous_args = 0
ARM GAS  /tmp/ccCJ9vpL.s 			page 34


 343:Middlewares/ST/BlueNRG-MS/hci/hci_le.c ****   struct hci_request rq;
 1342              		.loc 1 343 3 view .LVU468
 344:Middlewares/ST/BlueNRG-MS/hci/hci_le.c ****   le_set_random_address_cp set_rand_addr_cp;
 1343              		.loc 1 344 3 view .LVU469
 345:Middlewares/ST/BlueNRG-MS/hci/hci_le.c ****   uint8_t status;
 1344              		.loc 1 345 3 view .LVU470
 346:Middlewares/ST/BlueNRG-MS/hci/hci_le.c ****   
 347:Middlewares/ST/BlueNRG-MS/hci/hci_le.c ****   BLUENRG_memset(&set_rand_addr_cp, 0, sizeof(set_rand_addr_cp));
 1345              		.loc 1 347 3 view .LVU471
 348:Middlewares/ST/BlueNRG-MS/hci/hci_le.c ****   BLUENRG_memcpy(set_rand_addr_cp.bdaddr, bdaddr, sizeof(tBDAddr));
 1346              		.loc 1 348 3 view .LVU472
 342:Middlewares/ST/BlueNRG-MS/hci/hci_le.c ****   struct hci_request rq;
 1347              		.loc 1 342 1 is_stmt 0 view .LVU473
 1348 0000 30B5     		push	{r4, r5, lr}
 1349              	.LCFI46:
 1350              		.cfi_def_cfa_offset 12
 1351              		.cfi_offset 4, -12
 1352              		.cfi_offset 5, -8
 1353              		.cfi_offset 14, -4
 1354 0002 0346     		mov	r3, r0
 1355 0004 8BB0     		sub	sp, sp, #44
 1356              	.LCFI47:
 1357              		.cfi_def_cfa_offset 56
 1358              		.loc 1 348 3 view .LVU474
 1359 0006 0068     		ldr	r0, [r0]	@ unaligned
 1360              	.LVL67:
 1361              		.loc 1 348 3 view .LVU475
 1362 0008 9B88     		ldrh	r3, [r3, #4]	@ unaligned
 1363              	.LVL68:
 1364              		.loc 1 348 3 view .LVU476
 1365 000a 0290     		str	r0, [sp, #8]
 1366 000c 02A8     		add	r0, sp, #8
 349:Middlewares/ST/BlueNRG-MS/hci/hci_le.c ****   
 350:Middlewares/ST/BlueNRG-MS/hci/hci_le.c ****   BLUENRG_memset(&rq, 0, sizeof(rq));
 1367              		.loc 1 350 3 view .LVU477
 1368 000e 0021     		movs	r1, #0
 348:Middlewares/ST/BlueNRG-MS/hci/hci_le.c ****   
 1369              		.loc 1 348 3 view .LVU478
 1370 0010 ADF80C30 		strh	r3, [sp, #12]	@ unaligned
 1371              		.loc 1 350 3 is_stmt 1 view .LVU479
 351:Middlewares/ST/BlueNRG-MS/hci/hci_le.c ****   rq.ogf = OGF_LE_CTL;
 352:Middlewares/ST/BlueNRG-MS/hci/hci_le.c ****   rq.ocf = OCF_LE_SET_RANDOM_ADDRESS;
 353:Middlewares/ST/BlueNRG-MS/hci/hci_le.c ****   rq.cparam = &set_rand_addr_cp;
 354:Middlewares/ST/BlueNRG-MS/hci/hci_le.c ****   rq.clen = LE_SET_RANDOM_ADDRESS_CP_SIZE;
 355:Middlewares/ST/BlueNRG-MS/hci/hci_le.c ****   rq.rparam = &status;
 1372              		.loc 1 355 13 is_stmt 0 view .LVU480
 1373 0014 0DF10702 		add	r2, sp, #7
 356:Middlewares/ST/BlueNRG-MS/hci/hci_le.c ****   rq.rlen = 1;
 1374              		.loc 1 356 11 view .LVU481
 1375 0018 0123     		movs	r3, #1
 353:Middlewares/ST/BlueNRG-MS/hci/hci_le.c ****   rq.clen = LE_SET_RANDOM_ADDRESS_CP_SIZE;
 1376              		.loc 1 353 13 view .LVU482
 1377 001a 0690     		str	r0, [sp, #24]
 351:Middlewares/ST/BlueNRG-MS/hci/hci_le.c ****   rq.ogf = OGF_LE_CTL;
 1378              		.loc 1 351 10 view .LVU483
 1379 001c 084D     		ldr	r5, .L83
 350:Middlewares/ST/BlueNRG-MS/hci/hci_le.c ****   rq.ogf = OGF_LE_CTL;
ARM GAS  /tmp/ccCJ9vpL.s 			page 35


 1380              		.loc 1 350 3 view .LVU484
 1381 001e 0591     		str	r1, [sp, #20]
 351:Middlewares/ST/BlueNRG-MS/hci/hci_le.c ****   rq.ocf = OCF_LE_SET_RANDOM_ADDRESS;
 1382              		.loc 1 351 3 is_stmt 1 view .LVU485
 352:Middlewares/ST/BlueNRG-MS/hci/hci_le.c ****   rq.cparam = &set_rand_addr_cp;
 1383              		.loc 1 352 3 view .LVU486
 354:Middlewares/ST/BlueNRG-MS/hci/hci_le.c ****   rq.rparam = &status;
 1384              		.loc 1 354 11 is_stmt 0 view .LVU487
 1385 0020 0624     		movs	r4, #6
 357:Middlewares/ST/BlueNRG-MS/hci/hci_le.c ****   
 358:Middlewares/ST/BlueNRG-MS/hci/hci_le.c ****   if (hci_send_req(&rq, FALSE) < 0)
 1386              		.loc 1 358 7 view .LVU488
 1387 0022 04A8     		add	r0, sp, #16
 355:Middlewares/ST/BlueNRG-MS/hci/hci_le.c ****   rq.rlen = 1;
 1388              		.loc 1 355 13 view .LVU489
 1389 0024 CDE90742 		strd	r4, r2, [sp, #28]
 351:Middlewares/ST/BlueNRG-MS/hci/hci_le.c ****   rq.ocf = OCF_LE_SET_RANDOM_ADDRESS;
 1390              		.loc 1 351 10 view .LVU490
 1391 0028 0495     		str	r5, [sp, #16]
 353:Middlewares/ST/BlueNRG-MS/hci/hci_le.c ****   rq.clen = LE_SET_RANDOM_ADDRESS_CP_SIZE;
 1392              		.loc 1 353 3 is_stmt 1 view .LVU491
 354:Middlewares/ST/BlueNRG-MS/hci/hci_le.c ****   rq.rparam = &status;
 1393              		.loc 1 354 3 view .LVU492
 356:Middlewares/ST/BlueNRG-MS/hci/hci_le.c ****   
 1394              		.loc 1 356 3 view .LVU493
 356:Middlewares/ST/BlueNRG-MS/hci/hci_le.c ****   
 1395              		.loc 1 356 11 is_stmt 0 view .LVU494
 1396 002a 0993     		str	r3, [sp, #36]
 1397              		.loc 1 358 3 is_stmt 1 view .LVU495
 1398              		.loc 1 358 7 is_stmt 0 view .LVU496
 1399 002c FFF7FEFF 		bl	hci_send_req
 1400              	.LVL69:
 1401              		.loc 1 358 6 view .LVU497
 1402 0030 0028     		cmp	r0, #0
 359:Middlewares/ST/BlueNRG-MS/hci/hci_le.c ****     return BLE_STATUS_TIMEOUT;
 360:Middlewares/ST/BlueNRG-MS/hci/hci_le.c ****   
 361:Middlewares/ST/BlueNRG-MS/hci/hci_le.c ****   return status;
 1403              		.loc 1 361 3 is_stmt 1 view .LVU498
 1404              		.loc 1 361 10 is_stmt 0 view .LVU499
 1405 0032 ACBF     		ite	ge
 1406 0034 9DF80700 		ldrbge	r0, [sp, #7]	@ zero_extendqisi2
 359:Middlewares/ST/BlueNRG-MS/hci/hci_le.c ****     return BLE_STATUS_TIMEOUT;
 1407              		.loc 1 359 12 view .LVU500
 1408 0038 FF20     		movlt	r0, #255
 362:Middlewares/ST/BlueNRG-MS/hci/hci_le.c **** }
 1409              		.loc 1 362 1 view .LVU501
 1410 003a 0BB0     		add	sp, sp, #44
 1411              	.LCFI48:
 1412              		.cfi_def_cfa_offset 12
 1413              		@ sp needed
 1414 003c 30BD     		pop	{r4, r5, pc}
 1415              	.L84:
 1416 003e 00BF     		.align	2
 1417              	.L83:
 1418 0040 08000500 		.word	327688
 1419              		.cfi_endproc
 1420              	.LFE142:
ARM GAS  /tmp/ccCJ9vpL.s 			page 36


 1422              		.section	.text.hci_read_bd_addr,"ax",%progbits
 1423              		.align	1
 1424              		.p2align 2,,3
 1425              		.global	hci_read_bd_addr
 1426              		.syntax unified
 1427              		.thumb
 1428              		.thumb_func
 1429              		.fpu fpv4-sp-d16
 1431              	hci_read_bd_addr:
 1432              	.LVL70:
 1433              	.LFB143:
 363:Middlewares/ST/BlueNRG-MS/hci/hci_le.c **** 
 364:Middlewares/ST/BlueNRG-MS/hci/hci_le.c **** int hci_read_bd_addr(tBDAddr bdaddr)
 365:Middlewares/ST/BlueNRG-MS/hci/hci_le.c **** {
 1434              		.loc 1 365 1 is_stmt 1 view -0
 1435              		.cfi_startproc
 1436              		@ args = 0, pretend = 0, frame = 32
 1437              		@ frame_needed = 0, uses_anonymous_args = 0
 366:Middlewares/ST/BlueNRG-MS/hci/hci_le.c ****   struct hci_request rq;
 1438              		.loc 1 366 3 view .LVU503
 367:Middlewares/ST/BlueNRG-MS/hci/hci_le.c ****   read_bd_addr_rp resp;
 1439              		.loc 1 367 3 view .LVU504
 368:Middlewares/ST/BlueNRG-MS/hci/hci_le.c ****   
 369:Middlewares/ST/BlueNRG-MS/hci/hci_le.c ****   BLUENRG_memset(&resp, 0, sizeof(resp));
 1440              		.loc 1 369 3 view .LVU505
 365:Middlewares/ST/BlueNRG-MS/hci/hci_le.c ****   struct hci_request rq;
 1441              		.loc 1 365 1 is_stmt 0 view .LVU506
 1442 0000 10B5     		push	{r4, lr}
 1443              	.LCFI49:
 1444              		.cfi_def_cfa_offset 8
 1445              		.cfi_offset 4, -8
 1446              		.cfi_offset 14, -4
 1447 0002 88B0     		sub	sp, sp, #32
 1448              	.LCFI50:
 1449              		.cfi_def_cfa_offset 40
 1450              		.loc 1 369 3 view .LVU507
 1451 0004 0021     		movs	r1, #0
 370:Middlewares/ST/BlueNRG-MS/hci/hci_le.c ****   
 371:Middlewares/ST/BlueNRG-MS/hci/hci_le.c ****   BLUENRG_memset(&rq, 0, sizeof(rq));
 372:Middlewares/ST/BlueNRG-MS/hci/hci_le.c ****   rq.ogf = OGF_INFO_PARAM;
 1452              		.loc 1 372 10 view .LVU508
 1453 0006 104A     		ldr	r2, .L90
 369:Middlewares/ST/BlueNRG-MS/hci/hci_le.c ****   
 1454              		.loc 1 369 3 view .LVU509
 1455 0008 0091     		str	r1, [sp]
 373:Middlewares/ST/BlueNRG-MS/hci/hci_le.c ****   rq.ocf = OCF_READ_BD_ADDR;
 374:Middlewares/ST/BlueNRG-MS/hci/hci_le.c ****   rq.cparam = NULL;
 375:Middlewares/ST/BlueNRG-MS/hci/hci_le.c ****   rq.clen = 0;
 376:Middlewares/ST/BlueNRG-MS/hci/hci_le.c ****   rq.rparam = &resp;
 377:Middlewares/ST/BlueNRG-MS/hci/hci_le.c ****   rq.rlen = READ_BD_ADDR_RP_SIZE;
 1456              		.loc 1 377 11 view .LVU510
 1457 000a 0723     		movs	r3, #7
 365:Middlewares/ST/BlueNRG-MS/hci/hci_le.c ****   struct hci_request rq;
 1458              		.loc 1 365 1 view .LVU511
 1459 000c 0446     		mov	r4, r0
 378:Middlewares/ST/BlueNRG-MS/hci/hci_le.c ****   
 379:Middlewares/ST/BlueNRG-MS/hci/hci_le.c ****   if (hci_send_req(&rq, FALSE) < 0)
ARM GAS  /tmp/ccCJ9vpL.s 			page 37


 1460              		.loc 1 379 7 view .LVU512
 1461 000e 02A8     		add	r0, sp, #8
 1462              	.LVL71:
 374:Middlewares/ST/BlueNRG-MS/hci/hci_le.c ****   rq.clen = 0;
 1463              		.loc 1 374 13 view .LVU513
 1464 0010 CDE90311 		strd	r1, r1, [sp, #12]
 369:Middlewares/ST/BlueNRG-MS/hci/hci_le.c ****   
 1465              		.loc 1 369 3 view .LVU514
 1466 0014 CDF80310 		str	r1, [sp, #3]	@ unaligned
 371:Middlewares/ST/BlueNRG-MS/hci/hci_le.c ****   rq.ogf = OGF_INFO_PARAM;
 1467              		.loc 1 371 3 is_stmt 1 view .LVU515
 375:Middlewares/ST/BlueNRG-MS/hci/hci_le.c ****   rq.rparam = &resp;
 1468              		.loc 1 375 11 is_stmt 0 view .LVU516
 1469 0018 0591     		str	r1, [sp, #20]
 376:Middlewares/ST/BlueNRG-MS/hci/hci_le.c ****   rq.rlen = READ_BD_ADDR_RP_SIZE;
 1470              		.loc 1 376 13 view .LVU517
 1471 001a CDF818D0 		str	sp, [sp, #24]
 372:Middlewares/ST/BlueNRG-MS/hci/hci_le.c ****   rq.ocf = OCF_READ_BD_ADDR;
 1472              		.loc 1 372 10 view .LVU518
 1473 001e 0292     		str	r2, [sp, #8]
 374:Middlewares/ST/BlueNRG-MS/hci/hci_le.c ****   rq.clen = 0;
 1474              		.loc 1 374 3 is_stmt 1 view .LVU519
 375:Middlewares/ST/BlueNRG-MS/hci/hci_le.c ****   rq.rparam = &resp;
 1475              		.loc 1 375 3 view .LVU520
 376:Middlewares/ST/BlueNRG-MS/hci/hci_le.c ****   rq.rlen = READ_BD_ADDR_RP_SIZE;
 1476              		.loc 1 376 3 view .LVU521
 377:Middlewares/ST/BlueNRG-MS/hci/hci_le.c ****   
 1477              		.loc 1 377 3 view .LVU522
 377:Middlewares/ST/BlueNRG-MS/hci/hci_le.c ****   
 1478              		.loc 1 377 11 is_stmt 0 view .LVU523
 1479 0020 0793     		str	r3, [sp, #28]
 1480              		.loc 1 379 3 is_stmt 1 view .LVU524
 1481              		.loc 1 379 7 is_stmt 0 view .LVU525
 1482 0022 FFF7FEFF 		bl	hci_send_req
 1483              	.LVL72:
 1484              		.loc 1 379 6 view .LVU526
 1485 0026 0028     		cmp	r0, #0
 1486 0028 0ADB     		blt	.L88
 380:Middlewares/ST/BlueNRG-MS/hci/hci_le.c ****     return BLE_STATUS_TIMEOUT;
 381:Middlewares/ST/BlueNRG-MS/hci/hci_le.c ****   
 382:Middlewares/ST/BlueNRG-MS/hci/hci_le.c ****   if (resp.status) {
 1487              		.loc 1 382 3 is_stmt 1 view .LVU527
 1488              		.loc 1 382 11 is_stmt 0 view .LVU528
 1489 002a 9DF80000 		ldrb	r0, [sp]	@ zero_extendqisi2
 1490              		.loc 1 382 6 view .LVU529
 1491 002e 28B9     		cbnz	r0, .L85
 383:Middlewares/ST/BlueNRG-MS/hci/hci_le.c ****     return resp.status;
 384:Middlewares/ST/BlueNRG-MS/hci/hci_le.c ****   }
 385:Middlewares/ST/BlueNRG-MS/hci/hci_le.c ****   BLUENRG_memcpy(bdaddr, resp.bdaddr, sizeof(tBDAddr));
 1492              		.loc 1 385 3 is_stmt 1 view .LVU530
 1493 0030 DDF80110 		ldr	r1, [sp, #1]	@ unaligned
 1494 0034 BDF80520 		ldrh	r2, [sp, #5]	@ unaligned
 1495 0038 2160     		str	r1, [r4]	@ unaligned
 1496 003a A280     		strh	r2, [r4, #4]	@ unaligned
 386:Middlewares/ST/BlueNRG-MS/hci/hci_le.c ****   
 387:Middlewares/ST/BlueNRG-MS/hci/hci_le.c ****   return 0;
 1497              		.loc 1 387 3 view .LVU531
ARM GAS  /tmp/ccCJ9vpL.s 			page 38


 1498              	.L85:
 388:Middlewares/ST/BlueNRG-MS/hci/hci_le.c **** }
 1499              		.loc 1 388 1 is_stmt 0 view .LVU532
 1500 003c 08B0     		add	sp, sp, #32
 1501              	.LCFI51:
 1502              		.cfi_remember_state
 1503              		.cfi_def_cfa_offset 8
 1504              		@ sp needed
 1505 003e 10BD     		pop	{r4, pc}
 1506              	.LVL73:
 1507              	.L88:
 1508              	.LCFI52:
 1509              		.cfi_restore_state
 380:Middlewares/ST/BlueNRG-MS/hci/hci_le.c ****   
 1510              		.loc 1 380 12 view .LVU533
 1511 0040 FF20     		movs	r0, #255
 1512              		.loc 1 388 1 view .LVU534
 1513 0042 08B0     		add	sp, sp, #32
 1514              	.LCFI53:
 1515              		.cfi_def_cfa_offset 8
 1516              		@ sp needed
 1517 0044 10BD     		pop	{r4, pc}
 1518              	.LVL74:
 1519              	.L91:
 1520              		.loc 1 388 1 view .LVU535
 1521 0046 00BF     		.align	2
 1522              	.L90:
 1523 0048 04000900 		.word	589828
 1524              		.cfi_endproc
 1525              	.LFE143:
 1527              		.section	.text.hci_le_create_connection,"ax",%progbits
 1528              		.align	1
 1529              		.p2align 2,,3
 1530              		.global	hci_le_create_connection
 1531              		.syntax unified
 1532              		.thumb
 1533              		.thumb_func
 1534              		.fpu fpv4-sp-d16
 1536              	hci_le_create_connection:
 1537              	.LVL75:
 1538              	.LFB144:
 389:Middlewares/ST/BlueNRG-MS/hci/hci_le.c **** 
 390:Middlewares/ST/BlueNRG-MS/hci/hci_le.c **** int hci_le_create_connection(uint16_t interval,	uint16_t window, uint8_t initiator_filter, uint8_t 
 391:Middlewares/ST/BlueNRG-MS/hci/hci_le.c ****                              const tBDAddr peer_bdaddr,	uint8_t	own_bdaddr_type, uint16_t min_inter
 392:Middlewares/ST/BlueNRG-MS/hci/hci_le.c ****                              uint16_t latency,	uint16_t supervision_timeout, uint16_t min_ce_length
 393:Middlewares/ST/BlueNRG-MS/hci/hci_le.c **** {
 1539              		.loc 1 393 1 is_stmt 1 view -0
 1540              		.cfi_startproc
 1541              		@ args = 32, pretend = 0, frame = 56
 1542              		@ frame_needed = 0, uses_anonymous_args = 0
 394:Middlewares/ST/BlueNRG-MS/hci/hci_le.c ****   struct hci_request rq;
 1543              		.loc 1 394 3 view .LVU537
 395:Middlewares/ST/BlueNRG-MS/hci/hci_le.c ****   le_create_connection_cp create_cp;
 1544              		.loc 1 395 3 view .LVU538
 396:Middlewares/ST/BlueNRG-MS/hci/hci_le.c ****   uint8_t status;
 1545              		.loc 1 396 3 view .LVU539
 397:Middlewares/ST/BlueNRG-MS/hci/hci_le.c ****   
ARM GAS  /tmp/ccCJ9vpL.s 			page 39


 398:Middlewares/ST/BlueNRG-MS/hci/hci_le.c ****   BLUENRG_memset(&create_cp, 0, sizeof(create_cp));
 1546              		.loc 1 398 3 view .LVU540
 399:Middlewares/ST/BlueNRG-MS/hci/hci_le.c ****   create_cp.interval = interval;
 1547              		.loc 1 399 3 view .LVU541
 393:Middlewares/ST/BlueNRG-MS/hci/hci_le.c ****   struct hci_request rq;
 1548              		.loc 1 393 1 is_stmt 0 view .LVU542
 1549 0000 F0B5     		push	{r4, r5, r6, r7, lr}
 1550              	.LCFI54:
 1551              		.cfi_def_cfa_offset 20
 1552              		.cfi_offset 4, -20
 1553              		.cfi_offset 5, -16
 1554              		.cfi_offset 6, -12
 1555              		.cfi_offset 7, -8
 1556              		.cfi_offset 14, -4
 1557 0002 8FB0     		sub	sp, sp, #60
 1558              	.LCFI55:
 1559              		.cfi_def_cfa_offset 80
 393:Middlewares/ST/BlueNRG-MS/hci/hci_le.c ****   struct hci_request rq;
 1560              		.loc 1 393 1 view .LVU543
 1561 0004 149C     		ldr	r4, [sp, #80]
 1562 0006 9DF85450 		ldrb	r5, [sp, #84]	@ zero_extendqisi2
 400:Middlewares/ST/BlueNRG-MS/hci/hci_le.c ****   create_cp.window =  window;
 401:Middlewares/ST/BlueNRG-MS/hci/hci_le.c ****   create_cp.initiator_filter = initiator_filter;
 402:Middlewares/ST/BlueNRG-MS/hci/hci_le.c ****   create_cp.peer_bdaddr_type = peer_bdaddr_type;
 403:Middlewares/ST/BlueNRG-MS/hci/hci_le.c ****   BLUENRG_memcpy(create_cp.peer_bdaddr, peer_bdaddr, sizeof(tBDAddr));
 404:Middlewares/ST/BlueNRG-MS/hci/hci_le.c ****   create_cp.own_bdaddr_type = own_bdaddr_type;
 1563              		.loc 1 404 29 view .LVU544
 1564 000a 8DF82850 		strb	r5, [sp, #40]
 399:Middlewares/ST/BlueNRG-MS/hci/hci_le.c ****   create_cp.window =  window;
 1565              		.loc 1 399 22 view .LVU545
 1566 000e ADF81C00 		strh	r0, [sp, #28]	@ movhi
 400:Middlewares/ST/BlueNRG-MS/hci/hci_le.c ****   create_cp.window =  window;
 1567              		.loc 1 400 3 is_stmt 1 view .LVU546
 405:Middlewares/ST/BlueNRG-MS/hci/hci_le.c ****   create_cp.min_interval=min_interval;
 406:Middlewares/ST/BlueNRG-MS/hci/hci_le.c ****   create_cp.max_interval=max_interval;
 407:Middlewares/ST/BlueNRG-MS/hci/hci_le.c ****   create_cp.latency = latency;
 1568              		.loc 1 407 21 is_stmt 0 view .LVU547
 1569 0012 BDF86050 		ldrh	r5, [sp, #96]
 406:Middlewares/ST/BlueNRG-MS/hci/hci_le.c ****   create_cp.latency = latency;
 1570              		.loc 1 406 25 view .LVU548
 1571 0016 BDF85C00 		ldrh	r0, [sp, #92]
 1572              	.LVL76:
 403:Middlewares/ST/BlueNRG-MS/hci/hci_le.c ****   create_cp.own_bdaddr_type = own_bdaddr_type;
 1573              		.loc 1 403 3 view .LVU549
 1574 001a D4F800C0 		ldr	ip, [r4]	@ unaligned
 1575 001e A788     		ldrh	r7, [r4, #4]	@ unaligned
 400:Middlewares/ST/BlueNRG-MS/hci/hci_le.c ****   create_cp.initiator_filter = initiator_filter;
 1576              		.loc 1 400 20 view .LVU550
 1577 0020 ADF81E10 		strh	r1, [sp, #30]	@ movhi
 401:Middlewares/ST/BlueNRG-MS/hci/hci_le.c ****   create_cp.peer_bdaddr_type = peer_bdaddr_type;
 1578              		.loc 1 401 3 is_stmt 1 view .LVU551
 408:Middlewares/ST/BlueNRG-MS/hci/hci_le.c ****   create_cp.supervision_timeout=supervision_timeout;
 1579              		.loc 1 408 32 is_stmt 0 view .LVU552
 1580 0024 BDF86440 		ldrh	r4, [sp, #100]
 401:Middlewares/ST/BlueNRG-MS/hci/hci_le.c ****   create_cp.peer_bdaddr_type = peer_bdaddr_type;
 1581              		.loc 1 401 30 view .LVU553
 1582 0028 8DF82020 		strb	r2, [sp, #32]
ARM GAS  /tmp/ccCJ9vpL.s 			page 40


 402:Middlewares/ST/BlueNRG-MS/hci/hci_le.c ****   BLUENRG_memcpy(create_cp.peer_bdaddr, peer_bdaddr, sizeof(tBDAddr));
 1583              		.loc 1 402 3 is_stmt 1 view .LVU554
 402:Middlewares/ST/BlueNRG-MS/hci/hci_le.c ****   BLUENRG_memcpy(create_cp.peer_bdaddr, peer_bdaddr, sizeof(tBDAddr));
 1584              		.loc 1 402 30 is_stmt 0 view .LVU555
 1585 002c 8DF82130 		strb	r3, [sp, #33]
 403:Middlewares/ST/BlueNRG-MS/hci/hci_le.c ****   create_cp.own_bdaddr_type = own_bdaddr_type;
 1586              		.loc 1 403 3 is_stmt 1 view .LVU556
 409:Middlewares/ST/BlueNRG-MS/hci/hci_le.c ****   create_cp.min_ce_length=min_ce_length;
 1587              		.loc 1 409 26 is_stmt 0 view .LVU557
 1588 0030 BDF86820 		ldrh	r2, [sp, #104]
 1589              	.LVL77:
 410:Middlewares/ST/BlueNRG-MS/hci/hci_le.c ****   create_cp.max_ce_length=max_ce_length;
 1590              		.loc 1 410 26 view .LVU558
 1591 0034 BDF86C30 		ldrh	r3, [sp, #108]
 1592              	.LVL78:
 406:Middlewares/ST/BlueNRG-MS/hci/hci_le.c ****   create_cp.latency = latency;
 1593              		.loc 1 406 25 view .LVU559
 1594 0038 ADF82B00 		strh	r0, [sp, #43]	@ unaligned
 411:Middlewares/ST/BlueNRG-MS/hci/hci_le.c ****   
 412:Middlewares/ST/BlueNRG-MS/hci/hci_le.c ****   BLUENRG_memset(&rq, 0, sizeof(rq));
 413:Middlewares/ST/BlueNRG-MS/hci/hci_le.c ****   rq.ogf = OGF_LE_CTL;
 414:Middlewares/ST/BlueNRG-MS/hci/hci_le.c ****   rq.ocf = OCF_LE_CREATE_CONN;
 415:Middlewares/ST/BlueNRG-MS/hci/hci_le.c ****   rq.cparam = &create_cp;
 1595              		.loc 1 415 13 view .LVU560
 1596 003c 07A9     		add	r1, sp, #28
 1597              	.LVL79:
 407:Middlewares/ST/BlueNRG-MS/hci/hci_le.c ****   create_cp.supervision_timeout=supervision_timeout;
 1598              		.loc 1 407 21 view .LVU561
 1599 003e ADF82D50 		strh	r5, [sp, #45]	@ unaligned
 416:Middlewares/ST/BlueNRG-MS/hci/hci_le.c ****   rq.clen = LE_CREATE_CONN_CP_SIZE;
 1600              		.loc 1 416 11 view .LVU562
 1601 0042 1920     		movs	r0, #25
 413:Middlewares/ST/BlueNRG-MS/hci/hci_le.c ****   rq.ocf = OCF_LE_CREATE_CONN;
 1602              		.loc 1 413 10 view .LVU563
 1603 0044 114D     		ldr	r5, .L96
 405:Middlewares/ST/BlueNRG-MS/hci/hci_le.c ****   create_cp.max_interval=max_interval;
 1604              		.loc 1 405 25 view .LVU564
 1605 0046 BDF85860 		ldrh	r6, [sp, #88]
 408:Middlewares/ST/BlueNRG-MS/hci/hci_le.c ****   create_cp.min_ce_length=min_ce_length;
 1606              		.loc 1 408 32 view .LVU565
 1607 004a ADF82F40 		strh	r4, [sp, #47]	@ unaligned
 409:Middlewares/ST/BlueNRG-MS/hci/hci_le.c ****   create_cp.max_ce_length=max_ce_length;
 1608              		.loc 1 409 26 view .LVU566
 1609 004e ADF83120 		strh	r2, [sp, #49]	@ unaligned
 410:Middlewares/ST/BlueNRG-MS/hci/hci_le.c ****   
 1610              		.loc 1 410 26 view .LVU567
 1611 0052 ADF83330 		strh	r3, [sp, #51]	@ unaligned
 417:Middlewares/ST/BlueNRG-MS/hci/hci_le.c ****   rq.event = EVT_CMD_STATUS;
 418:Middlewares/ST/BlueNRG-MS/hci/hci_le.c ****   rq.rparam = &status;
 1612              		.loc 1 418 13 view .LVU568
 1613 0056 0DF10302 		add	r2, sp, #3
 419:Middlewares/ST/BlueNRG-MS/hci/hci_le.c ****   rq.rlen = 1;
 1614              		.loc 1 419 11 view .LVU569
 1615 005a 0123     		movs	r3, #1
 415:Middlewares/ST/BlueNRG-MS/hci/hci_le.c ****   rq.clen = LE_CREATE_CONN_CP_SIZE;
 1616              		.loc 1 415 13 view .LVU570
 1617 005c 0391     		str	r1, [sp, #12]
ARM GAS  /tmp/ccCJ9vpL.s 			page 41


 416:Middlewares/ST/BlueNRG-MS/hci/hci_le.c ****   rq.event = EVT_CMD_STATUS;
 1618              		.loc 1 416 11 view .LVU571
 1619 005e 0490     		str	r0, [sp, #16]
 417:Middlewares/ST/BlueNRG-MS/hci/hci_le.c ****   rq.rparam = &status;
 1620              		.loc 1 417 12 view .LVU572
 1621 0060 0F24     		movs	r4, #15
 420:Middlewares/ST/BlueNRG-MS/hci/hci_le.c ****   
 421:Middlewares/ST/BlueNRG-MS/hci/hci_le.c ****   if (hci_send_req(&rq, FALSE) < 0)
 1622              		.loc 1 421 7 view .LVU573
 1623 0062 0021     		movs	r1, #0
 1624              	.LVL80:
 1625              		.loc 1 421 7 view .LVU574
 1626 0064 01A8     		add	r0, sp, #4
 417:Middlewares/ST/BlueNRG-MS/hci/hci_le.c ****   rq.rparam = &status;
 1627              		.loc 1 417 12 view .LVU575
 1628 0066 CDE90154 		strd	r5, r4, [sp, #4]
 419:Middlewares/ST/BlueNRG-MS/hci/hci_le.c ****   
 1629              		.loc 1 419 11 view .LVU576
 1630 006a CDE90523 		strd	r2, r3, [sp, #20]
 403:Middlewares/ST/BlueNRG-MS/hci/hci_le.c ****   create_cp.own_bdaddr_type = own_bdaddr_type;
 1631              		.loc 1 403 3 view .LVU577
 1632 006e CDF822C0 		str	ip, [sp, #34]	@ unaligned
 1633 0072 ADF82670 		strh	r7, [sp, #38]	@ unaligned
 404:Middlewares/ST/BlueNRG-MS/hci/hci_le.c ****   create_cp.min_interval=min_interval;
 1634              		.loc 1 404 3 is_stmt 1 view .LVU578
 405:Middlewares/ST/BlueNRG-MS/hci/hci_le.c ****   create_cp.max_interval=max_interval;
 1635              		.loc 1 405 3 view .LVU579
 405:Middlewares/ST/BlueNRG-MS/hci/hci_le.c ****   create_cp.max_interval=max_interval;
 1636              		.loc 1 405 25 is_stmt 0 view .LVU580
 1637 0076 ADF82960 		strh	r6, [sp, #41]	@ unaligned
 406:Middlewares/ST/BlueNRG-MS/hci/hci_le.c ****   create_cp.latency = latency;
 1638              		.loc 1 406 3 is_stmt 1 view .LVU581
 407:Middlewares/ST/BlueNRG-MS/hci/hci_le.c ****   create_cp.supervision_timeout=supervision_timeout;
 1639              		.loc 1 407 3 view .LVU582
 408:Middlewares/ST/BlueNRG-MS/hci/hci_le.c ****   create_cp.min_ce_length=min_ce_length;
 1640              		.loc 1 408 3 view .LVU583
 409:Middlewares/ST/BlueNRG-MS/hci/hci_le.c ****   create_cp.max_ce_length=max_ce_length;
 1641              		.loc 1 409 3 view .LVU584
 410:Middlewares/ST/BlueNRG-MS/hci/hci_le.c ****   
 1642              		.loc 1 410 3 view .LVU585
 412:Middlewares/ST/BlueNRG-MS/hci/hci_le.c ****   rq.ogf = OGF_LE_CTL;
 1643              		.loc 1 412 3 view .LVU586
 413:Middlewares/ST/BlueNRG-MS/hci/hci_le.c ****   rq.ocf = OCF_LE_CREATE_CONN;
 1644              		.loc 1 413 3 view .LVU587
 414:Middlewares/ST/BlueNRG-MS/hci/hci_le.c ****   rq.cparam = &create_cp;
 1645              		.loc 1 414 3 view .LVU588
 415:Middlewares/ST/BlueNRG-MS/hci/hci_le.c ****   rq.clen = LE_CREATE_CONN_CP_SIZE;
 1646              		.loc 1 415 3 view .LVU589
 416:Middlewares/ST/BlueNRG-MS/hci/hci_le.c ****   rq.event = EVT_CMD_STATUS;
 1647              		.loc 1 416 3 view .LVU590
 417:Middlewares/ST/BlueNRG-MS/hci/hci_le.c ****   rq.rparam = &status;
 1648              		.loc 1 417 3 view .LVU591
 418:Middlewares/ST/BlueNRG-MS/hci/hci_le.c ****   rq.rlen = 1;
 1649              		.loc 1 418 3 view .LVU592
 1650              		.loc 1 421 3 view .LVU593
 1651              		.loc 1 421 7 is_stmt 0 view .LVU594
 1652 007a FFF7FEFF 		bl	hci_send_req
ARM GAS  /tmp/ccCJ9vpL.s 			page 42


 1653              	.LVL81:
 1654              		.loc 1 421 6 view .LVU595
 1655 007e 0028     		cmp	r0, #0
 422:Middlewares/ST/BlueNRG-MS/hci/hci_le.c ****     return BLE_STATUS_TIMEOUT;
 423:Middlewares/ST/BlueNRG-MS/hci/hci_le.c ****   
 424:Middlewares/ST/BlueNRG-MS/hci/hci_le.c ****   return status;
 1656              		.loc 1 424 3 is_stmt 1 view .LVU596
 1657              		.loc 1 424 10 is_stmt 0 view .LVU597
 1658 0080 ACBF     		ite	ge
 1659 0082 9DF80300 		ldrbge	r0, [sp, #3]	@ zero_extendqisi2
 422:Middlewares/ST/BlueNRG-MS/hci/hci_le.c ****     return BLE_STATUS_TIMEOUT;
 1660              		.loc 1 422 12 view .LVU598
 1661 0086 FF20     		movlt	r0, #255
 425:Middlewares/ST/BlueNRG-MS/hci/hci_le.c **** }
 1662              		.loc 1 425 1 view .LVU599
 1663 0088 0FB0     		add	sp, sp, #60
 1664              	.LCFI56:
 1665              		.cfi_def_cfa_offset 20
 1666              		@ sp needed
 1667 008a F0BD     		pop	{r4, r5, r6, r7, pc}
 1668              	.LVL82:
 1669              	.L97:
 1670              		.loc 1 425 1 view .LVU600
 1671              		.align	2
 1672              	.L96:
 1673 008c 08000D00 		.word	851976
 1674              		.cfi_endproc
 1675              	.LFE144:
 1677              		.section	.text.hci_le_create_connection_cancel,"ax",%progbits
 1678              		.align	1
 1679              		.p2align 2,,3
 1680              		.global	hci_le_create_connection_cancel
 1681              		.syntax unified
 1682              		.thumb
 1683              		.thumb_func
 1684              		.fpu fpv4-sp-d16
 1686              	hci_le_create_connection_cancel:
 1687              	.LFB145:
 426:Middlewares/ST/BlueNRG-MS/hci/hci_le.c **** 
 427:Middlewares/ST/BlueNRG-MS/hci/hci_le.c **** int hci_le_create_connection_cancel(void)
 428:Middlewares/ST/BlueNRG-MS/hci/hci_le.c **** {
 1688              		.loc 1 428 1 is_stmt 1 view -0
 1689              		.cfi_startproc
 1690              		@ args = 0, pretend = 0, frame = 32
 1691              		@ frame_needed = 0, uses_anonymous_args = 0
 429:Middlewares/ST/BlueNRG-MS/hci/hci_le.c ****   struct hci_request rq;
 1692              		.loc 1 429 3 view .LVU602
 430:Middlewares/ST/BlueNRG-MS/hci/hci_le.c ****   uint8_t status;
 1693              		.loc 1 430 3 view .LVU603
 431:Middlewares/ST/BlueNRG-MS/hci/hci_le.c ****   
 432:Middlewares/ST/BlueNRG-MS/hci/hci_le.c ****   BLUENRG_memset(&rq, 0, sizeof(rq));
 1694              		.loc 1 432 3 view .LVU604
 428:Middlewares/ST/BlueNRG-MS/hci/hci_le.c ****   struct hci_request rq;
 1695              		.loc 1 428 1 is_stmt 0 view .LVU605
 1696 0000 10B5     		push	{r4, lr}
 1697              	.LCFI57:
 1698              		.cfi_def_cfa_offset 8
ARM GAS  /tmp/ccCJ9vpL.s 			page 43


 1699              		.cfi_offset 4, -8
 1700              		.cfi_offset 14, -4
 1701 0002 88B0     		sub	sp, sp, #32
 1702              	.LCFI58:
 1703              		.cfi_def_cfa_offset 40
 1704              		.loc 1 432 3 view .LVU606
 1705 0004 0021     		movs	r1, #0
 433:Middlewares/ST/BlueNRG-MS/hci/hci_le.c ****   rq.ogf = OGF_LE_CTL;
 434:Middlewares/ST/BlueNRG-MS/hci/hci_le.c ****   rq.ocf = OCF_LE_CREATE_CONN_CANCEL;
 435:Middlewares/ST/BlueNRG-MS/hci/hci_le.c ****   rq.rparam = &status;
 1706              		.loc 1 435 13 view .LVU607
 1707 0006 0DF10702 		add	r2, sp, #7
 436:Middlewares/ST/BlueNRG-MS/hci/hci_le.c ****   rq.rlen = 1;
 1708              		.loc 1 436 11 view .LVU608
 1709 000a 0123     		movs	r3, #1
 433:Middlewares/ST/BlueNRG-MS/hci/hci_le.c ****   rq.ogf = OGF_LE_CTL;
 1710              		.loc 1 433 10 view .LVU609
 1711 000c 084C     		ldr	r4, .L102
 432:Middlewares/ST/BlueNRG-MS/hci/hci_le.c ****   rq.ogf = OGF_LE_CTL;
 1712              		.loc 1 432 3 view .LVU610
 1713 000e 0491     		str	r1, [sp, #16]
 437:Middlewares/ST/BlueNRG-MS/hci/hci_le.c ****   
 438:Middlewares/ST/BlueNRG-MS/hci/hci_le.c ****   if (hci_send_req(&rq, FALSE) < 0)
 1714              		.loc 1 438 7 view .LVU611
 1715 0010 02A8     		add	r0, sp, #8
 436:Middlewares/ST/BlueNRG-MS/hci/hci_le.c ****   
 1716              		.loc 1 436 11 view .LVU612
 1717 0012 CDE90623 		strd	r2, r3, [sp, #24]
 432:Middlewares/ST/BlueNRG-MS/hci/hci_le.c ****   rq.ogf = OGF_LE_CTL;
 1718              		.loc 1 432 3 view .LVU613
 1719 0016 0391     		str	r1, [sp, #12]
 1720 0018 0591     		str	r1, [sp, #20]
 433:Middlewares/ST/BlueNRG-MS/hci/hci_le.c ****   rq.ocf = OCF_LE_CREATE_CONN_CANCEL;
 1721              		.loc 1 433 3 is_stmt 1 view .LVU614
 434:Middlewares/ST/BlueNRG-MS/hci/hci_le.c ****   rq.rparam = &status;
 1722              		.loc 1 434 3 view .LVU615
 433:Middlewares/ST/BlueNRG-MS/hci/hci_le.c ****   rq.ocf = OCF_LE_CREATE_CONN_CANCEL;
 1723              		.loc 1 433 10 is_stmt 0 view .LVU616
 1724 001a 0294     		str	r4, [sp, #8]
 435:Middlewares/ST/BlueNRG-MS/hci/hci_le.c ****   rq.rlen = 1;
 1725              		.loc 1 435 3 is_stmt 1 view .LVU617
 1726              		.loc 1 438 3 view .LVU618
 1727              		.loc 1 438 7 is_stmt 0 view .LVU619
 1728 001c FFF7FEFF 		bl	hci_send_req
 1729              	.LVL83:
 1730              		.loc 1 438 6 view .LVU620
 1731 0020 0028     		cmp	r0, #0
 439:Middlewares/ST/BlueNRG-MS/hci/hci_le.c ****     return BLE_STATUS_TIMEOUT;
 440:Middlewares/ST/BlueNRG-MS/hci/hci_le.c ****   
 441:Middlewares/ST/BlueNRG-MS/hci/hci_le.c ****   return status;  
 1732              		.loc 1 441 3 is_stmt 1 view .LVU621
 1733              		.loc 1 441 10 is_stmt 0 view .LVU622
 1734 0022 ACBF     		ite	ge
 1735 0024 9DF80700 		ldrbge	r0, [sp, #7]	@ zero_extendqisi2
 439:Middlewares/ST/BlueNRG-MS/hci/hci_le.c ****     return BLE_STATUS_TIMEOUT;
 1736              		.loc 1 439 12 view .LVU623
 1737 0028 FF20     		movlt	r0, #255
ARM GAS  /tmp/ccCJ9vpL.s 			page 44


 442:Middlewares/ST/BlueNRG-MS/hci/hci_le.c **** }
 1738              		.loc 1 442 1 view .LVU624
 1739 002a 08B0     		add	sp, sp, #32
 1740              	.LCFI59:
 1741              		.cfi_def_cfa_offset 8
 1742              		@ sp needed
 1743 002c 10BD     		pop	{r4, pc}
 1744              	.L103:
 1745 002e 00BF     		.align	2
 1746              	.L102:
 1747 0030 08000E00 		.word	917512
 1748              		.cfi_endproc
 1749              	.LFE145:
 1751              		.section	.text.hci_le_encrypt,"ax",%progbits
 1752              		.align	1
 1753              		.p2align 2,,3
 1754              		.global	hci_le_encrypt
 1755              		.syntax unified
 1756              		.thumb
 1757              		.thumb_func
 1758              		.fpu fpv4-sp-d16
 1760              	hci_le_encrypt:
 1761              	.LVL84:
 1762              	.LFB146:
 443:Middlewares/ST/BlueNRG-MS/hci/hci_le.c **** 
 444:Middlewares/ST/BlueNRG-MS/hci/hci_le.c **** int hci_le_encrypt(uint8_t key[16], uint8_t plaintextData[16], uint8_t encryptedData[16])
 445:Middlewares/ST/BlueNRG-MS/hci/hci_le.c **** {
 1763              		.loc 1 445 1 is_stmt 1 view -0
 1764              		.cfi_startproc
 1765              		@ args = 0, pretend = 0, frame = 80
 1766              		@ frame_needed = 0, uses_anonymous_args = 0
 446:Middlewares/ST/BlueNRG-MS/hci/hci_le.c ****   struct hci_request rq;
 1767              		.loc 1 446 3 view .LVU626
 447:Middlewares/ST/BlueNRG-MS/hci/hci_le.c ****   le_encrypt_cp params;
 1768              		.loc 1 447 3 view .LVU627
 448:Middlewares/ST/BlueNRG-MS/hci/hci_le.c ****   le_encrypt_rp resp;
 1769              		.loc 1 448 3 view .LVU628
 449:Middlewares/ST/BlueNRG-MS/hci/hci_le.c ****   
 450:Middlewares/ST/BlueNRG-MS/hci/hci_le.c ****   BLUENRG_memset(&resp, 0, sizeof(resp));
 1770              		.loc 1 450 3 view .LVU629
 445:Middlewares/ST/BlueNRG-MS/hci/hci_le.c ****   struct hci_request rq;
 1771              		.loc 1 445 1 is_stmt 0 view .LVU630
 1772 0000 F0B5     		push	{r4, r5, r6, r7, lr}
 1773              	.LCFI60:
 1774              		.cfi_def_cfa_offset 20
 1775              		.cfi_offset 4, -20
 1776              		.cfi_offset 5, -16
 1777              		.cfi_offset 6, -12
 1778              		.cfi_offset 7, -8
 1779              		.cfi_offset 14, -4
 1780 0002 0346     		mov	r3, r0
 1781 0004 95B0     		sub	sp, sp, #84
 1782              	.LCFI61:
 1783              		.cfi_def_cfa_offset 104
 445:Middlewares/ST/BlueNRG-MS/hci/hci_le.c ****   struct hci_request rq;
 1784              		.loc 1 445 1 view .LVU631
 1785 0006 0C46     		mov	r4, r1
ARM GAS  /tmp/ccCJ9vpL.s 			page 45


 451:Middlewares/ST/BlueNRG-MS/hci/hci_le.c ****   
 452:Middlewares/ST/BlueNRG-MS/hci/hci_le.c ****   BLUENRG_memcpy(params.key, key, 16);
 1786              		.loc 1 452 3 view .LVU632
 1787 0008 0068     		ldr	r0, [r0]	@ unaligned
 1788              	.LVL85:
 1789              		.loc 1 452 3 view .LVU633
 1790 000a 5968     		ldr	r1, [r3, #4]	@ unaligned
 1791              	.LVL86:
 453:Middlewares/ST/BlueNRG-MS/hci/hci_le.c ****   BLUENRG_memcpy(params.plaintext, plaintextData, 16);
 454:Middlewares/ST/BlueNRG-MS/hci/hci_le.c ****   
 455:Middlewares/ST/BlueNRG-MS/hci/hci_le.c ****   BLUENRG_memset(&rq, 0, sizeof(rq));
 456:Middlewares/ST/BlueNRG-MS/hci/hci_le.c ****   rq.ogf = OGF_LE_CTL;
 1792              		.loc 1 456 10 view .LVU634
 1793 000c 1B4D     		ldr	r5, .L109
 1794 000e 0695     		str	r5, [sp, #24]
 445:Middlewares/ST/BlueNRG-MS/hci/hci_le.c ****   struct hci_request rq;
 1795              		.loc 1 445 1 view .LVU635
 1796 0010 1746     		mov	r7, r2
 452:Middlewares/ST/BlueNRG-MS/hci/hci_le.c ****   BLUENRG_memcpy(params.plaintext, plaintextData, 16);
 1797              		.loc 1 452 3 view .LVU636
 1798 0012 9A68     		ldr	r2, [r3, #8]	@ unaligned
 1799              	.LVL87:
 452:Middlewares/ST/BlueNRG-MS/hci/hci_le.c ****   BLUENRG_memcpy(params.plaintext, plaintextData, 16);
 1800              		.loc 1 452 3 view .LVU637
 1801 0014 DB68     		ldr	r3, [r3, #12]	@ unaligned
 1802              	.LVL88:
 452:Middlewares/ST/BlueNRG-MS/hci/hci_le.c ****   BLUENRG_memcpy(params.plaintext, plaintextData, 16);
 1803              		.loc 1 452 3 view .LVU638
 1804 0016 0CAD     		add	r5, sp, #48
 1805 0018 0FC5     		stmia	r5!, {r0, r1, r2, r3}
 453:Middlewares/ST/BlueNRG-MS/hci/hci_le.c ****   BLUENRG_memcpy(params.plaintext, plaintextData, 16);
 1806              		.loc 1 453 3 view .LVU639
 1807 001a 2068     		ldr	r0, [r4]	@ unaligned
 1808 001c 6168     		ldr	r1, [r4, #4]	@ unaligned
 1809 001e A268     		ldr	r2, [r4, #8]	@ unaligned
 1810 0020 E368     		ldr	r3, [r4, #12]	@ unaligned
 1811 0022 10AD     		add	r5, sp, #64
 450:Middlewares/ST/BlueNRG-MS/hci/hci_le.c ****   
 1812              		.loc 1 450 3 view .LVU640
 1813 0024 0024     		movs	r4, #0
 1814              	.LVL89:
 453:Middlewares/ST/BlueNRG-MS/hci/hci_le.c ****   
 1815              		.loc 1 453 3 view .LVU641
 1816 0026 0FC5     		stmia	r5!, {r0, r1, r2, r3}
 450:Middlewares/ST/BlueNRG-MS/hci/hci_le.c ****   
 1817              		.loc 1 450 3 view .LVU642
 1818 0028 01AE     		add	r6, sp, #4
 457:Middlewares/ST/BlueNRG-MS/hci/hci_le.c ****   rq.ocf = OCF_LE_ENCRYPT;
 458:Middlewares/ST/BlueNRG-MS/hci/hci_le.c ****   rq.cparam = &params;
 459:Middlewares/ST/BlueNRG-MS/hci/hci_le.c ****   rq.clen = LE_ENCRYPT_CP_SIZE;
 1819              		.loc 1 459 11 view .LVU643
 1820 002a 2022     		movs	r2, #32
 460:Middlewares/ST/BlueNRG-MS/hci/hci_le.c ****   rq.rparam = &resp;
 461:Middlewares/ST/BlueNRG-MS/hci/hci_le.c ****   rq.rlen = LE_ENCRYPT_RP_SIZE;
 1821              		.loc 1 461 11 view .LVU644
 1822 002c 1123     		movs	r3, #17
 458:Middlewares/ST/BlueNRG-MS/hci/hci_le.c ****   rq.clen = LE_ENCRYPT_CP_SIZE;
ARM GAS  /tmp/ccCJ9vpL.s 			page 46


 1823              		.loc 1 458 13 view .LVU645
 1824 002e 0CAD     		add	r5, sp, #48
 462:Middlewares/ST/BlueNRG-MS/hci/hci_le.c ****   
 463:Middlewares/ST/BlueNRG-MS/hci/hci_le.c ****   if (hci_send_req(&rq, FALSE) < 0){
 1825              		.loc 1 463 7 view .LVU646
 1826 0030 2146     		mov	r1, r4
 1827 0032 06A8     		add	r0, sp, #24
 450:Middlewares/ST/BlueNRG-MS/hci/hci_le.c ****   
 1828              		.loc 1 450 3 view .LVU647
 1829 0034 CDE90144 		strd	r4, r4, [sp, #4]
 1830 0038 CDE90344 		strd	r4, r4, [sp, #12]
 458:Middlewares/ST/BlueNRG-MS/hci/hci_le.c ****   rq.clen = LE_ENCRYPT_CP_SIZE;
 1831              		.loc 1 458 13 view .LVU648
 1832 003c CDE90745 		strd	r4, r5, [sp, #28]
 460:Middlewares/ST/BlueNRG-MS/hci/hci_le.c ****   rq.rlen = LE_ENCRYPT_RP_SIZE;
 1833              		.loc 1 460 13 view .LVU649
 1834 0040 0A96     		str	r6, [sp, #40]
 450:Middlewares/ST/BlueNRG-MS/hci/hci_le.c ****   
 1835              		.loc 1 450 3 view .LVU650
 1836 0042 8DF81440 		strb	r4, [sp, #20]
 452:Middlewares/ST/BlueNRG-MS/hci/hci_le.c ****   BLUENRG_memcpy(params.plaintext, plaintextData, 16);
 1837              		.loc 1 452 3 is_stmt 1 view .LVU651
 453:Middlewares/ST/BlueNRG-MS/hci/hci_le.c ****   
 1838              		.loc 1 453 3 view .LVU652
 455:Middlewares/ST/BlueNRG-MS/hci/hci_le.c ****   rq.ogf = OGF_LE_CTL;
 1839              		.loc 1 455 3 view .LVU653
 459:Middlewares/ST/BlueNRG-MS/hci/hci_le.c ****   rq.rparam = &resp;
 1840              		.loc 1 459 3 view .LVU654
 459:Middlewares/ST/BlueNRG-MS/hci/hci_le.c ****   rq.rparam = &resp;
 1841              		.loc 1 459 11 is_stmt 0 view .LVU655
 1842 0046 0992     		str	r2, [sp, #36]
 460:Middlewares/ST/BlueNRG-MS/hci/hci_le.c ****   rq.rlen = LE_ENCRYPT_RP_SIZE;
 1843              		.loc 1 460 3 is_stmt 1 view .LVU656
 461:Middlewares/ST/BlueNRG-MS/hci/hci_le.c ****   
 1844              		.loc 1 461 3 view .LVU657
 461:Middlewares/ST/BlueNRG-MS/hci/hci_le.c ****   
 1845              		.loc 1 461 11 is_stmt 0 view .LVU658
 1846 0048 0B93     		str	r3, [sp, #44]
 1847              		.loc 1 463 3 is_stmt 1 view .LVU659
 1848              		.loc 1 463 7 is_stmt 0 view .LVU660
 1849 004a FFF7FEFF 		bl	hci_send_req
 1850              	.LVL90:
 1851              		.loc 1 463 6 view .LVU661
 1852 004e A042     		cmp	r0, r4
 1853 0050 10DB     		blt	.L107
 464:Middlewares/ST/BlueNRG-MS/hci/hci_le.c ****     return BLE_STATUS_TIMEOUT;
 465:Middlewares/ST/BlueNRG-MS/hci/hci_le.c ****   }
 466:Middlewares/ST/BlueNRG-MS/hci/hci_le.c ****   
 467:Middlewares/ST/BlueNRG-MS/hci/hci_le.c ****   if (resp.status) {
 1854              		.loc 1 467 3 is_stmt 1 view .LVU662
 1855              		.loc 1 467 11 is_stmt 0 view .LVU663
 1856 0052 9DF80400 		ldrb	r0, [sp, #4]	@ zero_extendqisi2
 1857              		.loc 1 467 6 view .LVU664
 1858 0056 58B9     		cbnz	r0, .L104
 468:Middlewares/ST/BlueNRG-MS/hci/hci_le.c ****     return resp.status;
 469:Middlewares/ST/BlueNRG-MS/hci/hci_le.c ****   }
 470:Middlewares/ST/BlueNRG-MS/hci/hci_le.c ****   
ARM GAS  /tmp/ccCJ9vpL.s 			page 47


 471:Middlewares/ST/BlueNRG-MS/hci/hci_le.c ****   BLUENRG_memcpy(encryptedData, resp.encdata, 16);
 1859              		.loc 1 471 3 is_stmt 1 view .LVU665
 1860 0058 DDF80540 		ldr	r4, [sp, #5]	@ unaligned
 1861 005c DDF80910 		ldr	r1, [sp, #9]	@ unaligned
 1862 0060 DDF80D20 		ldr	r2, [sp, #13]	@ unaligned
 1863 0064 DDF81130 		ldr	r3, [sp, #17]	@ unaligned
 1864 0068 3C60     		str	r4, [r7]	@ unaligned
 1865 006a 7960     		str	r1, [r7, #4]	@ unaligned
 1866 006c BA60     		str	r2, [r7, #8]	@ unaligned
 1867 006e FB60     		str	r3, [r7, #12]	@ unaligned
 472:Middlewares/ST/BlueNRG-MS/hci/hci_le.c ****   
 473:Middlewares/ST/BlueNRG-MS/hci/hci_le.c ****   return 0;
 1868              		.loc 1 473 3 view .LVU666
 1869              	.L104:
 474:Middlewares/ST/BlueNRG-MS/hci/hci_le.c **** }
 1870              		.loc 1 474 1 is_stmt 0 view .LVU667
 1871 0070 15B0     		add	sp, sp, #84
 1872              	.LCFI62:
 1873              		.cfi_remember_state
 1874              		.cfi_def_cfa_offset 20
 1875              		@ sp needed
 1876 0072 F0BD     		pop	{r4, r5, r6, r7, pc}
 1877              	.LVL91:
 1878              	.L107:
 1879              	.LCFI63:
 1880              		.cfi_restore_state
 464:Middlewares/ST/BlueNRG-MS/hci/hci_le.c ****   }
 1881              		.loc 1 464 12 view .LVU668
 1882 0074 FF20     		movs	r0, #255
 1883              		.loc 1 474 1 view .LVU669
 1884 0076 15B0     		add	sp, sp, #84
 1885              	.LCFI64:
 1886              		.cfi_def_cfa_offset 20
 1887              		@ sp needed
 1888 0078 F0BD     		pop	{r4, r5, r6, r7, pc}
 1889              	.LVL92:
 1890              	.L110:
 1891              		.loc 1 474 1 view .LVU670
 1892 007a 00BF     		.align	2
 1893              	.L109:
 1894 007c 08001700 		.word	1507336
 1895              		.cfi_endproc
 1896              	.LFE146:
 1898              		.section	.text.hci_le_ltk_request_reply,"ax",%progbits
 1899              		.align	1
 1900              		.p2align 2,,3
 1901              		.global	hci_le_ltk_request_reply
 1902              		.syntax unified
 1903              		.thumb
 1904              		.thumb_func
 1905              		.fpu fpv4-sp-d16
 1907              	hci_le_ltk_request_reply:
 1908              	.LVL93:
 1909              	.LFB147:
 475:Middlewares/ST/BlueNRG-MS/hci/hci_le.c **** 
 476:Middlewares/ST/BlueNRG-MS/hci/hci_le.c **** int hci_le_ltk_request_reply(uint8_t key[16])
 477:Middlewares/ST/BlueNRG-MS/hci/hci_le.c **** {
ARM GAS  /tmp/ccCJ9vpL.s 			page 48


 1910              		.loc 1 477 1 is_stmt 1 view -0
 1911              		.cfi_startproc
 1912              		@ args = 0, pretend = 0, frame = 48
 1913              		@ frame_needed = 0, uses_anonymous_args = 0
 478:Middlewares/ST/BlueNRG-MS/hci/hci_le.c ****   struct hci_request rq;
 1914              		.loc 1 478 3 view .LVU672
 479:Middlewares/ST/BlueNRG-MS/hci/hci_le.c ****   le_ltk_reply_cp params;
 1915              		.loc 1 479 3 view .LVU673
 480:Middlewares/ST/BlueNRG-MS/hci/hci_le.c ****   le_ltk_reply_rp resp;
 1916              		.loc 1 480 3 view .LVU674
 481:Middlewares/ST/BlueNRG-MS/hci/hci_le.c ****   
 482:Middlewares/ST/BlueNRG-MS/hci/hci_le.c ****   BLUENRG_memset(&resp, 0, sizeof(resp));
 1917              		.loc 1 482 3 view .LVU675
 477:Middlewares/ST/BlueNRG-MS/hci/hci_le.c ****   struct hci_request rq;
 1918              		.loc 1 477 1 is_stmt 0 view .LVU676
 1919 0000 30B5     		push	{r4, r5, lr}
 1920              	.LCFI65:
 1921              		.cfi_def_cfa_offset 12
 1922              		.cfi_offset 4, -12
 1923              		.cfi_offset 5, -8
 1924              		.cfi_offset 14, -4
 1925 0002 8DB0     		sub	sp, sp, #52
 1926              	.LCFI66:
 1927              		.cfi_def_cfa_offset 64
 483:Middlewares/ST/BlueNRG-MS/hci/hci_le.c ****   
 484:Middlewares/ST/BlueNRG-MS/hci/hci_le.c ****   params.handle = 1;
 485:Middlewares/ST/BlueNRG-MS/hci/hci_le.c ****   BLUENRG_memcpy(params.key, key, 16);
 1928              		.loc 1 485 3 view .LVU677
 1929 0004 0568     		ldr	r5, [r0]	@ unaligned
 1930 0006 4468     		ldr	r4, [r0, #4]	@ unaligned
 1931 0008 8268     		ldr	r2, [r0, #8]	@ unaligned
 1932 000a C368     		ldr	r3, [r0, #12]	@ unaligned
 1933 000c CDF80650 		str	r5, [sp, #6]	@ unaligned
 484:Middlewares/ST/BlueNRG-MS/hci/hci_le.c ****   BLUENRG_memcpy(params.key, key, 16);
 1934              		.loc 1 484 17 view .LVU678
 1935 0010 0120     		movs	r0, #1
 1936              	.LVL94:
 482:Middlewares/ST/BlueNRG-MS/hci/hci_le.c ****   
 1937              		.loc 1 482 3 view .LVU679
 1938 0012 0021     		movs	r1, #0
 1939              		.loc 1 485 3 view .LVU680
 1940 0014 CDF80A40 		str	r4, [sp, #10]	@ unaligned
 1941 0018 CDF80E20 		str	r2, [sp, #14]	@ unaligned
 1942 001c CDF81230 		str	r3, [sp, #18]	@ unaligned
 486:Middlewares/ST/BlueNRG-MS/hci/hci_le.c ****   
 487:Middlewares/ST/BlueNRG-MS/hci/hci_le.c ****   BLUENRG_memset(&rq, 0, sizeof(rq));
 488:Middlewares/ST/BlueNRG-MS/hci/hci_le.c ****   rq.ogf = OGF_LE_CTL;
 489:Middlewares/ST/BlueNRG-MS/hci/hci_le.c ****   rq.ocf = OCF_LE_LTK_REPLY;
 490:Middlewares/ST/BlueNRG-MS/hci/hci_le.c ****   rq.cparam = &params;
 491:Middlewares/ST/BlueNRG-MS/hci/hci_le.c ****   rq.clen = LE_LTK_REPLY_CP_SIZE;
 1943              		.loc 1 491 11 view .LVU681
 1944 0020 1222     		movs	r2, #18
 492:Middlewares/ST/BlueNRG-MS/hci/hci_le.c ****   rq.rparam = &resp;
 493:Middlewares/ST/BlueNRG-MS/hci/hci_le.c ****   rq.rlen = LE_LTK_REPLY_RP_SIZE;
 1945              		.loc 1 493 11 view .LVU682
 1946 0022 0323     		movs	r3, #3
 484:Middlewares/ST/BlueNRG-MS/hci/hci_le.c ****   BLUENRG_memcpy(params.key, key, 16);
ARM GAS  /tmp/ccCJ9vpL.s 			page 49


 1947              		.loc 1 484 17 view .LVU683
 1948 0024 ADF80400 		strh	r0, [sp, #4]	@ movhi
 488:Middlewares/ST/BlueNRG-MS/hci/hci_le.c ****   rq.ocf = OCF_LE_LTK_REPLY;
 1949              		.loc 1 488 10 view .LVU684
 1950 0028 0B4D     		ldr	r5, .L115
 492:Middlewares/ST/BlueNRG-MS/hci/hci_le.c ****   rq.rparam = &resp;
 1951              		.loc 1 492 13 view .LVU685
 1952 002a CDF828D0 		str	sp, [sp, #40]
 490:Middlewares/ST/BlueNRG-MS/hci/hci_le.c ****   rq.clen = LE_LTK_REPLY_CP_SIZE;
 1953              		.loc 1 490 13 view .LVU686
 1954 002e 01AC     		add	r4, sp, #4
 494:Middlewares/ST/BlueNRG-MS/hci/hci_le.c ****   
 495:Middlewares/ST/BlueNRG-MS/hci/hci_le.c ****   if (hci_send_req(&rq, FALSE) < 0)
 1955              		.loc 1 495 7 view .LVU687
 1956 0030 06A8     		add	r0, sp, #24
 491:Middlewares/ST/BlueNRG-MS/hci/hci_le.c ****   rq.rparam = &resp;
 1957              		.loc 1 491 11 view .LVU688
 1958 0032 CDE90842 		strd	r4, r2, [sp, #32]
 482:Middlewares/ST/BlueNRG-MS/hci/hci_le.c ****   
 1959              		.loc 1 482 3 view .LVU689
 1960 0036 8DF80210 		strb	r1, [sp, #2]
 484:Middlewares/ST/BlueNRG-MS/hci/hci_le.c ****   BLUENRG_memcpy(params.key, key, 16);
 1961              		.loc 1 484 3 is_stmt 1 view .LVU690
 485:Middlewares/ST/BlueNRG-MS/hci/hci_le.c ****   
 1962              		.loc 1 485 3 view .LVU691
 487:Middlewares/ST/BlueNRG-MS/hci/hci_le.c ****   rq.ogf = OGF_LE_CTL;
 1963              		.loc 1 487 3 view .LVU692
 488:Middlewares/ST/BlueNRG-MS/hci/hci_le.c ****   rq.ocf = OCF_LE_LTK_REPLY;
 1964              		.loc 1 488 3 view .LVU693
 489:Middlewares/ST/BlueNRG-MS/hci/hci_le.c ****   rq.cparam = &params;
 1965              		.loc 1 489 3 view .LVU694
 482:Middlewares/ST/BlueNRG-MS/hci/hci_le.c ****   
 1966              		.loc 1 482 3 is_stmt 0 view .LVU695
 1967 003a ADF80010 		strh	r1, [sp]	@ movhi
 487:Middlewares/ST/BlueNRG-MS/hci/hci_le.c ****   rq.ogf = OGF_LE_CTL;
 1968              		.loc 1 487 3 view .LVU696
 1969 003e 0791     		str	r1, [sp, #28]
 488:Middlewares/ST/BlueNRG-MS/hci/hci_le.c ****   rq.ocf = OCF_LE_LTK_REPLY;
 1970              		.loc 1 488 10 view .LVU697
 1971 0040 0695     		str	r5, [sp, #24]
 490:Middlewares/ST/BlueNRG-MS/hci/hci_le.c ****   rq.clen = LE_LTK_REPLY_CP_SIZE;
 1972              		.loc 1 490 3 is_stmt 1 view .LVU698
 492:Middlewares/ST/BlueNRG-MS/hci/hci_le.c ****   rq.rlen = LE_LTK_REPLY_RP_SIZE;
 1973              		.loc 1 492 3 view .LVU699
 493:Middlewares/ST/BlueNRG-MS/hci/hci_le.c ****   
 1974              		.loc 1 493 3 view .LVU700
 493:Middlewares/ST/BlueNRG-MS/hci/hci_le.c ****   
 1975              		.loc 1 493 11 is_stmt 0 view .LVU701
 1976 0042 0B93     		str	r3, [sp, #44]
 1977              		.loc 1 495 3 is_stmt 1 view .LVU702
 1978              		.loc 1 495 7 is_stmt 0 view .LVU703
 1979 0044 FFF7FEFF 		bl	hci_send_req
 1980              	.LVL95:
 1981              		.loc 1 495 6 view .LVU704
 1982 0048 0028     		cmp	r0, #0
 496:Middlewares/ST/BlueNRG-MS/hci/hci_le.c ****     return BLE_STATUS_TIMEOUT;
 497:Middlewares/ST/BlueNRG-MS/hci/hci_le.c ****   
ARM GAS  /tmp/ccCJ9vpL.s 			page 50


 498:Middlewares/ST/BlueNRG-MS/hci/hci_le.c ****   return resp.status;
 1983              		.loc 1 498 3 is_stmt 1 view .LVU705
 1984              		.loc 1 498 14 is_stmt 0 view .LVU706
 1985 004a ACBF     		ite	ge
 1986 004c 9DF80000 		ldrbge	r0, [sp]	@ zero_extendqisi2
 496:Middlewares/ST/BlueNRG-MS/hci/hci_le.c ****     return BLE_STATUS_TIMEOUT;
 1987              		.loc 1 496 12 view .LVU707
 1988 0050 FF20     		movlt	r0, #255
 499:Middlewares/ST/BlueNRG-MS/hci/hci_le.c **** }
 1989              		.loc 1 499 1 view .LVU708
 1990 0052 0DB0     		add	sp, sp, #52
 1991              	.LCFI67:
 1992              		.cfi_def_cfa_offset 12
 1993              		@ sp needed
 1994 0054 30BD     		pop	{r4, r5, pc}
 1995              	.L116:
 1996 0056 00BF     		.align	2
 1997              	.L115:
 1998 0058 08001A00 		.word	1703944
 1999              		.cfi_endproc
 2000              	.LFE147:
 2002              		.section	.text.hci_le_ltk_request_neg_reply,"ax",%progbits
 2003              		.align	1
 2004              		.p2align 2,,3
 2005              		.global	hci_le_ltk_request_neg_reply
 2006              		.syntax unified
 2007              		.thumb
 2008              		.thumb_func
 2009              		.fpu fpv4-sp-d16
 2011              	hci_le_ltk_request_neg_reply:
 2012              	.LFB148:
 500:Middlewares/ST/BlueNRG-MS/hci/hci_le.c **** 
 501:Middlewares/ST/BlueNRG-MS/hci/hci_le.c **** int hci_le_ltk_request_neg_reply(void)
 502:Middlewares/ST/BlueNRG-MS/hci/hci_le.c **** {
 2013              		.loc 1 502 1 is_stmt 1 view -0
 2014              		.cfi_startproc
 2015              		@ args = 0, pretend = 0, frame = 32
 2016              		@ frame_needed = 0, uses_anonymous_args = 0
 503:Middlewares/ST/BlueNRG-MS/hci/hci_le.c ****   struct hci_request rq;
 2017              		.loc 1 503 3 view .LVU710
 504:Middlewares/ST/BlueNRG-MS/hci/hci_le.c ****   le_ltk_neg_reply_cp params;
 2018              		.loc 1 504 3 view .LVU711
 505:Middlewares/ST/BlueNRG-MS/hci/hci_le.c ****   le_ltk_neg_reply_rp resp;
 2019              		.loc 1 505 3 view .LVU712
 506:Middlewares/ST/BlueNRG-MS/hci/hci_le.c ****   
 507:Middlewares/ST/BlueNRG-MS/hci/hci_le.c ****   BLUENRG_memset(&resp, 0, sizeof(resp));
 2020              		.loc 1 507 3 view .LVU713
 502:Middlewares/ST/BlueNRG-MS/hci/hci_le.c ****   struct hci_request rq;
 2021              		.loc 1 502 1 is_stmt 0 view .LVU714
 2022 0000 10B5     		push	{r4, lr}
 2023              	.LCFI68:
 2024              		.cfi_def_cfa_offset 8
 2025              		.cfi_offset 4, -8
 2026              		.cfi_offset 14, -4
 2027 0002 88B0     		sub	sp, sp, #32
 2028              	.LCFI69:
 2029              		.cfi_def_cfa_offset 40
ARM GAS  /tmp/ccCJ9vpL.s 			page 51


 2030              		.loc 1 507 3 view .LVU715
 2031 0004 01AB     		add	r3, sp, #4
 508:Middlewares/ST/BlueNRG-MS/hci/hci_le.c ****   
 509:Middlewares/ST/BlueNRG-MS/hci/hci_le.c ****   params.handle = 1;
 2032              		.loc 1 509 17 view .LVU716
 2033 0006 0120     		movs	r0, #1
 507:Middlewares/ST/BlueNRG-MS/hci/hci_le.c ****   
 2034              		.loc 1 507 3 view .LVU717
 2035 0008 0021     		movs	r1, #0
 510:Middlewares/ST/BlueNRG-MS/hci/hci_le.c ****   
 511:Middlewares/ST/BlueNRG-MS/hci/hci_le.c ****   BLUENRG_memset(&rq, 0, sizeof(rq));
 512:Middlewares/ST/BlueNRG-MS/hci/hci_le.c ****   rq.ogf = OGF_LE_CTL;
 513:Middlewares/ST/BlueNRG-MS/hci/hci_le.c ****   rq.ocf = OCF_LE_LTK_NEG_REPLY;
 514:Middlewares/ST/BlueNRG-MS/hci/hci_le.c ****   rq.cparam = &params;
 515:Middlewares/ST/BlueNRG-MS/hci/hci_le.c ****   rq.clen = LE_LTK_NEG_REPLY_CP_SIZE;
 516:Middlewares/ST/BlueNRG-MS/hci/hci_le.c ****   rq.rparam = &resp;
 2036              		.loc 1 516 13 view .LVU718
 2037 000a 0693     		str	r3, [sp, #24]
 515:Middlewares/ST/BlueNRG-MS/hci/hci_le.c ****   rq.rparam = &resp;
 2038              		.loc 1 515 11 view .LVU719
 2039 000c 0222     		movs	r2, #2
 517:Middlewares/ST/BlueNRG-MS/hci/hci_le.c ****   rq.rlen = LE_LTK_NEG_REPLY_RP_SIZE;
 2040              		.loc 1 517 11 view .LVU720
 2041 000e 0323     		movs	r3, #3
 509:Middlewares/ST/BlueNRG-MS/hci/hci_le.c ****   
 2042              		.loc 1 509 17 view .LVU721
 2043 0010 ADF80000 		strh	r0, [sp]	@ movhi
 512:Middlewares/ST/BlueNRG-MS/hci/hci_le.c ****   rq.ocf = OCF_LE_LTK_NEG_REPLY;
 2044              		.loc 1 512 10 view .LVU722
 2045 0014 0A4C     		ldr	r4, .L121
 507:Middlewares/ST/BlueNRG-MS/hci/hci_le.c ****   
 2046              		.loc 1 507 3 view .LVU723
 2047 0016 8DF80610 		strb	r1, [sp, #6]
 509:Middlewares/ST/BlueNRG-MS/hci/hci_le.c ****   
 2048              		.loc 1 509 3 is_stmt 1 view .LVU724
 511:Middlewares/ST/BlueNRG-MS/hci/hci_le.c ****   rq.ogf = OGF_LE_CTL;
 2049              		.loc 1 511 3 view .LVU725
 512:Middlewares/ST/BlueNRG-MS/hci/hci_le.c ****   rq.ocf = OCF_LE_LTK_NEG_REPLY;
 2050              		.loc 1 512 3 view .LVU726
 513:Middlewares/ST/BlueNRG-MS/hci/hci_le.c ****   rq.cparam = &params;
 2051              		.loc 1 513 3 view .LVU727
 518:Middlewares/ST/BlueNRG-MS/hci/hci_le.c ****   
 519:Middlewares/ST/BlueNRG-MS/hci/hci_le.c ****   if (hci_send_req(&rq, FALSE) < 0)
 2052              		.loc 1 519 7 is_stmt 0 view .LVU728
 2053 001a 02A8     		add	r0, sp, #8
 507:Middlewares/ST/BlueNRG-MS/hci/hci_le.c ****   
 2054              		.loc 1 507 3 view .LVU729
 2055 001c ADF80410 		strh	r1, [sp, #4]	@ movhi
 511:Middlewares/ST/BlueNRG-MS/hci/hci_le.c ****   rq.ogf = OGF_LE_CTL;
 2056              		.loc 1 511 3 view .LVU730
 2057 0020 0391     		str	r1, [sp, #12]
 512:Middlewares/ST/BlueNRG-MS/hci/hci_le.c ****   rq.ocf = OCF_LE_LTK_NEG_REPLY;
 2058              		.loc 1 512 10 view .LVU731
 2059 0022 0294     		str	r4, [sp, #8]
 514:Middlewares/ST/BlueNRG-MS/hci/hci_le.c ****   rq.clen = LE_LTK_NEG_REPLY_CP_SIZE;
 2060              		.loc 1 514 3 is_stmt 1 view .LVU732
 514:Middlewares/ST/BlueNRG-MS/hci/hci_le.c ****   rq.clen = LE_LTK_NEG_REPLY_CP_SIZE;
ARM GAS  /tmp/ccCJ9vpL.s 			page 52


 2061              		.loc 1 514 13 is_stmt 0 view .LVU733
 2062 0024 CDF810D0 		str	sp, [sp, #16]
 515:Middlewares/ST/BlueNRG-MS/hci/hci_le.c ****   rq.rparam = &resp;
 2063              		.loc 1 515 3 is_stmt 1 view .LVU734
 515:Middlewares/ST/BlueNRG-MS/hci/hci_le.c ****   rq.rparam = &resp;
 2064              		.loc 1 515 11 is_stmt 0 view .LVU735
 2065 0028 0592     		str	r2, [sp, #20]
 516:Middlewares/ST/BlueNRG-MS/hci/hci_le.c ****   rq.rlen = LE_LTK_NEG_REPLY_RP_SIZE;
 2066              		.loc 1 516 3 is_stmt 1 view .LVU736
 517:Middlewares/ST/BlueNRG-MS/hci/hci_le.c ****   
 2067              		.loc 1 517 3 view .LVU737
 517:Middlewares/ST/BlueNRG-MS/hci/hci_le.c ****   
 2068              		.loc 1 517 11 is_stmt 0 view .LVU738
 2069 002a 0793     		str	r3, [sp, #28]
 2070              		.loc 1 519 3 is_stmt 1 view .LVU739
 2071              		.loc 1 519 7 is_stmt 0 view .LVU740
 2072 002c FFF7FEFF 		bl	hci_send_req
 2073              	.LVL96:
 2074              		.loc 1 519 6 view .LVU741
 2075 0030 0028     		cmp	r0, #0
 520:Middlewares/ST/BlueNRG-MS/hci/hci_le.c ****     return BLE_STATUS_TIMEOUT;
 521:Middlewares/ST/BlueNRG-MS/hci/hci_le.c ****   
 522:Middlewares/ST/BlueNRG-MS/hci/hci_le.c ****   return resp.status;
 2076              		.loc 1 522 3 is_stmt 1 view .LVU742
 2077              		.loc 1 522 14 is_stmt 0 view .LVU743
 2078 0032 ACBF     		ite	ge
 2079 0034 9DF80400 		ldrbge	r0, [sp, #4]	@ zero_extendqisi2
 520:Middlewares/ST/BlueNRG-MS/hci/hci_le.c ****     return BLE_STATUS_TIMEOUT;
 2080              		.loc 1 520 12 view .LVU744
 2081 0038 FF20     		movlt	r0, #255
 523:Middlewares/ST/BlueNRG-MS/hci/hci_le.c **** }
 2082              		.loc 1 523 1 view .LVU745
 2083 003a 08B0     		add	sp, sp, #32
 2084              	.LCFI70:
 2085              		.cfi_def_cfa_offset 8
 2086              		@ sp needed
 2087 003c 10BD     		pop	{r4, pc}
 2088              	.L122:
 2089 003e 00BF     		.align	2
 2090              	.L121:
 2091 0040 08001B00 		.word	1769480
 2092              		.cfi_endproc
 2093              	.LFE148:
 2095              		.section	.text.hci_le_read_white_list_size,"ax",%progbits
 2096              		.align	1
 2097              		.p2align 2,,3
 2098              		.global	hci_le_read_white_list_size
 2099              		.syntax unified
 2100              		.thumb
 2101              		.thumb_func
 2102              		.fpu fpv4-sp-d16
 2104              	hci_le_read_white_list_size:
 2105              	.LVL97:
 2106              	.LFB149:
 524:Middlewares/ST/BlueNRG-MS/hci/hci_le.c **** 
 525:Middlewares/ST/BlueNRG-MS/hci/hci_le.c **** int hci_le_read_white_list_size(uint8_t *size)
 526:Middlewares/ST/BlueNRG-MS/hci/hci_le.c **** {
ARM GAS  /tmp/ccCJ9vpL.s 			page 53


 2107              		.loc 1 526 1 is_stmt 1 view -0
 2108              		.cfi_startproc
 2109              		@ args = 0, pretend = 0, frame = 32
 2110              		@ frame_needed = 0, uses_anonymous_args = 0
 527:Middlewares/ST/BlueNRG-MS/hci/hci_le.c ****   struct hci_request rq;
 2111              		.loc 1 527 3 view .LVU747
 528:Middlewares/ST/BlueNRG-MS/hci/hci_le.c ****   le_read_white_list_size_rp resp;
 2112              		.loc 1 528 3 view .LVU748
 529:Middlewares/ST/BlueNRG-MS/hci/hci_le.c ****   
 530:Middlewares/ST/BlueNRG-MS/hci/hci_le.c ****   BLUENRG_memset(&resp, 0, sizeof(resp));
 2113              		.loc 1 530 3 view .LVU749
 526:Middlewares/ST/BlueNRG-MS/hci/hci_le.c ****   struct hci_request rq;
 2114              		.loc 1 526 1 is_stmt 0 view .LVU750
 2115 0000 30B5     		push	{r4, r5, lr}
 2116              	.LCFI71:
 2117              		.cfi_def_cfa_offset 12
 2118              		.cfi_offset 4, -12
 2119              		.cfi_offset 5, -8
 2120              		.cfi_offset 14, -4
 2121 0002 89B0     		sub	sp, sp, #36
 2122              	.LCFI72:
 2123              		.cfi_def_cfa_offset 48
 2124              		.loc 1 530 3 view .LVU751
 2125 0004 0021     		movs	r1, #0
 531:Middlewares/ST/BlueNRG-MS/hci/hci_le.c ****   
 532:Middlewares/ST/BlueNRG-MS/hci/hci_le.c ****   BLUENRG_memset(&rq, 0, sizeof(rq));
 533:Middlewares/ST/BlueNRG-MS/hci/hci_le.c ****   rq.ogf = OGF_LE_CTL;
 2126              		.loc 1 533 10 view .LVU752
 2127 0006 0E4A     		ldr	r2, .L128
 530:Middlewares/ST/BlueNRG-MS/hci/hci_le.c ****   
 2128              		.loc 1 530 3 view .LVU753
 2129 0008 ADF80410 		strh	r1, [sp, #4]	@ movhi
 532:Middlewares/ST/BlueNRG-MS/hci/hci_le.c ****   rq.ogf = OGF_LE_CTL;
 2130              		.loc 1 532 3 is_stmt 1 view .LVU754
 534:Middlewares/ST/BlueNRG-MS/hci/hci_le.c ****   rq.ocf = OCF_LE_READ_WHITE_LIST_SIZE;
 535:Middlewares/ST/BlueNRG-MS/hci/hci_le.c ****   rq.rparam = &resp;
 536:Middlewares/ST/BlueNRG-MS/hci/hci_le.c ****   rq.rlen = LE_READ_WHITE_LIST_SIZE_RP_SIZE;
 2131              		.loc 1 536 11 is_stmt 0 view .LVU755
 2132 000c 0223     		movs	r3, #2
 530:Middlewares/ST/BlueNRG-MS/hci/hci_le.c ****   
 2133              		.loc 1 530 3 view .LVU756
 2134 000e 01AD     		add	r5, sp, #4
 526:Middlewares/ST/BlueNRG-MS/hci/hci_le.c ****   struct hci_request rq;
 2135              		.loc 1 526 1 view .LVU757
 2136 0010 0446     		mov	r4, r0
 537:Middlewares/ST/BlueNRG-MS/hci/hci_le.c ****   
 538:Middlewares/ST/BlueNRG-MS/hci/hci_le.c ****   if (hci_send_req(&rq, FALSE) < 0){
 2137              		.loc 1 538 7 view .LVU758
 2138 0012 02A8     		add	r0, sp, #8
 2139              	.LVL98:
 532:Middlewares/ST/BlueNRG-MS/hci/hci_le.c ****   rq.ogf = OGF_LE_CTL;
 2140              		.loc 1 532 3 view .LVU759
 2141 0014 CDE90311 		strd	r1, r1, [sp, #12]
 2142 0018 0591     		str	r1, [sp, #20]
 533:Middlewares/ST/BlueNRG-MS/hci/hci_le.c ****   rq.ocf = OCF_LE_READ_WHITE_LIST_SIZE;
 2143              		.loc 1 533 3 is_stmt 1 view .LVU760
 534:Middlewares/ST/BlueNRG-MS/hci/hci_le.c ****   rq.rparam = &resp;
ARM GAS  /tmp/ccCJ9vpL.s 			page 54


 2144              		.loc 1 534 3 view .LVU761
 535:Middlewares/ST/BlueNRG-MS/hci/hci_le.c ****   rq.rlen = LE_READ_WHITE_LIST_SIZE_RP_SIZE;
 2145              		.loc 1 535 13 is_stmt 0 view .LVU762
 2146 001a 0695     		str	r5, [sp, #24]
 533:Middlewares/ST/BlueNRG-MS/hci/hci_le.c ****   rq.ocf = OCF_LE_READ_WHITE_LIST_SIZE;
 2147              		.loc 1 533 10 view .LVU763
 2148 001c 0292     		str	r2, [sp, #8]
 535:Middlewares/ST/BlueNRG-MS/hci/hci_le.c ****   rq.rlen = LE_READ_WHITE_LIST_SIZE_RP_SIZE;
 2149              		.loc 1 535 3 is_stmt 1 view .LVU764
 536:Middlewares/ST/BlueNRG-MS/hci/hci_le.c ****   
 2150              		.loc 1 536 3 view .LVU765
 536:Middlewares/ST/BlueNRG-MS/hci/hci_le.c ****   
 2151              		.loc 1 536 11 is_stmt 0 view .LVU766
 2152 001e 0793     		str	r3, [sp, #28]
 2153              		.loc 1 538 3 is_stmt 1 view .LVU767
 2154              		.loc 1 538 7 is_stmt 0 view .LVU768
 2155 0020 FFF7FEFF 		bl	hci_send_req
 2156              	.LVL99:
 2157              		.loc 1 538 6 view .LVU769
 2158 0024 0028     		cmp	r0, #0
 2159 0026 07DB     		blt	.L126
 539:Middlewares/ST/BlueNRG-MS/hci/hci_le.c ****     return BLE_STATUS_TIMEOUT;
 540:Middlewares/ST/BlueNRG-MS/hci/hci_le.c ****   }
 541:Middlewares/ST/BlueNRG-MS/hci/hci_le.c ****   
 542:Middlewares/ST/BlueNRG-MS/hci/hci_le.c ****   if (resp.status) {
 2160              		.loc 1 542 3 is_stmt 1 view .LVU770
 2161              		.loc 1 542 11 is_stmt 0 view .LVU771
 2162 0028 9DF80400 		ldrb	r0, [sp, #4]	@ zero_extendqisi2
 2163              		.loc 1 542 6 view .LVU772
 2164 002c 10B9     		cbnz	r0, .L123
 543:Middlewares/ST/BlueNRG-MS/hci/hci_le.c ****     return resp.status;
 544:Middlewares/ST/BlueNRG-MS/hci/hci_le.c ****   }
 545:Middlewares/ST/BlueNRG-MS/hci/hci_le.c ****   
 546:Middlewares/ST/BlueNRG-MS/hci/hci_le.c ****   *size = resp.size;
 2165              		.loc 1 546 3 is_stmt 1 view .LVU773
 2166              		.loc 1 546 9 is_stmt 0 view .LVU774
 2167 002e 9DF80520 		ldrb	r2, [sp, #5]	@ zero_extendqisi2
 2168 0032 2270     		strb	r2, [r4]
 547:Middlewares/ST/BlueNRG-MS/hci/hci_le.c ****   
 548:Middlewares/ST/BlueNRG-MS/hci/hci_le.c ****   return 0;
 2169              		.loc 1 548 3 is_stmt 1 view .LVU775
 2170              	.L123:
 549:Middlewares/ST/BlueNRG-MS/hci/hci_le.c **** }
 2171              		.loc 1 549 1 is_stmt 0 view .LVU776
 2172 0034 09B0     		add	sp, sp, #36
 2173              	.LCFI73:
 2174              		.cfi_remember_state
 2175              		.cfi_def_cfa_offset 12
 2176              		@ sp needed
 2177 0036 30BD     		pop	{r4, r5, pc}
 2178              	.LVL100:
 2179              	.L126:
 2180              	.LCFI74:
 2181              		.cfi_restore_state
 539:Middlewares/ST/BlueNRG-MS/hci/hci_le.c ****   }
 2182              		.loc 1 539 12 view .LVU777
 2183 0038 FF20     		movs	r0, #255
ARM GAS  /tmp/ccCJ9vpL.s 			page 55


 2184              		.loc 1 549 1 view .LVU778
 2185 003a 09B0     		add	sp, sp, #36
 2186              	.LCFI75:
 2187              		.cfi_def_cfa_offset 12
 2188              		@ sp needed
 2189 003c 30BD     		pop	{r4, r5, pc}
 2190              	.LVL101:
 2191              	.L129:
 2192              		.loc 1 549 1 view .LVU779
 2193 003e 00BF     		.align	2
 2194              	.L128:
 2195 0040 08000F00 		.word	983048
 2196              		.cfi_endproc
 2197              	.LFE149:
 2199              		.section	.text.hci_le_clear_white_list,"ax",%progbits
 2200              		.align	1
 2201              		.p2align 2,,3
 2202              		.global	hci_le_clear_white_list
 2203              		.syntax unified
 2204              		.thumb
 2205              		.thumb_func
 2206              		.fpu fpv4-sp-d16
 2208              	hci_le_clear_white_list:
 2209              	.LFB150:
 550:Middlewares/ST/BlueNRG-MS/hci/hci_le.c **** 
 551:Middlewares/ST/BlueNRG-MS/hci/hci_le.c **** int hci_le_clear_white_list(void)
 552:Middlewares/ST/BlueNRG-MS/hci/hci_le.c **** {
 2210              		.loc 1 552 1 is_stmt 1 view -0
 2211              		.cfi_startproc
 2212              		@ args = 0, pretend = 0, frame = 32
 2213              		@ frame_needed = 0, uses_anonymous_args = 0
 553:Middlewares/ST/BlueNRG-MS/hci/hci_le.c ****   struct hci_request rq;
 2214              		.loc 1 553 3 view .LVU781
 554:Middlewares/ST/BlueNRG-MS/hci/hci_le.c ****   uint8_t status;
 2215              		.loc 1 554 3 view .LVU782
 555:Middlewares/ST/BlueNRG-MS/hci/hci_le.c ****   
 556:Middlewares/ST/BlueNRG-MS/hci/hci_le.c ****   BLUENRG_memset(&rq, 0, sizeof(rq));
 2216              		.loc 1 556 3 view .LVU783
 552:Middlewares/ST/BlueNRG-MS/hci/hci_le.c ****   struct hci_request rq;
 2217              		.loc 1 552 1 is_stmt 0 view .LVU784
 2218 0000 10B5     		push	{r4, lr}
 2219              	.LCFI76:
 2220              		.cfi_def_cfa_offset 8
 2221              		.cfi_offset 4, -8
 2222              		.cfi_offset 14, -4
 2223 0002 88B0     		sub	sp, sp, #32
 2224              	.LCFI77:
 2225              		.cfi_def_cfa_offset 40
 2226              		.loc 1 556 3 view .LVU785
 2227 0004 0021     		movs	r1, #0
 557:Middlewares/ST/BlueNRG-MS/hci/hci_le.c ****   rq.ogf = OGF_LE_CTL;
 558:Middlewares/ST/BlueNRG-MS/hci/hci_le.c ****   rq.ocf = OCF_LE_CLEAR_WHITE_LIST;
 559:Middlewares/ST/BlueNRG-MS/hci/hci_le.c ****   rq.rparam = &status;
 2228              		.loc 1 559 13 view .LVU786
 2229 0006 0DF10702 		add	r2, sp, #7
 560:Middlewares/ST/BlueNRG-MS/hci/hci_le.c ****   rq.rlen = 1;
 2230              		.loc 1 560 11 view .LVU787
ARM GAS  /tmp/ccCJ9vpL.s 			page 56


 2231 000a 0123     		movs	r3, #1
 557:Middlewares/ST/BlueNRG-MS/hci/hci_le.c ****   rq.ogf = OGF_LE_CTL;
 2232              		.loc 1 557 10 view .LVU788
 2233 000c 084C     		ldr	r4, .L134
 556:Middlewares/ST/BlueNRG-MS/hci/hci_le.c ****   rq.ogf = OGF_LE_CTL;
 2234              		.loc 1 556 3 view .LVU789
 2235 000e 0491     		str	r1, [sp, #16]
 561:Middlewares/ST/BlueNRG-MS/hci/hci_le.c ****   
 562:Middlewares/ST/BlueNRG-MS/hci/hci_le.c ****   if (hci_send_req(&rq, FALSE) < 0){
 2236              		.loc 1 562 7 view .LVU790
 2237 0010 02A8     		add	r0, sp, #8
 560:Middlewares/ST/BlueNRG-MS/hci/hci_le.c ****   
 2238              		.loc 1 560 11 view .LVU791
 2239 0012 CDE90623 		strd	r2, r3, [sp, #24]
 556:Middlewares/ST/BlueNRG-MS/hci/hci_le.c ****   rq.ogf = OGF_LE_CTL;
 2240              		.loc 1 556 3 view .LVU792
 2241 0016 0391     		str	r1, [sp, #12]
 2242 0018 0591     		str	r1, [sp, #20]
 557:Middlewares/ST/BlueNRG-MS/hci/hci_le.c ****   rq.ocf = OCF_LE_CLEAR_WHITE_LIST;
 2243              		.loc 1 557 3 is_stmt 1 view .LVU793
 558:Middlewares/ST/BlueNRG-MS/hci/hci_le.c ****   rq.rparam = &status;
 2244              		.loc 1 558 3 view .LVU794
 557:Middlewares/ST/BlueNRG-MS/hci/hci_le.c ****   rq.ocf = OCF_LE_CLEAR_WHITE_LIST;
 2245              		.loc 1 557 10 is_stmt 0 view .LVU795
 2246 001a 0294     		str	r4, [sp, #8]
 559:Middlewares/ST/BlueNRG-MS/hci/hci_le.c ****   rq.rlen = 1;
 2247              		.loc 1 559 3 is_stmt 1 view .LVU796
 2248              		.loc 1 562 3 view .LVU797
 2249              		.loc 1 562 7 is_stmt 0 view .LVU798
 2250 001c FFF7FEFF 		bl	hci_send_req
 2251              	.LVL102:
 2252              		.loc 1 562 6 view .LVU799
 2253 0020 0028     		cmp	r0, #0
 563:Middlewares/ST/BlueNRG-MS/hci/hci_le.c ****     return BLE_STATUS_TIMEOUT;
 564:Middlewares/ST/BlueNRG-MS/hci/hci_le.c ****   }
 565:Middlewares/ST/BlueNRG-MS/hci/hci_le.c ****   
 566:Middlewares/ST/BlueNRG-MS/hci/hci_le.c ****   return status;
 2254              		.loc 1 566 3 is_stmt 1 view .LVU800
 2255              		.loc 1 566 10 is_stmt 0 view .LVU801
 2256 0022 ACBF     		ite	ge
 2257 0024 9DF80700 		ldrbge	r0, [sp, #7]	@ zero_extendqisi2
 563:Middlewares/ST/BlueNRG-MS/hci/hci_le.c ****     return BLE_STATUS_TIMEOUT;
 2258              		.loc 1 563 12 view .LVU802
 2259 0028 FF20     		movlt	r0, #255
 567:Middlewares/ST/BlueNRG-MS/hci/hci_le.c **** }
 2260              		.loc 1 567 1 view .LVU803
 2261 002a 08B0     		add	sp, sp, #32
 2262              	.LCFI78:
 2263              		.cfi_def_cfa_offset 8
 2264              		@ sp needed
 2265 002c 10BD     		pop	{r4, pc}
 2266              	.L135:
 2267 002e 00BF     		.align	2
 2268              	.L134:
 2269 0030 08001000 		.word	1048584
 2270              		.cfi_endproc
 2271              	.LFE150:
ARM GAS  /tmp/ccCJ9vpL.s 			page 57


 2273              		.section	.text.hci_le_add_device_to_white_list,"ax",%progbits
 2274              		.align	1
 2275              		.p2align 2,,3
 2276              		.global	hci_le_add_device_to_white_list
 2277              		.syntax unified
 2278              		.thumb
 2279              		.thumb_func
 2280              		.fpu fpv4-sp-d16
 2282              	hci_le_add_device_to_white_list:
 2283              	.LVL103:
 2284              	.LFB151:
 568:Middlewares/ST/BlueNRG-MS/hci/hci_le.c **** 
 569:Middlewares/ST/BlueNRG-MS/hci/hci_le.c **** int hci_le_add_device_to_white_list(uint8_t	bdaddr_type, tBDAddr bdaddr)
 570:Middlewares/ST/BlueNRG-MS/hci/hci_le.c **** {
 2285              		.loc 1 570 1 is_stmt 1 view -0
 2286              		.cfi_startproc
 2287              		@ args = 0, pretend = 0, frame = 40
 2288              		@ frame_needed = 0, uses_anonymous_args = 0
 571:Middlewares/ST/BlueNRG-MS/hci/hci_le.c ****   struct hci_request rq;
 2289              		.loc 1 571 3 view .LVU805
 572:Middlewares/ST/BlueNRG-MS/hci/hci_le.c ****   le_add_device_to_white_list_cp params;
 2290              		.loc 1 572 3 view .LVU806
 573:Middlewares/ST/BlueNRG-MS/hci/hci_le.c ****   uint8_t status;
 2291              		.loc 1 573 3 view .LVU807
 574:Middlewares/ST/BlueNRG-MS/hci/hci_le.c ****   
 575:Middlewares/ST/BlueNRG-MS/hci/hci_le.c ****   params.bdaddr_type = bdaddr_type;
 2292              		.loc 1 575 3 view .LVU808
 570:Middlewares/ST/BlueNRG-MS/hci/hci_le.c ****   struct hci_request rq;
 2293              		.loc 1 570 1 is_stmt 0 view .LVU809
 2294 0000 70B5     		push	{r4, r5, r6, lr}
 2295              	.LCFI79:
 2296              		.cfi_def_cfa_offset 16
 2297              		.cfi_offset 4, -16
 2298              		.cfi_offset 5, -12
 2299              		.cfi_offset 6, -8
 2300              		.cfi_offset 14, -4
 2301 0002 8AB0     		sub	sp, sp, #40
 2302              	.LCFI80:
 2303              		.cfi_def_cfa_offset 56
 576:Middlewares/ST/BlueNRG-MS/hci/hci_le.c ****   BLUENRG_memcpy(params.bdaddr, bdaddr, 6);
 2304              		.loc 1 576 3 view .LVU810
 2305 0004 0C68     		ldr	r4, [r1]	@ unaligned
 2306 0006 8A88     		ldrh	r2, [r1, #4]	@ unaligned
 2307 0008 CDF80940 		str	r4, [sp, #9]	@ unaligned
 577:Middlewares/ST/BlueNRG-MS/hci/hci_le.c ****   
 578:Middlewares/ST/BlueNRG-MS/hci/hci_le.c ****   BLUENRG_memset(&rq, 0, sizeof(rq));
 2308              		.loc 1 578 3 view .LVU811
 2309 000c 0023     		movs	r3, #0
 579:Middlewares/ST/BlueNRG-MS/hci/hci_le.c ****   rq.ogf = OGF_LE_CTL;
 580:Middlewares/ST/BlueNRG-MS/hci/hci_le.c ****   rq.ocf = OCF_LE_ADD_DEVICE_TO_WHITE_LIST;
 581:Middlewares/ST/BlueNRG-MS/hci/hci_le.c ****   rq.cparam = &params;
 582:Middlewares/ST/BlueNRG-MS/hci/hci_le.c ****   rq.clen = LE_ADD_DEVICE_TO_WHITE_LIST_CP_SIZE;
 2310              		.loc 1 582 11 view .LVU812
 2311 000e 0724     		movs	r4, #7
 575:Middlewares/ST/BlueNRG-MS/hci/hci_le.c ****   BLUENRG_memcpy(params.bdaddr, bdaddr, 6);
 2312              		.loc 1 575 22 view .LVU813
 2313 0010 8DF80800 		strb	r0, [sp, #8]
ARM GAS  /tmp/ccCJ9vpL.s 			page 58


 576:Middlewares/ST/BlueNRG-MS/hci/hci_le.c ****   
 2314              		.loc 1 576 3 is_stmt 1 view .LVU814
 583:Middlewares/ST/BlueNRG-MS/hci/hci_le.c ****   rq.rparam = &status;
 584:Middlewares/ST/BlueNRG-MS/hci/hci_le.c ****   rq.rlen = 1;
 585:Middlewares/ST/BlueNRG-MS/hci/hci_le.c ****   
 586:Middlewares/ST/BlueNRG-MS/hci/hci_le.c ****   if (hci_send_req(&rq, FALSE) < 0){
 2315              		.loc 1 586 7 is_stmt 0 view .LVU815
 2316 0014 1946     		mov	r1, r3
 2317              	.LVL104:
 576:Middlewares/ST/BlueNRG-MS/hci/hci_le.c ****   
 2318              		.loc 1 576 3 view .LVU816
 2319 0016 ADF80D20 		strh	r2, [sp, #13]	@ unaligned
 578:Middlewares/ST/BlueNRG-MS/hci/hci_le.c ****   rq.ogf = OGF_LE_CTL;
 2320              		.loc 1 578 3 is_stmt 1 view .LVU817
 2321 001a 0593     		str	r3, [sp, #20]
 579:Middlewares/ST/BlueNRG-MS/hci/hci_le.c ****   rq.ocf = OCF_LE_ADD_DEVICE_TO_WHITE_LIST;
 2322              		.loc 1 579 3 view .LVU818
 580:Middlewares/ST/BlueNRG-MS/hci/hci_le.c ****   rq.cparam = &params;
 2323              		.loc 1 580 3 view .LVU819
 583:Middlewares/ST/BlueNRG-MS/hci/hci_le.c ****   rq.rlen = 1;
 2324              		.loc 1 583 13 is_stmt 0 view .LVU820
 2325 001c 0DEB0402 		add	r2, sp, r4
 584:Middlewares/ST/BlueNRG-MS/hci/hci_le.c ****   
 2326              		.loc 1 584 11 view .LVU821
 2327 0020 0123     		movs	r3, #1
 579:Middlewares/ST/BlueNRG-MS/hci/hci_le.c ****   rq.ocf = OCF_LE_ADD_DEVICE_TO_WHITE_LIST;
 2328              		.loc 1 579 10 view .LVU822
 2329 0022 084E     		ldr	r6, .L140
 2330 0024 0496     		str	r6, [sp, #16]
 581:Middlewares/ST/BlueNRG-MS/hci/hci_le.c ****   rq.clen = LE_ADD_DEVICE_TO_WHITE_LIST_CP_SIZE;
 2331              		.loc 1 581 3 is_stmt 1 view .LVU823
 581:Middlewares/ST/BlueNRG-MS/hci/hci_le.c ****   rq.clen = LE_ADD_DEVICE_TO_WHITE_LIST_CP_SIZE;
 2332              		.loc 1 581 13 is_stmt 0 view .LVU824
 2333 0026 02AD     		add	r5, sp, #8
 2334              		.loc 1 586 7 view .LVU825
 2335 0028 04A8     		add	r0, sp, #16
 2336              	.LVL105:
 582:Middlewares/ST/BlueNRG-MS/hci/hci_le.c ****   rq.rparam = &status;
 2337              		.loc 1 582 11 view .LVU826
 2338 002a CDE90654 		strd	r5, r4, [sp, #24]
 583:Middlewares/ST/BlueNRG-MS/hci/hci_le.c ****   rq.rlen = 1;
 2339              		.loc 1 583 3 is_stmt 1 view .LVU827
 584:Middlewares/ST/BlueNRG-MS/hci/hci_le.c ****   
 2340              		.loc 1 584 11 is_stmt 0 view .LVU828
 2341 002e CDE90823 		strd	r2, r3, [sp, #32]
 2342              		.loc 1 586 3 is_stmt 1 view .LVU829
 2343              		.loc 1 586 7 is_stmt 0 view .LVU830
 2344 0032 FFF7FEFF 		bl	hci_send_req
 2345              	.LVL106:
 2346              		.loc 1 586 6 view .LVU831
 2347 0036 0028     		cmp	r0, #0
 587:Middlewares/ST/BlueNRG-MS/hci/hci_le.c ****     return BLE_STATUS_TIMEOUT;
 588:Middlewares/ST/BlueNRG-MS/hci/hci_le.c ****   }
 589:Middlewares/ST/BlueNRG-MS/hci/hci_le.c ****   
 590:Middlewares/ST/BlueNRG-MS/hci/hci_le.c ****   return status;
 2348              		.loc 1 590 3 is_stmt 1 view .LVU832
 2349              		.loc 1 590 10 is_stmt 0 view .LVU833
ARM GAS  /tmp/ccCJ9vpL.s 			page 59


 2350 0038 ACBF     		ite	ge
 2351 003a 9DF80700 		ldrbge	r0, [sp, #7]	@ zero_extendqisi2
 587:Middlewares/ST/BlueNRG-MS/hci/hci_le.c ****     return BLE_STATUS_TIMEOUT;
 2352              		.loc 1 587 12 view .LVU834
 2353 003e FF20     		movlt	r0, #255
 591:Middlewares/ST/BlueNRG-MS/hci/hci_le.c **** }
 2354              		.loc 1 591 1 view .LVU835
 2355 0040 0AB0     		add	sp, sp, #40
 2356              	.LCFI81:
 2357              		.cfi_def_cfa_offset 16
 2358              		@ sp needed
 2359 0042 70BD     		pop	{r4, r5, r6, pc}
 2360              	.L141:
 2361              		.align	2
 2362              	.L140:
 2363 0044 08001100 		.word	1114120
 2364              		.cfi_endproc
 2365              	.LFE151:
 2367              		.section	.text.hci_le_remove_device_from_white_list,"ax",%progbits
 2368              		.align	1
 2369              		.p2align 2,,3
 2370              		.global	hci_le_remove_device_from_white_list
 2371              		.syntax unified
 2372              		.thumb
 2373              		.thumb_func
 2374              		.fpu fpv4-sp-d16
 2376              	hci_le_remove_device_from_white_list:
 2377              	.LVL107:
 2378              	.LFB152:
 592:Middlewares/ST/BlueNRG-MS/hci/hci_le.c **** 
 593:Middlewares/ST/BlueNRG-MS/hci/hci_le.c **** int hci_le_remove_device_from_white_list(uint8_t bdaddr_type, tBDAddr bdaddr)
 594:Middlewares/ST/BlueNRG-MS/hci/hci_le.c **** {
 2379              		.loc 1 594 1 is_stmt 1 view -0
 2380              		.cfi_startproc
 2381              		@ args = 0, pretend = 0, frame = 40
 2382              		@ frame_needed = 0, uses_anonymous_args = 0
 595:Middlewares/ST/BlueNRG-MS/hci/hci_le.c ****   struct hci_request rq;
 2383              		.loc 1 595 3 view .LVU837
 596:Middlewares/ST/BlueNRG-MS/hci/hci_le.c ****   le_remove_device_from_white_list_cp params;
 2384              		.loc 1 596 3 view .LVU838
 597:Middlewares/ST/BlueNRG-MS/hci/hci_le.c ****   uint8_t status;
 2385              		.loc 1 597 3 view .LVU839
 598:Middlewares/ST/BlueNRG-MS/hci/hci_le.c ****   
 599:Middlewares/ST/BlueNRG-MS/hci/hci_le.c ****   params.bdaddr_type = bdaddr_type;
 2386              		.loc 1 599 3 view .LVU840
 594:Middlewares/ST/BlueNRG-MS/hci/hci_le.c ****   struct hci_request rq;
 2387              		.loc 1 594 1 is_stmt 0 view .LVU841
 2388 0000 70B5     		push	{r4, r5, r6, lr}
 2389              	.LCFI82:
 2390              		.cfi_def_cfa_offset 16
 2391              		.cfi_offset 4, -16
 2392              		.cfi_offset 5, -12
 2393              		.cfi_offset 6, -8
 2394              		.cfi_offset 14, -4
 2395 0002 8AB0     		sub	sp, sp, #40
 2396              	.LCFI83:
 2397              		.cfi_def_cfa_offset 56
ARM GAS  /tmp/ccCJ9vpL.s 			page 60


 600:Middlewares/ST/BlueNRG-MS/hci/hci_le.c ****   BLUENRG_memcpy(params.bdaddr, bdaddr, 6);
 2398              		.loc 1 600 3 view .LVU842
 2399 0004 0C68     		ldr	r4, [r1]	@ unaligned
 2400 0006 8A88     		ldrh	r2, [r1, #4]	@ unaligned
 2401 0008 CDF80940 		str	r4, [sp, #9]	@ unaligned
 601:Middlewares/ST/BlueNRG-MS/hci/hci_le.c ****   
 602:Middlewares/ST/BlueNRG-MS/hci/hci_le.c ****   BLUENRG_memset(&rq, 0, sizeof(rq));
 2402              		.loc 1 602 3 view .LVU843
 2403 000c 0023     		movs	r3, #0
 603:Middlewares/ST/BlueNRG-MS/hci/hci_le.c ****   rq.ogf = OGF_LE_CTL;
 604:Middlewares/ST/BlueNRG-MS/hci/hci_le.c ****   rq.ocf = OCF_LE_REMOVE_DEVICE_FROM_WHITE_LIST;
 605:Middlewares/ST/BlueNRG-MS/hci/hci_le.c ****   rq.cparam = &params;
 606:Middlewares/ST/BlueNRG-MS/hci/hci_le.c ****   rq.clen = LE_REMOVE_DEVICE_FROM_WHITE_LIST_CP_SIZE;
 2404              		.loc 1 606 11 view .LVU844
 2405 000e 0724     		movs	r4, #7
 599:Middlewares/ST/BlueNRG-MS/hci/hci_le.c ****   BLUENRG_memcpy(params.bdaddr, bdaddr, 6);
 2406              		.loc 1 599 22 view .LVU845
 2407 0010 8DF80800 		strb	r0, [sp, #8]
 600:Middlewares/ST/BlueNRG-MS/hci/hci_le.c ****   
 2408              		.loc 1 600 3 is_stmt 1 view .LVU846
 607:Middlewares/ST/BlueNRG-MS/hci/hci_le.c ****   rq.rparam = &status;
 608:Middlewares/ST/BlueNRG-MS/hci/hci_le.c ****   rq.rlen = 1;
 609:Middlewares/ST/BlueNRG-MS/hci/hci_le.c ****   
 610:Middlewares/ST/BlueNRG-MS/hci/hci_le.c ****   if (hci_send_req(&rq, FALSE) < 0){
 2409              		.loc 1 610 7 is_stmt 0 view .LVU847
 2410 0014 1946     		mov	r1, r3
 2411              	.LVL108:
 600:Middlewares/ST/BlueNRG-MS/hci/hci_le.c ****   
 2412              		.loc 1 600 3 view .LVU848
 2413 0016 ADF80D20 		strh	r2, [sp, #13]	@ unaligned
 602:Middlewares/ST/BlueNRG-MS/hci/hci_le.c ****   rq.ogf = OGF_LE_CTL;
 2414              		.loc 1 602 3 is_stmt 1 view .LVU849
 2415 001a 0593     		str	r3, [sp, #20]
 603:Middlewares/ST/BlueNRG-MS/hci/hci_le.c ****   rq.ocf = OCF_LE_REMOVE_DEVICE_FROM_WHITE_LIST;
 2416              		.loc 1 603 3 view .LVU850
 604:Middlewares/ST/BlueNRG-MS/hci/hci_le.c ****   rq.cparam = &params;
 2417              		.loc 1 604 3 view .LVU851
 607:Middlewares/ST/BlueNRG-MS/hci/hci_le.c ****   rq.rlen = 1;
 2418              		.loc 1 607 13 is_stmt 0 view .LVU852
 2419 001c 0DEB0402 		add	r2, sp, r4
 608:Middlewares/ST/BlueNRG-MS/hci/hci_le.c ****   
 2420              		.loc 1 608 11 view .LVU853
 2421 0020 0123     		movs	r3, #1
 603:Middlewares/ST/BlueNRG-MS/hci/hci_le.c ****   rq.ocf = OCF_LE_REMOVE_DEVICE_FROM_WHITE_LIST;
 2422              		.loc 1 603 10 view .LVU854
 2423 0022 084E     		ldr	r6, .L146
 2424 0024 0496     		str	r6, [sp, #16]
 605:Middlewares/ST/BlueNRG-MS/hci/hci_le.c ****   rq.clen = LE_REMOVE_DEVICE_FROM_WHITE_LIST_CP_SIZE;
 2425              		.loc 1 605 3 is_stmt 1 view .LVU855
 605:Middlewares/ST/BlueNRG-MS/hci/hci_le.c ****   rq.clen = LE_REMOVE_DEVICE_FROM_WHITE_LIST_CP_SIZE;
 2426              		.loc 1 605 13 is_stmt 0 view .LVU856
 2427 0026 02AD     		add	r5, sp, #8
 2428              		.loc 1 610 7 view .LVU857
 2429 0028 04A8     		add	r0, sp, #16
 2430              	.LVL109:
 606:Middlewares/ST/BlueNRG-MS/hci/hci_le.c ****   rq.rparam = &status;
 2431              		.loc 1 606 11 view .LVU858
ARM GAS  /tmp/ccCJ9vpL.s 			page 61


 2432 002a CDE90654 		strd	r5, r4, [sp, #24]
 607:Middlewares/ST/BlueNRG-MS/hci/hci_le.c ****   rq.rlen = 1;
 2433              		.loc 1 607 3 is_stmt 1 view .LVU859
 608:Middlewares/ST/BlueNRG-MS/hci/hci_le.c ****   
 2434              		.loc 1 608 11 is_stmt 0 view .LVU860
 2435 002e CDE90823 		strd	r2, r3, [sp, #32]
 2436              		.loc 1 610 3 is_stmt 1 view .LVU861
 2437              		.loc 1 610 7 is_stmt 0 view .LVU862
 2438 0032 FFF7FEFF 		bl	hci_send_req
 2439              	.LVL110:
 2440              		.loc 1 610 6 view .LVU863
 2441 0036 0028     		cmp	r0, #0
 611:Middlewares/ST/BlueNRG-MS/hci/hci_le.c ****     return BLE_STATUS_TIMEOUT;
 612:Middlewares/ST/BlueNRG-MS/hci/hci_le.c ****   }
 613:Middlewares/ST/BlueNRG-MS/hci/hci_le.c ****   
 614:Middlewares/ST/BlueNRG-MS/hci/hci_le.c ****   return status;
 2442              		.loc 1 614 3 is_stmt 1 view .LVU864
 2443              		.loc 1 614 10 is_stmt 0 view .LVU865
 2444 0038 ACBF     		ite	ge
 2445 003a 9DF80700 		ldrbge	r0, [sp, #7]	@ zero_extendqisi2
 611:Middlewares/ST/BlueNRG-MS/hci/hci_le.c ****     return BLE_STATUS_TIMEOUT;
 2446              		.loc 1 611 12 view .LVU866
 2447 003e FF20     		movlt	r0, #255
 615:Middlewares/ST/BlueNRG-MS/hci/hci_le.c **** }
 2448              		.loc 1 615 1 view .LVU867
 2449 0040 0AB0     		add	sp, sp, #40
 2450              	.LCFI84:
 2451              		.cfi_def_cfa_offset 16
 2452              		@ sp needed
 2453 0042 70BD     		pop	{r4, r5, r6, pc}
 2454              	.L147:
 2455              		.align	2
 2456              	.L146:
 2457 0044 08001200 		.word	1179656
 2458              		.cfi_endproc
 2459              	.LFE152:
 2461              		.section	.text.hci_read_transmit_power_level,"ax",%progbits
 2462              		.align	1
 2463              		.p2align 2,,3
 2464              		.global	hci_read_transmit_power_level
 2465              		.syntax unified
 2466              		.thumb
 2467              		.thumb_func
 2468              		.fpu fpv4-sp-d16
 2470              	hci_read_transmit_power_level:
 2471              	.LVL111:
 2472              	.LFB153:
 616:Middlewares/ST/BlueNRG-MS/hci/hci_le.c **** 
 617:Middlewares/ST/BlueNRG-MS/hci/hci_le.c **** int hci_read_transmit_power_level(uint16_t *conn_handle, uint8_t type, int8_t * tx_level)
 618:Middlewares/ST/BlueNRG-MS/hci/hci_le.c **** {
 2473              		.loc 1 618 1 is_stmt 1 view -0
 2474              		.cfi_startproc
 2475              		@ args = 0, pretend = 0, frame = 32
 2476              		@ frame_needed = 0, uses_anonymous_args = 0
 619:Middlewares/ST/BlueNRG-MS/hci/hci_le.c ****   struct hci_request rq;
 2477              		.loc 1 619 3 view .LVU869
 620:Middlewares/ST/BlueNRG-MS/hci/hci_le.c ****   read_transmit_power_level_cp params;
ARM GAS  /tmp/ccCJ9vpL.s 			page 62


 2478              		.loc 1 620 3 view .LVU870
 621:Middlewares/ST/BlueNRG-MS/hci/hci_le.c ****   read_transmit_power_level_rp resp;
 2479              		.loc 1 621 3 view .LVU871
 622:Middlewares/ST/BlueNRG-MS/hci/hci_le.c ****   
 623:Middlewares/ST/BlueNRG-MS/hci/hci_le.c ****   BLUENRG_memset(&resp, 0, sizeof(resp));
 2480              		.loc 1 623 3 view .LVU872
 618:Middlewares/ST/BlueNRG-MS/hci/hci_le.c ****   struct hci_request rq;
 2481              		.loc 1 618 1 is_stmt 0 view .LVU873
 2482 0000 70B5     		push	{r4, r5, r6, lr}
 2483              	.LCFI85:
 2484              		.cfi_def_cfa_offset 16
 2485              		.cfi_offset 4, -16
 2486              		.cfi_offset 5, -12
 2487              		.cfi_offset 6, -8
 2488              		.cfi_offset 14, -4
 2489 0002 88B0     		sub	sp, sp, #32
 2490              	.LCFI86:
 2491              		.cfi_def_cfa_offset 48
 2492              		.loc 1 623 3 view .LVU874
 2493 0004 0023     		movs	r3, #0
 624:Middlewares/ST/BlueNRG-MS/hci/hci_le.c ****   
 625:Middlewares/ST/BlueNRG-MS/hci/hci_le.c ****   params.handle = *conn_handle;
 2494              		.loc 1 625 17 view .LVU875
 2495 0006 0688     		ldrh	r6, [r0]
 626:Middlewares/ST/BlueNRG-MS/hci/hci_le.c ****   params.type = type;
 2496              		.loc 1 626 15 view .LVU876
 2497 0008 8DF80210 		strb	r1, [sp, #2]
 618:Middlewares/ST/BlueNRG-MS/hci/hci_le.c ****   struct hci_request rq;
 2498              		.loc 1 618 1 view .LVU877
 2499 000c 0446     		mov	r4, r0
 2500 000e 1546     		mov	r5, r2
 627:Middlewares/ST/BlueNRG-MS/hci/hci_le.c ****   
 628:Middlewares/ST/BlueNRG-MS/hci/hci_le.c ****   BLUENRG_memset(&rq, 0, sizeof(rq));
 629:Middlewares/ST/BlueNRG-MS/hci/hci_le.c ****   rq.ogf = OGF_HOST_CTL;
 2501              		.loc 1 629 10 view .LVU878
 2502 0010 1148     		ldr	r0, .L153
 2503              	.LVL112:
 623:Middlewares/ST/BlueNRG-MS/hci/hci_le.c ****   
 2504              		.loc 1 623 3 view .LVU879
 2505 0012 0193     		str	r3, [sp, #4]
 625:Middlewares/ST/BlueNRG-MS/hci/hci_le.c ****   params.type = type;
 2506              		.loc 1 625 3 is_stmt 1 view .LVU880
 626:Middlewares/ST/BlueNRG-MS/hci/hci_le.c ****   
 2507              		.loc 1 626 3 view .LVU881
 628:Middlewares/ST/BlueNRG-MS/hci/hci_le.c ****   rq.ogf = OGF_HOST_CTL;
 2508              		.loc 1 628 3 view .LVU882
 623:Middlewares/ST/BlueNRG-MS/hci/hci_le.c ****   
 2509              		.loc 1 623 3 is_stmt 0 view .LVU883
 2510 0014 01AA     		add	r2, sp, #4
 2511              	.LVL113:
 630:Middlewares/ST/BlueNRG-MS/hci/hci_le.c ****   rq.ocf = OCF_READ_TRANSMIT_POWER_LEVEL;
 631:Middlewares/ST/BlueNRG-MS/hci/hci_le.c ****   rq.cparam = &params;
 632:Middlewares/ST/BlueNRG-MS/hci/hci_le.c ****   rq.clen = READ_TRANSMIT_POWER_LEVEL_CP_SIZE;
 633:Middlewares/ST/BlueNRG-MS/hci/hci_le.c ****   rq.rparam = &resp;
 634:Middlewares/ST/BlueNRG-MS/hci/hci_le.c ****   rq.rlen = READ_TRANSMIT_POWER_LEVEL_RP_SIZE;
 635:Middlewares/ST/BlueNRG-MS/hci/hci_le.c ****   
 636:Middlewares/ST/BlueNRG-MS/hci/hci_le.c ****   if (hci_send_req(&rq, FALSE) < 0){
ARM GAS  /tmp/ccCJ9vpL.s 			page 63


 2512              		.loc 1 636 7 view .LVU884
 2513 0016 1946     		mov	r1, r3
 2514              	.LVL114:
 628:Middlewares/ST/BlueNRG-MS/hci/hci_le.c ****   rq.ogf = OGF_HOST_CTL;
 2515              		.loc 1 628 3 view .LVU885
 2516 0018 0393     		str	r3, [sp, #12]
 629:Middlewares/ST/BlueNRG-MS/hci/hci_le.c ****   rq.ocf = OCF_READ_TRANSMIT_POWER_LEVEL;
 2517              		.loc 1 629 3 is_stmt 1 view .LVU886
 630:Middlewares/ST/BlueNRG-MS/hci/hci_le.c ****   rq.ocf = OCF_READ_TRANSMIT_POWER_LEVEL;
 2518              		.loc 1 630 3 view .LVU887
 633:Middlewares/ST/BlueNRG-MS/hci/hci_le.c ****   rq.rlen = READ_TRANSMIT_POWER_LEVEL_RP_SIZE;
 2519              		.loc 1 633 13 is_stmt 0 view .LVU888
 2520 001a 0692     		str	r2, [sp, #24]
 629:Middlewares/ST/BlueNRG-MS/hci/hci_le.c ****   rq.ocf = OCF_READ_TRANSMIT_POWER_LEVEL;
 2521              		.loc 1 629 10 view .LVU889
 2522 001c 0290     		str	r0, [sp, #8]
 631:Middlewares/ST/BlueNRG-MS/hci/hci_le.c ****   rq.clen = READ_TRANSMIT_POWER_LEVEL_CP_SIZE;
 2523              		.loc 1 631 3 is_stmt 1 view .LVU890
 632:Middlewares/ST/BlueNRG-MS/hci/hci_le.c ****   rq.rparam = &resp;
 2524              		.loc 1 632 11 is_stmt 0 view .LVU891
 2525 001e 0322     		movs	r2, #3
 634:Middlewares/ST/BlueNRG-MS/hci/hci_le.c ****   
 2526              		.loc 1 634 11 view .LVU892
 2527 0020 0423     		movs	r3, #4
 2528              		.loc 1 636 7 view .LVU893
 2529 0022 02A8     		add	r0, sp, #8
 625:Middlewares/ST/BlueNRG-MS/hci/hci_le.c ****   params.type = type;
 2530              		.loc 1 625 17 view .LVU894
 2531 0024 ADF80060 		strh	r6, [sp]	@ movhi
 631:Middlewares/ST/BlueNRG-MS/hci/hci_le.c ****   rq.clen = READ_TRANSMIT_POWER_LEVEL_CP_SIZE;
 2532              		.loc 1 631 13 view .LVU895
 2533 0028 CDF810D0 		str	sp, [sp, #16]
 632:Middlewares/ST/BlueNRG-MS/hci/hci_le.c ****   rq.rparam = &resp;
 2534              		.loc 1 632 3 is_stmt 1 view .LVU896
 632:Middlewares/ST/BlueNRG-MS/hci/hci_le.c ****   rq.rparam = &resp;
 2535              		.loc 1 632 11 is_stmt 0 view .LVU897
 2536 002c 0592     		str	r2, [sp, #20]
 633:Middlewares/ST/BlueNRG-MS/hci/hci_le.c ****   rq.rlen = READ_TRANSMIT_POWER_LEVEL_RP_SIZE;
 2537              		.loc 1 633 3 is_stmt 1 view .LVU898
 634:Middlewares/ST/BlueNRG-MS/hci/hci_le.c ****   
 2538              		.loc 1 634 3 view .LVU899
 634:Middlewares/ST/BlueNRG-MS/hci/hci_le.c ****   
 2539              		.loc 1 634 11 is_stmt 0 view .LVU900
 2540 002e 0793     		str	r3, [sp, #28]
 2541              		.loc 1 636 3 is_stmt 1 view .LVU901
 2542              		.loc 1 636 7 is_stmt 0 view .LVU902
 2543 0030 FFF7FEFF 		bl	hci_send_req
 2544              	.LVL115:
 2545              		.loc 1 636 6 view .LVU903
 2546 0034 0028     		cmp	r0, #0
 2547 0036 0BDB     		blt	.L151
 637:Middlewares/ST/BlueNRG-MS/hci/hci_le.c ****     return BLE_STATUS_TIMEOUT;
 638:Middlewares/ST/BlueNRG-MS/hci/hci_le.c ****   }
 639:Middlewares/ST/BlueNRG-MS/hci/hci_le.c ****   
 640:Middlewares/ST/BlueNRG-MS/hci/hci_le.c ****   if (resp.status) {
 2548              		.loc 1 640 3 is_stmt 1 view .LVU904
 2549              		.loc 1 640 11 is_stmt 0 view .LVU905
ARM GAS  /tmp/ccCJ9vpL.s 			page 64


 2550 0038 9DF80400 		ldrb	r0, [sp, #4]	@ zero_extendqisi2
 2551              		.loc 1 640 6 view .LVU906
 2552 003c 30B9     		cbnz	r0, .L148
 641:Middlewares/ST/BlueNRG-MS/hci/hci_le.c ****     return resp.status;
 642:Middlewares/ST/BlueNRG-MS/hci/hci_le.c ****   }
 643:Middlewares/ST/BlueNRG-MS/hci/hci_le.c ****   
 644:Middlewares/ST/BlueNRG-MS/hci/hci_le.c ****   *conn_handle = resp.handle;
 2553              		.loc 1 644 3 is_stmt 1 view .LVU907
 2554              		.loc 1 644 22 is_stmt 0 view .LVU908
 2555 003e 019B     		ldr	r3, [sp, #4]
 645:Middlewares/ST/BlueNRG-MS/hci/hci_le.c ****   *tx_level = resp.level;
 2556              		.loc 1 645 13 view .LVU909
 2557 0040 9DF80720 		ldrb	r2, [sp, #7]	@ zero_extendqisi2
 644:Middlewares/ST/BlueNRG-MS/hci/hci_le.c ****   *tx_level = resp.level;
 2558              		.loc 1 644 22 view .LVU910
 2559 0044 C3F30F23 		ubfx	r3, r3, #8, #16
 644:Middlewares/ST/BlueNRG-MS/hci/hci_le.c ****   *tx_level = resp.level;
 2560              		.loc 1 644 16 view .LVU911
 2561 0048 2380     		strh	r3, [r4]	@ movhi
 2562              		.loc 1 645 3 is_stmt 1 view .LVU912
 2563              		.loc 1 645 13 is_stmt 0 view .LVU913
 2564 004a 2A70     		strb	r2, [r5]
 646:Middlewares/ST/BlueNRG-MS/hci/hci_le.c ****   
 647:Middlewares/ST/BlueNRG-MS/hci/hci_le.c ****   return 0;
 2565              		.loc 1 647 3 is_stmt 1 view .LVU914
 2566              	.L148:
 648:Middlewares/ST/BlueNRG-MS/hci/hci_le.c **** }
 2567              		.loc 1 648 1 is_stmt 0 view .LVU915
 2568 004c 08B0     		add	sp, sp, #32
 2569              	.LCFI87:
 2570              		.cfi_remember_state
 2571              		.cfi_def_cfa_offset 16
 2572              		@ sp needed
 2573 004e 70BD     		pop	{r4, r5, r6, pc}
 2574              	.LVL116:
 2575              	.L151:
 2576              	.LCFI88:
 2577              		.cfi_restore_state
 637:Middlewares/ST/BlueNRG-MS/hci/hci_le.c ****   }
 2578              		.loc 1 637 12 view .LVU916
 2579 0050 FF20     		movs	r0, #255
 2580              		.loc 1 648 1 view .LVU917
 2581 0052 08B0     		add	sp, sp, #32
 2582              	.LCFI89:
 2583              		.cfi_def_cfa_offset 16
 2584              		@ sp needed
 2585 0054 70BD     		pop	{r4, r5, r6, pc}
 2586              	.LVL117:
 2587              	.L154:
 2588              		.loc 1 648 1 view .LVU918
 2589 0056 00BF     		.align	2
 2590              	.L153:
 2591 0058 03002D00 		.word	2949123
 2592              		.cfi_endproc
 2593              	.LFE153:
 2595              		.section	.text.hci_read_rssi,"ax",%progbits
 2596              		.align	1
ARM GAS  /tmp/ccCJ9vpL.s 			page 65


 2597              		.p2align 2,,3
 2598              		.global	hci_read_rssi
 2599              		.syntax unified
 2600              		.thumb
 2601              		.thumb_func
 2602              		.fpu fpv4-sp-d16
 2604              	hci_read_rssi:
 2605              	.LVL118:
 2606              	.LFB154:
 649:Middlewares/ST/BlueNRG-MS/hci/hci_le.c **** 
 650:Middlewares/ST/BlueNRG-MS/hci/hci_le.c **** int hci_read_rssi(uint16_t *conn_handle, int8_t * rssi)
 651:Middlewares/ST/BlueNRG-MS/hci/hci_le.c **** {
 2607              		.loc 1 651 1 is_stmt 1 view -0
 2608              		.cfi_startproc
 2609              		@ args = 0, pretend = 0, frame = 32
 2610              		@ frame_needed = 0, uses_anonymous_args = 0
 652:Middlewares/ST/BlueNRG-MS/hci/hci_le.c ****   struct hci_request rq;
 2611              		.loc 1 652 3 view .LVU920
 653:Middlewares/ST/BlueNRG-MS/hci/hci_le.c ****   read_rssi_cp params;
 2612              		.loc 1 653 3 view .LVU921
 654:Middlewares/ST/BlueNRG-MS/hci/hci_le.c ****   read_rssi_rp resp;
 2613              		.loc 1 654 3 view .LVU922
 655:Middlewares/ST/BlueNRG-MS/hci/hci_le.c ****   
 656:Middlewares/ST/BlueNRG-MS/hci/hci_le.c ****   BLUENRG_memset(&resp, 0, sizeof(resp));
 2614              		.loc 1 656 3 view .LVU923
 651:Middlewares/ST/BlueNRG-MS/hci/hci_le.c ****   struct hci_request rq;
 2615              		.loc 1 651 1 is_stmt 0 view .LVU924
 2616 0000 30B5     		push	{r4, r5, lr}
 2617              	.LCFI90:
 2618              		.cfi_def_cfa_offset 12
 2619              		.cfi_offset 4, -12
 2620              		.cfi_offset 5, -8
 2621              		.cfi_offset 14, -4
 2622 0002 89B0     		sub	sp, sp, #36
 2623              	.LCFI91:
 2624              		.cfi_def_cfa_offset 48
 657:Middlewares/ST/BlueNRG-MS/hci/hci_le.c ****   
 658:Middlewares/ST/BlueNRG-MS/hci/hci_le.c ****   params.handle = *conn_handle;
 2625              		.loc 1 658 17 view .LVU925
 2626 0004 0288     		ldrh	r2, [r0]
 2627 0006 ADF80020 		strh	r2, [sp]	@ movhi
 656:Middlewares/ST/BlueNRG-MS/hci/hci_le.c ****   
 2628              		.loc 1 656 3 view .LVU926
 2629 000a 0023     		movs	r3, #0
 2630 000c 01AA     		add	r2, sp, #4
 651:Middlewares/ST/BlueNRG-MS/hci/hci_le.c ****   struct hci_request rq;
 2631              		.loc 1 651 1 view .LVU927
 2632 000e 0446     		mov	r4, r0
 659:Middlewares/ST/BlueNRG-MS/hci/hci_le.c ****   
 660:Middlewares/ST/BlueNRG-MS/hci/hci_le.c ****   BLUENRG_memset(&rq, 0, sizeof(rq));
 661:Middlewares/ST/BlueNRG-MS/hci/hci_le.c ****   rq.ogf = OGF_STATUS_PARAM;
 2633              		.loc 1 661 10 view .LVU928
 2634 0010 4FF00510 		mov	r0, #327685
 2635              	.LVL119:
 656:Middlewares/ST/BlueNRG-MS/hci/hci_le.c ****   
 2636              		.loc 1 656 3 view .LVU929
 2637 0014 0193     		str	r3, [sp, #4]
ARM GAS  /tmp/ccCJ9vpL.s 			page 66


 658:Middlewares/ST/BlueNRG-MS/hci/hci_le.c ****   
 2638              		.loc 1 658 3 is_stmt 1 view .LVU930
 660:Middlewares/ST/BlueNRG-MS/hci/hci_le.c ****   rq.ogf = OGF_STATUS_PARAM;
 2639              		.loc 1 660 3 view .LVU931
 2640 0016 0393     		str	r3, [sp, #12]
 2641              		.loc 1 661 3 view .LVU932
 662:Middlewares/ST/BlueNRG-MS/hci/hci_le.c ****   rq.ocf = OCF_READ_RSSI;
 2642              		.loc 1 662 3 view .LVU933
 663:Middlewares/ST/BlueNRG-MS/hci/hci_le.c ****   rq.cparam = &params;
 664:Middlewares/ST/BlueNRG-MS/hci/hci_le.c ****   rq.clen = READ_RSSI_CP_SIZE;
 665:Middlewares/ST/BlueNRG-MS/hci/hci_le.c ****   rq.rparam = &resp;
 2643              		.loc 1 665 13 is_stmt 0 view .LVU934
 2644 0018 0692     		str	r2, [sp, #24]
 661:Middlewares/ST/BlueNRG-MS/hci/hci_le.c ****   rq.ocf = OCF_READ_RSSI;
 2645              		.loc 1 661 10 view .LVU935
 2646 001a 0290     		str	r0, [sp, #8]
 663:Middlewares/ST/BlueNRG-MS/hci/hci_le.c ****   rq.cparam = &params;
 2647              		.loc 1 663 3 is_stmt 1 view .LVU936
 664:Middlewares/ST/BlueNRG-MS/hci/hci_le.c ****   rq.rparam = &resp;
 2648              		.loc 1 664 11 is_stmt 0 view .LVU937
 2649 001c 0222     		movs	r2, #2
 651:Middlewares/ST/BlueNRG-MS/hci/hci_le.c ****   struct hci_request rq;
 2650              		.loc 1 651 1 view .LVU938
 2651 001e 0D46     		mov	r5, r1
 666:Middlewares/ST/BlueNRG-MS/hci/hci_le.c ****   rq.rlen = READ_RSSI_RP_SIZE;
 667:Middlewares/ST/BlueNRG-MS/hci/hci_le.c ****   
 668:Middlewares/ST/BlueNRG-MS/hci/hci_le.c ****   if (hci_send_req(&rq, FALSE) < 0){
 2652              		.loc 1 668 7 view .LVU939
 2653 0020 02A8     		add	r0, sp, #8
 2654 0022 1946     		mov	r1, r3
 2655              	.LVL120:
 666:Middlewares/ST/BlueNRG-MS/hci/hci_le.c ****   rq.rlen = READ_RSSI_RP_SIZE;
 2656              		.loc 1 666 11 view .LVU940
 2657 0024 0423     		movs	r3, #4
 663:Middlewares/ST/BlueNRG-MS/hci/hci_le.c ****   rq.clen = READ_RSSI_CP_SIZE;
 2658              		.loc 1 663 13 view .LVU941
 2659 0026 CDF810D0 		str	sp, [sp, #16]
 664:Middlewares/ST/BlueNRG-MS/hci/hci_le.c ****   rq.rparam = &resp;
 2660              		.loc 1 664 3 is_stmt 1 view .LVU942
 664:Middlewares/ST/BlueNRG-MS/hci/hci_le.c ****   rq.rparam = &resp;
 2661              		.loc 1 664 11 is_stmt 0 view .LVU943
 2662 002a 0592     		str	r2, [sp, #20]
 665:Middlewares/ST/BlueNRG-MS/hci/hci_le.c ****   rq.rlen = READ_RSSI_RP_SIZE;
 2663              		.loc 1 665 3 is_stmt 1 view .LVU944
 666:Middlewares/ST/BlueNRG-MS/hci/hci_le.c ****   
 2664              		.loc 1 666 3 view .LVU945
 666:Middlewares/ST/BlueNRG-MS/hci/hci_le.c ****   
 2665              		.loc 1 666 11 is_stmt 0 view .LVU946
 2666 002c 0793     		str	r3, [sp, #28]
 2667              		.loc 1 668 3 is_stmt 1 view .LVU947
 2668              		.loc 1 668 7 is_stmt 0 view .LVU948
 2669 002e FFF7FEFF 		bl	hci_send_req
 2670              	.LVL121:
 2671              		.loc 1 668 6 view .LVU949
 2672 0032 0028     		cmp	r0, #0
 2673 0034 0BDB     		blt	.L158
 669:Middlewares/ST/BlueNRG-MS/hci/hci_le.c ****     return BLE_STATUS_TIMEOUT;
ARM GAS  /tmp/ccCJ9vpL.s 			page 67


 670:Middlewares/ST/BlueNRG-MS/hci/hci_le.c ****   }
 671:Middlewares/ST/BlueNRG-MS/hci/hci_le.c ****   
 672:Middlewares/ST/BlueNRG-MS/hci/hci_le.c ****   if (resp.status) {
 2674              		.loc 1 672 3 is_stmt 1 view .LVU950
 2675              		.loc 1 672 11 is_stmt 0 view .LVU951
 2676 0036 9DF80400 		ldrb	r0, [sp, #4]	@ zero_extendqisi2
 2677              		.loc 1 672 6 view .LVU952
 2678 003a 30B9     		cbnz	r0, .L155
 673:Middlewares/ST/BlueNRG-MS/hci/hci_le.c ****     return resp.status;
 674:Middlewares/ST/BlueNRG-MS/hci/hci_le.c ****   }
 675:Middlewares/ST/BlueNRG-MS/hci/hci_le.c ****   
 676:Middlewares/ST/BlueNRG-MS/hci/hci_le.c ****   *conn_handle = resp.handle;
 2679              		.loc 1 676 3 is_stmt 1 view .LVU953
 2680              		.loc 1 676 22 is_stmt 0 view .LVU954
 2681 003c 019B     		ldr	r3, [sp, #4]
 677:Middlewares/ST/BlueNRG-MS/hci/hci_le.c ****   *rssi = resp.rssi;
 2682              		.loc 1 677 9 view .LVU955
 2683 003e 9DF80720 		ldrb	r2, [sp, #7]	@ zero_extendqisi2
 676:Middlewares/ST/BlueNRG-MS/hci/hci_le.c ****   *rssi = resp.rssi;
 2684              		.loc 1 676 22 view .LVU956
 2685 0042 C3F30F23 		ubfx	r3, r3, #8, #16
 676:Middlewares/ST/BlueNRG-MS/hci/hci_le.c ****   *rssi = resp.rssi;
 2686              		.loc 1 676 16 view .LVU957
 2687 0046 2380     		strh	r3, [r4]	@ movhi
 2688              		.loc 1 677 3 is_stmt 1 view .LVU958
 2689              		.loc 1 677 9 is_stmt 0 view .LVU959
 2690 0048 2A70     		strb	r2, [r5]
 678:Middlewares/ST/BlueNRG-MS/hci/hci_le.c ****   
 679:Middlewares/ST/BlueNRG-MS/hci/hci_le.c ****   return 0;
 2691              		.loc 1 679 3 is_stmt 1 view .LVU960
 2692              	.L155:
 680:Middlewares/ST/BlueNRG-MS/hci/hci_le.c **** }
 2693              		.loc 1 680 1 is_stmt 0 view .LVU961
 2694 004a 09B0     		add	sp, sp, #36
 2695              	.LCFI92:
 2696              		.cfi_remember_state
 2697              		.cfi_def_cfa_offset 12
 2698              		@ sp needed
 2699 004c 30BD     		pop	{r4, r5, pc}
 2700              	.LVL122:
 2701              	.L158:
 2702              	.LCFI93:
 2703              		.cfi_restore_state
 669:Middlewares/ST/BlueNRG-MS/hci/hci_le.c ****   }
 2704              		.loc 1 669 12 view .LVU962
 2705 004e FF20     		movs	r0, #255
 2706              		.loc 1 680 1 view .LVU963
 2707 0050 09B0     		add	sp, sp, #36
 2708              	.LCFI94:
 2709              		.cfi_def_cfa_offset 12
 2710              		@ sp needed
 2711 0052 30BD     		pop	{r4, r5, pc}
 2712              		.loc 1 680 1 view .LVU964
 2713              		.cfi_endproc
 2714              	.LFE154:
 2716              		.section	.text.hci_le_read_local_supported_features,"ax",%progbits
 2717              		.align	1
ARM GAS  /tmp/ccCJ9vpL.s 			page 68


 2718              		.p2align 2,,3
 2719              		.global	hci_le_read_local_supported_features
 2720              		.syntax unified
 2721              		.thumb
 2722              		.thumb_func
 2723              		.fpu fpv4-sp-d16
 2725              	hci_le_read_local_supported_features:
 2726              	.LVL123:
 2727              	.LFB155:
 681:Middlewares/ST/BlueNRG-MS/hci/hci_le.c **** 
 682:Middlewares/ST/BlueNRG-MS/hci/hci_le.c **** int hci_le_read_local_supported_features(uint8_t *features)
 683:Middlewares/ST/BlueNRG-MS/hci/hci_le.c **** {
 2728              		.loc 1 683 1 is_stmt 1 view -0
 2729              		.cfi_startproc
 2730              		@ args = 0, pretend = 0, frame = 40
 2731              		@ frame_needed = 0, uses_anonymous_args = 0
 684:Middlewares/ST/BlueNRG-MS/hci/hci_le.c ****   struct hci_request rq;
 2732              		.loc 1 684 3 view .LVU966
 685:Middlewares/ST/BlueNRG-MS/hci/hci_le.c ****   le_read_local_supported_features_rp resp;
 2733              		.loc 1 685 3 view .LVU967
 686:Middlewares/ST/BlueNRG-MS/hci/hci_le.c ****   
 687:Middlewares/ST/BlueNRG-MS/hci/hci_le.c ****   BLUENRG_memset(&resp, 0, sizeof(resp));
 2734              		.loc 1 687 3 view .LVU968
 683:Middlewares/ST/BlueNRG-MS/hci/hci_le.c ****   struct hci_request rq;
 2735              		.loc 1 683 1 is_stmt 0 view .LVU969
 2736 0000 10B5     		push	{r4, lr}
 2737              	.LCFI95:
 2738              		.cfi_def_cfa_offset 8
 2739              		.cfi_offset 4, -8
 2740              		.cfi_offset 14, -4
 2741 0002 8AB0     		sub	sp, sp, #40
 2742              	.LCFI96:
 2743              		.cfi_def_cfa_offset 48
 2744              		.loc 1 687 3 view .LVU970
 2745 0004 01AB     		add	r3, sp, #4
 2746 0006 0021     		movs	r1, #0
 688:Middlewares/ST/BlueNRG-MS/hci/hci_le.c ****   
 689:Middlewares/ST/BlueNRG-MS/hci/hci_le.c ****   BLUENRG_memset(&rq, 0, sizeof(rq));
 690:Middlewares/ST/BlueNRG-MS/hci/hci_le.c ****   rq.ogf = OGF_LE_CTL;
 2747              		.loc 1 690 10 view .LVU971
 2748 0008 0F4A     		ldr	r2, .L165
 691:Middlewares/ST/BlueNRG-MS/hci/hci_le.c ****   rq.ocf = OCF_LE_READ_LOCAL_SUPPORTED_FEATURES;
 692:Middlewares/ST/BlueNRG-MS/hci/hci_le.c ****   rq.rparam = &resp;
 2749              		.loc 1 692 13 view .LVU972
 2750 000a 0893     		str	r3, [sp, #32]
 683:Middlewares/ST/BlueNRG-MS/hci/hci_le.c ****   struct hci_request rq;
 2751              		.loc 1 683 1 view .LVU973
 2752 000c 0446     		mov	r4, r0
 693:Middlewares/ST/BlueNRG-MS/hci/hci_le.c ****   rq.rlen = LE_READ_LOCAL_SUPPORTED_FEATURES_RP_SIZE;
 2753              		.loc 1 693 11 view .LVU974
 2754 000e 0923     		movs	r3, #9
 694:Middlewares/ST/BlueNRG-MS/hci/hci_le.c ****   
 695:Middlewares/ST/BlueNRG-MS/hci/hci_le.c ****   if (hci_send_req(&rq, FALSE) < 0){
 2755              		.loc 1 695 7 view .LVU975
 2756 0010 04A8     		add	r0, sp, #16
 2757              	.LVL124:
 687:Middlewares/ST/BlueNRG-MS/hci/hci_le.c ****   
ARM GAS  /tmp/ccCJ9vpL.s 			page 69


 2758              		.loc 1 687 3 view .LVU976
 2759 0012 CDE90111 		strd	r1, r1, [sp, #4]
 689:Middlewares/ST/BlueNRG-MS/hci/hci_le.c ****   rq.ogf = OGF_LE_CTL;
 2760              		.loc 1 689 3 view .LVU977
 2761 0016 CDE90511 		strd	r1, r1, [sp, #20]
 687:Middlewares/ST/BlueNRG-MS/hci/hci_le.c ****   
 2762              		.loc 1 687 3 view .LVU978
 2763 001a 8DF80C10 		strb	r1, [sp, #12]
 689:Middlewares/ST/BlueNRG-MS/hci/hci_le.c ****   rq.ogf = OGF_LE_CTL;
 2764              		.loc 1 689 3 is_stmt 1 view .LVU979
 2765 001e 0791     		str	r1, [sp, #28]
 690:Middlewares/ST/BlueNRG-MS/hci/hci_le.c ****   rq.ocf = OCF_LE_READ_LOCAL_SUPPORTED_FEATURES;
 2766              		.loc 1 690 3 view .LVU980
 691:Middlewares/ST/BlueNRG-MS/hci/hci_le.c ****   rq.rparam = &resp;
 2767              		.loc 1 691 3 view .LVU981
 690:Middlewares/ST/BlueNRG-MS/hci/hci_le.c ****   rq.ocf = OCF_LE_READ_LOCAL_SUPPORTED_FEATURES;
 2768              		.loc 1 690 10 is_stmt 0 view .LVU982
 2769 0020 0492     		str	r2, [sp, #16]
 692:Middlewares/ST/BlueNRG-MS/hci/hci_le.c ****   rq.rlen = LE_READ_LOCAL_SUPPORTED_FEATURES_RP_SIZE;
 2770              		.loc 1 692 3 is_stmt 1 view .LVU983
 693:Middlewares/ST/BlueNRG-MS/hci/hci_le.c ****   
 2771              		.loc 1 693 3 view .LVU984
 693:Middlewares/ST/BlueNRG-MS/hci/hci_le.c ****   
 2772              		.loc 1 693 11 is_stmt 0 view .LVU985
 2773 0022 0993     		str	r3, [sp, #36]
 2774              		.loc 1 695 3 is_stmt 1 view .LVU986
 2775              		.loc 1 695 7 is_stmt 0 view .LVU987
 2776 0024 FFF7FEFF 		bl	hci_send_req
 2777              	.LVL125:
 2778              		.loc 1 695 6 view .LVU988
 2779 0028 0028     		cmp	r0, #0
 2780 002a 0ADB     		blt	.L163
 696:Middlewares/ST/BlueNRG-MS/hci/hci_le.c ****     return BLE_STATUS_TIMEOUT;
 697:Middlewares/ST/BlueNRG-MS/hci/hci_le.c ****   }
 698:Middlewares/ST/BlueNRG-MS/hci/hci_le.c ****   
 699:Middlewares/ST/BlueNRG-MS/hci/hci_le.c ****   if (resp.status) {
 2781              		.loc 1 699 3 is_stmt 1 view .LVU989
 2782              		.loc 1 699 11 is_stmt 0 view .LVU990
 2783 002c 9DF80400 		ldrb	r0, [sp, #4]	@ zero_extendqisi2
 2784              		.loc 1 699 6 view .LVU991
 2785 0030 28B9     		cbnz	r0, .L160
 700:Middlewares/ST/BlueNRG-MS/hci/hci_le.c ****     return resp.status;
 701:Middlewares/ST/BlueNRG-MS/hci/hci_le.c ****   }
 702:Middlewares/ST/BlueNRG-MS/hci/hci_le.c ****   
 703:Middlewares/ST/BlueNRG-MS/hci/hci_le.c ****   BLUENRG_memcpy(features, resp.features, sizeof(resp.features));
 2786              		.loc 1 703 3 is_stmt 1 view .LVU992
 2787 0032 DDF80510 		ldr	r1, [sp, #5]	@ unaligned
 2788 0036 DDF80920 		ldr	r2, [sp, #9]	@ unaligned
 2789 003a 2160     		str	r1, [r4]	@ unaligned
 2790 003c 6260     		str	r2, [r4, #4]	@ unaligned
 704:Middlewares/ST/BlueNRG-MS/hci/hci_le.c ****   
 705:Middlewares/ST/BlueNRG-MS/hci/hci_le.c ****   return 0;
 2791              		.loc 1 705 3 view .LVU993
 2792              	.L160:
 706:Middlewares/ST/BlueNRG-MS/hci/hci_le.c **** }
 2793              		.loc 1 706 1 is_stmt 0 view .LVU994
 2794 003e 0AB0     		add	sp, sp, #40
ARM GAS  /tmp/ccCJ9vpL.s 			page 70


 2795              	.LCFI97:
 2796              		.cfi_remember_state
 2797              		.cfi_def_cfa_offset 8
 2798              		@ sp needed
 2799 0040 10BD     		pop	{r4, pc}
 2800              	.LVL126:
 2801              	.L163:
 2802              	.LCFI98:
 2803              		.cfi_restore_state
 696:Middlewares/ST/BlueNRG-MS/hci/hci_le.c ****   }
 2804              		.loc 1 696 12 view .LVU995
 2805 0042 FF20     		movs	r0, #255
 2806              		.loc 1 706 1 view .LVU996
 2807 0044 0AB0     		add	sp, sp, #40
 2808              	.LCFI99:
 2809              		.cfi_def_cfa_offset 8
 2810              		@ sp needed
 2811 0046 10BD     		pop	{r4, pc}
 2812              	.LVL127:
 2813              	.L166:
 2814              		.loc 1 706 1 view .LVU997
 2815              		.align	2
 2816              	.L165:
 2817 0048 08000300 		.word	196616
 2818              		.cfi_endproc
 2819              	.LFE155:
 2821              		.section	.text.hci_le_read_channel_map,"ax",%progbits
 2822              		.align	1
 2823              		.p2align 2,,3
 2824              		.global	hci_le_read_channel_map
 2825              		.syntax unified
 2826              		.thumb
 2827              		.thumb_func
 2828              		.fpu fpv4-sp-d16
 2830              	hci_le_read_channel_map:
 2831              	.LVL128:
 2832              	.LFB156:
 707:Middlewares/ST/BlueNRG-MS/hci/hci_le.c **** 
 708:Middlewares/ST/BlueNRG-MS/hci/hci_le.c **** int hci_le_read_channel_map(uint16_t conn_handle, uint8_t ch_map[5])
 709:Middlewares/ST/BlueNRG-MS/hci/hci_le.c **** {
 2833              		.loc 1 709 1 is_stmt 1 view -0
 2834              		.cfi_startproc
 2835              		@ args = 0, pretend = 0, frame = 40
 2836              		@ frame_needed = 0, uses_anonymous_args = 0
 710:Middlewares/ST/BlueNRG-MS/hci/hci_le.c ****   struct hci_request rq;
 2837              		.loc 1 710 3 view .LVU999
 711:Middlewares/ST/BlueNRG-MS/hci/hci_le.c ****   le_read_channel_map_cp params;
 2838              		.loc 1 711 3 view .LVU1000
 712:Middlewares/ST/BlueNRG-MS/hci/hci_le.c ****   le_read_channel_map_rp resp;
 2839              		.loc 1 712 3 view .LVU1001
 713:Middlewares/ST/BlueNRG-MS/hci/hci_le.c ****   
 714:Middlewares/ST/BlueNRG-MS/hci/hci_le.c ****   BLUENRG_memset(&resp, 0, sizeof(resp));
 2840              		.loc 1 714 3 view .LVU1002
 709:Middlewares/ST/BlueNRG-MS/hci/hci_le.c ****   struct hci_request rq;
 2841              		.loc 1 709 1 is_stmt 0 view .LVU1003
 2842 0000 70B5     		push	{r4, r5, r6, lr}
 2843              	.LCFI100:
ARM GAS  /tmp/ccCJ9vpL.s 			page 71


 2844              		.cfi_def_cfa_offset 16
 2845              		.cfi_offset 4, -16
 2846              		.cfi_offset 5, -12
 2847              		.cfi_offset 6, -8
 2848              		.cfi_offset 14, -4
 2849 0002 8AB0     		sub	sp, sp, #40
 2850              	.LCFI101:
 2851              		.cfi_def_cfa_offset 56
 2852              		.loc 1 714 3 view .LVU1004
 2853 0004 0023     		movs	r3, #0
 2854 0006 02AA     		add	r2, sp, #8
 715:Middlewares/ST/BlueNRG-MS/hci/hci_le.c ****   
 716:Middlewares/ST/BlueNRG-MS/hci/hci_le.c ****   params.handle = conn_handle;
 2855              		.loc 1 716 17 view .LVU1005
 2856 0008 ADF80400 		strh	r0, [sp, #4]	@ movhi
 717:Middlewares/ST/BlueNRG-MS/hci/hci_le.c ****   
 718:Middlewares/ST/BlueNRG-MS/hci/hci_le.c ****   BLUENRG_memset(&rq, 0, sizeof(rq));
 719:Middlewares/ST/BlueNRG-MS/hci/hci_le.c ****   rq.ogf = OGF_LE_CTL;
 720:Middlewares/ST/BlueNRG-MS/hci/hci_le.c ****   rq.ocf = OCF_LE_READ_CHANNEL_MAP;
 721:Middlewares/ST/BlueNRG-MS/hci/hci_le.c ****   rq.cparam = &params;
 722:Middlewares/ST/BlueNRG-MS/hci/hci_le.c ****   rq.clen = LE_READ_CHANNEL_MAP_CP_SIZE;
 723:Middlewares/ST/BlueNRG-MS/hci/hci_le.c ****   rq.rparam = &resp;
 2857              		.loc 1 723 13 view .LVU1006
 2858 000c 0892     		str	r2, [sp, #32]
 714:Middlewares/ST/BlueNRG-MS/hci/hci_le.c ****   
 2859              		.loc 1 714 3 view .LVU1007
 2860 000e 0393     		str	r3, [sp, #12]
 716:Middlewares/ST/BlueNRG-MS/hci/hci_le.c ****   
 2861              		.loc 1 716 3 is_stmt 1 view .LVU1008
 718:Middlewares/ST/BlueNRG-MS/hci/hci_le.c ****   rq.ogf = OGF_LE_CTL;
 2862              		.loc 1 718 3 view .LVU1009
 722:Middlewares/ST/BlueNRG-MS/hci/hci_le.c ****   rq.rparam = &resp;
 2863              		.loc 1 722 11 is_stmt 0 view .LVU1010
 2864 0010 0222     		movs	r2, #2
 714:Middlewares/ST/BlueNRG-MS/hci/hci_le.c ****   
 2865              		.loc 1 714 3 view .LVU1011
 2866 0012 0293     		str	r3, [sp, #8]
 718:Middlewares/ST/BlueNRG-MS/hci/hci_le.c ****   rq.ogf = OGF_LE_CTL;
 2867              		.loc 1 718 3 view .LVU1012
 2868 0014 0593     		str	r3, [sp, #20]
 719:Middlewares/ST/BlueNRG-MS/hci/hci_le.c ****   rq.ocf = OCF_LE_READ_CHANNEL_MAP;
 2869              		.loc 1 719 3 is_stmt 1 view .LVU1013
 720:Middlewares/ST/BlueNRG-MS/hci/hci_le.c ****   rq.cparam = &params;
 2870              		.loc 1 720 3 view .LVU1014
 719:Middlewares/ST/BlueNRG-MS/hci/hci_le.c ****   rq.ocf = OCF_LE_READ_CHANNEL_MAP;
 2871              		.loc 1 719 10 is_stmt 0 view .LVU1015
 2872 0016 0E4E     		ldr	r6, .L172
 2873 0018 0496     		str	r6, [sp, #16]
 721:Middlewares/ST/BlueNRG-MS/hci/hci_le.c ****   rq.clen = LE_READ_CHANNEL_MAP_CP_SIZE;
 2874              		.loc 1 721 3 is_stmt 1 view .LVU1016
 709:Middlewares/ST/BlueNRG-MS/hci/hci_le.c ****   struct hci_request rq;
 2875              		.loc 1 709 1 is_stmt 0 view .LVU1017
 2876 001a 0C46     		mov	r4, r1
 721:Middlewares/ST/BlueNRG-MS/hci/hci_le.c ****   rq.clen = LE_READ_CHANNEL_MAP_CP_SIZE;
 2877              		.loc 1 721 13 view .LVU1018
 2878 001c 01AD     		add	r5, sp, #4
 724:Middlewares/ST/BlueNRG-MS/hci/hci_le.c ****   rq.rlen = LE_READ_CHANNEL_MAP_RP_SIZE;
ARM GAS  /tmp/ccCJ9vpL.s 			page 72


 725:Middlewares/ST/BlueNRG-MS/hci/hci_le.c ****   
 726:Middlewares/ST/BlueNRG-MS/hci/hci_le.c ****   if (hci_send_req(&rq, FALSE) < 0){
 2879              		.loc 1 726 7 view .LVU1019
 2880 001e 1946     		mov	r1, r3
 2881              	.LVL129:
 2882              		.loc 1 726 7 view .LVU1020
 2883 0020 04A8     		add	r0, sp, #16
 2884              	.LVL130:
 724:Middlewares/ST/BlueNRG-MS/hci/hci_le.c ****   rq.rlen = LE_READ_CHANNEL_MAP_RP_SIZE;
 2885              		.loc 1 724 11 view .LVU1021
 2886 0022 0823     		movs	r3, #8
 722:Middlewares/ST/BlueNRG-MS/hci/hci_le.c ****   rq.rparam = &resp;
 2887              		.loc 1 722 11 view .LVU1022
 2888 0024 CDE90652 		strd	r5, r2, [sp, #24]
 723:Middlewares/ST/BlueNRG-MS/hci/hci_le.c ****   rq.rlen = LE_READ_CHANNEL_MAP_RP_SIZE;
 2889              		.loc 1 723 3 is_stmt 1 view .LVU1023
 724:Middlewares/ST/BlueNRG-MS/hci/hci_le.c ****   rq.rlen = LE_READ_CHANNEL_MAP_RP_SIZE;
 2890              		.loc 1 724 3 view .LVU1024
 724:Middlewares/ST/BlueNRG-MS/hci/hci_le.c ****   rq.rlen = LE_READ_CHANNEL_MAP_RP_SIZE;
 2891              		.loc 1 724 11 is_stmt 0 view .LVU1025
 2892 0028 0993     		str	r3, [sp, #36]
 2893              		.loc 1 726 3 is_stmt 1 view .LVU1026
 2894              		.loc 1 726 7 is_stmt 0 view .LVU1027
 2895 002a FFF7FEFF 		bl	hci_send_req
 2896              	.LVL131:
 2897              		.loc 1 726 6 view .LVU1028
 2898 002e 0028     		cmp	r0, #0
 2899 0030 0ADB     		blt	.L170
 727:Middlewares/ST/BlueNRG-MS/hci/hci_le.c ****     return BLE_STATUS_TIMEOUT;
 728:Middlewares/ST/BlueNRG-MS/hci/hci_le.c ****   }
 729:Middlewares/ST/BlueNRG-MS/hci/hci_le.c ****   
 730:Middlewares/ST/BlueNRG-MS/hci/hci_le.c ****   if (resp.status) {
 2900              		.loc 1 730 3 is_stmt 1 view .LVU1029
 2901              		.loc 1 730 11 is_stmt 0 view .LVU1030
 2902 0032 9DF80800 		ldrb	r0, [sp, #8]	@ zero_extendqisi2
 2903              		.loc 1 730 6 view .LVU1031
 2904 0036 28B9     		cbnz	r0, .L167
 731:Middlewares/ST/BlueNRG-MS/hci/hci_le.c ****     return resp.status;
 732:Middlewares/ST/BlueNRG-MS/hci/hci_le.c ****   }
 733:Middlewares/ST/BlueNRG-MS/hci/hci_le.c ****   
 734:Middlewares/ST/BlueNRG-MS/hci/hci_le.c ****   BLUENRG_memcpy(ch_map, resp.map, 5);
 2905              		.loc 1 734 3 is_stmt 1 view .LVU1032
 2906 0038 DDF80B20 		ldr	r2, [sp, #11]	@ unaligned
 2907 003c 9DF80F30 		ldrb	r3, [sp, #15]	@ zero_extendqisi2
 2908 0040 2260     		str	r2, [r4]	@ unaligned
 2909 0042 2371     		strb	r3, [r4, #4]
 735:Middlewares/ST/BlueNRG-MS/hci/hci_le.c ****   
 736:Middlewares/ST/BlueNRG-MS/hci/hci_le.c ****   return 0;
 2910              		.loc 1 736 3 view .LVU1033
 2911              	.L167:
 737:Middlewares/ST/BlueNRG-MS/hci/hci_le.c **** }
 2912              		.loc 1 737 1 is_stmt 0 view .LVU1034
 2913 0044 0AB0     		add	sp, sp, #40
 2914              	.LCFI102:
 2915              		.cfi_remember_state
 2916              		.cfi_def_cfa_offset 16
 2917              		@ sp needed
ARM GAS  /tmp/ccCJ9vpL.s 			page 73


 2918 0046 70BD     		pop	{r4, r5, r6, pc}
 2919              	.LVL132:
 2920              	.L170:
 2921              	.LCFI103:
 2922              		.cfi_restore_state
 727:Middlewares/ST/BlueNRG-MS/hci/hci_le.c ****   }
 2923              		.loc 1 727 12 view .LVU1035
 2924 0048 FF20     		movs	r0, #255
 2925              		.loc 1 737 1 view .LVU1036
 2926 004a 0AB0     		add	sp, sp, #40
 2927              	.LCFI104:
 2928              		.cfi_def_cfa_offset 16
 2929              		@ sp needed
 2930 004c 70BD     		pop	{r4, r5, r6, pc}
 2931              	.LVL133:
 2932              	.L173:
 2933              		.loc 1 737 1 view .LVU1037
 2934 004e 00BF     		.align	2
 2935              	.L172:
 2936 0050 08001500 		.word	1376264
 2937              		.cfi_endproc
 2938              	.LFE156:
 2940              		.section	.text.hci_le_read_supported_states,"ax",%progbits
 2941              		.align	1
 2942              		.p2align 2,,3
 2943              		.global	hci_le_read_supported_states
 2944              		.syntax unified
 2945              		.thumb
 2946              		.thumb_func
 2947              		.fpu fpv4-sp-d16
 2949              	hci_le_read_supported_states:
 2950              	.LVL134:
 2951              	.LFB157:
 738:Middlewares/ST/BlueNRG-MS/hci/hci_le.c **** 
 739:Middlewares/ST/BlueNRG-MS/hci/hci_le.c **** int hci_le_read_supported_states(uint8_t states[8])
 740:Middlewares/ST/BlueNRG-MS/hci/hci_le.c **** {
 2952              		.loc 1 740 1 is_stmt 1 view -0
 2953              		.cfi_startproc
 2954              		@ args = 0, pretend = 0, frame = 40
 2955              		@ frame_needed = 0, uses_anonymous_args = 0
 741:Middlewares/ST/BlueNRG-MS/hci/hci_le.c ****   struct hci_request rq;
 2956              		.loc 1 741 3 view .LVU1039
 742:Middlewares/ST/BlueNRG-MS/hci/hci_le.c ****   le_read_supported_states_rp resp;
 2957              		.loc 1 742 3 view .LVU1040
 743:Middlewares/ST/BlueNRG-MS/hci/hci_le.c ****   
 744:Middlewares/ST/BlueNRG-MS/hci/hci_le.c ****   BLUENRG_memset(&resp, 0, sizeof(resp));
 2958              		.loc 1 744 3 view .LVU1041
 740:Middlewares/ST/BlueNRG-MS/hci/hci_le.c ****   struct hci_request rq;
 2959              		.loc 1 740 1 is_stmt 0 view .LVU1042
 2960 0000 10B5     		push	{r4, lr}
 2961              	.LCFI105:
 2962              		.cfi_def_cfa_offset 8
 2963              		.cfi_offset 4, -8
 2964              		.cfi_offset 14, -4
 2965 0002 8AB0     		sub	sp, sp, #40
 2966              	.LCFI106:
 2967              		.cfi_def_cfa_offset 48
ARM GAS  /tmp/ccCJ9vpL.s 			page 74


 2968              		.loc 1 744 3 view .LVU1043
 2969 0004 01AB     		add	r3, sp, #4
 2970 0006 0021     		movs	r1, #0
 745:Middlewares/ST/BlueNRG-MS/hci/hci_le.c ****   
 746:Middlewares/ST/BlueNRG-MS/hci/hci_le.c ****   BLUENRG_memset(&rq, 0, sizeof(rq));
 747:Middlewares/ST/BlueNRG-MS/hci/hci_le.c ****   rq.ogf = OGF_LE_CTL;
 2971              		.loc 1 747 10 view .LVU1044
 2972 0008 0F4A     		ldr	r2, .L179
 748:Middlewares/ST/BlueNRG-MS/hci/hci_le.c ****   rq.ocf = OCF_LE_READ_SUPPORTED_STATES;
 749:Middlewares/ST/BlueNRG-MS/hci/hci_le.c ****   rq.rparam = &resp;
 2973              		.loc 1 749 13 view .LVU1045
 2974 000a 0893     		str	r3, [sp, #32]
 740:Middlewares/ST/BlueNRG-MS/hci/hci_le.c ****   struct hci_request rq;
 2975              		.loc 1 740 1 view .LVU1046
 2976 000c 0446     		mov	r4, r0
 750:Middlewares/ST/BlueNRG-MS/hci/hci_le.c ****   rq.rlen = LE_READ_SUPPORTED_STATES_RP_SIZE;
 2977              		.loc 1 750 11 view .LVU1047
 2978 000e 0923     		movs	r3, #9
 751:Middlewares/ST/BlueNRG-MS/hci/hci_le.c ****   
 752:Middlewares/ST/BlueNRG-MS/hci/hci_le.c ****   if (hci_send_req(&rq, FALSE) < 0){
 2979              		.loc 1 752 7 view .LVU1048
 2980 0010 04A8     		add	r0, sp, #16
 2981              	.LVL135:
 744:Middlewares/ST/BlueNRG-MS/hci/hci_le.c ****   
 2982              		.loc 1 744 3 view .LVU1049
 2983 0012 CDE90111 		strd	r1, r1, [sp, #4]
 746:Middlewares/ST/BlueNRG-MS/hci/hci_le.c ****   rq.ogf = OGF_LE_CTL;
 2984              		.loc 1 746 3 view .LVU1050
 2985 0016 CDE90511 		strd	r1, r1, [sp, #20]
 744:Middlewares/ST/BlueNRG-MS/hci/hci_le.c ****   
 2986              		.loc 1 744 3 view .LVU1051
 2987 001a 8DF80C10 		strb	r1, [sp, #12]
 746:Middlewares/ST/BlueNRG-MS/hci/hci_le.c ****   rq.ogf = OGF_LE_CTL;
 2988              		.loc 1 746 3 is_stmt 1 view .LVU1052
 2989 001e 0791     		str	r1, [sp, #28]
 747:Middlewares/ST/BlueNRG-MS/hci/hci_le.c ****   rq.ocf = OCF_LE_READ_SUPPORTED_STATES;
 2990              		.loc 1 747 3 view .LVU1053
 748:Middlewares/ST/BlueNRG-MS/hci/hci_le.c ****   rq.rparam = &resp;
 2991              		.loc 1 748 3 view .LVU1054
 747:Middlewares/ST/BlueNRG-MS/hci/hci_le.c ****   rq.ocf = OCF_LE_READ_SUPPORTED_STATES;
 2992              		.loc 1 747 10 is_stmt 0 view .LVU1055
 2993 0020 0492     		str	r2, [sp, #16]
 749:Middlewares/ST/BlueNRG-MS/hci/hci_le.c ****   rq.rlen = LE_READ_SUPPORTED_STATES_RP_SIZE;
 2994              		.loc 1 749 3 is_stmt 1 view .LVU1056
 750:Middlewares/ST/BlueNRG-MS/hci/hci_le.c ****   
 2995              		.loc 1 750 3 view .LVU1057
 750:Middlewares/ST/BlueNRG-MS/hci/hci_le.c ****   
 2996              		.loc 1 750 11 is_stmt 0 view .LVU1058
 2997 0022 0993     		str	r3, [sp, #36]
 2998              		.loc 1 752 3 is_stmt 1 view .LVU1059
 2999              		.loc 1 752 7 is_stmt 0 view .LVU1060
 3000 0024 FFF7FEFF 		bl	hci_send_req
 3001              	.LVL136:
 3002              		.loc 1 752 6 view .LVU1061
 3003 0028 0028     		cmp	r0, #0
 3004 002a 0ADB     		blt	.L177
 753:Middlewares/ST/BlueNRG-MS/hci/hci_le.c ****     return BLE_STATUS_TIMEOUT;
ARM GAS  /tmp/ccCJ9vpL.s 			page 75


 754:Middlewares/ST/BlueNRG-MS/hci/hci_le.c ****   }
 755:Middlewares/ST/BlueNRG-MS/hci/hci_le.c ****   
 756:Middlewares/ST/BlueNRG-MS/hci/hci_le.c ****   if (resp.status) {
 3005              		.loc 1 756 3 is_stmt 1 view .LVU1062
 3006              		.loc 1 756 11 is_stmt 0 view .LVU1063
 3007 002c 9DF80400 		ldrb	r0, [sp, #4]	@ zero_extendqisi2
 3008              		.loc 1 756 6 view .LVU1064
 3009 0030 28B9     		cbnz	r0, .L174
 757:Middlewares/ST/BlueNRG-MS/hci/hci_le.c ****     return resp.status;
 758:Middlewares/ST/BlueNRG-MS/hci/hci_le.c ****   }
 759:Middlewares/ST/BlueNRG-MS/hci/hci_le.c ****   
 760:Middlewares/ST/BlueNRG-MS/hci/hci_le.c ****   BLUENRG_memcpy(states, resp.states, 8);
 3010              		.loc 1 760 3 is_stmt 1 view .LVU1065
 3011 0032 DDF80510 		ldr	r1, [sp, #5]	@ unaligned
 3012 0036 DDF80920 		ldr	r2, [sp, #9]	@ unaligned
 3013 003a 2160     		str	r1, [r4]	@ unaligned
 3014 003c 6260     		str	r2, [r4, #4]	@ unaligned
 761:Middlewares/ST/BlueNRG-MS/hci/hci_le.c ****   
 762:Middlewares/ST/BlueNRG-MS/hci/hci_le.c ****   return 0;
 3015              		.loc 1 762 3 view .LVU1066
 3016              	.L174:
 763:Middlewares/ST/BlueNRG-MS/hci/hci_le.c **** }
 3017              		.loc 1 763 1 is_stmt 0 view .LVU1067
 3018 003e 0AB0     		add	sp, sp, #40
 3019              	.LCFI107:
 3020              		.cfi_remember_state
 3021              		.cfi_def_cfa_offset 8
 3022              		@ sp needed
 3023 0040 10BD     		pop	{r4, pc}
 3024              	.LVL137:
 3025              	.L177:
 3026              	.LCFI108:
 3027              		.cfi_restore_state
 753:Middlewares/ST/BlueNRG-MS/hci/hci_le.c ****   }
 3028              		.loc 1 753 12 view .LVU1068
 3029 0042 FF20     		movs	r0, #255
 3030              		.loc 1 763 1 view .LVU1069
 3031 0044 0AB0     		add	sp, sp, #40
 3032              	.LCFI109:
 3033              		.cfi_def_cfa_offset 8
 3034              		@ sp needed
 3035 0046 10BD     		pop	{r4, pc}
 3036              	.LVL138:
 3037              	.L180:
 3038              		.loc 1 763 1 view .LVU1070
 3039              		.align	2
 3040              	.L179:
 3041 0048 08001C00 		.word	1835016
 3042              		.cfi_endproc
 3043              	.LFE157:
 3045              		.section	.text.hci_le_receiver_test,"ax",%progbits
 3046              		.align	1
 3047              		.p2align 2,,3
 3048              		.global	hci_le_receiver_test
 3049              		.syntax unified
 3050              		.thumb
 3051              		.thumb_func
ARM GAS  /tmp/ccCJ9vpL.s 			page 76


 3052              		.fpu fpv4-sp-d16
 3054              	hci_le_receiver_test:
 3055              	.LVL139:
 3056              	.LFB158:
 764:Middlewares/ST/BlueNRG-MS/hci/hci_le.c **** 
 765:Middlewares/ST/BlueNRG-MS/hci/hci_le.c **** int hci_le_receiver_test(uint8_t frequency)
 766:Middlewares/ST/BlueNRG-MS/hci/hci_le.c **** {
 3057              		.loc 1 766 1 is_stmt 1 view -0
 3058              		.cfi_startproc
 3059              		@ args = 0, pretend = 0, frame = 32
 3060              		@ frame_needed = 0, uses_anonymous_args = 0
 767:Middlewares/ST/BlueNRG-MS/hci/hci_le.c ****   struct hci_request rq;
 3061              		.loc 1 767 3 view .LVU1072
 768:Middlewares/ST/BlueNRG-MS/hci/hci_le.c ****   le_receiver_test_cp params;
 3062              		.loc 1 768 3 view .LVU1073
 769:Middlewares/ST/BlueNRG-MS/hci/hci_le.c ****   uint8_t status;
 3063              		.loc 1 769 3 view .LVU1074
 770:Middlewares/ST/BlueNRG-MS/hci/hci_le.c ****   
 771:Middlewares/ST/BlueNRG-MS/hci/hci_le.c ****   params.frequency = frequency;
 3064              		.loc 1 771 3 view .LVU1075
 766:Middlewares/ST/BlueNRG-MS/hci/hci_le.c ****   struct hci_request rq;
 3065              		.loc 1 766 1 is_stmt 0 view .LVU1076
 3066 0000 30B5     		push	{r4, r5, lr}
 3067              	.LCFI110:
 3068              		.cfi_def_cfa_offset 12
 3069              		.cfi_offset 4, -12
 3070              		.cfi_offset 5, -8
 3071              		.cfi_offset 14, -4
 3072 0002 89B0     		sub	sp, sp, #36
 3073              	.LCFI111:
 3074              		.cfi_def_cfa_offset 48
 772:Middlewares/ST/BlueNRG-MS/hci/hci_le.c ****   
 773:Middlewares/ST/BlueNRG-MS/hci/hci_le.c ****   BLUENRG_memset(&rq, 0, sizeof(rq));
 774:Middlewares/ST/BlueNRG-MS/hci/hci_le.c ****   rq.ogf = OGF_LE_CTL;
 775:Middlewares/ST/BlueNRG-MS/hci/hci_le.c ****   rq.ocf = OCF_LE_RECEIVER_TEST;
 776:Middlewares/ST/BlueNRG-MS/hci/hci_le.c ****   rq.cparam = &params;
 777:Middlewares/ST/BlueNRG-MS/hci/hci_le.c ****   rq.clen = LE_RECEIVER_TEST_CP_SIZE;
 3075              		.loc 1 777 11 view .LVU1077
 3076 0004 0123     		movs	r3, #1
 773:Middlewares/ST/BlueNRG-MS/hci/hci_le.c ****   rq.ogf = OGF_LE_CTL;
 3077              		.loc 1 773 3 view .LVU1078
 3078 0006 0021     		movs	r1, #0
 771:Middlewares/ST/BlueNRG-MS/hci/hci_le.c ****   
 3079              		.loc 1 771 20 view .LVU1079
 3080 0008 8DF80400 		strb	r0, [sp, #4]
 773:Middlewares/ST/BlueNRG-MS/hci/hci_le.c ****   rq.ogf = OGF_LE_CTL;
 3081              		.loc 1 773 3 is_stmt 1 view .LVU1080
 778:Middlewares/ST/BlueNRG-MS/hci/hci_le.c ****   rq.rparam = &status;
 3082              		.loc 1 778 13 is_stmt 0 view .LVU1081
 3083 000c 0DF10702 		add	r2, sp, #7
 774:Middlewares/ST/BlueNRG-MS/hci/hci_le.c ****   rq.ocf = OCF_LE_RECEIVER_TEST;
 3084              		.loc 1 774 10 view .LVU1082
 3085 0010 084D     		ldr	r5, .L185
 773:Middlewares/ST/BlueNRG-MS/hci/hci_le.c ****   rq.ogf = OGF_LE_CTL;
 3086              		.loc 1 773 3 view .LVU1083
 3087 0012 0391     		str	r1, [sp, #12]
 774:Middlewares/ST/BlueNRG-MS/hci/hci_le.c ****   rq.ocf = OCF_LE_RECEIVER_TEST;
ARM GAS  /tmp/ccCJ9vpL.s 			page 77


 3088              		.loc 1 774 3 is_stmt 1 view .LVU1084
 775:Middlewares/ST/BlueNRG-MS/hci/hci_le.c ****   rq.cparam = &params;
 3089              		.loc 1 775 3 view .LVU1085
 776:Middlewares/ST/BlueNRG-MS/hci/hci_le.c ****   rq.clen = LE_RECEIVER_TEST_CP_SIZE;
 3090              		.loc 1 776 13 is_stmt 0 view .LVU1086
 3091 0014 01AC     		add	r4, sp, #4
 779:Middlewares/ST/BlueNRG-MS/hci/hci_le.c ****   rq.rlen = 1;
 780:Middlewares/ST/BlueNRG-MS/hci/hci_le.c ****   
 781:Middlewares/ST/BlueNRG-MS/hci/hci_le.c ****   if (hci_send_req(&rq, FALSE) < 0){
 3092              		.loc 1 781 7 view .LVU1087
 3093 0016 02A8     		add	r0, sp, #8
 3094              	.LVL140:
 777:Middlewares/ST/BlueNRG-MS/hci/hci_le.c ****   rq.rparam = &status;
 3095              		.loc 1 777 11 view .LVU1088
 3096 0018 CDE90443 		strd	r4, r3, [sp, #16]
 778:Middlewares/ST/BlueNRG-MS/hci/hci_le.c ****   rq.rlen = 1;
 3097              		.loc 1 778 13 view .LVU1089
 3098 001c CDE90623 		strd	r2, r3, [sp, #24]
 774:Middlewares/ST/BlueNRG-MS/hci/hci_le.c ****   rq.ocf = OCF_LE_RECEIVER_TEST;
 3099              		.loc 1 774 10 view .LVU1090
 3100 0020 0295     		str	r5, [sp, #8]
 776:Middlewares/ST/BlueNRG-MS/hci/hci_le.c ****   rq.clen = LE_RECEIVER_TEST_CP_SIZE;
 3101              		.loc 1 776 3 is_stmt 1 view .LVU1091
 778:Middlewares/ST/BlueNRG-MS/hci/hci_le.c ****   rq.rlen = 1;
 3102              		.loc 1 778 3 view .LVU1092
 779:Middlewares/ST/BlueNRG-MS/hci/hci_le.c ****   
 3103              		.loc 1 779 3 view .LVU1093
 3104              		.loc 1 781 3 view .LVU1094
 3105              		.loc 1 781 7 is_stmt 0 view .LVU1095
 3106 0022 FFF7FEFF 		bl	hci_send_req
 3107              	.LVL141:
 3108              		.loc 1 781 6 view .LVU1096
 3109 0026 0028     		cmp	r0, #0
 782:Middlewares/ST/BlueNRG-MS/hci/hci_le.c ****     return BLE_STATUS_TIMEOUT;
 783:Middlewares/ST/BlueNRG-MS/hci/hci_le.c ****   }
 784:Middlewares/ST/BlueNRG-MS/hci/hci_le.c ****   
 785:Middlewares/ST/BlueNRG-MS/hci/hci_le.c ****   return status;
 3110              		.loc 1 785 3 is_stmt 1 view .LVU1097
 3111              		.loc 1 785 10 is_stmt 0 view .LVU1098
 3112 0028 ACBF     		ite	ge
 3113 002a 9DF80700 		ldrbge	r0, [sp, #7]	@ zero_extendqisi2
 782:Middlewares/ST/BlueNRG-MS/hci/hci_le.c ****     return BLE_STATUS_TIMEOUT;
 3114              		.loc 1 782 12 view .LVU1099
 3115 002e FF20     		movlt	r0, #255
 786:Middlewares/ST/BlueNRG-MS/hci/hci_le.c **** }
 3116              		.loc 1 786 1 view .LVU1100
 3117 0030 09B0     		add	sp, sp, #36
 3118              	.LCFI112:
 3119              		.cfi_def_cfa_offset 12
 3120              		@ sp needed
 3121 0032 30BD     		pop	{r4, r5, pc}
 3122              	.L186:
 3123              		.align	2
 3124              	.L185:
 3125 0034 08001D00 		.word	1900552
 3126              		.cfi_endproc
 3127              	.LFE158:
ARM GAS  /tmp/ccCJ9vpL.s 			page 78


 3129              		.section	.text.hci_le_transmitter_test,"ax",%progbits
 3130              		.align	1
 3131              		.p2align 2,,3
 3132              		.global	hci_le_transmitter_test
 3133              		.syntax unified
 3134              		.thumb
 3135              		.thumb_func
 3136              		.fpu fpv4-sp-d16
 3138              	hci_le_transmitter_test:
 3139              	.LVL142:
 3140              	.LFB159:
 787:Middlewares/ST/BlueNRG-MS/hci/hci_le.c **** 
 788:Middlewares/ST/BlueNRG-MS/hci/hci_le.c **** int hci_le_transmitter_test(uint8_t frequency, uint8_t length, uint8_t payload)
 789:Middlewares/ST/BlueNRG-MS/hci/hci_le.c **** {
 3141              		.loc 1 789 1 is_stmt 1 view -0
 3142              		.cfi_startproc
 3143              		@ args = 0, pretend = 0, frame = 32
 3144              		@ frame_needed = 0, uses_anonymous_args = 0
 790:Middlewares/ST/BlueNRG-MS/hci/hci_le.c ****   struct hci_request rq;
 3145              		.loc 1 790 3 view .LVU1102
 791:Middlewares/ST/BlueNRG-MS/hci/hci_le.c ****   le_transmitter_test_cp params;
 3146              		.loc 1 791 3 view .LVU1103
 792:Middlewares/ST/BlueNRG-MS/hci/hci_le.c ****   uint8_t status;
 3147              		.loc 1 792 3 view .LVU1104
 793:Middlewares/ST/BlueNRG-MS/hci/hci_le.c ****   
 794:Middlewares/ST/BlueNRG-MS/hci/hci_le.c ****   params.frequency = frequency;
 3148              		.loc 1 794 3 view .LVU1105
 789:Middlewares/ST/BlueNRG-MS/hci/hci_le.c ****   struct hci_request rq;
 3149              		.loc 1 789 1 is_stmt 0 view .LVU1106
 3150 0000 70B5     		push	{r4, r5, r6, lr}
 3151              	.LCFI113:
 3152              		.cfi_def_cfa_offset 16
 3153              		.cfi_offset 4, -16
 3154              		.cfi_offset 5, -12
 3155              		.cfi_offset 6, -8
 3156              		.cfi_offset 14, -4
 3157 0002 88B0     		sub	sp, sp, #32
 3158              	.LCFI114:
 3159              		.cfi_def_cfa_offset 48
 789:Middlewares/ST/BlueNRG-MS/hci/hci_le.c ****   struct hci_request rq;
 3160              		.loc 1 789 1 view .LVU1107
 3161 0004 0C46     		mov	r4, r1
 795:Middlewares/ST/BlueNRG-MS/hci/hci_le.c ****   params.length = length;
 796:Middlewares/ST/BlueNRG-MS/hci/hci_le.c ****   params.payload = payload;
 797:Middlewares/ST/BlueNRG-MS/hci/hci_le.c ****   
 798:Middlewares/ST/BlueNRG-MS/hci/hci_le.c ****   BLUENRG_memset(&rq, 0, sizeof(rq));
 3162              		.loc 1 798 3 view .LVU1108
 3163 0006 0023     		movs	r3, #0
 795:Middlewares/ST/BlueNRG-MS/hci/hci_le.c ****   params.length = length;
 3164              		.loc 1 795 17 view .LVU1109
 3165 0008 8DF80540 		strb	r4, [sp, #5]
 799:Middlewares/ST/BlueNRG-MS/hci/hci_le.c ****   rq.ogf = OGF_LE_CTL;
 800:Middlewares/ST/BlueNRG-MS/hci/hci_le.c ****   rq.ocf = OCF_LE_TRANSMITTER_TEST;
 801:Middlewares/ST/BlueNRG-MS/hci/hci_le.c ****   rq.cparam = &params;
 802:Middlewares/ST/BlueNRG-MS/hci/hci_le.c ****   rq.clen = LE_TRANSMITTER_TEST_CP_SIZE;
 3166              		.loc 1 802 11 view .LVU1110
 3167 000c 0324     		movs	r4, #3
ARM GAS  /tmp/ccCJ9vpL.s 			page 79


 803:Middlewares/ST/BlueNRG-MS/hci/hci_le.c ****   rq.rparam = &status;
 804:Middlewares/ST/BlueNRG-MS/hci/hci_le.c ****   rq.rlen = 1;
 805:Middlewares/ST/BlueNRG-MS/hci/hci_le.c ****   
 806:Middlewares/ST/BlueNRG-MS/hci/hci_le.c ****   if (hci_send_req(&rq, FALSE) < 0){
 3168              		.loc 1 806 7 view .LVU1111
 3169 000e 1946     		mov	r1, r3
 3170              	.LVL143:
 794:Middlewares/ST/BlueNRG-MS/hci/hci_le.c ****   params.length = length;
 3171              		.loc 1 794 20 view .LVU1112
 3172 0010 8DF80400 		strb	r0, [sp, #4]
 795:Middlewares/ST/BlueNRG-MS/hci/hci_le.c ****   params.payload = payload;
 3173              		.loc 1 795 3 is_stmt 1 view .LVU1113
 796:Middlewares/ST/BlueNRG-MS/hci/hci_le.c ****   
 3174              		.loc 1 796 3 view .LVU1114
 796:Middlewares/ST/BlueNRG-MS/hci/hci_le.c ****   
 3175              		.loc 1 796 18 is_stmt 0 view .LVU1115
 3176 0014 8DF80620 		strb	r2, [sp, #6]
 798:Middlewares/ST/BlueNRG-MS/hci/hci_le.c ****   rq.ogf = OGF_LE_CTL;
 3177              		.loc 1 798 3 is_stmt 1 view .LVU1116
 3178 0018 0393     		str	r3, [sp, #12]
 799:Middlewares/ST/BlueNRG-MS/hci/hci_le.c ****   rq.ocf = OCF_LE_TRANSMITTER_TEST;
 3179              		.loc 1 799 3 view .LVU1117
 800:Middlewares/ST/BlueNRG-MS/hci/hci_le.c ****   rq.cparam = &params;
 3180              		.loc 1 800 3 view .LVU1118
 803:Middlewares/ST/BlueNRG-MS/hci/hci_le.c ****   rq.rlen = 1;
 3181              		.loc 1 803 13 is_stmt 0 view .LVU1119
 3182 001a 0DEB0402 		add	r2, sp, r4
 3183              	.LVL144:
 804:Middlewares/ST/BlueNRG-MS/hci/hci_le.c ****   
 3184              		.loc 1 804 11 view .LVU1120
 3185 001e 0123     		movs	r3, #1
 799:Middlewares/ST/BlueNRG-MS/hci/hci_le.c ****   rq.ocf = OCF_LE_TRANSMITTER_TEST;
 3186              		.loc 1 799 10 view .LVU1121
 3187 0020 084E     		ldr	r6, .L191
 3188 0022 0296     		str	r6, [sp, #8]
 801:Middlewares/ST/BlueNRG-MS/hci/hci_le.c ****   rq.clen = LE_TRANSMITTER_TEST_CP_SIZE;
 3189              		.loc 1 801 3 is_stmt 1 view .LVU1122
 801:Middlewares/ST/BlueNRG-MS/hci/hci_le.c ****   rq.clen = LE_TRANSMITTER_TEST_CP_SIZE;
 3190              		.loc 1 801 13 is_stmt 0 view .LVU1123
 3191 0024 01AD     		add	r5, sp, #4
 3192              		.loc 1 806 7 view .LVU1124
 3193 0026 02A8     		add	r0, sp, #8
 3194              	.LVL145:
 802:Middlewares/ST/BlueNRG-MS/hci/hci_le.c ****   rq.rparam = &status;
 3195              		.loc 1 802 11 view .LVU1125
 3196 0028 CDE90454 		strd	r5, r4, [sp, #16]
 803:Middlewares/ST/BlueNRG-MS/hci/hci_le.c ****   rq.rlen = 1;
 3197              		.loc 1 803 3 is_stmt 1 view .LVU1126
 804:Middlewares/ST/BlueNRG-MS/hci/hci_le.c ****   
 3198              		.loc 1 804 11 is_stmt 0 view .LVU1127
 3199 002c CDE90623 		strd	r2, r3, [sp, #24]
 3200              		.loc 1 806 3 is_stmt 1 view .LVU1128
 3201              		.loc 1 806 7 is_stmt 0 view .LVU1129
 3202 0030 FFF7FEFF 		bl	hci_send_req
 3203              	.LVL146:
 3204              		.loc 1 806 6 view .LVU1130
 3205 0034 0028     		cmp	r0, #0
ARM GAS  /tmp/ccCJ9vpL.s 			page 80


 807:Middlewares/ST/BlueNRG-MS/hci/hci_le.c ****     return BLE_STATUS_TIMEOUT;
 808:Middlewares/ST/BlueNRG-MS/hci/hci_le.c ****   }
 809:Middlewares/ST/BlueNRG-MS/hci/hci_le.c ****   
 810:Middlewares/ST/BlueNRG-MS/hci/hci_le.c ****   return status;
 3206              		.loc 1 810 3 is_stmt 1 view .LVU1131
 3207              		.loc 1 810 10 is_stmt 0 view .LVU1132
 3208 0036 ACBF     		ite	ge
 3209 0038 9DF80300 		ldrbge	r0, [sp, #3]	@ zero_extendqisi2
 807:Middlewares/ST/BlueNRG-MS/hci/hci_le.c ****     return BLE_STATUS_TIMEOUT;
 3210              		.loc 1 807 12 view .LVU1133
 3211 003c FF20     		movlt	r0, #255
 811:Middlewares/ST/BlueNRG-MS/hci/hci_le.c **** }
 3212              		.loc 1 811 1 view .LVU1134
 3213 003e 08B0     		add	sp, sp, #32
 3214              	.LCFI115:
 3215              		.cfi_def_cfa_offset 16
 3216              		@ sp needed
 3217 0040 70BD     		pop	{r4, r5, r6, pc}
 3218              	.L192:
 3219 0042 00BF     		.align	2
 3220              	.L191:
 3221 0044 08001E00 		.word	1966088
 3222              		.cfi_endproc
 3223              	.LFE159:
 3225              		.section	.text.hci_le_test_end,"ax",%progbits
 3226              		.align	1
 3227              		.p2align 2,,3
 3228              		.global	hci_le_test_end
 3229              		.syntax unified
 3230              		.thumb
 3231              		.thumb_func
 3232              		.fpu fpv4-sp-d16
 3234              	hci_le_test_end:
 3235              	.LVL147:
 3236              	.LFB160:
 812:Middlewares/ST/BlueNRG-MS/hci/hci_le.c **** 
 813:Middlewares/ST/BlueNRG-MS/hci/hci_le.c **** int hci_le_test_end(uint16_t *num_pkts)
 814:Middlewares/ST/BlueNRG-MS/hci/hci_le.c **** {
 3237              		.loc 1 814 1 is_stmt 1 view -0
 3238              		.cfi_startproc
 3239              		@ args = 0, pretend = 0, frame = 32
 3240              		@ frame_needed = 0, uses_anonymous_args = 0
 815:Middlewares/ST/BlueNRG-MS/hci/hci_le.c ****   struct hci_request rq;
 3241              		.loc 1 815 3 view .LVU1136
 816:Middlewares/ST/BlueNRG-MS/hci/hci_le.c ****   le_test_end_rp resp;
 3242              		.loc 1 816 3 view .LVU1137
 817:Middlewares/ST/BlueNRG-MS/hci/hci_le.c ****   
 818:Middlewares/ST/BlueNRG-MS/hci/hci_le.c ****   BLUENRG_memset(&resp, 0, sizeof(resp));
 3243              		.loc 1 818 3 view .LVU1138
 814:Middlewares/ST/BlueNRG-MS/hci/hci_le.c ****   struct hci_request rq;
 3244              		.loc 1 814 1 is_stmt 0 view .LVU1139
 3245 0000 10B5     		push	{r4, lr}
 3246              	.LCFI116:
 3247              		.cfi_def_cfa_offset 8
 3248              		.cfi_offset 4, -8
 3249              		.cfi_offset 14, -4
 3250 0002 88B0     		sub	sp, sp, #32
ARM GAS  /tmp/ccCJ9vpL.s 			page 81


 3251              	.LCFI117:
 3252              		.cfi_def_cfa_offset 40
 3253              		.loc 1 818 3 view .LVU1140
 3254 0004 01AB     		add	r3, sp, #4
 3255 0006 0021     		movs	r1, #0
 819:Middlewares/ST/BlueNRG-MS/hci/hci_le.c ****   
 820:Middlewares/ST/BlueNRG-MS/hci/hci_le.c ****   BLUENRG_memset(&rq, 0, sizeof(rq));
 821:Middlewares/ST/BlueNRG-MS/hci/hci_le.c ****   rq.ogf = OGF_LE_CTL;
 3256              		.loc 1 821 10 view .LVU1141
 3257 0008 0E4A     		ldr	r2, .L198
 822:Middlewares/ST/BlueNRG-MS/hci/hci_le.c ****   rq.ocf = OCF_LE_TEST_END;
 823:Middlewares/ST/BlueNRG-MS/hci/hci_le.c ****   rq.rparam = &resp;
 3258              		.loc 1 823 13 view .LVU1142
 3259 000a 0693     		str	r3, [sp, #24]
 814:Middlewares/ST/BlueNRG-MS/hci/hci_le.c ****   struct hci_request rq;
 3260              		.loc 1 814 1 view .LVU1143
 3261 000c 0446     		mov	r4, r0
 824:Middlewares/ST/BlueNRG-MS/hci/hci_le.c ****   rq.rlen = LE_TEST_END_RP_SIZE;
 3262              		.loc 1 824 11 view .LVU1144
 3263 000e 0323     		movs	r3, #3
 825:Middlewares/ST/BlueNRG-MS/hci/hci_le.c ****   
 826:Middlewares/ST/BlueNRG-MS/hci/hci_le.c ****   if (hci_send_req(&rq, FALSE) < 0){
 3264              		.loc 1 826 7 view .LVU1145
 3265 0010 02A8     		add	r0, sp, #8
 3266              	.LVL148:
 820:Middlewares/ST/BlueNRG-MS/hci/hci_le.c ****   rq.ogf = OGF_LE_CTL;
 3267              		.loc 1 820 3 view .LVU1146
 3268 0012 CDE90311 		strd	r1, r1, [sp, #12]
 818:Middlewares/ST/BlueNRG-MS/hci/hci_le.c ****   
 3269              		.loc 1 818 3 view .LVU1147
 3270 0016 8DF80610 		strb	r1, [sp, #6]
 820:Middlewares/ST/BlueNRG-MS/hci/hci_le.c ****   rq.ogf = OGF_LE_CTL;
 3271              		.loc 1 820 3 is_stmt 1 view .LVU1148
 818:Middlewares/ST/BlueNRG-MS/hci/hci_le.c ****   
 3272              		.loc 1 818 3 is_stmt 0 view .LVU1149
 3273 001a ADF80410 		strh	r1, [sp, #4]	@ movhi
 820:Middlewares/ST/BlueNRG-MS/hci/hci_le.c ****   rq.ogf = OGF_LE_CTL;
 3274              		.loc 1 820 3 view .LVU1150
 3275 001e 0591     		str	r1, [sp, #20]
 821:Middlewares/ST/BlueNRG-MS/hci/hci_le.c ****   rq.ocf = OCF_LE_TEST_END;
 3276              		.loc 1 821 3 is_stmt 1 view .LVU1151
 822:Middlewares/ST/BlueNRG-MS/hci/hci_le.c ****   rq.rparam = &resp;
 3277              		.loc 1 822 3 view .LVU1152
 821:Middlewares/ST/BlueNRG-MS/hci/hci_le.c ****   rq.ocf = OCF_LE_TEST_END;
 3278              		.loc 1 821 10 is_stmt 0 view .LVU1153
 3279 0020 0292     		str	r2, [sp, #8]
 823:Middlewares/ST/BlueNRG-MS/hci/hci_le.c ****   rq.rlen = LE_TEST_END_RP_SIZE;
 3280              		.loc 1 823 3 is_stmt 1 view .LVU1154
 824:Middlewares/ST/BlueNRG-MS/hci/hci_le.c ****   
 3281              		.loc 1 824 3 view .LVU1155
 824:Middlewares/ST/BlueNRG-MS/hci/hci_le.c ****   
 3282              		.loc 1 824 11 is_stmt 0 view .LVU1156
 3283 0022 0793     		str	r3, [sp, #28]
 3284              		.loc 1 826 3 is_stmt 1 view .LVU1157
 3285              		.loc 1 826 7 is_stmt 0 view .LVU1158
 3286 0024 FFF7FEFF 		bl	hci_send_req
 3287              	.LVL149:
ARM GAS  /tmp/ccCJ9vpL.s 			page 82


 3288              		.loc 1 826 6 view .LVU1159
 3289 0028 0028     		cmp	r0, #0
 3290 002a 08DB     		blt	.L196
 827:Middlewares/ST/BlueNRG-MS/hci/hci_le.c ****     return BLE_STATUS_TIMEOUT;
 828:Middlewares/ST/BlueNRG-MS/hci/hci_le.c ****   }
 829:Middlewares/ST/BlueNRG-MS/hci/hci_le.c ****   
 830:Middlewares/ST/BlueNRG-MS/hci/hci_le.c ****   if (resp.status) {
 3291              		.loc 1 830 3 is_stmt 1 view .LVU1160
 3292              		.loc 1 830 11 is_stmt 0 view .LVU1161
 3293 002c 9DF80400 		ldrb	r0, [sp, #4]	@ zero_extendqisi2
 3294              		.loc 1 830 6 view .LVU1162
 3295 0030 18B9     		cbnz	r0, .L193
 831:Middlewares/ST/BlueNRG-MS/hci/hci_le.c ****     return resp.status;
 832:Middlewares/ST/BlueNRG-MS/hci/hci_le.c ****   }
 833:Middlewares/ST/BlueNRG-MS/hci/hci_le.c ****   
 834:Middlewares/ST/BlueNRG-MS/hci/hci_le.c ****   *num_pkts = resp.num_pkts;
 3296              		.loc 1 834 3 is_stmt 1 view .LVU1163
 3297              		.loc 1 834 19 is_stmt 0 view .LVU1164
 3298 0032 019A     		ldr	r2, [sp, #4]
 3299 0034 C2F30F22 		ubfx	r2, r2, #8, #16
 3300              		.loc 1 834 13 view .LVU1165
 3301 0038 2280     		strh	r2, [r4]	@ movhi
 835:Middlewares/ST/BlueNRG-MS/hci/hci_le.c ****   
 836:Middlewares/ST/BlueNRG-MS/hci/hci_le.c ****   return 0;
 3302              		.loc 1 836 3 is_stmt 1 view .LVU1166
 3303              	.L193:
 837:Middlewares/ST/BlueNRG-MS/hci/hci_le.c **** }
 3304              		.loc 1 837 1 is_stmt 0 view .LVU1167
 3305 003a 08B0     		add	sp, sp, #32
 3306              	.LCFI118:
 3307              		.cfi_remember_state
 3308              		.cfi_def_cfa_offset 8
 3309              		@ sp needed
 3310 003c 10BD     		pop	{r4, pc}
 3311              	.LVL150:
 3312              	.L196:
 3313              	.LCFI119:
 3314              		.cfi_restore_state
 827:Middlewares/ST/BlueNRG-MS/hci/hci_le.c ****   }
 3315              		.loc 1 827 12 view .LVU1168
 3316 003e FF20     		movs	r0, #255
 3317              		.loc 1 837 1 view .LVU1169
 3318 0040 08B0     		add	sp, sp, #32
 3319              	.LCFI120:
 3320              		.cfi_def_cfa_offset 8
 3321              		@ sp needed
 3322 0042 10BD     		pop	{r4, pc}
 3323              	.LVL151:
 3324              	.L199:
 3325              		.loc 1 837 1 view .LVU1170
 3326              		.align	2
 3327              	.L198:
 3328 0044 08001F00 		.word	2031624
 3329              		.cfi_endproc
 3330              	.LFE160:
 3332              		.text
 3333              	.Letext0:
ARM GAS  /tmp/ccCJ9vpL.s 			page 83


 3334              		.file 2 "/usr/lib/gcc/arm-none-eabi/9.2.1/include/stdint.h"
 3335              		.file 3 "Middlewares/ST/BlueNRG-MS/includes/link_layer.h"
 3336              		.file 4 "Drivers/CMSIS/Include/core_cm4.h"
 3337              		.file 5 "Drivers/CMSIS/Device/ST/STM32F4xx/Include/system_stm32f4xx.h"
 3338              		.file 6 "Drivers/CMSIS/Device/ST/STM32F4xx/Include/stm32f446xx.h"
 3339              		.file 7 "Drivers/STM32F4xx_HAL_Driver/Inc/stm32f4xx_hal_def.h"
 3340              		.file 8 "Drivers/STM32F4xx_HAL_Driver/Inc/stm32f4xx_hal_exti.h"
 3341              		.file 9 "Drivers/STM32F4xx_HAL_Driver/Inc/stm32f4xx_hal_dma.h"
 3342              		.file 10 "Drivers/STM32F4xx_HAL_Driver/Inc/stm32f4xx_hal_spi.h"
 3343              		.file 11 "Drivers/STM32F4xx_HAL_Driver/Inc/stm32f4xx_hal.h"
 3344              		.file 12 "Inc/stm32f4xx_nucleo_bus.h"
 3345              		.file 13 "Inc/hci_tl_interface.h"
 3346              		.file 14 "/usr/lib/gcc/arm-none-eabi/9.2.1/include/stddef.h"
 3347              		.file 15 "/usr/include/newlib/sys/_types.h"
 3348              		.file 16 "/usr/include/newlib/sys/reent.h"
 3349              		.file 17 "/usr/include/newlib/sys/lock.h"
 3350              		.file 18 "Middlewares/ST/BlueNRG-MS/hci/hci_tl_patterns/Basic/hci_tl.h"
 3351              		.file 19 "Middlewares/ST/BlueNRG-MS/includes/hci_const.h"
 3352              		.file 20 "<built-in>"
ARM GAS  /tmp/ccCJ9vpL.s 			page 84

