ARM GAS  /tmp/ccbSUABi.s 			page 1


   1              		.cpu cortex-m4
   2              		.eabi_attribute 27, 1
   3              		.eabi_attribute 28, 1
   4              		.eabi_attribute 20, 1
   5              		.eabi_attribute 21, 1
   6              		.eabi_attribute 23, 3
   7              		.eabi_attribute 24, 1
   8              		.eabi_attribute 25, 1
   9              		.eabi_attribute 26, 1
  10              		.eabi_attribute 30, 2
  11              		.eabi_attribute 34, 1
  12              		.eabi_attribute 18, 4
  13              		.file	"stm32f4xx_hal_rcc.c"
  14              		.text
  15              	.Ltext0:
  16              		.cfi_sections	.debug_frame
  17              		.section	.text.HAL_RCC_DeInit,"ax",%progbits
  18              		.align	1
  19              		.p2align 2,,3
  20              		.weak	HAL_RCC_DeInit
  21              		.arch armv7e-m
  22              		.syntax unified
  23              		.thumb
  24              		.thumb_func
  25              		.fpu fpv4-sp-d16
  27              	HAL_RCC_DeInit:
  28              	.LFB130:
  29              		.file 1 "Drivers/STM32F4xx_HAL_Driver/Src/stm32f4xx_hal_rcc.c"
   1:Drivers/STM32F4xx_HAL_Driver/Src/stm32f4xx_hal_rcc.c **** /**
   2:Drivers/STM32F4xx_HAL_Driver/Src/stm32f4xx_hal_rcc.c ****   ******************************************************************************
   3:Drivers/STM32F4xx_HAL_Driver/Src/stm32f4xx_hal_rcc.c ****   * @file    stm32f4xx_hal_rcc.c
   4:Drivers/STM32F4xx_HAL_Driver/Src/stm32f4xx_hal_rcc.c ****   * @author  MCD Application Team
   5:Drivers/STM32F4xx_HAL_Driver/Src/stm32f4xx_hal_rcc.c ****   * @brief   RCC HAL module driver.
   6:Drivers/STM32F4xx_HAL_Driver/Src/stm32f4xx_hal_rcc.c ****   *          This file provides firmware functions to manage the following
   7:Drivers/STM32F4xx_HAL_Driver/Src/stm32f4xx_hal_rcc.c ****   *          functionalities of the Reset and Clock Control (RCC) peripheral:
   8:Drivers/STM32F4xx_HAL_Driver/Src/stm32f4xx_hal_rcc.c ****   *           + Initialization and de-initialization functions
   9:Drivers/STM32F4xx_HAL_Driver/Src/stm32f4xx_hal_rcc.c ****   *           + Peripheral Control functions
  10:Drivers/STM32F4xx_HAL_Driver/Src/stm32f4xx_hal_rcc.c ****   *
  11:Drivers/STM32F4xx_HAL_Driver/Src/stm32f4xx_hal_rcc.c ****   @verbatim
  12:Drivers/STM32F4xx_HAL_Driver/Src/stm32f4xx_hal_rcc.c ****   ==============================================================================
  13:Drivers/STM32F4xx_HAL_Driver/Src/stm32f4xx_hal_rcc.c ****                       ##### RCC specific features #####
  14:Drivers/STM32F4xx_HAL_Driver/Src/stm32f4xx_hal_rcc.c ****   ==============================================================================
  15:Drivers/STM32F4xx_HAL_Driver/Src/stm32f4xx_hal_rcc.c ****     [..]
  16:Drivers/STM32F4xx_HAL_Driver/Src/stm32f4xx_hal_rcc.c ****       After reset the device is running from Internal High Speed oscillator
  17:Drivers/STM32F4xx_HAL_Driver/Src/stm32f4xx_hal_rcc.c ****       (HSI 16MHz) with Flash 0 wait state, Flash prefetch buffer, D-Cache
  18:Drivers/STM32F4xx_HAL_Driver/Src/stm32f4xx_hal_rcc.c ****       and I-Cache are disabled, and all peripherals are off except internal
  19:Drivers/STM32F4xx_HAL_Driver/Src/stm32f4xx_hal_rcc.c ****       SRAM, Flash and JTAG.
  20:Drivers/STM32F4xx_HAL_Driver/Src/stm32f4xx_hal_rcc.c ****       (+) There is no prescaler on High speed (AHB) and Low speed (APB) busses;
  21:Drivers/STM32F4xx_HAL_Driver/Src/stm32f4xx_hal_rcc.c ****           all peripherals mapped on these busses are running at HSI speed.
  22:Drivers/STM32F4xx_HAL_Driver/Src/stm32f4xx_hal_rcc.c ****       (+) The clock for all peripherals is switched off, except the SRAM and FLASH.
  23:Drivers/STM32F4xx_HAL_Driver/Src/stm32f4xx_hal_rcc.c ****       (+) All GPIOs are in input floating state, except the JTAG pins which
  24:Drivers/STM32F4xx_HAL_Driver/Src/stm32f4xx_hal_rcc.c ****           are assigned to be used for debug purpose.
  25:Drivers/STM32F4xx_HAL_Driver/Src/stm32f4xx_hal_rcc.c **** 
  26:Drivers/STM32F4xx_HAL_Driver/Src/stm32f4xx_hal_rcc.c ****     [..]
  27:Drivers/STM32F4xx_HAL_Driver/Src/stm32f4xx_hal_rcc.c ****       Once the device started from reset, the user application has to:
  28:Drivers/STM32F4xx_HAL_Driver/Src/stm32f4xx_hal_rcc.c ****       (+) Configure the clock source to be used to drive the System clock
  29:Drivers/STM32F4xx_HAL_Driver/Src/stm32f4xx_hal_rcc.c ****           (if the application needs higher frequency/performance)
ARM GAS  /tmp/ccbSUABi.s 			page 2


  30:Drivers/STM32F4xx_HAL_Driver/Src/stm32f4xx_hal_rcc.c ****       (+) Configure the System clock frequency and Flash settings
  31:Drivers/STM32F4xx_HAL_Driver/Src/stm32f4xx_hal_rcc.c ****       (+) Configure the AHB and APB busses prescalers
  32:Drivers/STM32F4xx_HAL_Driver/Src/stm32f4xx_hal_rcc.c ****       (+) Enable the clock for the peripheral(s) to be used
  33:Drivers/STM32F4xx_HAL_Driver/Src/stm32f4xx_hal_rcc.c ****       (+) Configure the clock source(s) for peripherals which clocks are not
  34:Drivers/STM32F4xx_HAL_Driver/Src/stm32f4xx_hal_rcc.c ****           derived from the System clock (I2S, RTC, ADC, USB OTG FS/SDIO/RNG)
  35:Drivers/STM32F4xx_HAL_Driver/Src/stm32f4xx_hal_rcc.c **** 
  36:Drivers/STM32F4xx_HAL_Driver/Src/stm32f4xx_hal_rcc.c ****                       ##### RCC Limitations #####
  37:Drivers/STM32F4xx_HAL_Driver/Src/stm32f4xx_hal_rcc.c ****   ==============================================================================
  38:Drivers/STM32F4xx_HAL_Driver/Src/stm32f4xx_hal_rcc.c ****     [..]
  39:Drivers/STM32F4xx_HAL_Driver/Src/stm32f4xx_hal_rcc.c ****       A delay between an RCC peripheral clock enable and the effective peripheral
  40:Drivers/STM32F4xx_HAL_Driver/Src/stm32f4xx_hal_rcc.c ****       enabling should be taken into account in order to manage the peripheral read/write
  41:Drivers/STM32F4xx_HAL_Driver/Src/stm32f4xx_hal_rcc.c ****       from/to registers.
  42:Drivers/STM32F4xx_HAL_Driver/Src/stm32f4xx_hal_rcc.c ****       (+) This delay depends on the peripheral mapping.
  43:Drivers/STM32F4xx_HAL_Driver/Src/stm32f4xx_hal_rcc.c ****       (+) If peripheral is mapped on AHB: the delay is 2 AHB clock cycle
  44:Drivers/STM32F4xx_HAL_Driver/Src/stm32f4xx_hal_rcc.c ****           after the clock enable bit is set on the hardware register
  45:Drivers/STM32F4xx_HAL_Driver/Src/stm32f4xx_hal_rcc.c ****       (+) If peripheral is mapped on APB: the delay is 2 APB clock cycle
  46:Drivers/STM32F4xx_HAL_Driver/Src/stm32f4xx_hal_rcc.c ****           after the clock enable bit is set on the hardware register
  47:Drivers/STM32F4xx_HAL_Driver/Src/stm32f4xx_hal_rcc.c **** 
  48:Drivers/STM32F4xx_HAL_Driver/Src/stm32f4xx_hal_rcc.c ****     [..]
  49:Drivers/STM32F4xx_HAL_Driver/Src/stm32f4xx_hal_rcc.c ****       Implemented Workaround:
  50:Drivers/STM32F4xx_HAL_Driver/Src/stm32f4xx_hal_rcc.c ****       (+) For AHB & APB peripherals, a dummy read to the peripheral register has been
  51:Drivers/STM32F4xx_HAL_Driver/Src/stm32f4xx_hal_rcc.c ****           inserted in each __HAL_RCC_PPP_CLK_ENABLE() macro.
  52:Drivers/STM32F4xx_HAL_Driver/Src/stm32f4xx_hal_rcc.c **** 
  53:Drivers/STM32F4xx_HAL_Driver/Src/stm32f4xx_hal_rcc.c ****   @endverbatim
  54:Drivers/STM32F4xx_HAL_Driver/Src/stm32f4xx_hal_rcc.c ****   ******************************************************************************
  55:Drivers/STM32F4xx_HAL_Driver/Src/stm32f4xx_hal_rcc.c ****   * @attention
  56:Drivers/STM32F4xx_HAL_Driver/Src/stm32f4xx_hal_rcc.c ****   *
  57:Drivers/STM32F4xx_HAL_Driver/Src/stm32f4xx_hal_rcc.c ****   * <h2><center>&copy; Copyright (c) 2017 STMicroelectronics.
  58:Drivers/STM32F4xx_HAL_Driver/Src/stm32f4xx_hal_rcc.c ****   * All rights reserved.</center></h2>
  59:Drivers/STM32F4xx_HAL_Driver/Src/stm32f4xx_hal_rcc.c ****   *
  60:Drivers/STM32F4xx_HAL_Driver/Src/stm32f4xx_hal_rcc.c ****   * This software component is licensed by ST under BSD 3-Clause license,
  61:Drivers/STM32F4xx_HAL_Driver/Src/stm32f4xx_hal_rcc.c ****   * the "License"; You may not use this file except in compliance with the
  62:Drivers/STM32F4xx_HAL_Driver/Src/stm32f4xx_hal_rcc.c ****   * License. You may obtain a copy of the License at:
  63:Drivers/STM32F4xx_HAL_Driver/Src/stm32f4xx_hal_rcc.c ****   *                        opensource.org/licenses/BSD-3-Clause
  64:Drivers/STM32F4xx_HAL_Driver/Src/stm32f4xx_hal_rcc.c ****   *
  65:Drivers/STM32F4xx_HAL_Driver/Src/stm32f4xx_hal_rcc.c ****   ******************************************************************************
  66:Drivers/STM32F4xx_HAL_Driver/Src/stm32f4xx_hal_rcc.c ****   */
  67:Drivers/STM32F4xx_HAL_Driver/Src/stm32f4xx_hal_rcc.c **** 
  68:Drivers/STM32F4xx_HAL_Driver/Src/stm32f4xx_hal_rcc.c **** /* Includes ------------------------------------------------------------------*/
  69:Drivers/STM32F4xx_HAL_Driver/Src/stm32f4xx_hal_rcc.c **** #include "stm32f4xx_hal.h"
  70:Drivers/STM32F4xx_HAL_Driver/Src/stm32f4xx_hal_rcc.c **** 
  71:Drivers/STM32F4xx_HAL_Driver/Src/stm32f4xx_hal_rcc.c **** /** @addtogroup STM32F4xx_HAL_Driver
  72:Drivers/STM32F4xx_HAL_Driver/Src/stm32f4xx_hal_rcc.c ****   * @{
  73:Drivers/STM32F4xx_HAL_Driver/Src/stm32f4xx_hal_rcc.c ****   */
  74:Drivers/STM32F4xx_HAL_Driver/Src/stm32f4xx_hal_rcc.c **** 
  75:Drivers/STM32F4xx_HAL_Driver/Src/stm32f4xx_hal_rcc.c **** /** @defgroup RCC RCC
  76:Drivers/STM32F4xx_HAL_Driver/Src/stm32f4xx_hal_rcc.c ****   * @brief RCC HAL module driver
  77:Drivers/STM32F4xx_HAL_Driver/Src/stm32f4xx_hal_rcc.c ****   * @{
  78:Drivers/STM32F4xx_HAL_Driver/Src/stm32f4xx_hal_rcc.c ****   */
  79:Drivers/STM32F4xx_HAL_Driver/Src/stm32f4xx_hal_rcc.c **** 
  80:Drivers/STM32F4xx_HAL_Driver/Src/stm32f4xx_hal_rcc.c **** #ifdef HAL_RCC_MODULE_ENABLED
  81:Drivers/STM32F4xx_HAL_Driver/Src/stm32f4xx_hal_rcc.c **** 
  82:Drivers/STM32F4xx_HAL_Driver/Src/stm32f4xx_hal_rcc.c **** /* Private typedef -----------------------------------------------------------*/
  83:Drivers/STM32F4xx_HAL_Driver/Src/stm32f4xx_hal_rcc.c **** /* Private define ------------------------------------------------------------*/
  84:Drivers/STM32F4xx_HAL_Driver/Src/stm32f4xx_hal_rcc.c **** /** @addtogroup RCC_Private_Constants
  85:Drivers/STM32F4xx_HAL_Driver/Src/stm32f4xx_hal_rcc.c ****   * @{
  86:Drivers/STM32F4xx_HAL_Driver/Src/stm32f4xx_hal_rcc.c ****   */
ARM GAS  /tmp/ccbSUABi.s 			page 3


  87:Drivers/STM32F4xx_HAL_Driver/Src/stm32f4xx_hal_rcc.c **** 
  88:Drivers/STM32F4xx_HAL_Driver/Src/stm32f4xx_hal_rcc.c **** /* Private macro -------------------------------------------------------------*/
  89:Drivers/STM32F4xx_HAL_Driver/Src/stm32f4xx_hal_rcc.c **** #define __MCO1_CLK_ENABLE()   __HAL_RCC_GPIOA_CLK_ENABLE()
  90:Drivers/STM32F4xx_HAL_Driver/Src/stm32f4xx_hal_rcc.c **** #define MCO1_GPIO_PORT        GPIOA
  91:Drivers/STM32F4xx_HAL_Driver/Src/stm32f4xx_hal_rcc.c **** #define MCO1_PIN              GPIO_PIN_8
  92:Drivers/STM32F4xx_HAL_Driver/Src/stm32f4xx_hal_rcc.c **** 
  93:Drivers/STM32F4xx_HAL_Driver/Src/stm32f4xx_hal_rcc.c **** #define __MCO2_CLK_ENABLE()   __HAL_RCC_GPIOC_CLK_ENABLE()
  94:Drivers/STM32F4xx_HAL_Driver/Src/stm32f4xx_hal_rcc.c **** #define MCO2_GPIO_PORT         GPIOC
  95:Drivers/STM32F4xx_HAL_Driver/Src/stm32f4xx_hal_rcc.c **** #define MCO2_PIN               GPIO_PIN_9
  96:Drivers/STM32F4xx_HAL_Driver/Src/stm32f4xx_hal_rcc.c **** /**
  97:Drivers/STM32F4xx_HAL_Driver/Src/stm32f4xx_hal_rcc.c ****   * @}
  98:Drivers/STM32F4xx_HAL_Driver/Src/stm32f4xx_hal_rcc.c ****   */
  99:Drivers/STM32F4xx_HAL_Driver/Src/stm32f4xx_hal_rcc.c **** 
 100:Drivers/STM32F4xx_HAL_Driver/Src/stm32f4xx_hal_rcc.c **** /* Private variables ---------------------------------------------------------*/
 101:Drivers/STM32F4xx_HAL_Driver/Src/stm32f4xx_hal_rcc.c **** /** @defgroup RCC_Private_Variables RCC Private Variables
 102:Drivers/STM32F4xx_HAL_Driver/Src/stm32f4xx_hal_rcc.c ****   * @{
 103:Drivers/STM32F4xx_HAL_Driver/Src/stm32f4xx_hal_rcc.c ****   */
 104:Drivers/STM32F4xx_HAL_Driver/Src/stm32f4xx_hal_rcc.c **** /**
 105:Drivers/STM32F4xx_HAL_Driver/Src/stm32f4xx_hal_rcc.c ****   * @}
 106:Drivers/STM32F4xx_HAL_Driver/Src/stm32f4xx_hal_rcc.c ****   */
 107:Drivers/STM32F4xx_HAL_Driver/Src/stm32f4xx_hal_rcc.c **** /* Private function prototypes -----------------------------------------------*/
 108:Drivers/STM32F4xx_HAL_Driver/Src/stm32f4xx_hal_rcc.c **** /* Private functions ---------------------------------------------------------*/
 109:Drivers/STM32F4xx_HAL_Driver/Src/stm32f4xx_hal_rcc.c **** 
 110:Drivers/STM32F4xx_HAL_Driver/Src/stm32f4xx_hal_rcc.c **** /** @defgroup RCC_Exported_Functions RCC Exported Functions
 111:Drivers/STM32F4xx_HAL_Driver/Src/stm32f4xx_hal_rcc.c ****   *  @{
 112:Drivers/STM32F4xx_HAL_Driver/Src/stm32f4xx_hal_rcc.c ****   */
 113:Drivers/STM32F4xx_HAL_Driver/Src/stm32f4xx_hal_rcc.c **** 
 114:Drivers/STM32F4xx_HAL_Driver/Src/stm32f4xx_hal_rcc.c **** /** @defgroup RCC_Exported_Functions_Group1 Initialization and de-initialization functions
 115:Drivers/STM32F4xx_HAL_Driver/Src/stm32f4xx_hal_rcc.c ****  *  @brief    Initialization and Configuration functions
 116:Drivers/STM32F4xx_HAL_Driver/Src/stm32f4xx_hal_rcc.c ****  *
 117:Drivers/STM32F4xx_HAL_Driver/Src/stm32f4xx_hal_rcc.c **** @verbatim
 118:Drivers/STM32F4xx_HAL_Driver/Src/stm32f4xx_hal_rcc.c ****  ===============================================================================
 119:Drivers/STM32F4xx_HAL_Driver/Src/stm32f4xx_hal_rcc.c ****            ##### Initialization and de-initialization functions #####
 120:Drivers/STM32F4xx_HAL_Driver/Src/stm32f4xx_hal_rcc.c ****  ===============================================================================
 121:Drivers/STM32F4xx_HAL_Driver/Src/stm32f4xx_hal_rcc.c ****     [..]
 122:Drivers/STM32F4xx_HAL_Driver/Src/stm32f4xx_hal_rcc.c ****       This section provides functions allowing to configure the internal/external oscillators
 123:Drivers/STM32F4xx_HAL_Driver/Src/stm32f4xx_hal_rcc.c ****       (HSE, HSI, LSE, LSI, PLL, CSS and MCO) and the System busses clocks (SYSCLK, AHB, APB1
 124:Drivers/STM32F4xx_HAL_Driver/Src/stm32f4xx_hal_rcc.c ****        and APB2).
 125:Drivers/STM32F4xx_HAL_Driver/Src/stm32f4xx_hal_rcc.c **** 
 126:Drivers/STM32F4xx_HAL_Driver/Src/stm32f4xx_hal_rcc.c ****     [..] Internal/external clock and PLL configuration
 127:Drivers/STM32F4xx_HAL_Driver/Src/stm32f4xx_hal_rcc.c ****          (#) HSI (high-speed internal), 16 MHz factory-trimmed RC used directly or through
 128:Drivers/STM32F4xx_HAL_Driver/Src/stm32f4xx_hal_rcc.c ****              the PLL as System clock source.
 129:Drivers/STM32F4xx_HAL_Driver/Src/stm32f4xx_hal_rcc.c **** 
 130:Drivers/STM32F4xx_HAL_Driver/Src/stm32f4xx_hal_rcc.c ****          (#) LSI (low-speed internal), 32 KHz low consumption RC used as IWDG and/or RTC
 131:Drivers/STM32F4xx_HAL_Driver/Src/stm32f4xx_hal_rcc.c ****              clock source.
 132:Drivers/STM32F4xx_HAL_Driver/Src/stm32f4xx_hal_rcc.c **** 
 133:Drivers/STM32F4xx_HAL_Driver/Src/stm32f4xx_hal_rcc.c ****          (#) HSE (high-speed external), 4 to 26 MHz crystal oscillator used directly or
 134:Drivers/STM32F4xx_HAL_Driver/Src/stm32f4xx_hal_rcc.c ****              through the PLL as System clock source. Can be used also as RTC clock source.
 135:Drivers/STM32F4xx_HAL_Driver/Src/stm32f4xx_hal_rcc.c **** 
 136:Drivers/STM32F4xx_HAL_Driver/Src/stm32f4xx_hal_rcc.c ****          (#) LSE (low-speed external), 32 KHz oscillator used as RTC clock source.
 137:Drivers/STM32F4xx_HAL_Driver/Src/stm32f4xx_hal_rcc.c **** 
 138:Drivers/STM32F4xx_HAL_Driver/Src/stm32f4xx_hal_rcc.c ****          (#) PLL (clocked by HSI or HSE), featuring two different output clocks:
 139:Drivers/STM32F4xx_HAL_Driver/Src/stm32f4xx_hal_rcc.c ****            (++) The first output is used to generate the high speed system clock (up to 168 MHz)
 140:Drivers/STM32F4xx_HAL_Driver/Src/stm32f4xx_hal_rcc.c ****            (++) The second output is used to generate the clock for the USB OTG FS (48 MHz),
 141:Drivers/STM32F4xx_HAL_Driver/Src/stm32f4xx_hal_rcc.c ****                 the random analog generator (<=48 MHz) and the SDIO (<= 48 MHz).
 142:Drivers/STM32F4xx_HAL_Driver/Src/stm32f4xx_hal_rcc.c **** 
 143:Drivers/STM32F4xx_HAL_Driver/Src/stm32f4xx_hal_rcc.c ****          (#) CSS (Clock security system), once enable using the macro __HAL_RCC_CSS_ENABLE()
ARM GAS  /tmp/ccbSUABi.s 			page 4


 144:Drivers/STM32F4xx_HAL_Driver/Src/stm32f4xx_hal_rcc.c ****              and if a HSE clock failure occurs(HSE used directly or through PLL as System
 145:Drivers/STM32F4xx_HAL_Driver/Src/stm32f4xx_hal_rcc.c ****              clock source), the System clocks automatically switched to HSI and an interrupt
 146:Drivers/STM32F4xx_HAL_Driver/Src/stm32f4xx_hal_rcc.c ****              is generated if enabled. The interrupt is linked to the Cortex-M4 NMI
 147:Drivers/STM32F4xx_HAL_Driver/Src/stm32f4xx_hal_rcc.c ****              (Non-Maskable Interrupt) exception vector.
 148:Drivers/STM32F4xx_HAL_Driver/Src/stm32f4xx_hal_rcc.c **** 
 149:Drivers/STM32F4xx_HAL_Driver/Src/stm32f4xx_hal_rcc.c ****          (#) MCO1 (microcontroller clock output), used to output HSI, LSE, HSE or PLL
 150:Drivers/STM32F4xx_HAL_Driver/Src/stm32f4xx_hal_rcc.c ****              clock (through a configurable prescaler) on PA8 pin.
 151:Drivers/STM32F4xx_HAL_Driver/Src/stm32f4xx_hal_rcc.c **** 
 152:Drivers/STM32F4xx_HAL_Driver/Src/stm32f4xx_hal_rcc.c ****          (#) MCO2 (microcontroller clock output), used to output HSE, PLL, SYSCLK or PLLI2S
 153:Drivers/STM32F4xx_HAL_Driver/Src/stm32f4xx_hal_rcc.c ****              clock (through a configurable prescaler) on PC9 pin.
 154:Drivers/STM32F4xx_HAL_Driver/Src/stm32f4xx_hal_rcc.c **** 
 155:Drivers/STM32F4xx_HAL_Driver/Src/stm32f4xx_hal_rcc.c ****     [..] System, AHB and APB busses clocks configuration
 156:Drivers/STM32F4xx_HAL_Driver/Src/stm32f4xx_hal_rcc.c ****          (#) Several clock sources can be used to drive the System clock (SYSCLK): HSI,
 157:Drivers/STM32F4xx_HAL_Driver/Src/stm32f4xx_hal_rcc.c ****              HSE and PLL.
 158:Drivers/STM32F4xx_HAL_Driver/Src/stm32f4xx_hal_rcc.c ****              The AHB clock (HCLK) is derived from System clock through configurable
 159:Drivers/STM32F4xx_HAL_Driver/Src/stm32f4xx_hal_rcc.c ****              prescaler and used to clock the CPU, memory and peripherals mapped
 160:Drivers/STM32F4xx_HAL_Driver/Src/stm32f4xx_hal_rcc.c ****              on AHB bus (DMA, GPIO...). APB1 (PCLK1) and APB2 (PCLK2) clocks are derived
 161:Drivers/STM32F4xx_HAL_Driver/Src/stm32f4xx_hal_rcc.c ****              from AHB clock through configurable prescalers and used to clock
 162:Drivers/STM32F4xx_HAL_Driver/Src/stm32f4xx_hal_rcc.c ****              the peripherals mapped on these busses. You can use
 163:Drivers/STM32F4xx_HAL_Driver/Src/stm32f4xx_hal_rcc.c ****              "HAL_RCC_GetSysClockFreq()" function to retrieve the frequencies of these clocks.
 164:Drivers/STM32F4xx_HAL_Driver/Src/stm32f4xx_hal_rcc.c **** 
 165:Drivers/STM32F4xx_HAL_Driver/Src/stm32f4xx_hal_rcc.c ****          (#) For the STM32F405xx/07xx and STM32F415xx/17xx devices, the maximum
 166:Drivers/STM32F4xx_HAL_Driver/Src/stm32f4xx_hal_rcc.c ****              frequency of the SYSCLK and HCLK is 168 MHz, PCLK2 84 MHz and PCLK1 42 MHz.
 167:Drivers/STM32F4xx_HAL_Driver/Src/stm32f4xx_hal_rcc.c ****              Depending on the device voltage range, the maximum frequency should
 168:Drivers/STM32F4xx_HAL_Driver/Src/stm32f4xx_hal_rcc.c ****              be adapted accordingly (refer to the product datasheets for more details).
 169:Drivers/STM32F4xx_HAL_Driver/Src/stm32f4xx_hal_rcc.c **** 
 170:Drivers/STM32F4xx_HAL_Driver/Src/stm32f4xx_hal_rcc.c ****          (#) For the STM32F42xxx, STM32F43xxx, STM32F446xx, STM32F469xx and STM32F479xx devices,
 171:Drivers/STM32F4xx_HAL_Driver/Src/stm32f4xx_hal_rcc.c ****              the maximum frequency of the SYSCLK and HCLK is 180 MHz, PCLK2 90 MHz and PCLK1 45 MHz
 172:Drivers/STM32F4xx_HAL_Driver/Src/stm32f4xx_hal_rcc.c ****              Depending on the device voltage range, the maximum frequency should
 173:Drivers/STM32F4xx_HAL_Driver/Src/stm32f4xx_hal_rcc.c ****              be adapted accordingly (refer to the product datasheets for more details).
 174:Drivers/STM32F4xx_HAL_Driver/Src/stm32f4xx_hal_rcc.c **** 
 175:Drivers/STM32F4xx_HAL_Driver/Src/stm32f4xx_hal_rcc.c ****          (#) For the STM32F401xx, the maximum frequency of the SYSCLK and HCLK is 84 MHz,
 176:Drivers/STM32F4xx_HAL_Driver/Src/stm32f4xx_hal_rcc.c ****              PCLK2 84 MHz and PCLK1 42 MHz.
 177:Drivers/STM32F4xx_HAL_Driver/Src/stm32f4xx_hal_rcc.c ****              Depending on the device voltage range, the maximum frequency should
 178:Drivers/STM32F4xx_HAL_Driver/Src/stm32f4xx_hal_rcc.c ****              be adapted accordingly (refer to the product datasheets for more details).
 179:Drivers/STM32F4xx_HAL_Driver/Src/stm32f4xx_hal_rcc.c **** 
 180:Drivers/STM32F4xx_HAL_Driver/Src/stm32f4xx_hal_rcc.c ****          (#) For the STM32F41xxx, the maximum frequency of the SYSCLK and HCLK is 100 MHz,
 181:Drivers/STM32F4xx_HAL_Driver/Src/stm32f4xx_hal_rcc.c ****              PCLK2 100 MHz and PCLK1 50 MHz.
 182:Drivers/STM32F4xx_HAL_Driver/Src/stm32f4xx_hal_rcc.c ****              Depending on the device voltage range, the maximum frequency should
 183:Drivers/STM32F4xx_HAL_Driver/Src/stm32f4xx_hal_rcc.c ****              be adapted accordingly (refer to the product datasheets for more details).
 184:Drivers/STM32F4xx_HAL_Driver/Src/stm32f4xx_hal_rcc.c **** 
 185:Drivers/STM32F4xx_HAL_Driver/Src/stm32f4xx_hal_rcc.c **** @endverbatim
 186:Drivers/STM32F4xx_HAL_Driver/Src/stm32f4xx_hal_rcc.c ****   * @{
 187:Drivers/STM32F4xx_HAL_Driver/Src/stm32f4xx_hal_rcc.c ****   */
 188:Drivers/STM32F4xx_HAL_Driver/Src/stm32f4xx_hal_rcc.c **** 
 189:Drivers/STM32F4xx_HAL_Driver/Src/stm32f4xx_hal_rcc.c **** /**
 190:Drivers/STM32F4xx_HAL_Driver/Src/stm32f4xx_hal_rcc.c ****   * @brief  Resets the RCC clock configuration to the default reset state.
 191:Drivers/STM32F4xx_HAL_Driver/Src/stm32f4xx_hal_rcc.c ****   * @note   The default reset state of the clock configuration is given below:
 192:Drivers/STM32F4xx_HAL_Driver/Src/stm32f4xx_hal_rcc.c ****   *            - HSI ON and used as system clock source
 193:Drivers/STM32F4xx_HAL_Driver/Src/stm32f4xx_hal_rcc.c ****   *            - HSE and PLL OFF
 194:Drivers/STM32F4xx_HAL_Driver/Src/stm32f4xx_hal_rcc.c ****   *            - AHB, APB1 and APB2 prescaler set to 1.
 195:Drivers/STM32F4xx_HAL_Driver/Src/stm32f4xx_hal_rcc.c ****   *            - CSS, MCO1 and MCO2 OFF
 196:Drivers/STM32F4xx_HAL_Driver/Src/stm32f4xx_hal_rcc.c ****   *            - All interrupts disabled
 197:Drivers/STM32F4xx_HAL_Driver/Src/stm32f4xx_hal_rcc.c ****   * @note   This function doesn't modify the configuration of the
 198:Drivers/STM32F4xx_HAL_Driver/Src/stm32f4xx_hal_rcc.c ****   *            - Peripheral clocks
 199:Drivers/STM32F4xx_HAL_Driver/Src/stm32f4xx_hal_rcc.c ****   *            - LSI, LSE and RTC clocks
 200:Drivers/STM32F4xx_HAL_Driver/Src/stm32f4xx_hal_rcc.c ****   * @retval HAL status
ARM GAS  /tmp/ccbSUABi.s 			page 5


 201:Drivers/STM32F4xx_HAL_Driver/Src/stm32f4xx_hal_rcc.c ****   */
 202:Drivers/STM32F4xx_HAL_Driver/Src/stm32f4xx_hal_rcc.c **** __weak HAL_StatusTypeDef HAL_RCC_DeInit(void)
 203:Drivers/STM32F4xx_HAL_Driver/Src/stm32f4xx_hal_rcc.c **** {
  30              		.loc 1 203 1 view -0
  31              		.cfi_startproc
  32              		@ args = 0, pretend = 0, frame = 0
  33              		@ frame_needed = 0, uses_anonymous_args = 0
  34              		@ link register save eliminated.
 204:Drivers/STM32F4xx_HAL_Driver/Src/stm32f4xx_hal_rcc.c ****   return HAL_OK;
  35              		.loc 1 204 3 view .LVU1
 205:Drivers/STM32F4xx_HAL_Driver/Src/stm32f4xx_hal_rcc.c **** }
  36              		.loc 1 205 1 is_stmt 0 view .LVU2
  37 0000 0020     		movs	r0, #0
  38 0002 7047     		bx	lr
  39              		.cfi_endproc
  40              	.LFE130:
  42              		.section	.text.HAL_RCC_OscConfig,"ax",%progbits
  43              		.align	1
  44              		.p2align 2,,3
  45              		.weak	HAL_RCC_OscConfig
  46              		.syntax unified
  47              		.thumb
  48              		.thumb_func
  49              		.fpu fpv4-sp-d16
  51              	HAL_RCC_OscConfig:
  52              	.LVL0:
  53              	.LFB131:
 206:Drivers/STM32F4xx_HAL_Driver/Src/stm32f4xx_hal_rcc.c **** 
 207:Drivers/STM32F4xx_HAL_Driver/Src/stm32f4xx_hal_rcc.c **** /**
 208:Drivers/STM32F4xx_HAL_Driver/Src/stm32f4xx_hal_rcc.c ****   * @brief  Initializes the RCC Oscillators according to the specified parameters in the
 209:Drivers/STM32F4xx_HAL_Driver/Src/stm32f4xx_hal_rcc.c ****   *         RCC_OscInitTypeDef.
 210:Drivers/STM32F4xx_HAL_Driver/Src/stm32f4xx_hal_rcc.c ****   * @param  RCC_OscInitStruct pointer to an RCC_OscInitTypeDef structure that
 211:Drivers/STM32F4xx_HAL_Driver/Src/stm32f4xx_hal_rcc.c ****   *         contains the configuration information for the RCC Oscillators.
 212:Drivers/STM32F4xx_HAL_Driver/Src/stm32f4xx_hal_rcc.c ****   * @note   The PLL is not disabled when used as system clock.
 213:Drivers/STM32F4xx_HAL_Driver/Src/stm32f4xx_hal_rcc.c ****   * @note   Transitions LSE Bypass to LSE On and LSE On to LSE Bypass are not
 214:Drivers/STM32F4xx_HAL_Driver/Src/stm32f4xx_hal_rcc.c ****   *         supported by this API. User should request a transition to LSE Off
 215:Drivers/STM32F4xx_HAL_Driver/Src/stm32f4xx_hal_rcc.c ****   *         first and then LSE On or LSE Bypass.
 216:Drivers/STM32F4xx_HAL_Driver/Src/stm32f4xx_hal_rcc.c ****   * @note   Transition HSE Bypass to HSE On and HSE On to HSE Bypass are not
 217:Drivers/STM32F4xx_HAL_Driver/Src/stm32f4xx_hal_rcc.c ****   *         supported by this API. User should request a transition to HSE Off
 218:Drivers/STM32F4xx_HAL_Driver/Src/stm32f4xx_hal_rcc.c ****   *         first and then HSE On or HSE Bypass.
 219:Drivers/STM32F4xx_HAL_Driver/Src/stm32f4xx_hal_rcc.c ****   * @retval HAL status
 220:Drivers/STM32F4xx_HAL_Driver/Src/stm32f4xx_hal_rcc.c ****   */
 221:Drivers/STM32F4xx_HAL_Driver/Src/stm32f4xx_hal_rcc.c **** __weak HAL_StatusTypeDef HAL_RCC_OscConfig(RCC_OscInitTypeDef  *RCC_OscInitStruct)
 222:Drivers/STM32F4xx_HAL_Driver/Src/stm32f4xx_hal_rcc.c **** {
  54              		.loc 1 222 1 is_stmt 1 view -0
  55              		.cfi_startproc
  56              		@ args = 0, pretend = 0, frame = 8
  57              		@ frame_needed = 0, uses_anonymous_args = 0
 223:Drivers/STM32F4xx_HAL_Driver/Src/stm32f4xx_hal_rcc.c ****   uint32_t tickstart, pll_config;
  58              		.loc 1 223 3 view .LVU4
 224:Drivers/STM32F4xx_HAL_Driver/Src/stm32f4xx_hal_rcc.c **** 
 225:Drivers/STM32F4xx_HAL_Driver/Src/stm32f4xx_hal_rcc.c ****   /* Check Null pointer */
 226:Drivers/STM32F4xx_HAL_Driver/Src/stm32f4xx_hal_rcc.c ****   if(RCC_OscInitStruct == NULL)
  59              		.loc 1 226 3 view .LVU5
  60              		.loc 1 226 5 is_stmt 0 view .LVU6
  61 0000 0028     		cmp	r0, #0
  62 0002 00F09F81 		beq	.L103
ARM GAS  /tmp/ccbSUABi.s 			page 6


 227:Drivers/STM32F4xx_HAL_Driver/Src/stm32f4xx_hal_rcc.c ****   {
 228:Drivers/STM32F4xx_HAL_Driver/Src/stm32f4xx_hal_rcc.c ****     return HAL_ERROR;
 229:Drivers/STM32F4xx_HAL_Driver/Src/stm32f4xx_hal_rcc.c ****   }
 230:Drivers/STM32F4xx_HAL_Driver/Src/stm32f4xx_hal_rcc.c **** 
 231:Drivers/STM32F4xx_HAL_Driver/Src/stm32f4xx_hal_rcc.c ****   /* Check the parameters */
 232:Drivers/STM32F4xx_HAL_Driver/Src/stm32f4xx_hal_rcc.c ****   assert_param(IS_RCC_OSCILLATORTYPE(RCC_OscInitStruct->OscillatorType));
  63              		.loc 1 232 3 is_stmt 1 view .LVU7
 233:Drivers/STM32F4xx_HAL_Driver/Src/stm32f4xx_hal_rcc.c ****   /*------------------------------- HSE Configuration ------------------------*/
 234:Drivers/STM32F4xx_HAL_Driver/Src/stm32f4xx_hal_rcc.c ****   if(((RCC_OscInitStruct->OscillatorType) & RCC_OSCILLATORTYPE_HSE) == RCC_OSCILLATORTYPE_HSE)
  64              		.loc 1 234 3 view .LVU8
 222:Drivers/STM32F4xx_HAL_Driver/Src/stm32f4xx_hal_rcc.c ****   uint32_t tickstart, pll_config;
  65              		.loc 1 222 1 is_stmt 0 view .LVU9
  66 0006 2DE9F041 		push	{r4, r5, r6, r7, r8, lr}
  67              	.LCFI0:
  68              		.cfi_def_cfa_offset 24
  69              		.cfi_offset 4, -24
  70              		.cfi_offset 5, -20
  71              		.cfi_offset 6, -16
  72              		.cfi_offset 7, -12
  73              		.cfi_offset 8, -8
  74              		.cfi_offset 14, -4
  75              		.loc 1 234 25 view .LVU10
  76 000a 0368     		ldr	r3, [r0]
  77              		.loc 1 234 5 view .LVU11
  78 000c DD07     		lsls	r5, r3, #31
 222:Drivers/STM32F4xx_HAL_Driver/Src/stm32f4xx_hal_rcc.c ****   uint32_t tickstart, pll_config;
  79              		.loc 1 222 1 view .LVU12
  80 000e 82B0     		sub	sp, sp, #8
  81              	.LCFI1:
  82              		.cfi_def_cfa_offset 32
  83 0010 0446     		mov	r4, r0
  84              		.loc 1 234 5 view .LVU13
  85 0012 2FD5     		bpl	.L6
 235:Drivers/STM32F4xx_HAL_Driver/Src/stm32f4xx_hal_rcc.c ****   {
 236:Drivers/STM32F4xx_HAL_Driver/Src/stm32f4xx_hal_rcc.c ****     /* Check the parameters */
 237:Drivers/STM32F4xx_HAL_Driver/Src/stm32f4xx_hal_rcc.c ****     assert_param(IS_RCC_HSE(RCC_OscInitStruct->HSEState));
  86              		.loc 1 237 5 is_stmt 1 view .LVU14
 238:Drivers/STM32F4xx_HAL_Driver/Src/stm32f4xx_hal_rcc.c ****     /* When the HSE is used as system clock or clock source for PLL in these cases HSE will not dis
 239:Drivers/STM32F4xx_HAL_Driver/Src/stm32f4xx_hal_rcc.c ****     if((__HAL_RCC_GET_SYSCLK_SOURCE() == RCC_CFGR_SWS_HSE) ||\
  87              		.loc 1 239 5 view .LVU15
  88              		.loc 1 239 9 is_stmt 0 view .LVU16
  89 0014 AC49     		ldr	r1, .L114
  90 0016 8A68     		ldr	r2, [r1, #8]
  91 0018 02F00C02 		and	r2, r2, #12
  92              		.loc 1 239 7 view .LVU17
  93 001c 042A     		cmp	r2, #4
  94 001e 00F0EC80 		beq	.L7
 240:Drivers/STM32F4xx_HAL_Driver/Src/stm32f4xx_hal_rcc.c ****       ((__HAL_RCC_GET_SYSCLK_SOURCE() == RCC_CFGR_SWS_PLL) && ((RCC->PLLCFGR & RCC_PLLCFGR_PLLSRC) 
  95              		.loc 1 240 9 discriminator 1 view .LVU18
  96 0022 8A68     		ldr	r2, [r1, #8]
  97 0024 02F00C02 		and	r2, r2, #12
 239:Drivers/STM32F4xx_HAL_Driver/Src/stm32f4xx_hal_rcc.c ****       ((__HAL_RCC_GET_SYSCLK_SOURCE() == RCC_CFGR_SWS_PLL) && ((RCC->PLLCFGR & RCC_PLLCFGR_PLLSRC) 
  98              		.loc 1 239 60 discriminator 1 view .LVU19
  99 0028 082A     		cmp	r2, #8
 100 002a 00F0E280 		beq	.L104
 101              	.LVL1:
 102              	.L8:
ARM GAS  /tmp/ccbSUABi.s 			page 7


 241:Drivers/STM32F4xx_HAL_Driver/Src/stm32f4xx_hal_rcc.c ****     {
 242:Drivers/STM32F4xx_HAL_Driver/Src/stm32f4xx_hal_rcc.c ****       if((__HAL_RCC_GET_FLAG(RCC_FLAG_HSERDY) != RESET) && (RCC_OscInitStruct->HSEState == RCC_HSE_
 243:Drivers/STM32F4xx_HAL_Driver/Src/stm32f4xx_hal_rcc.c ****       {
 244:Drivers/STM32F4xx_HAL_Driver/Src/stm32f4xx_hal_rcc.c ****         return HAL_ERROR;
 245:Drivers/STM32F4xx_HAL_Driver/Src/stm32f4xx_hal_rcc.c ****       }
 246:Drivers/STM32F4xx_HAL_Driver/Src/stm32f4xx_hal_rcc.c ****     }
 247:Drivers/STM32F4xx_HAL_Driver/Src/stm32f4xx_hal_rcc.c ****     else
 248:Drivers/STM32F4xx_HAL_Driver/Src/stm32f4xx_hal_rcc.c ****     {
 249:Drivers/STM32F4xx_HAL_Driver/Src/stm32f4xx_hal_rcc.c ****       /* Set the new HSE configuration ---------------------------------------*/
 250:Drivers/STM32F4xx_HAL_Driver/Src/stm32f4xx_hal_rcc.c ****       __HAL_RCC_HSE_CONFIG(RCC_OscInitStruct->HSEState);
 103              		.loc 1 250 7 is_stmt 1 view .LVU20
 104              		.loc 1 250 7 view .LVU21
 105 002e 6368     		ldr	r3, [r4, #4]
 106 0030 B3F5803F 		cmp	r3, #65536
 107 0034 00F0EB80 		beq	.L105
 108              		.loc 1 250 7 discriminator 2 view .LVU22
 109 0038 B3F5A02F 		cmp	r3, #327680
 110 003c 00F07281 		beq	.L106
 111              		.loc 1 250 7 discriminator 5 view .LVU23
 112 0040 A14D     		ldr	r5, .L114
 113 0042 2A68     		ldr	r2, [r5]
 114 0044 22F48032 		bic	r2, r2, #65536
 115 0048 2A60     		str	r2, [r5]
 116              		.loc 1 250 7 discriminator 5 view .LVU24
 117 004a 2A68     		ldr	r2, [r5]
 118 004c 22F48022 		bic	r2, r2, #262144
 119 0050 2A60     		str	r2, [r5]
 120              		.loc 1 250 7 discriminator 5 view .LVU25
 251:Drivers/STM32F4xx_HAL_Driver/Src/stm32f4xx_hal_rcc.c **** 
 252:Drivers/STM32F4xx_HAL_Driver/Src/stm32f4xx_hal_rcc.c ****       /* Check the HSE State */
 253:Drivers/STM32F4xx_HAL_Driver/Src/stm32f4xx_hal_rcc.c ****       if((RCC_OscInitStruct->HSEState) != RCC_HSE_OFF)
 121              		.loc 1 253 7 discriminator 5 view .LVU26
 122              		.loc 1 253 9 is_stmt 0 discriminator 5 view .LVU27
 123 0052 002B     		cmp	r3, #0
 124 0054 40F0E080 		bne	.L11
 254:Drivers/STM32F4xx_HAL_Driver/Src/stm32f4xx_hal_rcc.c ****       {
 255:Drivers/STM32F4xx_HAL_Driver/Src/stm32f4xx_hal_rcc.c ****         /* Get Start Tick */
 256:Drivers/STM32F4xx_HAL_Driver/Src/stm32f4xx_hal_rcc.c ****         tickstart = HAL_GetTick();
 257:Drivers/STM32F4xx_HAL_Driver/Src/stm32f4xx_hal_rcc.c **** 
 258:Drivers/STM32F4xx_HAL_Driver/Src/stm32f4xx_hal_rcc.c ****         /* Wait till HSE is ready */
 259:Drivers/STM32F4xx_HAL_Driver/Src/stm32f4xx_hal_rcc.c ****         while(__HAL_RCC_GET_FLAG(RCC_FLAG_HSERDY) == RESET)
 260:Drivers/STM32F4xx_HAL_Driver/Src/stm32f4xx_hal_rcc.c ****         {
 261:Drivers/STM32F4xx_HAL_Driver/Src/stm32f4xx_hal_rcc.c ****           if((HAL_GetTick() - tickstart ) > HSE_TIMEOUT_VALUE)
 262:Drivers/STM32F4xx_HAL_Driver/Src/stm32f4xx_hal_rcc.c ****           {
 263:Drivers/STM32F4xx_HAL_Driver/Src/stm32f4xx_hal_rcc.c ****             return HAL_TIMEOUT;
 264:Drivers/STM32F4xx_HAL_Driver/Src/stm32f4xx_hal_rcc.c ****           }
 265:Drivers/STM32F4xx_HAL_Driver/Src/stm32f4xx_hal_rcc.c ****         }
 266:Drivers/STM32F4xx_HAL_Driver/Src/stm32f4xx_hal_rcc.c ****       }
 267:Drivers/STM32F4xx_HAL_Driver/Src/stm32f4xx_hal_rcc.c ****       else
 268:Drivers/STM32F4xx_HAL_Driver/Src/stm32f4xx_hal_rcc.c ****       {
 269:Drivers/STM32F4xx_HAL_Driver/Src/stm32f4xx_hal_rcc.c ****         /* Get Start Tick */
 270:Drivers/STM32F4xx_HAL_Driver/Src/stm32f4xx_hal_rcc.c ****         tickstart = HAL_GetTick();
 125              		.loc 1 270 9 is_stmt 1 view .LVU28
 126              		.loc 1 270 21 is_stmt 0 view .LVU29
 127 0058 FFF7FEFF 		bl	HAL_GetTick
 128              	.LVL2:
 129 005c 0646     		mov	r6, r0
ARM GAS  /tmp/ccbSUABi.s 			page 8


 130              	.LVL3:
 271:Drivers/STM32F4xx_HAL_Driver/Src/stm32f4xx_hal_rcc.c **** 
 272:Drivers/STM32F4xx_HAL_Driver/Src/stm32f4xx_hal_rcc.c ****         /* Wait till HSE is bypassed or disabled */
 273:Drivers/STM32F4xx_HAL_Driver/Src/stm32f4xx_hal_rcc.c ****         while(__HAL_RCC_GET_FLAG(RCC_FLAG_HSERDY) != RESET)
 131              		.loc 1 273 9 is_stmt 1 view .LVU30
 132              		.loc 1 273 14 is_stmt 0 view .LVU31
 133 005e 05E0     		b	.L16
 134              	.LVL4:
 135              	.L18:
 274:Drivers/STM32F4xx_HAL_Driver/Src/stm32f4xx_hal_rcc.c ****         {
 275:Drivers/STM32F4xx_HAL_Driver/Src/stm32f4xx_hal_rcc.c ****           if((HAL_GetTick() - tickstart ) > HSE_TIMEOUT_VALUE)
 136              		.loc 1 275 15 view .LVU32
 137 0060 FFF7FEFF 		bl	HAL_GetTick
 138              	.LVL5:
 139              		.loc 1 275 29 view .LVU33
 140 0064 801B     		subs	r0, r0, r6
 141              		.loc 1 275 13 view .LVU34
 142 0066 6428     		cmp	r0, #100
 143 0068 00F20081 		bhi	.L17
 144              	.L16:
 145              		.loc 1 275 11 is_stmt 1 view .LVU35
 273:Drivers/STM32F4xx_HAL_Driver/Src/stm32f4xx_hal_rcc.c ****         {
 146              		.loc 1 273 14 view .LVU36
 273:Drivers/STM32F4xx_HAL_Driver/Src/stm32f4xx_hal_rcc.c ****         {
 147              		.loc 1 273 15 is_stmt 0 view .LVU37
 148 006c 2B68     		ldr	r3, [r5]
 273:Drivers/STM32F4xx_HAL_Driver/Src/stm32f4xx_hal_rcc.c ****         {
 149              		.loc 1 273 14 view .LVU38
 150 006e 9B03     		lsls	r3, r3, #14
 151 0070 F6D4     		bmi	.L18
 152              	.LVL6:
 153              	.L101:
 273:Drivers/STM32F4xx_HAL_Driver/Src/stm32f4xx_hal_rcc.c ****         {
 154              		.loc 1 273 14 view .LVU39
 155 0072 2368     		ldr	r3, [r4]
 156              	.L6:
 276:Drivers/STM32F4xx_HAL_Driver/Src/stm32f4xx_hal_rcc.c ****           {
 277:Drivers/STM32F4xx_HAL_Driver/Src/stm32f4xx_hal_rcc.c ****             return HAL_TIMEOUT;
 278:Drivers/STM32F4xx_HAL_Driver/Src/stm32f4xx_hal_rcc.c ****           }
 279:Drivers/STM32F4xx_HAL_Driver/Src/stm32f4xx_hal_rcc.c ****         }
 280:Drivers/STM32F4xx_HAL_Driver/Src/stm32f4xx_hal_rcc.c ****       }
 281:Drivers/STM32F4xx_HAL_Driver/Src/stm32f4xx_hal_rcc.c ****     }
 282:Drivers/STM32F4xx_HAL_Driver/Src/stm32f4xx_hal_rcc.c ****   }
 283:Drivers/STM32F4xx_HAL_Driver/Src/stm32f4xx_hal_rcc.c ****   /*----------------------------- HSI Configuration --------------------------*/
 284:Drivers/STM32F4xx_HAL_Driver/Src/stm32f4xx_hal_rcc.c ****   if(((RCC_OscInitStruct->OscillatorType) & RCC_OSCILLATORTYPE_HSI) == RCC_OSCILLATORTYPE_HSI)
 157              		.loc 1 284 3 is_stmt 1 view .LVU40
 158              		.loc 1 284 5 is_stmt 0 view .LVU41
 159 0074 9F07     		lsls	r7, r3, #30
 160 0076 28D5     		bpl	.L19
 285:Drivers/STM32F4xx_HAL_Driver/Src/stm32f4xx_hal_rcc.c ****   {
 286:Drivers/STM32F4xx_HAL_Driver/Src/stm32f4xx_hal_rcc.c ****     /* Check the parameters */
 287:Drivers/STM32F4xx_HAL_Driver/Src/stm32f4xx_hal_rcc.c ****     assert_param(IS_RCC_HSI(RCC_OscInitStruct->HSIState));
 161              		.loc 1 287 5 is_stmt 1 view .LVU42
 288:Drivers/STM32F4xx_HAL_Driver/Src/stm32f4xx_hal_rcc.c ****     assert_param(IS_RCC_CALIBRATION_VALUE(RCC_OscInitStruct->HSICalibrationValue));
 162              		.loc 1 288 5 view .LVU43
 289:Drivers/STM32F4xx_HAL_Driver/Src/stm32f4xx_hal_rcc.c **** 
 290:Drivers/STM32F4xx_HAL_Driver/Src/stm32f4xx_hal_rcc.c ****     /* Check if HSI is used as system clock or as PLL source when PLL is selected as system clock *
ARM GAS  /tmp/ccbSUABi.s 			page 9


 291:Drivers/STM32F4xx_HAL_Driver/Src/stm32f4xx_hal_rcc.c ****     if((__HAL_RCC_GET_SYSCLK_SOURCE() == RCC_CFGR_SWS_HSI) ||\
 163              		.loc 1 291 5 view .LVU44
 164              		.loc 1 291 9 is_stmt 0 view .LVU45
 165 0078 934A     		ldr	r2, .L114
 166 007a 9168     		ldr	r1, [r2, #8]
 167              		.loc 1 291 7 view .LVU46
 168 007c 11F00C0F 		tst	r1, #12
 169 0080 00F09080 		beq	.L20
 292:Drivers/STM32F4xx_HAL_Driver/Src/stm32f4xx_hal_rcc.c ****       ((__HAL_RCC_GET_SYSCLK_SOURCE() == RCC_CFGR_SWS_PLL) && ((RCC->PLLCFGR & RCC_PLLCFGR_PLLSRC) 
 170              		.loc 1 292 9 discriminator 1 view .LVU47
 171 0084 9168     		ldr	r1, [r2, #8]
 172 0086 01F00C01 		and	r1, r1, #12
 291:Drivers/STM32F4xx_HAL_Driver/Src/stm32f4xx_hal_rcc.c ****       ((__HAL_RCC_GET_SYSCLK_SOURCE() == RCC_CFGR_SWS_PLL) && ((RCC->PLLCFGR & RCC_PLLCFGR_PLLSRC) 
 173              		.loc 1 291 60 discriminator 1 view .LVU48
 174 008a 0829     		cmp	r1, #8
 175 008c 00F08680 		beq	.L107
 176              	.L21:
 293:Drivers/STM32F4xx_HAL_Driver/Src/stm32f4xx_hal_rcc.c ****     {
 294:Drivers/STM32F4xx_HAL_Driver/Src/stm32f4xx_hal_rcc.c ****       /* When HSI is used as system clock it will not disabled */
 295:Drivers/STM32F4xx_HAL_Driver/Src/stm32f4xx_hal_rcc.c ****       if((__HAL_RCC_GET_FLAG(RCC_FLAG_HSIRDY) != RESET) && (RCC_OscInitStruct->HSIState != RCC_HSI_
 296:Drivers/STM32F4xx_HAL_Driver/Src/stm32f4xx_hal_rcc.c ****       {
 297:Drivers/STM32F4xx_HAL_Driver/Src/stm32f4xx_hal_rcc.c ****         return HAL_ERROR;
 298:Drivers/STM32F4xx_HAL_Driver/Src/stm32f4xx_hal_rcc.c ****       }
 299:Drivers/STM32F4xx_HAL_Driver/Src/stm32f4xx_hal_rcc.c ****       /* Otherwise, just the calibration is allowed */
 300:Drivers/STM32F4xx_HAL_Driver/Src/stm32f4xx_hal_rcc.c ****       else
 301:Drivers/STM32F4xx_HAL_Driver/Src/stm32f4xx_hal_rcc.c ****       {
 302:Drivers/STM32F4xx_HAL_Driver/Src/stm32f4xx_hal_rcc.c ****         /* Adjusts the Internal High Speed oscillator (HSI) calibration value.*/
 303:Drivers/STM32F4xx_HAL_Driver/Src/stm32f4xx_hal_rcc.c ****         __HAL_RCC_HSI_CALIBRATIONVALUE_ADJUST(RCC_OscInitStruct->HSICalibrationValue);
 304:Drivers/STM32F4xx_HAL_Driver/Src/stm32f4xx_hal_rcc.c ****       }
 305:Drivers/STM32F4xx_HAL_Driver/Src/stm32f4xx_hal_rcc.c ****     }
 306:Drivers/STM32F4xx_HAL_Driver/Src/stm32f4xx_hal_rcc.c ****     else
 307:Drivers/STM32F4xx_HAL_Driver/Src/stm32f4xx_hal_rcc.c ****     {
 308:Drivers/STM32F4xx_HAL_Driver/Src/stm32f4xx_hal_rcc.c ****       /* Check the HSI State */
 309:Drivers/STM32F4xx_HAL_Driver/Src/stm32f4xx_hal_rcc.c ****       if((RCC_OscInitStruct->HSIState)!= RCC_HSI_OFF)
 177              		.loc 1 309 7 is_stmt 1 view .LVU49
 178              		.loc 1 309 9 is_stmt 0 view .LVU50
 179 0090 E368     		ldr	r3, [r4, #12]
 180 0092 002B     		cmp	r3, #0
 181 0094 00F00681 		beq	.L23
 310:Drivers/STM32F4xx_HAL_Driver/Src/stm32f4xx_hal_rcc.c ****       {
 311:Drivers/STM32F4xx_HAL_Driver/Src/stm32f4xx_hal_rcc.c ****         /* Enable the Internal High Speed oscillator (HSI). */
 312:Drivers/STM32F4xx_HAL_Driver/Src/stm32f4xx_hal_rcc.c ****         __HAL_RCC_HSI_ENABLE();
 182              		.loc 1 312 9 is_stmt 1 view .LVU51
 183 0098 8C4B     		ldr	r3, .L114+4
 313:Drivers/STM32F4xx_HAL_Driver/Src/stm32f4xx_hal_rcc.c **** 
 314:Drivers/STM32F4xx_HAL_Driver/Src/stm32f4xx_hal_rcc.c ****         /* Get Start Tick*/
 315:Drivers/STM32F4xx_HAL_Driver/Src/stm32f4xx_hal_rcc.c ****         tickstart = HAL_GetTick();
 316:Drivers/STM32F4xx_HAL_Driver/Src/stm32f4xx_hal_rcc.c **** 
 317:Drivers/STM32F4xx_HAL_Driver/Src/stm32f4xx_hal_rcc.c ****         /* Wait till HSI is ready */
 318:Drivers/STM32F4xx_HAL_Driver/Src/stm32f4xx_hal_rcc.c ****         while(__HAL_RCC_GET_FLAG(RCC_FLAG_HSIRDY) == RESET)
 184              		.loc 1 318 15 is_stmt 0 view .LVU52
 185 009a 8B4E     		ldr	r6, .L114
 312:Drivers/STM32F4xx_HAL_Driver/Src/stm32f4xx_hal_rcc.c **** 
 186              		.loc 1 312 9 view .LVU53
 187 009c 0122     		movs	r2, #1
 188 009e 1A60     		str	r2, [r3]
 315:Drivers/STM32F4xx_HAL_Driver/Src/stm32f4xx_hal_rcc.c **** 
ARM GAS  /tmp/ccbSUABi.s 			page 10


 189              		.loc 1 315 9 is_stmt 1 view .LVU54
 315:Drivers/STM32F4xx_HAL_Driver/Src/stm32f4xx_hal_rcc.c **** 
 190              		.loc 1 315 21 is_stmt 0 view .LVU55
 191 00a0 FFF7FEFF 		bl	HAL_GetTick
 192              	.LVL7:
 193 00a4 0546     		mov	r5, r0
 194              	.LVL8:
 195              		.loc 1 318 9 is_stmt 1 view .LVU56
 196              		.loc 1 318 14 is_stmt 0 view .LVU57
 197 00a6 05E0     		b	.L24
 198              	.LVL9:
 199              	.L25:
 319:Drivers/STM32F4xx_HAL_Driver/Src/stm32f4xx_hal_rcc.c ****         {
 320:Drivers/STM32F4xx_HAL_Driver/Src/stm32f4xx_hal_rcc.c ****           if((HAL_GetTick() - tickstart ) > HSI_TIMEOUT_VALUE)
 200              		.loc 1 320 15 view .LVU58
 201 00a8 FFF7FEFF 		bl	HAL_GetTick
 202              	.LVL10:
 203              		.loc 1 320 29 view .LVU59
 204 00ac 401B     		subs	r0, r0, r5
 205              		.loc 1 320 13 view .LVU60
 206 00ae 0228     		cmp	r0, #2
 207 00b0 00F2DC80 		bhi	.L17
 208              	.L24:
 209              		.loc 1 320 11 is_stmt 1 view .LVU61
 318:Drivers/STM32F4xx_HAL_Driver/Src/stm32f4xx_hal_rcc.c ****         {
 210              		.loc 1 318 14 view .LVU62
 318:Drivers/STM32F4xx_HAL_Driver/Src/stm32f4xx_hal_rcc.c ****         {
 211              		.loc 1 318 15 is_stmt 0 view .LVU63
 212 00b4 3368     		ldr	r3, [r6]
 318:Drivers/STM32F4xx_HAL_Driver/Src/stm32f4xx_hal_rcc.c ****         {
 213              		.loc 1 318 14 view .LVU64
 214 00b6 9807     		lsls	r0, r3, #30
 215 00b8 F6D5     		bpl	.L25
 321:Drivers/STM32F4xx_HAL_Driver/Src/stm32f4xx_hal_rcc.c ****           {
 322:Drivers/STM32F4xx_HAL_Driver/Src/stm32f4xx_hal_rcc.c ****             return HAL_TIMEOUT;
 323:Drivers/STM32F4xx_HAL_Driver/Src/stm32f4xx_hal_rcc.c ****           }
 324:Drivers/STM32F4xx_HAL_Driver/Src/stm32f4xx_hal_rcc.c ****         }
 325:Drivers/STM32F4xx_HAL_Driver/Src/stm32f4xx_hal_rcc.c **** 
 326:Drivers/STM32F4xx_HAL_Driver/Src/stm32f4xx_hal_rcc.c ****         /* Adjusts the Internal High Speed oscillator (HSI) calibration value. */
 327:Drivers/STM32F4xx_HAL_Driver/Src/stm32f4xx_hal_rcc.c ****         __HAL_RCC_HSI_CALIBRATIONVALUE_ADJUST(RCC_OscInitStruct->HSICalibrationValue);
 216              		.loc 1 327 9 is_stmt 1 view .LVU65
 217 00ba 3368     		ldr	r3, [r6]
 218 00bc 2269     		ldr	r2, [r4, #16]
 219 00be 23F0F803 		bic	r3, r3, #248
 220 00c2 43EAC203 		orr	r3, r3, r2, lsl #3
 221 00c6 3360     		str	r3, [r6]
 222 00c8 2368     		ldr	r3, [r4]
 223              	.LVL11:
 224              	.L19:
 328:Drivers/STM32F4xx_HAL_Driver/Src/stm32f4xx_hal_rcc.c ****       }
 329:Drivers/STM32F4xx_HAL_Driver/Src/stm32f4xx_hal_rcc.c ****       else
 330:Drivers/STM32F4xx_HAL_Driver/Src/stm32f4xx_hal_rcc.c ****       {
 331:Drivers/STM32F4xx_HAL_Driver/Src/stm32f4xx_hal_rcc.c ****         /* Disable the Internal High Speed oscillator (HSI). */
 332:Drivers/STM32F4xx_HAL_Driver/Src/stm32f4xx_hal_rcc.c ****         __HAL_RCC_HSI_DISABLE();
 333:Drivers/STM32F4xx_HAL_Driver/Src/stm32f4xx_hal_rcc.c **** 
 334:Drivers/STM32F4xx_HAL_Driver/Src/stm32f4xx_hal_rcc.c ****         /* Get Start Tick*/
 335:Drivers/STM32F4xx_HAL_Driver/Src/stm32f4xx_hal_rcc.c ****         tickstart = HAL_GetTick();
ARM GAS  /tmp/ccbSUABi.s 			page 11


 336:Drivers/STM32F4xx_HAL_Driver/Src/stm32f4xx_hal_rcc.c **** 
 337:Drivers/STM32F4xx_HAL_Driver/Src/stm32f4xx_hal_rcc.c ****         /* Wait till HSI is ready */
 338:Drivers/STM32F4xx_HAL_Driver/Src/stm32f4xx_hal_rcc.c ****         while(__HAL_RCC_GET_FLAG(RCC_FLAG_HSIRDY) != RESET)
 339:Drivers/STM32F4xx_HAL_Driver/Src/stm32f4xx_hal_rcc.c ****         {
 340:Drivers/STM32F4xx_HAL_Driver/Src/stm32f4xx_hal_rcc.c ****           if((HAL_GetTick() - tickstart ) > HSI_TIMEOUT_VALUE)
 341:Drivers/STM32F4xx_HAL_Driver/Src/stm32f4xx_hal_rcc.c ****           {
 342:Drivers/STM32F4xx_HAL_Driver/Src/stm32f4xx_hal_rcc.c ****             return HAL_TIMEOUT;
 343:Drivers/STM32F4xx_HAL_Driver/Src/stm32f4xx_hal_rcc.c ****           }
 344:Drivers/STM32F4xx_HAL_Driver/Src/stm32f4xx_hal_rcc.c ****         }
 345:Drivers/STM32F4xx_HAL_Driver/Src/stm32f4xx_hal_rcc.c ****       }
 346:Drivers/STM32F4xx_HAL_Driver/Src/stm32f4xx_hal_rcc.c ****     }
 347:Drivers/STM32F4xx_HAL_Driver/Src/stm32f4xx_hal_rcc.c ****   }
 348:Drivers/STM32F4xx_HAL_Driver/Src/stm32f4xx_hal_rcc.c ****   /*------------------------------ LSI Configuration -------------------------*/
 349:Drivers/STM32F4xx_HAL_Driver/Src/stm32f4xx_hal_rcc.c ****   if(((RCC_OscInitStruct->OscillatorType) & RCC_OSCILLATORTYPE_LSI) == RCC_OSCILLATORTYPE_LSI)
 225              		.loc 1 349 3 view .LVU66
 226              		.loc 1 349 5 is_stmt 0 view .LVU67
 227 00ca 1A07     		lsls	r2, r3, #28
 228 00cc 52D4     		bmi	.L108
 229              	.L28:
 350:Drivers/STM32F4xx_HAL_Driver/Src/stm32f4xx_hal_rcc.c ****   {
 351:Drivers/STM32F4xx_HAL_Driver/Src/stm32f4xx_hal_rcc.c ****     /* Check the parameters */
 352:Drivers/STM32F4xx_HAL_Driver/Src/stm32f4xx_hal_rcc.c ****     assert_param(IS_RCC_LSI(RCC_OscInitStruct->LSIState));
 353:Drivers/STM32F4xx_HAL_Driver/Src/stm32f4xx_hal_rcc.c **** 
 354:Drivers/STM32F4xx_HAL_Driver/Src/stm32f4xx_hal_rcc.c ****     /* Check the LSI State */
 355:Drivers/STM32F4xx_HAL_Driver/Src/stm32f4xx_hal_rcc.c ****     if((RCC_OscInitStruct->LSIState)!= RCC_LSI_OFF)
 356:Drivers/STM32F4xx_HAL_Driver/Src/stm32f4xx_hal_rcc.c ****     {
 357:Drivers/STM32F4xx_HAL_Driver/Src/stm32f4xx_hal_rcc.c ****       /* Enable the Internal Low Speed oscillator (LSI). */
 358:Drivers/STM32F4xx_HAL_Driver/Src/stm32f4xx_hal_rcc.c ****       __HAL_RCC_LSI_ENABLE();
 359:Drivers/STM32F4xx_HAL_Driver/Src/stm32f4xx_hal_rcc.c **** 
 360:Drivers/STM32F4xx_HAL_Driver/Src/stm32f4xx_hal_rcc.c ****       /* Get Start Tick*/
 361:Drivers/STM32F4xx_HAL_Driver/Src/stm32f4xx_hal_rcc.c ****       tickstart = HAL_GetTick();
 362:Drivers/STM32F4xx_HAL_Driver/Src/stm32f4xx_hal_rcc.c **** 
 363:Drivers/STM32F4xx_HAL_Driver/Src/stm32f4xx_hal_rcc.c ****       /* Wait till LSI is ready */
 364:Drivers/STM32F4xx_HAL_Driver/Src/stm32f4xx_hal_rcc.c ****       while(__HAL_RCC_GET_FLAG(RCC_FLAG_LSIRDY) == RESET)
 365:Drivers/STM32F4xx_HAL_Driver/Src/stm32f4xx_hal_rcc.c ****       {
 366:Drivers/STM32F4xx_HAL_Driver/Src/stm32f4xx_hal_rcc.c ****         if((HAL_GetTick() - tickstart ) > LSI_TIMEOUT_VALUE)
 367:Drivers/STM32F4xx_HAL_Driver/Src/stm32f4xx_hal_rcc.c ****         {
 368:Drivers/STM32F4xx_HAL_Driver/Src/stm32f4xx_hal_rcc.c ****           return HAL_TIMEOUT;
 369:Drivers/STM32F4xx_HAL_Driver/Src/stm32f4xx_hal_rcc.c ****         }
 370:Drivers/STM32F4xx_HAL_Driver/Src/stm32f4xx_hal_rcc.c ****       }
 371:Drivers/STM32F4xx_HAL_Driver/Src/stm32f4xx_hal_rcc.c ****     }
 372:Drivers/STM32F4xx_HAL_Driver/Src/stm32f4xx_hal_rcc.c ****     else
 373:Drivers/STM32F4xx_HAL_Driver/Src/stm32f4xx_hal_rcc.c ****     {
 374:Drivers/STM32F4xx_HAL_Driver/Src/stm32f4xx_hal_rcc.c ****       /* Disable the Internal Low Speed oscillator (LSI). */
 375:Drivers/STM32F4xx_HAL_Driver/Src/stm32f4xx_hal_rcc.c ****       __HAL_RCC_LSI_DISABLE();
 376:Drivers/STM32F4xx_HAL_Driver/Src/stm32f4xx_hal_rcc.c **** 
 377:Drivers/STM32F4xx_HAL_Driver/Src/stm32f4xx_hal_rcc.c ****       /* Get Start Tick */
 378:Drivers/STM32F4xx_HAL_Driver/Src/stm32f4xx_hal_rcc.c ****       tickstart = HAL_GetTick();
 379:Drivers/STM32F4xx_HAL_Driver/Src/stm32f4xx_hal_rcc.c **** 
 380:Drivers/STM32F4xx_HAL_Driver/Src/stm32f4xx_hal_rcc.c ****       /* Wait till LSI is ready */
 381:Drivers/STM32F4xx_HAL_Driver/Src/stm32f4xx_hal_rcc.c ****       while(__HAL_RCC_GET_FLAG(RCC_FLAG_LSIRDY) != RESET)
 382:Drivers/STM32F4xx_HAL_Driver/Src/stm32f4xx_hal_rcc.c ****       {
 383:Drivers/STM32F4xx_HAL_Driver/Src/stm32f4xx_hal_rcc.c ****         if((HAL_GetTick() - tickstart ) > LSI_TIMEOUT_VALUE)
 384:Drivers/STM32F4xx_HAL_Driver/Src/stm32f4xx_hal_rcc.c ****         {
 385:Drivers/STM32F4xx_HAL_Driver/Src/stm32f4xx_hal_rcc.c ****           return HAL_TIMEOUT;
 386:Drivers/STM32F4xx_HAL_Driver/Src/stm32f4xx_hal_rcc.c ****         }
 387:Drivers/STM32F4xx_HAL_Driver/Src/stm32f4xx_hal_rcc.c ****       }
ARM GAS  /tmp/ccbSUABi.s 			page 12


 388:Drivers/STM32F4xx_HAL_Driver/Src/stm32f4xx_hal_rcc.c ****     }
 389:Drivers/STM32F4xx_HAL_Driver/Src/stm32f4xx_hal_rcc.c ****   }
 390:Drivers/STM32F4xx_HAL_Driver/Src/stm32f4xx_hal_rcc.c ****   /*------------------------------ LSE Configuration -------------------------*/
 391:Drivers/STM32F4xx_HAL_Driver/Src/stm32f4xx_hal_rcc.c ****   if(((RCC_OscInitStruct->OscillatorType) & RCC_OSCILLATORTYPE_LSE) == RCC_OSCILLATORTYPE_LSE)
 230              		.loc 1 391 3 is_stmt 1 view .LVU68
 231              		.loc 1 391 5 is_stmt 0 view .LVU69
 232 00ce 5807     		lsls	r0, r3, #29
 233 00d0 2FD5     		bpl	.L35
 234              	.LBB6:
 392:Drivers/STM32F4xx_HAL_Driver/Src/stm32f4xx_hal_rcc.c ****   {
 393:Drivers/STM32F4xx_HAL_Driver/Src/stm32f4xx_hal_rcc.c ****     FlagStatus       pwrclkchanged = RESET;
 235              		.loc 1 393 5 is_stmt 1 view .LVU70
 236              	.LVL12:
 394:Drivers/STM32F4xx_HAL_Driver/Src/stm32f4xx_hal_rcc.c **** 
 395:Drivers/STM32F4xx_HAL_Driver/Src/stm32f4xx_hal_rcc.c ****     /* Check the parameters */
 396:Drivers/STM32F4xx_HAL_Driver/Src/stm32f4xx_hal_rcc.c ****     assert_param(IS_RCC_LSE(RCC_OscInitStruct->LSEState));
 237              		.loc 1 396 5 view .LVU71
 397:Drivers/STM32F4xx_HAL_Driver/Src/stm32f4xx_hal_rcc.c **** 
 398:Drivers/STM32F4xx_HAL_Driver/Src/stm32f4xx_hal_rcc.c ****     /* Update LSE configuration in Backup Domain control register    */
 399:Drivers/STM32F4xx_HAL_Driver/Src/stm32f4xx_hal_rcc.c ****     /* Requires to enable write access to Backup Domain of necessary */
 400:Drivers/STM32F4xx_HAL_Driver/Src/stm32f4xx_hal_rcc.c ****     if(__HAL_RCC_PWR_IS_CLK_DISABLED())
 238              		.loc 1 400 5 view .LVU72
 239              		.loc 1 400 8 is_stmt 0 view .LVU73
 240 00d2 7D4A     		ldr	r2, .L114
 241 00d4 136C     		ldr	r3, [r2, #64]
 242              		.loc 1 400 7 view .LVU74
 243 00d6 13F08053 		ands	r3, r3, #268435456
 244 00da 7ED0     		beq	.L109
 393:Drivers/STM32F4xx_HAL_Driver/Src/stm32f4xx_hal_rcc.c **** 
 245              		.loc 1 393 22 view .LVU75
 246 00dc 0025     		movs	r5, #0
 247              	.LVL13:
 248              	.L36:
 401:Drivers/STM32F4xx_HAL_Driver/Src/stm32f4xx_hal_rcc.c ****     {
 402:Drivers/STM32F4xx_HAL_Driver/Src/stm32f4xx_hal_rcc.c ****       __HAL_RCC_PWR_CLK_ENABLE();
 403:Drivers/STM32F4xx_HAL_Driver/Src/stm32f4xx_hal_rcc.c ****       pwrclkchanged = SET;
 404:Drivers/STM32F4xx_HAL_Driver/Src/stm32f4xx_hal_rcc.c ****     }
 405:Drivers/STM32F4xx_HAL_Driver/Src/stm32f4xx_hal_rcc.c **** 
 406:Drivers/STM32F4xx_HAL_Driver/Src/stm32f4xx_hal_rcc.c ****     if(HAL_IS_BIT_CLR(PWR->CR, PWR_CR_DBP))
 249              		.loc 1 406 5 is_stmt 1 view .LVU76
 250              		.loc 1 406 8 is_stmt 0 view .LVU77
 251 00de 7C4E     		ldr	r6, .L114+8
 252 00e0 3368     		ldr	r3, [r6]
 253              		.loc 1 406 7 view .LVU78
 254 00e2 D905     		lsls	r1, r3, #23
 255 00e4 40F1B280 		bpl	.L37
 256              	.L42:
 407:Drivers/STM32F4xx_HAL_Driver/Src/stm32f4xx_hal_rcc.c ****     {
 408:Drivers/STM32F4xx_HAL_Driver/Src/stm32f4xx_hal_rcc.c ****       /* Enable write access to Backup domain */
 409:Drivers/STM32F4xx_HAL_Driver/Src/stm32f4xx_hal_rcc.c ****       SET_BIT(PWR->CR, PWR_CR_DBP);
 410:Drivers/STM32F4xx_HAL_Driver/Src/stm32f4xx_hal_rcc.c **** 
 411:Drivers/STM32F4xx_HAL_Driver/Src/stm32f4xx_hal_rcc.c ****       /* Wait for Backup domain Write protection disable */
 412:Drivers/STM32F4xx_HAL_Driver/Src/stm32f4xx_hal_rcc.c ****       tickstart = HAL_GetTick();
 413:Drivers/STM32F4xx_HAL_Driver/Src/stm32f4xx_hal_rcc.c **** 
 414:Drivers/STM32F4xx_HAL_Driver/Src/stm32f4xx_hal_rcc.c ****       while(HAL_IS_BIT_CLR(PWR->CR, PWR_CR_DBP))
 415:Drivers/STM32F4xx_HAL_Driver/Src/stm32f4xx_hal_rcc.c ****       {
 416:Drivers/STM32F4xx_HAL_Driver/Src/stm32f4xx_hal_rcc.c ****         if((HAL_GetTick() - tickstart) > RCC_DBP_TIMEOUT_VALUE)
ARM GAS  /tmp/ccbSUABi.s 			page 13


 417:Drivers/STM32F4xx_HAL_Driver/Src/stm32f4xx_hal_rcc.c ****         {
 418:Drivers/STM32F4xx_HAL_Driver/Src/stm32f4xx_hal_rcc.c ****           return HAL_TIMEOUT;
 419:Drivers/STM32F4xx_HAL_Driver/Src/stm32f4xx_hal_rcc.c ****         }
 420:Drivers/STM32F4xx_HAL_Driver/Src/stm32f4xx_hal_rcc.c ****       }
 421:Drivers/STM32F4xx_HAL_Driver/Src/stm32f4xx_hal_rcc.c ****     }
 422:Drivers/STM32F4xx_HAL_Driver/Src/stm32f4xx_hal_rcc.c **** 
 423:Drivers/STM32F4xx_HAL_Driver/Src/stm32f4xx_hal_rcc.c ****     /* Set the new LSE configuration -----------------------------------------*/
 424:Drivers/STM32F4xx_HAL_Driver/Src/stm32f4xx_hal_rcc.c ****     __HAL_RCC_LSE_CONFIG(RCC_OscInitStruct->LSEState);
 257              		.loc 1 424 5 is_stmt 1 view .LVU79
 258              		.loc 1 424 5 view .LVU80
 259 00e8 A368     		ldr	r3, [r4, #8]
 260 00ea 012B     		cmp	r3, #1
 261 00ec 00F0C280 		beq	.L110
 262              		.loc 1 424 5 discriminator 2 view .LVU81
 263 00f0 052B     		cmp	r3, #5
 264 00f2 00F02981 		beq	.L111
 265              		.loc 1 424 5 discriminator 5 view .LVU82
 266 00f6 744E     		ldr	r6, .L114
 267 00f8 326F     		ldr	r2, [r6, #112]
 268 00fa 22F00102 		bic	r2, r2, #1
 269 00fe 3267     		str	r2, [r6, #112]
 270              		.loc 1 424 5 discriminator 5 view .LVU83
 271 0100 326F     		ldr	r2, [r6, #112]
 272 0102 22F00402 		bic	r2, r2, #4
 273 0106 3267     		str	r2, [r6, #112]
 274              		.loc 1 424 5 discriminator 5 view .LVU84
 425:Drivers/STM32F4xx_HAL_Driver/Src/stm32f4xx_hal_rcc.c ****     /* Check the LSE State */
 426:Drivers/STM32F4xx_HAL_Driver/Src/stm32f4xx_hal_rcc.c ****     if((RCC_OscInitStruct->LSEState) != RCC_LSE_OFF)
 275              		.loc 1 426 5 discriminator 5 view .LVU85
 276              		.loc 1 426 7 is_stmt 0 discriminator 5 view .LVU86
 277 0108 002B     		cmp	r3, #0
 278 010a 40F0B880 		bne	.L43
 427:Drivers/STM32F4xx_HAL_Driver/Src/stm32f4xx_hal_rcc.c ****     {
 428:Drivers/STM32F4xx_HAL_Driver/Src/stm32f4xx_hal_rcc.c ****       /* Get Start Tick*/
 429:Drivers/STM32F4xx_HAL_Driver/Src/stm32f4xx_hal_rcc.c ****       tickstart = HAL_GetTick();
 430:Drivers/STM32F4xx_HAL_Driver/Src/stm32f4xx_hal_rcc.c **** 
 431:Drivers/STM32F4xx_HAL_Driver/Src/stm32f4xx_hal_rcc.c ****       /* Wait till LSE is ready */
 432:Drivers/STM32F4xx_HAL_Driver/Src/stm32f4xx_hal_rcc.c ****       while(__HAL_RCC_GET_FLAG(RCC_FLAG_LSERDY) == RESET)
 433:Drivers/STM32F4xx_HAL_Driver/Src/stm32f4xx_hal_rcc.c ****       {
 434:Drivers/STM32F4xx_HAL_Driver/Src/stm32f4xx_hal_rcc.c ****         if((HAL_GetTick() - tickstart ) > RCC_LSE_TIMEOUT_VALUE)
 435:Drivers/STM32F4xx_HAL_Driver/Src/stm32f4xx_hal_rcc.c ****         {
 436:Drivers/STM32F4xx_HAL_Driver/Src/stm32f4xx_hal_rcc.c ****           return HAL_TIMEOUT;
 437:Drivers/STM32F4xx_HAL_Driver/Src/stm32f4xx_hal_rcc.c ****         }
 438:Drivers/STM32F4xx_HAL_Driver/Src/stm32f4xx_hal_rcc.c ****       }
 439:Drivers/STM32F4xx_HAL_Driver/Src/stm32f4xx_hal_rcc.c ****     }
 440:Drivers/STM32F4xx_HAL_Driver/Src/stm32f4xx_hal_rcc.c ****     else
 441:Drivers/STM32F4xx_HAL_Driver/Src/stm32f4xx_hal_rcc.c ****     {
 442:Drivers/STM32F4xx_HAL_Driver/Src/stm32f4xx_hal_rcc.c ****       /* Get Start Tick */
 443:Drivers/STM32F4xx_HAL_Driver/Src/stm32f4xx_hal_rcc.c ****       tickstart = HAL_GetTick();
 279              		.loc 1 443 7 is_stmt 1 view .LVU87
 280              		.loc 1 443 19 is_stmt 0 view .LVU88
 281 010e FFF7FEFF 		bl	HAL_GetTick
 282              	.LVL14:
 444:Drivers/STM32F4xx_HAL_Driver/Src/stm32f4xx_hal_rcc.c **** 
 445:Drivers/STM32F4xx_HAL_Driver/Src/stm32f4xx_hal_rcc.c ****       /* Wait till LSE is ready */
 446:Drivers/STM32F4xx_HAL_Driver/Src/stm32f4xx_hal_rcc.c ****       while(__HAL_RCC_GET_FLAG(RCC_FLAG_LSERDY) != RESET)
 447:Drivers/STM32F4xx_HAL_Driver/Src/stm32f4xx_hal_rcc.c ****       {
ARM GAS  /tmp/ccbSUABi.s 			page 14


 448:Drivers/STM32F4xx_HAL_Driver/Src/stm32f4xx_hal_rcc.c ****         if((HAL_GetTick() - tickstart ) > RCC_LSE_TIMEOUT_VALUE)
 283              		.loc 1 448 11 view .LVU89
 284 0112 41F28838 		movw	r8, #5000
 443:Drivers/STM32F4xx_HAL_Driver/Src/stm32f4xx_hal_rcc.c **** 
 285              		.loc 1 443 19 view .LVU90
 286 0116 0746     		mov	r7, r0
 287              	.LVL15:
 446:Drivers/STM32F4xx_HAL_Driver/Src/stm32f4xx_hal_rcc.c ****       {
 288              		.loc 1 446 7 is_stmt 1 view .LVU91
 446:Drivers/STM32F4xx_HAL_Driver/Src/stm32f4xx_hal_rcc.c ****       {
 289              		.loc 1 446 12 is_stmt 0 view .LVU92
 290 0118 05E0     		b	.L50
 291              	.LVL16:
 292              	.L51:
 293              		.loc 1 448 13 view .LVU93
 294 011a FFF7FEFF 		bl	HAL_GetTick
 295              	.LVL17:
 296              		.loc 1 448 27 view .LVU94
 297 011e C01B     		subs	r0, r0, r7
 298              		.loc 1 448 11 view .LVU95
 299 0120 4045     		cmp	r0, r8
 300 0122 00F2A380 		bhi	.L17
 301              	.L50:
 302              		.loc 1 448 9 is_stmt 1 view .LVU96
 446:Drivers/STM32F4xx_HAL_Driver/Src/stm32f4xx_hal_rcc.c ****       {
 303              		.loc 1 446 12 view .LVU97
 446:Drivers/STM32F4xx_HAL_Driver/Src/stm32f4xx_hal_rcc.c ****       {
 304              		.loc 1 446 13 is_stmt 0 view .LVU98
 305 0126 336F     		ldr	r3, [r6, #112]
 446:Drivers/STM32F4xx_HAL_Driver/Src/stm32f4xx_hal_rcc.c ****       {
 306              		.loc 1 446 12 view .LVU99
 307 0128 9807     		lsls	r0, r3, #30
 308 012a F6D4     		bmi	.L51
 449:Drivers/STM32F4xx_HAL_Driver/Src/stm32f4xx_hal_rcc.c ****         {
 450:Drivers/STM32F4xx_HAL_Driver/Src/stm32f4xx_hal_rcc.c ****           return HAL_TIMEOUT;
 451:Drivers/STM32F4xx_HAL_Driver/Src/stm32f4xx_hal_rcc.c ****         }
 452:Drivers/STM32F4xx_HAL_Driver/Src/stm32f4xx_hal_rcc.c ****       }
 453:Drivers/STM32F4xx_HAL_Driver/Src/stm32f4xx_hal_rcc.c ****     }
 454:Drivers/STM32F4xx_HAL_Driver/Src/stm32f4xx_hal_rcc.c **** 
 455:Drivers/STM32F4xx_HAL_Driver/Src/stm32f4xx_hal_rcc.c ****     /* Restore clock configuration if changed */
 456:Drivers/STM32F4xx_HAL_Driver/Src/stm32f4xx_hal_rcc.c ****     if(pwrclkchanged == SET)
 309              		.loc 1 456 5 is_stmt 1 view .LVU100
 310              		.loc 1 456 7 is_stmt 0 view .LVU101
 311 012c 002D     		cmp	r5, #0
 312 012e 40F00381 		bne	.L112
 313              	.LVL18:
 314              	.L35:
 315              		.loc 1 456 7 view .LVU102
 316              	.LBE6:
 457:Drivers/STM32F4xx_HAL_Driver/Src/stm32f4xx_hal_rcc.c ****     {
 458:Drivers/STM32F4xx_HAL_Driver/Src/stm32f4xx_hal_rcc.c ****       __HAL_RCC_PWR_CLK_DISABLE();
 459:Drivers/STM32F4xx_HAL_Driver/Src/stm32f4xx_hal_rcc.c ****     }
 460:Drivers/STM32F4xx_HAL_Driver/Src/stm32f4xx_hal_rcc.c ****   }
 461:Drivers/STM32F4xx_HAL_Driver/Src/stm32f4xx_hal_rcc.c ****   /*-------------------------------- PLL Configuration -----------------------*/
 462:Drivers/STM32F4xx_HAL_Driver/Src/stm32f4xx_hal_rcc.c ****   /* Check the parameters */
 463:Drivers/STM32F4xx_HAL_Driver/Src/stm32f4xx_hal_rcc.c ****   assert_param(IS_RCC_PLL(RCC_OscInitStruct->PLL.PLLState));
 317              		.loc 1 463 3 is_stmt 1 view .LVU103
ARM GAS  /tmp/ccbSUABi.s 			page 15


 464:Drivers/STM32F4xx_HAL_Driver/Src/stm32f4xx_hal_rcc.c ****   if ((RCC_OscInitStruct->PLL.PLLState) != RCC_PLL_NONE)
 318              		.loc 1 464 3 view .LVU104
 319              		.loc 1 464 30 is_stmt 0 view .LVU105
 320 0132 A069     		ldr	r0, [r4, #24]
 321              		.loc 1 464 6 view .LVU106
 322 0134 D0B1     		cbz	r0, .L60
 465:Drivers/STM32F4xx_HAL_Driver/Src/stm32f4xx_hal_rcc.c ****   {
 466:Drivers/STM32F4xx_HAL_Driver/Src/stm32f4xx_hal_rcc.c ****     /* Check if the PLL is used as system clock or not */
 467:Drivers/STM32F4xx_HAL_Driver/Src/stm32f4xx_hal_rcc.c ****     if(__HAL_RCC_GET_SYSCLK_SOURCE() != RCC_CFGR_SWS_PLL)
 323              		.loc 1 467 5 is_stmt 1 view .LVU107
 324              		.loc 1 467 8 is_stmt 0 view .LVU108
 325 0136 644D     		ldr	r5, .L114
 326 0138 AB68     		ldr	r3, [r5, #8]
 327 013a 03F00C03 		and	r3, r3, #12
 328              		.loc 1 467 7 view .LVU109
 329 013e 082B     		cmp	r3, #8
 330 0140 00F0CC80 		beq	.L54
 468:Drivers/STM32F4xx_HAL_Driver/Src/stm32f4xx_hal_rcc.c ****     {
 469:Drivers/STM32F4xx_HAL_Driver/Src/stm32f4xx_hal_rcc.c ****       if((RCC_OscInitStruct->PLL.PLLState) == RCC_PLL_ON)
 331              		.loc 1 469 7 is_stmt 1 view .LVU110
 470:Drivers/STM32F4xx_HAL_Driver/Src/stm32f4xx_hal_rcc.c ****       {
 471:Drivers/STM32F4xx_HAL_Driver/Src/stm32f4xx_hal_rcc.c ****         /* Check the parameters */
 472:Drivers/STM32F4xx_HAL_Driver/Src/stm32f4xx_hal_rcc.c ****         assert_param(IS_RCC_PLLSOURCE(RCC_OscInitStruct->PLL.PLLSource));
 473:Drivers/STM32F4xx_HAL_Driver/Src/stm32f4xx_hal_rcc.c ****         assert_param(IS_RCC_PLLM_VALUE(RCC_OscInitStruct->PLL.PLLM));
 474:Drivers/STM32F4xx_HAL_Driver/Src/stm32f4xx_hal_rcc.c ****         assert_param(IS_RCC_PLLN_VALUE(RCC_OscInitStruct->PLL.PLLN));
 475:Drivers/STM32F4xx_HAL_Driver/Src/stm32f4xx_hal_rcc.c ****         assert_param(IS_RCC_PLLP_VALUE(RCC_OscInitStruct->PLL.PLLP));
 476:Drivers/STM32F4xx_HAL_Driver/Src/stm32f4xx_hal_rcc.c ****         assert_param(IS_RCC_PLLQ_VALUE(RCC_OscInitStruct->PLL.PLLQ));
 477:Drivers/STM32F4xx_HAL_Driver/Src/stm32f4xx_hal_rcc.c **** 
 478:Drivers/STM32F4xx_HAL_Driver/Src/stm32f4xx_hal_rcc.c ****         /* Disable the main PLL. */
 479:Drivers/STM32F4xx_HAL_Driver/Src/stm32f4xx_hal_rcc.c ****         __HAL_RCC_PLL_DISABLE();
 332              		.loc 1 479 9 is_stmt 0 view .LVU111
 333 0144 634B     		ldr	r3, .L114+12
 334 0146 0022     		movs	r2, #0
 469:Drivers/STM32F4xx_HAL_Driver/Src/stm32f4xx_hal_rcc.c ****       {
 335              		.loc 1 469 9 view .LVU112
 336 0148 0228     		cmp	r0, #2
 337              		.loc 1 479 9 view .LVU113
 338 014a 1A60     		str	r2, [r3]
 469:Drivers/STM32F4xx_HAL_Driver/Src/stm32f4xx_hal_rcc.c ****       {
 339              		.loc 1 469 9 view .LVU114
 340 014c 00F00681 		beq	.L113
 480:Drivers/STM32F4xx_HAL_Driver/Src/stm32f4xx_hal_rcc.c **** 
 481:Drivers/STM32F4xx_HAL_Driver/Src/stm32f4xx_hal_rcc.c ****         /* Get Start Tick */
 482:Drivers/STM32F4xx_HAL_Driver/Src/stm32f4xx_hal_rcc.c ****         tickstart = HAL_GetTick();
 483:Drivers/STM32F4xx_HAL_Driver/Src/stm32f4xx_hal_rcc.c **** 
 484:Drivers/STM32F4xx_HAL_Driver/Src/stm32f4xx_hal_rcc.c ****         /* Wait till PLL is ready */
 485:Drivers/STM32F4xx_HAL_Driver/Src/stm32f4xx_hal_rcc.c ****         while(__HAL_RCC_GET_FLAG(RCC_FLAG_PLLRDY) != RESET)
 486:Drivers/STM32F4xx_HAL_Driver/Src/stm32f4xx_hal_rcc.c ****         {
 487:Drivers/STM32F4xx_HAL_Driver/Src/stm32f4xx_hal_rcc.c ****           if((HAL_GetTick() - tickstart ) > PLL_TIMEOUT_VALUE)
 488:Drivers/STM32F4xx_HAL_Driver/Src/stm32f4xx_hal_rcc.c ****           {
 489:Drivers/STM32F4xx_HAL_Driver/Src/stm32f4xx_hal_rcc.c ****             return HAL_TIMEOUT;
 490:Drivers/STM32F4xx_HAL_Driver/Src/stm32f4xx_hal_rcc.c ****           }
 491:Drivers/STM32F4xx_HAL_Driver/Src/stm32f4xx_hal_rcc.c ****         }
 492:Drivers/STM32F4xx_HAL_Driver/Src/stm32f4xx_hal_rcc.c **** 
 493:Drivers/STM32F4xx_HAL_Driver/Src/stm32f4xx_hal_rcc.c ****         /* Configure the main PLL clock source, multiplication and division factors. */
 494:Drivers/STM32F4xx_HAL_Driver/Src/stm32f4xx_hal_rcc.c ****         WRITE_REG(RCC->PLLCFGR, (RCC_OscInitStruct->PLL.PLLSource                                  
 495:Drivers/STM32F4xx_HAL_Driver/Src/stm32f4xx_hal_rcc.c ****                                  RCC_OscInitStruct->PLL.PLLM                                       
ARM GAS  /tmp/ccbSUABi.s 			page 16


 496:Drivers/STM32F4xx_HAL_Driver/Src/stm32f4xx_hal_rcc.c ****                                  (RCC_OscInitStruct->PLL.PLLN << RCC_PLLCFGR_PLLN_Pos)             
 497:Drivers/STM32F4xx_HAL_Driver/Src/stm32f4xx_hal_rcc.c ****                                  (((RCC_OscInitStruct->PLL.PLLP >> 1U) - 1U) << RCC_PLLCFGR_PLLP_Po
 498:Drivers/STM32F4xx_HAL_Driver/Src/stm32f4xx_hal_rcc.c ****                                  (RCC_OscInitStruct->PLL.PLLQ << RCC_PLLCFGR_PLLQ_Pos)));
 499:Drivers/STM32F4xx_HAL_Driver/Src/stm32f4xx_hal_rcc.c ****         /* Enable the main PLL. */
 500:Drivers/STM32F4xx_HAL_Driver/Src/stm32f4xx_hal_rcc.c ****         __HAL_RCC_PLL_ENABLE();
 501:Drivers/STM32F4xx_HAL_Driver/Src/stm32f4xx_hal_rcc.c **** 
 502:Drivers/STM32F4xx_HAL_Driver/Src/stm32f4xx_hal_rcc.c ****         /* Get Start Tick */
 503:Drivers/STM32F4xx_HAL_Driver/Src/stm32f4xx_hal_rcc.c ****         tickstart = HAL_GetTick();
 504:Drivers/STM32F4xx_HAL_Driver/Src/stm32f4xx_hal_rcc.c **** 
 505:Drivers/STM32F4xx_HAL_Driver/Src/stm32f4xx_hal_rcc.c ****         /* Wait till PLL is ready */
 506:Drivers/STM32F4xx_HAL_Driver/Src/stm32f4xx_hal_rcc.c ****         while(__HAL_RCC_GET_FLAG(RCC_FLAG_PLLRDY) == RESET)
 507:Drivers/STM32F4xx_HAL_Driver/Src/stm32f4xx_hal_rcc.c ****         {
 508:Drivers/STM32F4xx_HAL_Driver/Src/stm32f4xx_hal_rcc.c ****           if((HAL_GetTick() - tickstart ) > PLL_TIMEOUT_VALUE)
 509:Drivers/STM32F4xx_HAL_Driver/Src/stm32f4xx_hal_rcc.c ****           {
 510:Drivers/STM32F4xx_HAL_Driver/Src/stm32f4xx_hal_rcc.c ****             return HAL_TIMEOUT;
 511:Drivers/STM32F4xx_HAL_Driver/Src/stm32f4xx_hal_rcc.c ****           }
 512:Drivers/STM32F4xx_HAL_Driver/Src/stm32f4xx_hal_rcc.c ****         }
 513:Drivers/STM32F4xx_HAL_Driver/Src/stm32f4xx_hal_rcc.c ****       }
 514:Drivers/STM32F4xx_HAL_Driver/Src/stm32f4xx_hal_rcc.c ****       else
 515:Drivers/STM32F4xx_HAL_Driver/Src/stm32f4xx_hal_rcc.c ****       {
 516:Drivers/STM32F4xx_HAL_Driver/Src/stm32f4xx_hal_rcc.c ****         /* Disable the main PLL. */
 517:Drivers/STM32F4xx_HAL_Driver/Src/stm32f4xx_hal_rcc.c ****         __HAL_RCC_PLL_DISABLE();
 341              		.loc 1 517 9 is_stmt 1 view .LVU115
 518:Drivers/STM32F4xx_HAL_Driver/Src/stm32f4xx_hal_rcc.c **** 
 519:Drivers/STM32F4xx_HAL_Driver/Src/stm32f4xx_hal_rcc.c ****         /* Get Start Tick */
 520:Drivers/STM32F4xx_HAL_Driver/Src/stm32f4xx_hal_rcc.c ****         tickstart = HAL_GetTick();
 342              		.loc 1 520 9 view .LVU116
 343              		.loc 1 520 21 is_stmt 0 view .LVU117
 344 0150 FFF7FEFF 		bl	HAL_GetTick
 345              	.LVL19:
 521:Drivers/STM32F4xx_HAL_Driver/Src/stm32f4xx_hal_rcc.c **** 
 522:Drivers/STM32F4xx_HAL_Driver/Src/stm32f4xx_hal_rcc.c ****         /* Wait till PLL is ready */
 523:Drivers/STM32F4xx_HAL_Driver/Src/stm32f4xx_hal_rcc.c ****         while(__HAL_RCC_GET_FLAG(RCC_FLAG_PLLRDY) != RESET)
 346              		.loc 1 523 15 view .LVU118
 347 0154 2C46     		mov	r4, r5
 348              	.LVL20:
 520:Drivers/STM32F4xx_HAL_Driver/Src/stm32f4xx_hal_rcc.c **** 
 349              		.loc 1 520 21 view .LVU119
 350 0156 0546     		mov	r5, r0
 351              	.LVL21:
 352              		.loc 1 523 9 is_stmt 1 view .LVU120
 353              		.loc 1 523 14 is_stmt 0 view .LVU121
 354 0158 05E0     		b	.L61
 355              	.LVL22:
 356              	.L62:
 524:Drivers/STM32F4xx_HAL_Driver/Src/stm32f4xx_hal_rcc.c ****         {
 525:Drivers/STM32F4xx_HAL_Driver/Src/stm32f4xx_hal_rcc.c ****           if((HAL_GetTick() - tickstart ) > PLL_TIMEOUT_VALUE)
 357              		.loc 1 525 15 view .LVU122
 358 015a FFF7FEFF 		bl	HAL_GetTick
 359              	.LVL23:
 360              		.loc 1 525 29 view .LVU123
 361 015e 401B     		subs	r0, r0, r5
 362              		.loc 1 525 13 view .LVU124
 363 0160 0228     		cmp	r0, #2
 364 0162 00F28380 		bhi	.L17
 365              	.L61:
 366              		.loc 1 525 11 is_stmt 1 view .LVU125
ARM GAS  /tmp/ccbSUABi.s 			page 17


 523:Drivers/STM32F4xx_HAL_Driver/Src/stm32f4xx_hal_rcc.c ****         {
 367              		.loc 1 523 14 view .LVU126
 523:Drivers/STM32F4xx_HAL_Driver/Src/stm32f4xx_hal_rcc.c ****         {
 368              		.loc 1 523 15 is_stmt 0 view .LVU127
 369 0166 2368     		ldr	r3, [r4]
 523:Drivers/STM32F4xx_HAL_Driver/Src/stm32f4xx_hal_rcc.c ****         {
 370              		.loc 1 523 14 view .LVU128
 371 0168 9B01     		lsls	r3, r3, #6
 372 016a F6D4     		bmi	.L62
 373              	.LVL24:
 374              	.L60:
 526:Drivers/STM32F4xx_HAL_Driver/Src/stm32f4xx_hal_rcc.c ****           {
 527:Drivers/STM32F4xx_HAL_Driver/Src/stm32f4xx_hal_rcc.c ****             return HAL_TIMEOUT;
 528:Drivers/STM32F4xx_HAL_Driver/Src/stm32f4xx_hal_rcc.c ****           }
 529:Drivers/STM32F4xx_HAL_Driver/Src/stm32f4xx_hal_rcc.c ****         }
 530:Drivers/STM32F4xx_HAL_Driver/Src/stm32f4xx_hal_rcc.c ****       }
 531:Drivers/STM32F4xx_HAL_Driver/Src/stm32f4xx_hal_rcc.c ****     }
 532:Drivers/STM32F4xx_HAL_Driver/Src/stm32f4xx_hal_rcc.c ****     else
 533:Drivers/STM32F4xx_HAL_Driver/Src/stm32f4xx_hal_rcc.c ****     {
 534:Drivers/STM32F4xx_HAL_Driver/Src/stm32f4xx_hal_rcc.c ****       /* Check if there is a request to disable the PLL used as System clock source */
 535:Drivers/STM32F4xx_HAL_Driver/Src/stm32f4xx_hal_rcc.c ****       if((RCC_OscInitStruct->PLL.PLLState) == RCC_PLL_OFF)
 536:Drivers/STM32F4xx_HAL_Driver/Src/stm32f4xx_hal_rcc.c ****       {
 537:Drivers/STM32F4xx_HAL_Driver/Src/stm32f4xx_hal_rcc.c ****         return HAL_ERROR;
 538:Drivers/STM32F4xx_HAL_Driver/Src/stm32f4xx_hal_rcc.c ****       }
 539:Drivers/STM32F4xx_HAL_Driver/Src/stm32f4xx_hal_rcc.c ****       else
 540:Drivers/STM32F4xx_HAL_Driver/Src/stm32f4xx_hal_rcc.c ****       {
 541:Drivers/STM32F4xx_HAL_Driver/Src/stm32f4xx_hal_rcc.c ****         /* Do not return HAL_ERROR if request repeats the current configuration */
 542:Drivers/STM32F4xx_HAL_Driver/Src/stm32f4xx_hal_rcc.c ****         pll_config = RCC->CFGR;
 543:Drivers/STM32F4xx_HAL_Driver/Src/stm32f4xx_hal_rcc.c ****         if((READ_BIT(pll_config, RCC_PLLCFGR_PLLSRC) != RCC_OscInitStruct->PLL.PLLSource) ||
 544:Drivers/STM32F4xx_HAL_Driver/Src/stm32f4xx_hal_rcc.c ****            (READ_BIT(pll_config, RCC_PLLCFGR_PLLM) != RCC_OscInitStruct->PLL.PLLM) ||
 545:Drivers/STM32F4xx_HAL_Driver/Src/stm32f4xx_hal_rcc.c ****            (READ_BIT(pll_config, RCC_PLLCFGR_PLLN) != RCC_OscInitStruct->PLL.PLLN) ||
 546:Drivers/STM32F4xx_HAL_Driver/Src/stm32f4xx_hal_rcc.c ****            (READ_BIT(pll_config, RCC_PLLCFGR_PLLP) != RCC_OscInitStruct->PLL.PLLP) ||
 547:Drivers/STM32F4xx_HAL_Driver/Src/stm32f4xx_hal_rcc.c ****            (READ_BIT(pll_config, RCC_PLLCFGR_PLLQ) != RCC_OscInitStruct->PLL.PLLQ))
 548:Drivers/STM32F4xx_HAL_Driver/Src/stm32f4xx_hal_rcc.c ****         {
 549:Drivers/STM32F4xx_HAL_Driver/Src/stm32f4xx_hal_rcc.c ****           return HAL_ERROR;
 550:Drivers/STM32F4xx_HAL_Driver/Src/stm32f4xx_hal_rcc.c ****         }
 551:Drivers/STM32F4xx_HAL_Driver/Src/stm32f4xx_hal_rcc.c ****       }
 552:Drivers/STM32F4xx_HAL_Driver/Src/stm32f4xx_hal_rcc.c ****     }
 553:Drivers/STM32F4xx_HAL_Driver/Src/stm32f4xx_hal_rcc.c ****   }
 554:Drivers/STM32F4xx_HAL_Driver/Src/stm32f4xx_hal_rcc.c ****   return HAL_OK;
 375              		.loc 1 554 10 view .LVU129
 376 016c 0020     		movs	r0, #0
 377              	.L5:
 555:Drivers/STM32F4xx_HAL_Driver/Src/stm32f4xx_hal_rcc.c **** }
 378              		.loc 1 555 1 view .LVU130
 379 016e 02B0     		add	sp, sp, #8
 380              	.LCFI2:
 381              		.cfi_remember_state
 382              		.cfi_def_cfa_offset 24
 383              		@ sp needed
 384 0170 BDE8F081 		pop	{r4, r5, r6, r7, r8, pc}
 385              	.LVL25:
 386              	.L108:
 387              	.LCFI3:
 388              		.cfi_restore_state
 352:Drivers/STM32F4xx_HAL_Driver/Src/stm32f4xx_hal_rcc.c **** 
 389              		.loc 1 352 5 is_stmt 1 view .LVU131
ARM GAS  /tmp/ccbSUABi.s 			page 18


 355:Drivers/STM32F4xx_HAL_Driver/Src/stm32f4xx_hal_rcc.c ****     {
 390              		.loc 1 355 5 view .LVU132
 355:Drivers/STM32F4xx_HAL_Driver/Src/stm32f4xx_hal_rcc.c ****     {
 391              		.loc 1 355 7 is_stmt 0 view .LVU133
 392 0174 6369     		ldr	r3, [r4, #20]
 393 0176 03B3     		cbz	r3, .L29
 358:Drivers/STM32F4xx_HAL_Driver/Src/stm32f4xx_hal_rcc.c **** 
 394              		.loc 1 358 7 is_stmt 1 view .LVU134
 395 0178 574B     		ldr	r3, .L114+16
 364:Drivers/STM32F4xx_HAL_Driver/Src/stm32f4xx_hal_rcc.c ****       {
 396              		.loc 1 364 13 is_stmt 0 view .LVU135
 397 017a 534E     		ldr	r6, .L114
 358:Drivers/STM32F4xx_HAL_Driver/Src/stm32f4xx_hal_rcc.c **** 
 398              		.loc 1 358 7 view .LVU136
 399 017c 0122     		movs	r2, #1
 400 017e 1A60     		str	r2, [r3]
 361:Drivers/STM32F4xx_HAL_Driver/Src/stm32f4xx_hal_rcc.c **** 
 401              		.loc 1 361 7 is_stmt 1 view .LVU137
 361:Drivers/STM32F4xx_HAL_Driver/Src/stm32f4xx_hal_rcc.c **** 
 402              		.loc 1 361 19 is_stmt 0 view .LVU138
 403 0180 FFF7FEFF 		bl	HAL_GetTick
 404              	.LVL26:
 405 0184 0546     		mov	r5, r0
 406              	.LVL27:
 364:Drivers/STM32F4xx_HAL_Driver/Src/stm32f4xx_hal_rcc.c ****       {
 407              		.loc 1 364 7 is_stmt 1 view .LVU139
 364:Drivers/STM32F4xx_HAL_Driver/Src/stm32f4xx_hal_rcc.c ****       {
 408              		.loc 1 364 12 is_stmt 0 view .LVU140
 409 0186 04E0     		b	.L30
 410              	.LVL28:
 411              	.L31:
 366:Drivers/STM32F4xx_HAL_Driver/Src/stm32f4xx_hal_rcc.c ****         {
 412              		.loc 1 366 13 view .LVU141
 413 0188 FFF7FEFF 		bl	HAL_GetTick
 414              	.LVL29:
 366:Drivers/STM32F4xx_HAL_Driver/Src/stm32f4xx_hal_rcc.c ****         {
 415              		.loc 1 366 27 view .LVU142
 416 018c 401B     		subs	r0, r0, r5
 366:Drivers/STM32F4xx_HAL_Driver/Src/stm32f4xx_hal_rcc.c ****         {
 417              		.loc 1 366 11 view .LVU143
 418 018e 0228     		cmp	r0, #2
 419 0190 6CD8     		bhi	.L17
 420              	.L30:
 366:Drivers/STM32F4xx_HAL_Driver/Src/stm32f4xx_hal_rcc.c ****         {
 421              		.loc 1 366 9 is_stmt 1 view .LVU144
 364:Drivers/STM32F4xx_HAL_Driver/Src/stm32f4xx_hal_rcc.c ****       {
 422              		.loc 1 364 12 view .LVU145
 364:Drivers/STM32F4xx_HAL_Driver/Src/stm32f4xx_hal_rcc.c ****       {
 423              		.loc 1 364 13 is_stmt 0 view .LVU146
 424 0192 736F     		ldr	r3, [r6, #116]
 364:Drivers/STM32F4xx_HAL_Driver/Src/stm32f4xx_hal_rcc.c ****       {
 425              		.loc 1 364 12 view .LVU147
 426 0194 9B07     		lsls	r3, r3, #30
 427 0196 F7D5     		bpl	.L31
 428              	.L102:
 364:Drivers/STM32F4xx_HAL_Driver/Src/stm32f4xx_hal_rcc.c ****       {
 429              		.loc 1 364 12 view .LVU148
ARM GAS  /tmp/ccbSUABi.s 			page 19


 430 0198 2368     		ldr	r3, [r4]
 431 019a 98E7     		b	.L28
 432              	.LVL30:
 433              	.L107:
 292:Drivers/STM32F4xx_HAL_Driver/Src/stm32f4xx_hal_rcc.c ****     {
 434              		.loc 1 292 68 view .LVU149
 435 019c 5268     		ldr	r2, [r2, #4]
 292:Drivers/STM32F4xx_HAL_Driver/Src/stm32f4xx_hal_rcc.c ****     {
 436              		.loc 1 292 60 view .LVU150
 437 019e 5602     		lsls	r6, r2, #9
 438 01a0 3FF576AF 		bmi	.L21
 439              	.L20:
 295:Drivers/STM32F4xx_HAL_Driver/Src/stm32f4xx_hal_rcc.c ****       {
 440              		.loc 1 295 7 is_stmt 1 view .LVU151
 295:Drivers/STM32F4xx_HAL_Driver/Src/stm32f4xx_hal_rcc.c ****       {
 441              		.loc 1 295 11 is_stmt 0 view .LVU152
 442 01a4 484A     		ldr	r2, .L114
 443 01a6 1268     		ldr	r2, [r2]
 295:Drivers/STM32F4xx_HAL_Driver/Src/stm32f4xx_hal_rcc.c ****       {
 444              		.loc 1 295 9 view .LVU153
 445 01a8 9507     		lsls	r5, r2, #30
 446 01aa 43D5     		bpl	.L22
 295:Drivers/STM32F4xx_HAL_Driver/Src/stm32f4xx_hal_rcc.c ****       {
 447              		.loc 1 295 57 discriminator 1 view .LVU154
 448 01ac E268     		ldr	r2, [r4, #12]
 449 01ae 012A     		cmp	r2, #1
 450 01b0 40D0     		beq	.L22
 451              	.L68:
 537:Drivers/STM32F4xx_HAL_Driver/Src/stm32f4xx_hal_rcc.c ****       }
 452              		.loc 1 537 16 view .LVU155
 453 01b2 0120     		movs	r0, #1
 454              		.loc 1 555 1 view .LVU156
 455 01b4 02B0     		add	sp, sp, #8
 456              	.LCFI4:
 457              		.cfi_remember_state
 458              		.cfi_def_cfa_offset 24
 459              		@ sp needed
 460 01b6 BDE8F081 		pop	{r4, r5, r6, r7, r8, pc}
 461              	.LVL31:
 462              	.L29:
 463              	.LCFI5:
 464              		.cfi_restore_state
 375:Drivers/STM32F4xx_HAL_Driver/Src/stm32f4xx_hal_rcc.c **** 
 465              		.loc 1 375 7 is_stmt 1 view .LVU157
 466 01ba 474A     		ldr	r2, .L114+16
 381:Drivers/STM32F4xx_HAL_Driver/Src/stm32f4xx_hal_rcc.c ****       {
 467              		.loc 1 381 13 is_stmt 0 view .LVU158
 468 01bc 424E     		ldr	r6, .L114
 375:Drivers/STM32F4xx_HAL_Driver/Src/stm32f4xx_hal_rcc.c **** 
 469              		.loc 1 375 7 view .LVU159
 470 01be 1360     		str	r3, [r2]
 378:Drivers/STM32F4xx_HAL_Driver/Src/stm32f4xx_hal_rcc.c **** 
 471              		.loc 1 378 7 is_stmt 1 view .LVU160
 378:Drivers/STM32F4xx_HAL_Driver/Src/stm32f4xx_hal_rcc.c **** 
 472              		.loc 1 378 19 is_stmt 0 view .LVU161
 473 01c0 FFF7FEFF 		bl	HAL_GetTick
 474              	.LVL32:
ARM GAS  /tmp/ccbSUABi.s 			page 20


 475 01c4 0546     		mov	r5, r0
 476              	.LVL33:
 381:Drivers/STM32F4xx_HAL_Driver/Src/stm32f4xx_hal_rcc.c ****       {
 477              		.loc 1 381 7 is_stmt 1 view .LVU162
 381:Drivers/STM32F4xx_HAL_Driver/Src/stm32f4xx_hal_rcc.c ****       {
 478              		.loc 1 381 12 is_stmt 0 view .LVU163
 479 01c6 04E0     		b	.L32
 480              	.LVL34:
 481              	.L33:
 383:Drivers/STM32F4xx_HAL_Driver/Src/stm32f4xx_hal_rcc.c ****         {
 482              		.loc 1 383 13 view .LVU164
 483 01c8 FFF7FEFF 		bl	HAL_GetTick
 484              	.LVL35:
 383:Drivers/STM32F4xx_HAL_Driver/Src/stm32f4xx_hal_rcc.c ****         {
 485              		.loc 1 383 27 view .LVU165
 486 01cc 401B     		subs	r0, r0, r5
 383:Drivers/STM32F4xx_HAL_Driver/Src/stm32f4xx_hal_rcc.c ****         {
 487              		.loc 1 383 11 view .LVU166
 488 01ce 0228     		cmp	r0, #2
 489 01d0 4CD8     		bhi	.L17
 490              	.L32:
 383:Drivers/STM32F4xx_HAL_Driver/Src/stm32f4xx_hal_rcc.c ****         {
 491              		.loc 1 383 9 is_stmt 1 view .LVU167
 381:Drivers/STM32F4xx_HAL_Driver/Src/stm32f4xx_hal_rcc.c ****       {
 492              		.loc 1 381 12 view .LVU168
 381:Drivers/STM32F4xx_HAL_Driver/Src/stm32f4xx_hal_rcc.c ****       {
 493              		.loc 1 381 13 is_stmt 0 view .LVU169
 494 01d2 736F     		ldr	r3, [r6, #116]
 381:Drivers/STM32F4xx_HAL_Driver/Src/stm32f4xx_hal_rcc.c ****       {
 495              		.loc 1 381 12 view .LVU170
 496 01d4 9F07     		lsls	r7, r3, #30
 497 01d6 F7D4     		bmi	.L33
 498 01d8 DEE7     		b	.L102
 499              	.LVL36:
 500              	.L109:
 501              	.LBB8:
 402:Drivers/STM32F4xx_HAL_Driver/Src/stm32f4xx_hal_rcc.c ****       pwrclkchanged = SET;
 502              		.loc 1 402 7 is_stmt 1 view .LVU171
 503              	.LBB7:
 402:Drivers/STM32F4xx_HAL_Driver/Src/stm32f4xx_hal_rcc.c ****       pwrclkchanged = SET;
 504              		.loc 1 402 7 view .LVU172
 505 01da 0193     		str	r3, [sp, #4]
 402:Drivers/STM32F4xx_HAL_Driver/Src/stm32f4xx_hal_rcc.c ****       pwrclkchanged = SET;
 506              		.loc 1 402 7 view .LVU173
 507 01dc 136C     		ldr	r3, [r2, #64]
 508 01de 43F08053 		orr	r3, r3, #268435456
 509 01e2 1364     		str	r3, [r2, #64]
 402:Drivers/STM32F4xx_HAL_Driver/Src/stm32f4xx_hal_rcc.c ****       pwrclkchanged = SET;
 510              		.loc 1 402 7 view .LVU174
 511 01e4 136C     		ldr	r3, [r2, #64]
 512 01e6 03F08053 		and	r3, r3, #268435456
 513 01ea 0193     		str	r3, [sp, #4]
 402:Drivers/STM32F4xx_HAL_Driver/Src/stm32f4xx_hal_rcc.c ****       pwrclkchanged = SET;
 514              		.loc 1 402 7 view .LVU175
 515 01ec 019B     		ldr	r3, [sp, #4]
 516              	.LBE7:
 402:Drivers/STM32F4xx_HAL_Driver/Src/stm32f4xx_hal_rcc.c ****       pwrclkchanged = SET;
ARM GAS  /tmp/ccbSUABi.s 			page 21


 517              		.loc 1 402 7 view .LVU176
 403:Drivers/STM32F4xx_HAL_Driver/Src/stm32f4xx_hal_rcc.c ****     }
 518              		.loc 1 403 7 view .LVU177
 519              	.LVL37:
 403:Drivers/STM32F4xx_HAL_Driver/Src/stm32f4xx_hal_rcc.c ****     }
 520              		.loc 1 403 21 is_stmt 0 view .LVU178
 521 01ee 0125     		movs	r5, #1
 522 01f0 75E7     		b	.L36
 523              	.LVL38:
 524              	.L104:
 403:Drivers/STM32F4xx_HAL_Driver/Src/stm32f4xx_hal_rcc.c ****     }
 525              		.loc 1 403 21 view .LVU179
 526              	.LBE8:
 240:Drivers/STM32F4xx_HAL_Driver/Src/stm32f4xx_hal_rcc.c ****     {
 527              		.loc 1 240 68 view .LVU180
 528 01f2 4A68     		ldr	r2, [r1, #4]
 240:Drivers/STM32F4xx_HAL_Driver/Src/stm32f4xx_hal_rcc.c ****     {
 529              		.loc 1 240 60 view .LVU181
 530 01f4 5002     		lsls	r0, r2, #9
 531              	.LVL39:
 240:Drivers/STM32F4xx_HAL_Driver/Src/stm32f4xx_hal_rcc.c ****     {
 532              		.loc 1 240 60 view .LVU182
 533 01f6 7FF51AAF 		bpl	.L8
 534              	.L7:
 242:Drivers/STM32F4xx_HAL_Driver/Src/stm32f4xx_hal_rcc.c ****       {
 535              		.loc 1 242 7 is_stmt 1 view .LVU183
 242:Drivers/STM32F4xx_HAL_Driver/Src/stm32f4xx_hal_rcc.c ****       {
 536              		.loc 1 242 11 is_stmt 0 view .LVU184
 537 01fa 334A     		ldr	r2, .L114
 538 01fc 1268     		ldr	r2, [r2]
 242:Drivers/STM32F4xx_HAL_Driver/Src/stm32f4xx_hal_rcc.c ****       {
 539              		.loc 1 242 9 view .LVU185
 540 01fe 9103     		lsls	r1, r2, #14
 541 0200 7FF538AF 		bpl	.L6
 242:Drivers/STM32F4xx_HAL_Driver/Src/stm32f4xx_hal_rcc.c ****       {
 542              		.loc 1 242 57 discriminator 1 view .LVU186
 543 0204 6268     		ldr	r2, [r4, #4]
 544 0206 002A     		cmp	r2, #0
 545 0208 7FF434AF 		bne	.L6
 546 020c D1E7     		b	.L68
 547              	.L105:
 250:Drivers/STM32F4xx_HAL_Driver/Src/stm32f4xx_hal_rcc.c **** 
 548              		.loc 1 250 7 is_stmt 1 discriminator 1 view .LVU187
 549 020e 2E4A     		ldr	r2, .L114
 550 0210 1368     		ldr	r3, [r2]
 551 0212 43F48033 		orr	r3, r3, #65536
 552 0216 1360     		str	r3, [r2]
 250:Drivers/STM32F4xx_HAL_Driver/Src/stm32f4xx_hal_rcc.c **** 
 553              		.loc 1 250 7 discriminator 1 view .LVU188
 253:Drivers/STM32F4xx_HAL_Driver/Src/stm32f4xx_hal_rcc.c ****       {
 554              		.loc 1 253 7 discriminator 1 view .LVU189
 555              	.L11:
 256:Drivers/STM32F4xx_HAL_Driver/Src/stm32f4xx_hal_rcc.c **** 
 556              		.loc 1 256 9 view .LVU190
 256:Drivers/STM32F4xx_HAL_Driver/Src/stm32f4xx_hal_rcc.c **** 
 557              		.loc 1 256 21 is_stmt 0 view .LVU191
 558 0218 FFF7FEFF 		bl	HAL_GetTick
ARM GAS  /tmp/ccbSUABi.s 			page 22


 559              	.LVL40:
 259:Drivers/STM32F4xx_HAL_Driver/Src/stm32f4xx_hal_rcc.c ****         {
 560              		.loc 1 259 15 view .LVU192
 561 021c 2A4E     		ldr	r6, .L114
 256:Drivers/STM32F4xx_HAL_Driver/Src/stm32f4xx_hal_rcc.c **** 
 562              		.loc 1 256 21 view .LVU193
 563 021e 0546     		mov	r5, r0
 564              	.LVL41:
 259:Drivers/STM32F4xx_HAL_Driver/Src/stm32f4xx_hal_rcc.c ****         {
 565              		.loc 1 259 9 is_stmt 1 view .LVU194
 259:Drivers/STM32F4xx_HAL_Driver/Src/stm32f4xx_hal_rcc.c ****         {
 566              		.loc 1 259 14 is_stmt 0 view .LVU195
 567 0220 04E0     		b	.L14
 568              	.LVL42:
 569              	.L15:
 261:Drivers/STM32F4xx_HAL_Driver/Src/stm32f4xx_hal_rcc.c ****           {
 570              		.loc 1 261 15 view .LVU196
 571 0222 FFF7FEFF 		bl	HAL_GetTick
 572              	.LVL43:
 261:Drivers/STM32F4xx_HAL_Driver/Src/stm32f4xx_hal_rcc.c ****           {
 573              		.loc 1 261 29 view .LVU197
 574 0226 401B     		subs	r0, r0, r5
 261:Drivers/STM32F4xx_HAL_Driver/Src/stm32f4xx_hal_rcc.c ****           {
 575              		.loc 1 261 13 view .LVU198
 576 0228 6428     		cmp	r0, #100
 577 022a 1FD8     		bhi	.L17
 578              	.L14:
 261:Drivers/STM32F4xx_HAL_Driver/Src/stm32f4xx_hal_rcc.c ****           {
 579              		.loc 1 261 11 is_stmt 1 view .LVU199
 259:Drivers/STM32F4xx_HAL_Driver/Src/stm32f4xx_hal_rcc.c ****         {
 580              		.loc 1 259 14 view .LVU200
 259:Drivers/STM32F4xx_HAL_Driver/Src/stm32f4xx_hal_rcc.c ****         {
 581              		.loc 1 259 15 is_stmt 0 view .LVU201
 582 022c 3368     		ldr	r3, [r6]
 259:Drivers/STM32F4xx_HAL_Driver/Src/stm32f4xx_hal_rcc.c ****         {
 583              		.loc 1 259 14 view .LVU202
 584 022e 9A03     		lsls	r2, r3, #14
 585 0230 F7D5     		bpl	.L15
 586 0232 1EE7     		b	.L101
 587              	.LVL44:
 588              	.L22:
 303:Drivers/STM32F4xx_HAL_Driver/Src/stm32f4xx_hal_rcc.c ****       }
 589              		.loc 1 303 9 is_stmt 1 view .LVU203
 590 0234 2449     		ldr	r1, .L114
 591 0236 2069     		ldr	r0, [r4, #16]
 592 0238 0A68     		ldr	r2, [r1]
 593 023a 22F0F802 		bic	r2, r2, #248
 594 023e 42EAC002 		orr	r2, r2, r0, lsl #3
 595 0242 0A60     		str	r2, [r1]
 349:Drivers/STM32F4xx_HAL_Driver/Src/stm32f4xx_hal_rcc.c ****   {
 596              		.loc 1 349 3 view .LVU204
 349:Drivers/STM32F4xx_HAL_Driver/Src/stm32f4xx_hal_rcc.c ****   {
 597              		.loc 1 349 5 is_stmt 0 view .LVU205
 598 0244 1A07     		lsls	r2, r3, #28
 599 0246 7FF542AF 		bpl	.L28
 600 024a 93E7     		b	.L108
 601              	.LVL45:
ARM GAS  /tmp/ccbSUABi.s 			page 23


 602              	.L37:
 603              	.LBB9:
 409:Drivers/STM32F4xx_HAL_Driver/Src/stm32f4xx_hal_rcc.c **** 
 604              		.loc 1 409 7 is_stmt 1 view .LVU206
 605 024c 3368     		ldr	r3, [r6]
 606 024e 43F48073 		orr	r3, r3, #256
 607 0252 3360     		str	r3, [r6]
 412:Drivers/STM32F4xx_HAL_Driver/Src/stm32f4xx_hal_rcc.c **** 
 608              		.loc 1 412 7 view .LVU207
 412:Drivers/STM32F4xx_HAL_Driver/Src/stm32f4xx_hal_rcc.c **** 
 609              		.loc 1 412 19 is_stmt 0 view .LVU208
 610 0254 FFF7FEFF 		bl	HAL_GetTick
 611              	.LVL46:
 612 0258 0746     		mov	r7, r0
 613              	.LVL47:
 414:Drivers/STM32F4xx_HAL_Driver/Src/stm32f4xx_hal_rcc.c ****       {
 614              		.loc 1 414 7 is_stmt 1 view .LVU209
 615              	.L40:
 416:Drivers/STM32F4xx_HAL_Driver/Src/stm32f4xx_hal_rcc.c ****         {
 616              		.loc 1 416 9 view .LVU210
 414:Drivers/STM32F4xx_HAL_Driver/Src/stm32f4xx_hal_rcc.c ****       {
 617              		.loc 1 414 12 view .LVU211
 414:Drivers/STM32F4xx_HAL_Driver/Src/stm32f4xx_hal_rcc.c ****       {
 618              		.loc 1 414 13 is_stmt 0 view .LVU212
 619 025a 3368     		ldr	r3, [r6]
 414:Drivers/STM32F4xx_HAL_Driver/Src/stm32f4xx_hal_rcc.c ****       {
 620              		.loc 1 414 12 view .LVU213
 621 025c DA05     		lsls	r2, r3, #23
 622 025e 3FF543AF 		bmi	.L42
 416:Drivers/STM32F4xx_HAL_Driver/Src/stm32f4xx_hal_rcc.c ****         {
 623              		.loc 1 416 13 view .LVU214
 624 0262 FFF7FEFF 		bl	HAL_GetTick
 625              	.LVL48:
 416:Drivers/STM32F4xx_HAL_Driver/Src/stm32f4xx_hal_rcc.c ****         {
 626              		.loc 1 416 27 view .LVU215
 627 0266 C01B     		subs	r0, r0, r7
 416:Drivers/STM32F4xx_HAL_Driver/Src/stm32f4xx_hal_rcc.c ****         {
 628              		.loc 1 416 11 view .LVU216
 629 0268 0228     		cmp	r0, #2
 630 026a F6D9     		bls	.L40
 631              	.LVL49:
 632              	.L17:
 416:Drivers/STM32F4xx_HAL_Driver/Src/stm32f4xx_hal_rcc.c ****         {
 633              		.loc 1 416 11 view .LVU217
 634              	.LBE9:
 263:Drivers/STM32F4xx_HAL_Driver/Src/stm32f4xx_hal_rcc.c ****           }
 635              		.loc 1 263 20 view .LVU218
 636 026c 0320     		movs	r0, #3
 637              		.loc 1 555 1 view .LVU219
 638 026e 02B0     		add	sp, sp, #8
 639              	.LCFI6:
 640              		.cfi_remember_state
 641              		.cfi_def_cfa_offset 24
 642              		@ sp needed
 643 0270 BDE8F081 		pop	{r4, r5, r6, r7, r8, pc}
 644              	.LVL50:
 645              	.L110:
ARM GAS  /tmp/ccbSUABi.s 			page 24


 646              	.LCFI7:
 647              		.cfi_restore_state
 648              	.LBB10:
 424:Drivers/STM32F4xx_HAL_Driver/Src/stm32f4xx_hal_rcc.c ****     /* Check the LSE State */
 649              		.loc 1 424 5 is_stmt 1 discriminator 1 view .LVU220
 650 0274 144A     		ldr	r2, .L114
 651 0276 136F     		ldr	r3, [r2, #112]
 652 0278 43F00103 		orr	r3, r3, #1
 653 027c 1367     		str	r3, [r2, #112]
 424:Drivers/STM32F4xx_HAL_Driver/Src/stm32f4xx_hal_rcc.c ****     /* Check the LSE State */
 654              		.loc 1 424 5 discriminator 1 view .LVU221
 426:Drivers/STM32F4xx_HAL_Driver/Src/stm32f4xx_hal_rcc.c ****     {
 655              		.loc 1 426 5 discriminator 1 view .LVU222
 656              	.L43:
 429:Drivers/STM32F4xx_HAL_Driver/Src/stm32f4xx_hal_rcc.c **** 
 657              		.loc 1 429 7 view .LVU223
 429:Drivers/STM32F4xx_HAL_Driver/Src/stm32f4xx_hal_rcc.c **** 
 658              		.loc 1 429 19 is_stmt 0 view .LVU224
 659 027e FFF7FEFF 		bl	HAL_GetTick
 660              	.LVL51:
 432:Drivers/STM32F4xx_HAL_Driver/Src/stm32f4xx_hal_rcc.c ****       {
 661              		.loc 1 432 13 view .LVU225
 662 0282 114F     		ldr	r7, .L114
 429:Drivers/STM32F4xx_HAL_Driver/Src/stm32f4xx_hal_rcc.c **** 
 663              		.loc 1 429 19 view .LVU226
 664 0284 0646     		mov	r6, r0
 665              	.LVL52:
 432:Drivers/STM32F4xx_HAL_Driver/Src/stm32f4xx_hal_rcc.c ****       {
 666              		.loc 1 432 7 is_stmt 1 view .LVU227
 434:Drivers/STM32F4xx_HAL_Driver/Src/stm32f4xx_hal_rcc.c ****         {
 667              		.loc 1 434 11 is_stmt 0 view .LVU228
 668 0286 41F28838 		movw	r8, #5000
 432:Drivers/STM32F4xx_HAL_Driver/Src/stm32f4xx_hal_rcc.c ****       {
 669              		.loc 1 432 12 view .LVU229
 670 028a 04E0     		b	.L46
 671              	.LVL53:
 672              	.L47:
 434:Drivers/STM32F4xx_HAL_Driver/Src/stm32f4xx_hal_rcc.c ****         {
 673              		.loc 1 434 13 view .LVU230
 674 028c FFF7FEFF 		bl	HAL_GetTick
 675              	.LVL54:
 434:Drivers/STM32F4xx_HAL_Driver/Src/stm32f4xx_hal_rcc.c ****         {
 676              		.loc 1 434 27 view .LVU231
 677 0290 801B     		subs	r0, r0, r6
 434:Drivers/STM32F4xx_HAL_Driver/Src/stm32f4xx_hal_rcc.c ****         {
 678              		.loc 1 434 11 view .LVU232
 679 0292 4045     		cmp	r0, r8
 680 0294 EAD8     		bhi	.L17
 681              	.L46:
 434:Drivers/STM32F4xx_HAL_Driver/Src/stm32f4xx_hal_rcc.c ****         {
 682              		.loc 1 434 9 is_stmt 1 view .LVU233
 432:Drivers/STM32F4xx_HAL_Driver/Src/stm32f4xx_hal_rcc.c ****       {
 683              		.loc 1 432 12 view .LVU234
 432:Drivers/STM32F4xx_HAL_Driver/Src/stm32f4xx_hal_rcc.c ****       {
 684              		.loc 1 432 13 is_stmt 0 view .LVU235
 685 0296 3B6F     		ldr	r3, [r7, #112]
 432:Drivers/STM32F4xx_HAL_Driver/Src/stm32f4xx_hal_rcc.c ****       {
ARM GAS  /tmp/ccbSUABi.s 			page 25


 686              		.loc 1 432 12 view .LVU236
 687 0298 9B07     		lsls	r3, r3, #30
 688 029a F7D5     		bpl	.L47
 456:Drivers/STM32F4xx_HAL_Driver/Src/stm32f4xx_hal_rcc.c ****     {
 689              		.loc 1 456 5 is_stmt 1 view .LVU237
 456:Drivers/STM32F4xx_HAL_Driver/Src/stm32f4xx_hal_rcc.c ****     {
 690              		.loc 1 456 7 is_stmt 0 view .LVU238
 691 029c 002D     		cmp	r5, #0
 692 029e 3FF448AF 		beq	.L35
 693 02a2 49E0     		b	.L112
 694              	.LVL55:
 695              	.L23:
 456:Drivers/STM32F4xx_HAL_Driver/Src/stm32f4xx_hal_rcc.c ****     {
 696              		.loc 1 456 7 view .LVU239
 697              	.LBE10:
 332:Drivers/STM32F4xx_HAL_Driver/Src/stm32f4xx_hal_rcc.c **** 
 698              		.loc 1 332 9 is_stmt 1 view .LVU240
 699 02a4 094A     		ldr	r2, .L114+4
 338:Drivers/STM32F4xx_HAL_Driver/Src/stm32f4xx_hal_rcc.c ****         {
 700              		.loc 1 338 15 is_stmt 0 view .LVU241
 701 02a6 084E     		ldr	r6, .L114
 332:Drivers/STM32F4xx_HAL_Driver/Src/stm32f4xx_hal_rcc.c **** 
 702              		.loc 1 332 9 view .LVU242
 703 02a8 1360     		str	r3, [r2]
 335:Drivers/STM32F4xx_HAL_Driver/Src/stm32f4xx_hal_rcc.c **** 
 704              		.loc 1 335 9 is_stmt 1 view .LVU243
 335:Drivers/STM32F4xx_HAL_Driver/Src/stm32f4xx_hal_rcc.c **** 
 705              		.loc 1 335 21 is_stmt 0 view .LVU244
 706 02aa FFF7FEFF 		bl	HAL_GetTick
 707              	.LVL56:
 708 02ae 0546     		mov	r5, r0
 709              	.LVL57:
 338:Drivers/STM32F4xx_HAL_Driver/Src/stm32f4xx_hal_rcc.c ****         {
 710              		.loc 1 338 9 is_stmt 1 view .LVU245
 338:Drivers/STM32F4xx_HAL_Driver/Src/stm32f4xx_hal_rcc.c ****         {
 711              		.loc 1 338 14 is_stmt 0 view .LVU246
 712 02b0 04E0     		b	.L26
 713              	.LVL58:
 714              	.L27:
 340:Drivers/STM32F4xx_HAL_Driver/Src/stm32f4xx_hal_rcc.c ****           {
 715              		.loc 1 340 15 view .LVU247
 716 02b2 FFF7FEFF 		bl	HAL_GetTick
 717              	.LVL59:
 340:Drivers/STM32F4xx_HAL_Driver/Src/stm32f4xx_hal_rcc.c ****           {
 718              		.loc 1 340 29 view .LVU248
 719 02b6 401B     		subs	r0, r0, r5
 340:Drivers/STM32F4xx_HAL_Driver/Src/stm32f4xx_hal_rcc.c ****           {
 720              		.loc 1 340 13 view .LVU249
 721 02b8 0228     		cmp	r0, #2
 722 02ba D7D8     		bhi	.L17
 723              	.L26:
 340:Drivers/STM32F4xx_HAL_Driver/Src/stm32f4xx_hal_rcc.c ****           {
 724              		.loc 1 340 11 is_stmt 1 view .LVU250
 338:Drivers/STM32F4xx_HAL_Driver/Src/stm32f4xx_hal_rcc.c ****         {
 725              		.loc 1 338 14 view .LVU251
 338:Drivers/STM32F4xx_HAL_Driver/Src/stm32f4xx_hal_rcc.c ****         {
 726              		.loc 1 338 15 is_stmt 0 view .LVU252
ARM GAS  /tmp/ccbSUABi.s 			page 26


 727 02bc 3368     		ldr	r3, [r6]
 338:Drivers/STM32F4xx_HAL_Driver/Src/stm32f4xx_hal_rcc.c ****         {
 728              		.loc 1 338 14 view .LVU253
 729 02be 9907     		lsls	r1, r3, #30
 730 02c0 F7D4     		bmi	.L27
 731 02c2 2368     		ldr	r3, [r4]
 732 02c4 01E7     		b	.L19
 733              	.L115:
 734 02c6 00BF     		.align	2
 735              	.L114:
 736 02c8 00380240 		.word	1073887232
 737 02cc 00004742 		.word	1111949312
 738 02d0 00700040 		.word	1073770496
 739 02d4 60004742 		.word	1111949408
 740 02d8 800E4742 		.word	1111953024
 741              	.LVL60:
 742              	.L54:
 535:Drivers/STM32F4xx_HAL_Driver/Src/stm32f4xx_hal_rcc.c ****       {
 743              		.loc 1 535 7 is_stmt 1 view .LVU254
 535:Drivers/STM32F4xx_HAL_Driver/Src/stm32f4xx_hal_rcc.c ****       {
 744              		.loc 1 535 9 is_stmt 0 view .LVU255
 745 02dc 0128     		cmp	r0, #1
 746 02de 3FF446AF 		beq	.L5
 542:Drivers/STM32F4xx_HAL_Driver/Src/stm32f4xx_hal_rcc.c ****         if((READ_BIT(pll_config, RCC_PLLCFGR_PLLSRC) != RCC_OscInitStruct->PLL.PLLSource) ||
 747              		.loc 1 542 9 is_stmt 1 view .LVU256
 542:Drivers/STM32F4xx_HAL_Driver/Src/stm32f4xx_hal_rcc.c ****         if((READ_BIT(pll_config, RCC_PLLCFGR_PLLSRC) != RCC_OscInitStruct->PLL.PLLSource) ||
 748              		.loc 1 542 20 is_stmt 0 view .LVU257
 749 02e2 AB68     		ldr	r3, [r5, #8]
 750              	.LVL61:
 543:Drivers/STM32F4xx_HAL_Driver/Src/stm32f4xx_hal_rcc.c ****            (READ_BIT(pll_config, RCC_PLLCFGR_PLLM) != RCC_OscInitStruct->PLL.PLLM) ||
 751              		.loc 1 543 9 is_stmt 1 view .LVU258
 543:Drivers/STM32F4xx_HAL_Driver/Src/stm32f4xx_hal_rcc.c ****            (READ_BIT(pll_config, RCC_PLLCFGR_PLLM) != RCC_OscInitStruct->PLL.PLLM) ||
 752              		.loc 1 543 11 is_stmt 0 view .LVU259
 753 02e4 E269     		ldr	r2, [r4, #28]
 543:Drivers/STM32F4xx_HAL_Driver/Src/stm32f4xx_hal_rcc.c ****            (READ_BIT(pll_config, RCC_PLLCFGR_PLLM) != RCC_OscInitStruct->PLL.PLLM) ||
 754              		.loc 1 543 13 view .LVU260
 755 02e6 03F48001 		and	r1, r3, #4194304
 543:Drivers/STM32F4xx_HAL_Driver/Src/stm32f4xx_hal_rcc.c ****            (READ_BIT(pll_config, RCC_PLLCFGR_PLLM) != RCC_OscInitStruct->PLL.PLLM) ||
 756              		.loc 1 543 11 view .LVU261
 757 02ea 9142     		cmp	r1, r2
 758 02ec 7FF461AF 		bne	.L68
 543:Drivers/STM32F4xx_HAL_Driver/Src/stm32f4xx_hal_rcc.c ****            (READ_BIT(pll_config, RCC_PLLCFGR_PLLM) != RCC_OscInitStruct->PLL.PLLM) ||
 759              		.loc 1 543 91 discriminator 1 view .LVU262
 760 02f0 226A     		ldr	r2, [r4, #32]
 544:Drivers/STM32F4xx_HAL_Driver/Src/stm32f4xx_hal_rcc.c ****            (READ_BIT(pll_config, RCC_PLLCFGR_PLLN) != RCC_OscInitStruct->PLL.PLLN) ||
 761              		.loc 1 544 13 discriminator 1 view .LVU263
 762 02f2 03F03F01 		and	r1, r3, #63
 543:Drivers/STM32F4xx_HAL_Driver/Src/stm32f4xx_hal_rcc.c ****            (READ_BIT(pll_config, RCC_PLLCFGR_PLLM) != RCC_OscInitStruct->PLL.PLLM) ||
 763              		.loc 1 543 91 discriminator 1 view .LVU264
 764 02f6 9142     		cmp	r1, r2
 765 02f8 7FF45BAF 		bne	.L68
 544:Drivers/STM32F4xx_HAL_Driver/Src/stm32f4xx_hal_rcc.c ****            (READ_BIT(pll_config, RCC_PLLCFGR_PLLN) != RCC_OscInitStruct->PLL.PLLN) ||
 766              		.loc 1 544 84 view .LVU265
 767 02fc 616A     		ldr	r1, [r4, #36]
 545:Drivers/STM32F4xx_HAL_Driver/Src/stm32f4xx_hal_rcc.c ****            (READ_BIT(pll_config, RCC_PLLCFGR_PLLP) != RCC_OscInitStruct->PLL.PLLP) ||
 768              		.loc 1 545 13 view .LVU266
 769 02fe 47F6C072 		movw	r2, #32704
ARM GAS  /tmp/ccbSUABi.s 			page 27


 770 0302 1A40     		ands	r2, r2, r3
 544:Drivers/STM32F4xx_HAL_Driver/Src/stm32f4xx_hal_rcc.c ****            (READ_BIT(pll_config, RCC_PLLCFGR_PLLN) != RCC_OscInitStruct->PLL.PLLN) ||
 771              		.loc 1 544 84 view .LVU267
 772 0304 8A42     		cmp	r2, r1
 773 0306 7FF454AF 		bne	.L68
 545:Drivers/STM32F4xx_HAL_Driver/Src/stm32f4xx_hal_rcc.c ****            (READ_BIT(pll_config, RCC_PLLCFGR_PLLP) != RCC_OscInitStruct->PLL.PLLP) ||
 774              		.loc 1 545 84 view .LVU268
 775 030a A26A     		ldr	r2, [r4, #40]
 546:Drivers/STM32F4xx_HAL_Driver/Src/stm32f4xx_hal_rcc.c ****            (READ_BIT(pll_config, RCC_PLLCFGR_PLLQ) != RCC_OscInitStruct->PLL.PLLQ))
 776              		.loc 1 546 13 view .LVU269
 777 030c 03F44031 		and	r1, r3, #196608
 545:Drivers/STM32F4xx_HAL_Driver/Src/stm32f4xx_hal_rcc.c ****            (READ_BIT(pll_config, RCC_PLLCFGR_PLLP) != RCC_OscInitStruct->PLL.PLLP) ||
 778              		.loc 1 545 84 view .LVU270
 779 0310 9142     		cmp	r1, r2
 780 0312 7FF44EAF 		bne	.L68
 546:Drivers/STM32F4xx_HAL_Driver/Src/stm32f4xx_hal_rcc.c ****            (READ_BIT(pll_config, RCC_PLLCFGR_PLLQ) != RCC_OscInitStruct->PLL.PLLQ))
 781              		.loc 1 546 84 view .LVU271
 782 0316 E06A     		ldr	r0, [r4, #44]
 547:Drivers/STM32F4xx_HAL_Driver/Src/stm32f4xx_hal_rcc.c ****         {
 783              		.loc 1 547 13 view .LVU272
 784 0318 03F07063 		and	r3, r3, #251658240
 785              	.LVL62:
 537:Drivers/STM32F4xx_HAL_Driver/Src/stm32f4xx_hal_rcc.c ****       }
 786              		.loc 1 537 16 view .LVU273
 787 031c 181A     		subs	r0, r3, r0
 788 031e 18BF     		it	ne
 789 0320 0120     		movne	r0, #1
 790 0322 24E7     		b	.L5
 791              	.L106:
 250:Drivers/STM32F4xx_HAL_Driver/Src/stm32f4xx_hal_rcc.c **** 
 792              		.loc 1 250 7 is_stmt 1 discriminator 4 view .LVU274
 793 0324 244B     		ldr	r3, .L116
 794 0326 1A68     		ldr	r2, [r3]
 795 0328 42F48022 		orr	r2, r2, #262144
 796 032c 1A60     		str	r2, [r3]
 250:Drivers/STM32F4xx_HAL_Driver/Src/stm32f4xx_hal_rcc.c **** 
 797              		.loc 1 250 7 discriminator 4 view .LVU275
 798 032e 1A68     		ldr	r2, [r3]
 799 0330 42F48032 		orr	r2, r2, #65536
 800 0334 1A60     		str	r2, [r3]
 250:Drivers/STM32F4xx_HAL_Driver/Src/stm32f4xx_hal_rcc.c **** 
 801              		.loc 1 250 7 discriminator 4 view .LVU276
 253:Drivers/STM32F4xx_HAL_Driver/Src/stm32f4xx_hal_rcc.c ****       {
 802              		.loc 1 253 7 discriminator 4 view .LVU277
 803 0336 6FE7     		b	.L11
 804              	.LVL63:
 805              	.L112:
 806              	.LBB11:
 458:Drivers/STM32F4xx_HAL_Driver/Src/stm32f4xx_hal_rcc.c ****     }
 807              		.loc 1 458 7 view .LVU278
 808 0338 1F4A     		ldr	r2, .L116
 809 033a 136C     		ldr	r3, [r2, #64]
 810 033c 23F08053 		bic	r3, r3, #268435456
 811 0340 1364     		str	r3, [r2, #64]
 812 0342 F6E6     		b	.L35
 813              	.LVL64:
 814              	.L103:
ARM GAS  /tmp/ccbSUABi.s 			page 28


 815              	.LCFI8:
 816              		.cfi_def_cfa_offset 0
 817              		.cfi_restore 4
 818              		.cfi_restore 5
 819              		.cfi_restore 6
 820              		.cfi_restore 7
 821              		.cfi_restore 8
 822              		.cfi_restore 14
 458:Drivers/STM32F4xx_HAL_Driver/Src/stm32f4xx_hal_rcc.c ****     }
 823              		.loc 1 458 7 is_stmt 0 view .LVU279
 824              	.LBE11:
 228:Drivers/STM32F4xx_HAL_Driver/Src/stm32f4xx_hal_rcc.c ****   }
 825              		.loc 1 228 12 view .LVU280
 826 0344 0120     		movs	r0, #1
 827              	.LVL65:
 828              		.loc 1 555 1 view .LVU281
 829 0346 7047     		bx	lr
 830              	.LVL66:
 831              	.L111:
 832              	.LCFI9:
 833              		.cfi_def_cfa_offset 32
 834              		.cfi_offset 4, -24
 835              		.cfi_offset 5, -20
 836              		.cfi_offset 6, -16
 837              		.cfi_offset 7, -12
 838              		.cfi_offset 8, -8
 839              		.cfi_offset 14, -4
 840              	.LBB12:
 424:Drivers/STM32F4xx_HAL_Driver/Src/stm32f4xx_hal_rcc.c ****     /* Check the LSE State */
 841              		.loc 1 424 5 is_stmt 1 discriminator 4 view .LVU282
 842 0348 1B4B     		ldr	r3, .L116
 843 034a 1A6F     		ldr	r2, [r3, #112]
 844 034c 42F00402 		orr	r2, r2, #4
 845 0350 1A67     		str	r2, [r3, #112]
 424:Drivers/STM32F4xx_HAL_Driver/Src/stm32f4xx_hal_rcc.c ****     /* Check the LSE State */
 846              		.loc 1 424 5 discriminator 4 view .LVU283
 847 0352 1A6F     		ldr	r2, [r3, #112]
 848 0354 42F00102 		orr	r2, r2, #1
 849 0358 1A67     		str	r2, [r3, #112]
 424:Drivers/STM32F4xx_HAL_Driver/Src/stm32f4xx_hal_rcc.c ****     /* Check the LSE State */
 850              		.loc 1 424 5 discriminator 4 view .LVU284
 426:Drivers/STM32F4xx_HAL_Driver/Src/stm32f4xx_hal_rcc.c ****     {
 851              		.loc 1 426 5 discriminator 4 view .LVU285
 852 035a 90E7     		b	.L43
 853              	.LVL67:
 854              	.L113:
 426:Drivers/STM32F4xx_HAL_Driver/Src/stm32f4xx_hal_rcc.c ****     {
 855              		.loc 1 426 5 is_stmt 0 discriminator 4 view .LVU286
 856              	.LBE12:
 472:Drivers/STM32F4xx_HAL_Driver/Src/stm32f4xx_hal_rcc.c ****         assert_param(IS_RCC_PLLM_VALUE(RCC_OscInitStruct->PLL.PLLM));
 857              		.loc 1 472 9 is_stmt 1 view .LVU287
 473:Drivers/STM32F4xx_HAL_Driver/Src/stm32f4xx_hal_rcc.c ****         assert_param(IS_RCC_PLLN_VALUE(RCC_OscInitStruct->PLL.PLLN));
 858              		.loc 1 473 9 view .LVU288
 474:Drivers/STM32F4xx_HAL_Driver/Src/stm32f4xx_hal_rcc.c ****         assert_param(IS_RCC_PLLP_VALUE(RCC_OscInitStruct->PLL.PLLP));
 859              		.loc 1 474 9 view .LVU289
 475:Drivers/STM32F4xx_HAL_Driver/Src/stm32f4xx_hal_rcc.c ****         assert_param(IS_RCC_PLLQ_VALUE(RCC_OscInitStruct->PLL.PLLQ));
 860              		.loc 1 475 9 view .LVU290
ARM GAS  /tmp/ccbSUABi.s 			page 29


 476:Drivers/STM32F4xx_HAL_Driver/Src/stm32f4xx_hal_rcc.c **** 
 861              		.loc 1 476 9 view .LVU291
 479:Drivers/STM32F4xx_HAL_Driver/Src/stm32f4xx_hal_rcc.c **** 
 862              		.loc 1 479 9 view .LVU292
 482:Drivers/STM32F4xx_HAL_Driver/Src/stm32f4xx_hal_rcc.c **** 
 863              		.loc 1 482 9 view .LVU293
 482:Drivers/STM32F4xx_HAL_Driver/Src/stm32f4xx_hal_rcc.c **** 
 864              		.loc 1 482 21 is_stmt 0 view .LVU294
 865 035c FFF7FEFF 		bl	HAL_GetTick
 866              	.LVL68:
 867 0360 0646     		mov	r6, r0
 868              	.LVL69:
 485:Drivers/STM32F4xx_HAL_Driver/Src/stm32f4xx_hal_rcc.c ****         {
 869              		.loc 1 485 9 is_stmt 1 view .LVU295
 485:Drivers/STM32F4xx_HAL_Driver/Src/stm32f4xx_hal_rcc.c ****         {
 870              		.loc 1 485 14 is_stmt 0 view .LVU296
 871 0362 05E0     		b	.L56
 872              	.LVL70:
 873              	.L57:
 487:Drivers/STM32F4xx_HAL_Driver/Src/stm32f4xx_hal_rcc.c ****           {
 874              		.loc 1 487 15 view .LVU297
 875 0364 FFF7FEFF 		bl	HAL_GetTick
 876              	.LVL71:
 487:Drivers/STM32F4xx_HAL_Driver/Src/stm32f4xx_hal_rcc.c ****           {
 877              		.loc 1 487 29 view .LVU298
 878 0368 801B     		subs	r0, r0, r6
 487:Drivers/STM32F4xx_HAL_Driver/Src/stm32f4xx_hal_rcc.c ****           {
 879              		.loc 1 487 13 view .LVU299
 880 036a 0228     		cmp	r0, #2
 881 036c 3FF67EAF 		bhi	.L17
 882              	.L56:
 487:Drivers/STM32F4xx_HAL_Driver/Src/stm32f4xx_hal_rcc.c ****           {
 883              		.loc 1 487 11 is_stmt 1 view .LVU300
 485:Drivers/STM32F4xx_HAL_Driver/Src/stm32f4xx_hal_rcc.c ****         {
 884              		.loc 1 485 14 view .LVU301
 485:Drivers/STM32F4xx_HAL_Driver/Src/stm32f4xx_hal_rcc.c ****         {
 885              		.loc 1 485 15 is_stmt 0 view .LVU302
 886 0370 2B68     		ldr	r3, [r5]
 485:Drivers/STM32F4xx_HAL_Driver/Src/stm32f4xx_hal_rcc.c ****         {
 887              		.loc 1 485 14 view .LVU303
 888 0372 9901     		lsls	r1, r3, #6
 889 0374 F6D4     		bmi	.L57
 494:Drivers/STM32F4xx_HAL_Driver/Src/stm32f4xx_hal_rcc.c ****                                  RCC_OscInitStruct->PLL.PLLM                                       
 890              		.loc 1 494 9 is_stmt 1 view .LVU304
 891 0376 D4E90736 		ldrd	r3, r6, [r4, #28]
 892              	.LVL72:
 494:Drivers/STM32F4xx_HAL_Driver/Src/stm32f4xx_hal_rcc.c ****                                  RCC_OscInitStruct->PLL.PLLM                                       
 893              		.loc 1 494 9 is_stmt 0 view .LVU305
 894 037a D4E90902 		ldrd	r0, r2, [r4, #36]
 895 037e E16A     		ldr	r1, [r4, #44]
 896 0380 3343     		orrs	r3, r3, r6
 897 0382 43EA8013 		orr	r3, r3, r0, lsl #6
 898 0386 5208     		lsrs	r2, r2, #1
 899 0388 43EA0163 		orr	r3, r3, r1, lsl #24
 900 038c 013A     		subs	r2, r2, #1
 500:Drivers/STM32F4xx_HAL_Driver/Src/stm32f4xx_hal_rcc.c **** 
 901              		.loc 1 500 9 view .LVU306
ARM GAS  /tmp/ccbSUABi.s 			page 30


 902 038e 0B49     		ldr	r1, .L116+4
 506:Drivers/STM32F4xx_HAL_Driver/Src/stm32f4xx_hal_rcc.c ****         {
 903              		.loc 1 506 15 view .LVU307
 904 0390 094E     		ldr	r6, .L116
 494:Drivers/STM32F4xx_HAL_Driver/Src/stm32f4xx_hal_rcc.c ****                                  RCC_OscInitStruct->PLL.PLLM                                       
 905              		.loc 1 494 9 view .LVU308
 906 0392 43EA0243 		orr	r3, r3, r2, lsl #16
 500:Drivers/STM32F4xx_HAL_Driver/Src/stm32f4xx_hal_rcc.c **** 
 907              		.loc 1 500 9 view .LVU309
 908 0396 0122     		movs	r2, #1
 494:Drivers/STM32F4xx_HAL_Driver/Src/stm32f4xx_hal_rcc.c ****                                  RCC_OscInitStruct->PLL.PLLM                                       
 909              		.loc 1 494 9 view .LVU310
 910 0398 6B60     		str	r3, [r5, #4]
 500:Drivers/STM32F4xx_HAL_Driver/Src/stm32f4xx_hal_rcc.c **** 
 911              		.loc 1 500 9 is_stmt 1 view .LVU311
 912 039a 0A60     		str	r2, [r1]
 503:Drivers/STM32F4xx_HAL_Driver/Src/stm32f4xx_hal_rcc.c **** 
 913              		.loc 1 503 9 view .LVU312
 503:Drivers/STM32F4xx_HAL_Driver/Src/stm32f4xx_hal_rcc.c **** 
 914              		.loc 1 503 21 is_stmt 0 view .LVU313
 915 039c FFF7FEFF 		bl	HAL_GetTick
 916              	.LVL73:
 917 03a0 0446     		mov	r4, r0
 918              	.LVL74:
 506:Drivers/STM32F4xx_HAL_Driver/Src/stm32f4xx_hal_rcc.c ****         {
 919              		.loc 1 506 9 is_stmt 1 view .LVU314
 506:Drivers/STM32F4xx_HAL_Driver/Src/stm32f4xx_hal_rcc.c ****         {
 920              		.loc 1 506 14 is_stmt 0 view .LVU315
 921 03a2 05E0     		b	.L58
 922              	.LVL75:
 923              	.L59:
 508:Drivers/STM32F4xx_HAL_Driver/Src/stm32f4xx_hal_rcc.c ****           {
 924              		.loc 1 508 15 view .LVU316
 925 03a4 FFF7FEFF 		bl	HAL_GetTick
 926              	.LVL76:
 508:Drivers/STM32F4xx_HAL_Driver/Src/stm32f4xx_hal_rcc.c ****           {
 927              		.loc 1 508 29 view .LVU317
 928 03a8 001B     		subs	r0, r0, r4
 508:Drivers/STM32F4xx_HAL_Driver/Src/stm32f4xx_hal_rcc.c ****           {
 929              		.loc 1 508 13 view .LVU318
 930 03aa 0228     		cmp	r0, #2
 931 03ac 3FF65EAF 		bhi	.L17
 932              	.L58:
 508:Drivers/STM32F4xx_HAL_Driver/Src/stm32f4xx_hal_rcc.c ****           {
 933              		.loc 1 508 11 is_stmt 1 view .LVU319
 506:Drivers/STM32F4xx_HAL_Driver/Src/stm32f4xx_hal_rcc.c ****         {
 934              		.loc 1 506 14 view .LVU320
 506:Drivers/STM32F4xx_HAL_Driver/Src/stm32f4xx_hal_rcc.c ****         {
 935              		.loc 1 506 15 is_stmt 0 view .LVU321
 936 03b0 3368     		ldr	r3, [r6]
 506:Drivers/STM32F4xx_HAL_Driver/Src/stm32f4xx_hal_rcc.c ****         {
 937              		.loc 1 506 14 view .LVU322
 938 03b2 9A01     		lsls	r2, r3, #6
 939 03b4 F6D5     		bpl	.L59
 940 03b6 D9E6     		b	.L60
 941              	.L117:
 942              		.align	2
ARM GAS  /tmp/ccbSUABi.s 			page 31


 943              	.L116:
 944 03b8 00380240 		.word	1073887232
 945 03bc 60004742 		.word	1111949408
 946              		.cfi_endproc
 947              	.LFE131:
 949              		.section	.text.HAL_RCC_MCOConfig,"ax",%progbits
 950              		.align	1
 951              		.p2align 2,,3
 952              		.global	HAL_RCC_MCOConfig
 953              		.syntax unified
 954              		.thumb
 955              		.thumb_func
 956              		.fpu fpv4-sp-d16
 958              	HAL_RCC_MCOConfig:
 959              	.LVL77:
 960              	.LFB133:
 556:Drivers/STM32F4xx_HAL_Driver/Src/stm32f4xx_hal_rcc.c **** 
 557:Drivers/STM32F4xx_HAL_Driver/Src/stm32f4xx_hal_rcc.c **** /**
 558:Drivers/STM32F4xx_HAL_Driver/Src/stm32f4xx_hal_rcc.c ****   * @brief  Initializes the CPU, AHB and APB busses clocks according to the specified
 559:Drivers/STM32F4xx_HAL_Driver/Src/stm32f4xx_hal_rcc.c ****   *         parameters in the RCC_ClkInitStruct.
 560:Drivers/STM32F4xx_HAL_Driver/Src/stm32f4xx_hal_rcc.c ****   * @param  RCC_ClkInitStruct pointer to an RCC_OscInitTypeDef structure that
 561:Drivers/STM32F4xx_HAL_Driver/Src/stm32f4xx_hal_rcc.c ****   *         contains the configuration information for the RCC peripheral.
 562:Drivers/STM32F4xx_HAL_Driver/Src/stm32f4xx_hal_rcc.c ****   * @param  FLatency FLASH Latency, this parameter depend on device selected
 563:Drivers/STM32F4xx_HAL_Driver/Src/stm32f4xx_hal_rcc.c ****   *
 564:Drivers/STM32F4xx_HAL_Driver/Src/stm32f4xx_hal_rcc.c ****   * @note   The SystemCoreClock CMSIS variable is used to store System Clock Frequency
 565:Drivers/STM32F4xx_HAL_Driver/Src/stm32f4xx_hal_rcc.c ****   *         and updated by HAL_RCC_GetHCLKFreq() function called within this function
 566:Drivers/STM32F4xx_HAL_Driver/Src/stm32f4xx_hal_rcc.c ****   *
 567:Drivers/STM32F4xx_HAL_Driver/Src/stm32f4xx_hal_rcc.c ****   * @note   The HSI is used (enabled by hardware) as system clock source after
 568:Drivers/STM32F4xx_HAL_Driver/Src/stm32f4xx_hal_rcc.c ****   *         startup from Reset, wake-up from STOP and STANDBY mode, or in case
 569:Drivers/STM32F4xx_HAL_Driver/Src/stm32f4xx_hal_rcc.c ****   *         of failure of the HSE used directly or indirectly as system clock
 570:Drivers/STM32F4xx_HAL_Driver/Src/stm32f4xx_hal_rcc.c ****   *         (if the Clock Security System CSS is enabled).
 571:Drivers/STM32F4xx_HAL_Driver/Src/stm32f4xx_hal_rcc.c ****   *
 572:Drivers/STM32F4xx_HAL_Driver/Src/stm32f4xx_hal_rcc.c ****   * @note   A switch from one clock source to another occurs only if the target
 573:Drivers/STM32F4xx_HAL_Driver/Src/stm32f4xx_hal_rcc.c ****   *         clock source is ready (clock stable after startup delay or PLL locked).
 574:Drivers/STM32F4xx_HAL_Driver/Src/stm32f4xx_hal_rcc.c ****   *         If a clock source which is not yet ready is selected, the switch will
 575:Drivers/STM32F4xx_HAL_Driver/Src/stm32f4xx_hal_rcc.c ****   *         occur when the clock source will be ready.
 576:Drivers/STM32F4xx_HAL_Driver/Src/stm32f4xx_hal_rcc.c ****   *
 577:Drivers/STM32F4xx_HAL_Driver/Src/stm32f4xx_hal_rcc.c ****   * @note   Depending on the device voltage range, the software has to set correctly
 578:Drivers/STM32F4xx_HAL_Driver/Src/stm32f4xx_hal_rcc.c ****   *         HPRE[3:0] bits to ensure that HCLK not exceed the maximum allowed frequency
 579:Drivers/STM32F4xx_HAL_Driver/Src/stm32f4xx_hal_rcc.c ****   *         (for more details refer to section above "Initialization/de-initialization functions")
 580:Drivers/STM32F4xx_HAL_Driver/Src/stm32f4xx_hal_rcc.c ****   * @retval None
 581:Drivers/STM32F4xx_HAL_Driver/Src/stm32f4xx_hal_rcc.c ****   */
 582:Drivers/STM32F4xx_HAL_Driver/Src/stm32f4xx_hal_rcc.c **** HAL_StatusTypeDef HAL_RCC_ClockConfig(RCC_ClkInitTypeDef  *RCC_ClkInitStruct, uint32_t FLatency)
 583:Drivers/STM32F4xx_HAL_Driver/Src/stm32f4xx_hal_rcc.c **** {
 584:Drivers/STM32F4xx_HAL_Driver/Src/stm32f4xx_hal_rcc.c ****   uint32_t tickstart;
 585:Drivers/STM32F4xx_HAL_Driver/Src/stm32f4xx_hal_rcc.c **** 
 586:Drivers/STM32F4xx_HAL_Driver/Src/stm32f4xx_hal_rcc.c ****   /* Check Null pointer */
 587:Drivers/STM32F4xx_HAL_Driver/Src/stm32f4xx_hal_rcc.c ****   if(RCC_ClkInitStruct == NULL)
 588:Drivers/STM32F4xx_HAL_Driver/Src/stm32f4xx_hal_rcc.c ****   {
 589:Drivers/STM32F4xx_HAL_Driver/Src/stm32f4xx_hal_rcc.c ****     return HAL_ERROR;
 590:Drivers/STM32F4xx_HAL_Driver/Src/stm32f4xx_hal_rcc.c ****   }
 591:Drivers/STM32F4xx_HAL_Driver/Src/stm32f4xx_hal_rcc.c **** 
 592:Drivers/STM32F4xx_HAL_Driver/Src/stm32f4xx_hal_rcc.c ****   /* Check the parameters */
 593:Drivers/STM32F4xx_HAL_Driver/Src/stm32f4xx_hal_rcc.c ****   assert_param(IS_RCC_CLOCKTYPE(RCC_ClkInitStruct->ClockType));
 594:Drivers/STM32F4xx_HAL_Driver/Src/stm32f4xx_hal_rcc.c ****   assert_param(IS_FLASH_LATENCY(FLatency));
 595:Drivers/STM32F4xx_HAL_Driver/Src/stm32f4xx_hal_rcc.c **** 
 596:Drivers/STM32F4xx_HAL_Driver/Src/stm32f4xx_hal_rcc.c ****   /* To correctly read data from FLASH memory, the number of wait states (LATENCY)
ARM GAS  /tmp/ccbSUABi.s 			page 32


 597:Drivers/STM32F4xx_HAL_Driver/Src/stm32f4xx_hal_rcc.c ****     must be correctly programmed according to the frequency of the CPU clock
 598:Drivers/STM32F4xx_HAL_Driver/Src/stm32f4xx_hal_rcc.c ****     (HCLK) and the supply voltage of the device. */
 599:Drivers/STM32F4xx_HAL_Driver/Src/stm32f4xx_hal_rcc.c **** 
 600:Drivers/STM32F4xx_HAL_Driver/Src/stm32f4xx_hal_rcc.c ****   /* Increasing the number of wait states because of higher CPU frequency */
 601:Drivers/STM32F4xx_HAL_Driver/Src/stm32f4xx_hal_rcc.c ****   if(FLatency > __HAL_FLASH_GET_LATENCY())
 602:Drivers/STM32F4xx_HAL_Driver/Src/stm32f4xx_hal_rcc.c ****   {
 603:Drivers/STM32F4xx_HAL_Driver/Src/stm32f4xx_hal_rcc.c ****     /* Program the new number of wait states to the LATENCY bits in the FLASH_ACR register */
 604:Drivers/STM32F4xx_HAL_Driver/Src/stm32f4xx_hal_rcc.c ****     __HAL_FLASH_SET_LATENCY(FLatency);
 605:Drivers/STM32F4xx_HAL_Driver/Src/stm32f4xx_hal_rcc.c **** 
 606:Drivers/STM32F4xx_HAL_Driver/Src/stm32f4xx_hal_rcc.c ****     /* Check that the new number of wait states is taken into account to access the Flash
 607:Drivers/STM32F4xx_HAL_Driver/Src/stm32f4xx_hal_rcc.c ****     memory by reading the FLASH_ACR register */
 608:Drivers/STM32F4xx_HAL_Driver/Src/stm32f4xx_hal_rcc.c ****     if(__HAL_FLASH_GET_LATENCY() != FLatency)
 609:Drivers/STM32F4xx_HAL_Driver/Src/stm32f4xx_hal_rcc.c ****     {
 610:Drivers/STM32F4xx_HAL_Driver/Src/stm32f4xx_hal_rcc.c ****       return HAL_ERROR;
 611:Drivers/STM32F4xx_HAL_Driver/Src/stm32f4xx_hal_rcc.c ****     }
 612:Drivers/STM32F4xx_HAL_Driver/Src/stm32f4xx_hal_rcc.c ****   }
 613:Drivers/STM32F4xx_HAL_Driver/Src/stm32f4xx_hal_rcc.c **** 
 614:Drivers/STM32F4xx_HAL_Driver/Src/stm32f4xx_hal_rcc.c ****   /*-------------------------- HCLK Configuration --------------------------*/
 615:Drivers/STM32F4xx_HAL_Driver/Src/stm32f4xx_hal_rcc.c ****   if(((RCC_ClkInitStruct->ClockType) & RCC_CLOCKTYPE_HCLK) == RCC_CLOCKTYPE_HCLK)
 616:Drivers/STM32F4xx_HAL_Driver/Src/stm32f4xx_hal_rcc.c ****   {
 617:Drivers/STM32F4xx_HAL_Driver/Src/stm32f4xx_hal_rcc.c ****     /* Set the highest APBx dividers in order to ensure that we do not go through
 618:Drivers/STM32F4xx_HAL_Driver/Src/stm32f4xx_hal_rcc.c ****        a non-spec phase whatever we decrease or increase HCLK. */
 619:Drivers/STM32F4xx_HAL_Driver/Src/stm32f4xx_hal_rcc.c ****     if(((RCC_ClkInitStruct->ClockType) & RCC_CLOCKTYPE_PCLK1) == RCC_CLOCKTYPE_PCLK1)
 620:Drivers/STM32F4xx_HAL_Driver/Src/stm32f4xx_hal_rcc.c ****     {
 621:Drivers/STM32F4xx_HAL_Driver/Src/stm32f4xx_hal_rcc.c ****       MODIFY_REG(RCC->CFGR, RCC_CFGR_PPRE1, RCC_HCLK_DIV16);
 622:Drivers/STM32F4xx_HAL_Driver/Src/stm32f4xx_hal_rcc.c ****     }
 623:Drivers/STM32F4xx_HAL_Driver/Src/stm32f4xx_hal_rcc.c **** 
 624:Drivers/STM32F4xx_HAL_Driver/Src/stm32f4xx_hal_rcc.c ****     if(((RCC_ClkInitStruct->ClockType) & RCC_CLOCKTYPE_PCLK2) == RCC_CLOCKTYPE_PCLK2)
 625:Drivers/STM32F4xx_HAL_Driver/Src/stm32f4xx_hal_rcc.c ****     {
 626:Drivers/STM32F4xx_HAL_Driver/Src/stm32f4xx_hal_rcc.c ****       MODIFY_REG(RCC->CFGR, RCC_CFGR_PPRE2, (RCC_HCLK_DIV16 << 3));
 627:Drivers/STM32F4xx_HAL_Driver/Src/stm32f4xx_hal_rcc.c ****     }
 628:Drivers/STM32F4xx_HAL_Driver/Src/stm32f4xx_hal_rcc.c **** 
 629:Drivers/STM32F4xx_HAL_Driver/Src/stm32f4xx_hal_rcc.c ****     assert_param(IS_RCC_HCLK(RCC_ClkInitStruct->AHBCLKDivider));
 630:Drivers/STM32F4xx_HAL_Driver/Src/stm32f4xx_hal_rcc.c ****     MODIFY_REG(RCC->CFGR, RCC_CFGR_HPRE, RCC_ClkInitStruct->AHBCLKDivider);
 631:Drivers/STM32F4xx_HAL_Driver/Src/stm32f4xx_hal_rcc.c ****   }
 632:Drivers/STM32F4xx_HAL_Driver/Src/stm32f4xx_hal_rcc.c **** 
 633:Drivers/STM32F4xx_HAL_Driver/Src/stm32f4xx_hal_rcc.c ****   /*------------------------- SYSCLK Configuration ---------------------------*/
 634:Drivers/STM32F4xx_HAL_Driver/Src/stm32f4xx_hal_rcc.c ****   if(((RCC_ClkInitStruct->ClockType) & RCC_CLOCKTYPE_SYSCLK) == RCC_CLOCKTYPE_SYSCLK)
 635:Drivers/STM32F4xx_HAL_Driver/Src/stm32f4xx_hal_rcc.c ****   {
 636:Drivers/STM32F4xx_HAL_Driver/Src/stm32f4xx_hal_rcc.c ****     assert_param(IS_RCC_SYSCLKSOURCE(RCC_ClkInitStruct->SYSCLKSource));
 637:Drivers/STM32F4xx_HAL_Driver/Src/stm32f4xx_hal_rcc.c **** 
 638:Drivers/STM32F4xx_HAL_Driver/Src/stm32f4xx_hal_rcc.c ****     /* HSE is selected as System Clock Source */
 639:Drivers/STM32F4xx_HAL_Driver/Src/stm32f4xx_hal_rcc.c ****     if(RCC_ClkInitStruct->SYSCLKSource == RCC_SYSCLKSOURCE_HSE)
 640:Drivers/STM32F4xx_HAL_Driver/Src/stm32f4xx_hal_rcc.c ****     {
 641:Drivers/STM32F4xx_HAL_Driver/Src/stm32f4xx_hal_rcc.c ****       /* Check the HSE ready flag */
 642:Drivers/STM32F4xx_HAL_Driver/Src/stm32f4xx_hal_rcc.c ****       if(__HAL_RCC_GET_FLAG(RCC_FLAG_HSERDY) == RESET)
 643:Drivers/STM32F4xx_HAL_Driver/Src/stm32f4xx_hal_rcc.c ****       {
 644:Drivers/STM32F4xx_HAL_Driver/Src/stm32f4xx_hal_rcc.c ****         return HAL_ERROR;
 645:Drivers/STM32F4xx_HAL_Driver/Src/stm32f4xx_hal_rcc.c ****       }
 646:Drivers/STM32F4xx_HAL_Driver/Src/stm32f4xx_hal_rcc.c ****     }
 647:Drivers/STM32F4xx_HAL_Driver/Src/stm32f4xx_hal_rcc.c ****     /* PLL is selected as System Clock Source */
 648:Drivers/STM32F4xx_HAL_Driver/Src/stm32f4xx_hal_rcc.c ****     else if((RCC_ClkInitStruct->SYSCLKSource == RCC_SYSCLKSOURCE_PLLCLK)   ||
 649:Drivers/STM32F4xx_HAL_Driver/Src/stm32f4xx_hal_rcc.c ****             (RCC_ClkInitStruct->SYSCLKSource == RCC_SYSCLKSOURCE_PLLRCLK))
 650:Drivers/STM32F4xx_HAL_Driver/Src/stm32f4xx_hal_rcc.c ****     {
 651:Drivers/STM32F4xx_HAL_Driver/Src/stm32f4xx_hal_rcc.c ****       /* Check the PLL ready flag */
 652:Drivers/STM32F4xx_HAL_Driver/Src/stm32f4xx_hal_rcc.c ****       if(__HAL_RCC_GET_FLAG(RCC_FLAG_PLLRDY) == RESET)
 653:Drivers/STM32F4xx_HAL_Driver/Src/stm32f4xx_hal_rcc.c ****       {
ARM GAS  /tmp/ccbSUABi.s 			page 33


 654:Drivers/STM32F4xx_HAL_Driver/Src/stm32f4xx_hal_rcc.c ****         return HAL_ERROR;
 655:Drivers/STM32F4xx_HAL_Driver/Src/stm32f4xx_hal_rcc.c ****       }
 656:Drivers/STM32F4xx_HAL_Driver/Src/stm32f4xx_hal_rcc.c ****     }
 657:Drivers/STM32F4xx_HAL_Driver/Src/stm32f4xx_hal_rcc.c ****     /* HSI is selected as System Clock Source */
 658:Drivers/STM32F4xx_HAL_Driver/Src/stm32f4xx_hal_rcc.c ****     else
 659:Drivers/STM32F4xx_HAL_Driver/Src/stm32f4xx_hal_rcc.c ****     {
 660:Drivers/STM32F4xx_HAL_Driver/Src/stm32f4xx_hal_rcc.c ****       /* Check the HSI ready flag */
 661:Drivers/STM32F4xx_HAL_Driver/Src/stm32f4xx_hal_rcc.c ****       if(__HAL_RCC_GET_FLAG(RCC_FLAG_HSIRDY) == RESET)
 662:Drivers/STM32F4xx_HAL_Driver/Src/stm32f4xx_hal_rcc.c ****       {
 663:Drivers/STM32F4xx_HAL_Driver/Src/stm32f4xx_hal_rcc.c ****         return HAL_ERROR;
 664:Drivers/STM32F4xx_HAL_Driver/Src/stm32f4xx_hal_rcc.c ****       }
 665:Drivers/STM32F4xx_HAL_Driver/Src/stm32f4xx_hal_rcc.c ****     }
 666:Drivers/STM32F4xx_HAL_Driver/Src/stm32f4xx_hal_rcc.c **** 
 667:Drivers/STM32F4xx_HAL_Driver/Src/stm32f4xx_hal_rcc.c ****     __HAL_RCC_SYSCLK_CONFIG(RCC_ClkInitStruct->SYSCLKSource);
 668:Drivers/STM32F4xx_HAL_Driver/Src/stm32f4xx_hal_rcc.c **** 
 669:Drivers/STM32F4xx_HAL_Driver/Src/stm32f4xx_hal_rcc.c ****     /* Get Start Tick */
 670:Drivers/STM32F4xx_HAL_Driver/Src/stm32f4xx_hal_rcc.c ****     tickstart = HAL_GetTick();
 671:Drivers/STM32F4xx_HAL_Driver/Src/stm32f4xx_hal_rcc.c **** 
 672:Drivers/STM32F4xx_HAL_Driver/Src/stm32f4xx_hal_rcc.c ****     while (__HAL_RCC_GET_SYSCLK_SOURCE() != (RCC_ClkInitStruct->SYSCLKSource << RCC_CFGR_SWS_Pos))
 673:Drivers/STM32F4xx_HAL_Driver/Src/stm32f4xx_hal_rcc.c ****     {
 674:Drivers/STM32F4xx_HAL_Driver/Src/stm32f4xx_hal_rcc.c ****       if ((HAL_GetTick() - tickstart) > CLOCKSWITCH_TIMEOUT_VALUE)
 675:Drivers/STM32F4xx_HAL_Driver/Src/stm32f4xx_hal_rcc.c ****       {
 676:Drivers/STM32F4xx_HAL_Driver/Src/stm32f4xx_hal_rcc.c ****         return HAL_TIMEOUT;
 677:Drivers/STM32F4xx_HAL_Driver/Src/stm32f4xx_hal_rcc.c ****       }
 678:Drivers/STM32F4xx_HAL_Driver/Src/stm32f4xx_hal_rcc.c ****     }
 679:Drivers/STM32F4xx_HAL_Driver/Src/stm32f4xx_hal_rcc.c ****   }
 680:Drivers/STM32F4xx_HAL_Driver/Src/stm32f4xx_hal_rcc.c **** 
 681:Drivers/STM32F4xx_HAL_Driver/Src/stm32f4xx_hal_rcc.c ****   /* Decreasing the number of wait states because of lower CPU frequency */
 682:Drivers/STM32F4xx_HAL_Driver/Src/stm32f4xx_hal_rcc.c ****   if(FLatency < __HAL_FLASH_GET_LATENCY())
 683:Drivers/STM32F4xx_HAL_Driver/Src/stm32f4xx_hal_rcc.c ****   {
 684:Drivers/STM32F4xx_HAL_Driver/Src/stm32f4xx_hal_rcc.c ****      /* Program the new number of wait states to the LATENCY bits in the FLASH_ACR register */
 685:Drivers/STM32F4xx_HAL_Driver/Src/stm32f4xx_hal_rcc.c ****     __HAL_FLASH_SET_LATENCY(FLatency);
 686:Drivers/STM32F4xx_HAL_Driver/Src/stm32f4xx_hal_rcc.c **** 
 687:Drivers/STM32F4xx_HAL_Driver/Src/stm32f4xx_hal_rcc.c ****     /* Check that the new number of wait states is taken into account to access the Flash
 688:Drivers/STM32F4xx_HAL_Driver/Src/stm32f4xx_hal_rcc.c ****     memory by reading the FLASH_ACR register */
 689:Drivers/STM32F4xx_HAL_Driver/Src/stm32f4xx_hal_rcc.c ****     if(__HAL_FLASH_GET_LATENCY() != FLatency)
 690:Drivers/STM32F4xx_HAL_Driver/Src/stm32f4xx_hal_rcc.c ****     {
 691:Drivers/STM32F4xx_HAL_Driver/Src/stm32f4xx_hal_rcc.c ****       return HAL_ERROR;
 692:Drivers/STM32F4xx_HAL_Driver/Src/stm32f4xx_hal_rcc.c ****     }
 693:Drivers/STM32F4xx_HAL_Driver/Src/stm32f4xx_hal_rcc.c ****   }
 694:Drivers/STM32F4xx_HAL_Driver/Src/stm32f4xx_hal_rcc.c **** 
 695:Drivers/STM32F4xx_HAL_Driver/Src/stm32f4xx_hal_rcc.c ****   /*-------------------------- PCLK1 Configuration ---------------------------*/
 696:Drivers/STM32F4xx_HAL_Driver/Src/stm32f4xx_hal_rcc.c ****   if(((RCC_ClkInitStruct->ClockType) & RCC_CLOCKTYPE_PCLK1) == RCC_CLOCKTYPE_PCLK1)
 697:Drivers/STM32F4xx_HAL_Driver/Src/stm32f4xx_hal_rcc.c ****   {
 698:Drivers/STM32F4xx_HAL_Driver/Src/stm32f4xx_hal_rcc.c ****     assert_param(IS_RCC_PCLK(RCC_ClkInitStruct->APB1CLKDivider));
 699:Drivers/STM32F4xx_HAL_Driver/Src/stm32f4xx_hal_rcc.c ****     MODIFY_REG(RCC->CFGR, RCC_CFGR_PPRE1, RCC_ClkInitStruct->APB1CLKDivider);
 700:Drivers/STM32F4xx_HAL_Driver/Src/stm32f4xx_hal_rcc.c ****   }
 701:Drivers/STM32F4xx_HAL_Driver/Src/stm32f4xx_hal_rcc.c **** 
 702:Drivers/STM32F4xx_HAL_Driver/Src/stm32f4xx_hal_rcc.c ****   /*-------------------------- PCLK2 Configuration ---------------------------*/
 703:Drivers/STM32F4xx_HAL_Driver/Src/stm32f4xx_hal_rcc.c ****   if(((RCC_ClkInitStruct->ClockType) & RCC_CLOCKTYPE_PCLK2) == RCC_CLOCKTYPE_PCLK2)
 704:Drivers/STM32F4xx_HAL_Driver/Src/stm32f4xx_hal_rcc.c ****   {
 705:Drivers/STM32F4xx_HAL_Driver/Src/stm32f4xx_hal_rcc.c ****     assert_param(IS_RCC_PCLK(RCC_ClkInitStruct->APB2CLKDivider));
 706:Drivers/STM32F4xx_HAL_Driver/Src/stm32f4xx_hal_rcc.c ****     MODIFY_REG(RCC->CFGR, RCC_CFGR_PPRE2, ((RCC_ClkInitStruct->APB2CLKDivider) << 3U));
 707:Drivers/STM32F4xx_HAL_Driver/Src/stm32f4xx_hal_rcc.c ****   }
 708:Drivers/STM32F4xx_HAL_Driver/Src/stm32f4xx_hal_rcc.c **** 
 709:Drivers/STM32F4xx_HAL_Driver/Src/stm32f4xx_hal_rcc.c ****   /* Update the SystemCoreClock global variable */
 710:Drivers/STM32F4xx_HAL_Driver/Src/stm32f4xx_hal_rcc.c ****   SystemCoreClock = HAL_RCC_GetSysClockFreq() >> AHBPrescTable[(RCC->CFGR & RCC_CFGR_HPRE)>> RCC_CF
ARM GAS  /tmp/ccbSUABi.s 			page 34


 711:Drivers/STM32F4xx_HAL_Driver/Src/stm32f4xx_hal_rcc.c **** 
 712:Drivers/STM32F4xx_HAL_Driver/Src/stm32f4xx_hal_rcc.c ****   /* Configure the source of time base considering new system clocks settings */
 713:Drivers/STM32F4xx_HAL_Driver/Src/stm32f4xx_hal_rcc.c ****   HAL_InitTick (uwTickPrio);
 714:Drivers/STM32F4xx_HAL_Driver/Src/stm32f4xx_hal_rcc.c **** 
 715:Drivers/STM32F4xx_HAL_Driver/Src/stm32f4xx_hal_rcc.c ****   return HAL_OK;
 716:Drivers/STM32F4xx_HAL_Driver/Src/stm32f4xx_hal_rcc.c **** }
 717:Drivers/STM32F4xx_HAL_Driver/Src/stm32f4xx_hal_rcc.c **** 
 718:Drivers/STM32F4xx_HAL_Driver/Src/stm32f4xx_hal_rcc.c **** /**
 719:Drivers/STM32F4xx_HAL_Driver/Src/stm32f4xx_hal_rcc.c ****   * @}
 720:Drivers/STM32F4xx_HAL_Driver/Src/stm32f4xx_hal_rcc.c ****   */
 721:Drivers/STM32F4xx_HAL_Driver/Src/stm32f4xx_hal_rcc.c **** 
 722:Drivers/STM32F4xx_HAL_Driver/Src/stm32f4xx_hal_rcc.c **** /** @defgroup RCC_Exported_Functions_Group2 Peripheral Control functions
 723:Drivers/STM32F4xx_HAL_Driver/Src/stm32f4xx_hal_rcc.c ****  *  @brief   RCC clocks control functions
 724:Drivers/STM32F4xx_HAL_Driver/Src/stm32f4xx_hal_rcc.c ****  *
 725:Drivers/STM32F4xx_HAL_Driver/Src/stm32f4xx_hal_rcc.c **** @verbatim
 726:Drivers/STM32F4xx_HAL_Driver/Src/stm32f4xx_hal_rcc.c ****  ===============================================================================
 727:Drivers/STM32F4xx_HAL_Driver/Src/stm32f4xx_hal_rcc.c ****                       ##### Peripheral Control functions #####
 728:Drivers/STM32F4xx_HAL_Driver/Src/stm32f4xx_hal_rcc.c ****  ===============================================================================
 729:Drivers/STM32F4xx_HAL_Driver/Src/stm32f4xx_hal_rcc.c ****     [..]
 730:Drivers/STM32F4xx_HAL_Driver/Src/stm32f4xx_hal_rcc.c ****     This subsection provides a set of functions allowing to control the RCC Clocks
 731:Drivers/STM32F4xx_HAL_Driver/Src/stm32f4xx_hal_rcc.c ****     frequencies.
 732:Drivers/STM32F4xx_HAL_Driver/Src/stm32f4xx_hal_rcc.c **** 
 733:Drivers/STM32F4xx_HAL_Driver/Src/stm32f4xx_hal_rcc.c **** @endverbatim
 734:Drivers/STM32F4xx_HAL_Driver/Src/stm32f4xx_hal_rcc.c ****   * @{
 735:Drivers/STM32F4xx_HAL_Driver/Src/stm32f4xx_hal_rcc.c ****   */
 736:Drivers/STM32F4xx_HAL_Driver/Src/stm32f4xx_hal_rcc.c **** 
 737:Drivers/STM32F4xx_HAL_Driver/Src/stm32f4xx_hal_rcc.c **** /**
 738:Drivers/STM32F4xx_HAL_Driver/Src/stm32f4xx_hal_rcc.c ****   * @brief  Selects the clock source to output on MCO1 pin(PA8) or on MCO2 pin(PC9).
 739:Drivers/STM32F4xx_HAL_Driver/Src/stm32f4xx_hal_rcc.c ****   * @note   PA8/PC9 should be configured in alternate function mode.
 740:Drivers/STM32F4xx_HAL_Driver/Src/stm32f4xx_hal_rcc.c ****   * @param  RCC_MCOx specifies the output direction for the clock source.
 741:Drivers/STM32F4xx_HAL_Driver/Src/stm32f4xx_hal_rcc.c ****   *          This parameter can be one of the following values:
 742:Drivers/STM32F4xx_HAL_Driver/Src/stm32f4xx_hal_rcc.c ****   *            @arg RCC_MCO1: Clock source to output on MCO1 pin(PA8).
 743:Drivers/STM32F4xx_HAL_Driver/Src/stm32f4xx_hal_rcc.c ****   *            @arg RCC_MCO2: Clock source to output on MCO2 pin(PC9).
 744:Drivers/STM32F4xx_HAL_Driver/Src/stm32f4xx_hal_rcc.c ****   * @param  RCC_MCOSource specifies the clock source to output.
 745:Drivers/STM32F4xx_HAL_Driver/Src/stm32f4xx_hal_rcc.c ****   *          This parameter can be one of the following values:
 746:Drivers/STM32F4xx_HAL_Driver/Src/stm32f4xx_hal_rcc.c ****   *            @arg RCC_MCO1SOURCE_HSI: HSI clock selected as MCO1 source
 747:Drivers/STM32F4xx_HAL_Driver/Src/stm32f4xx_hal_rcc.c ****   *            @arg RCC_MCO1SOURCE_LSE: LSE clock selected as MCO1 source
 748:Drivers/STM32F4xx_HAL_Driver/Src/stm32f4xx_hal_rcc.c ****   *            @arg RCC_MCO1SOURCE_HSE: HSE clock selected as MCO1 source
 749:Drivers/STM32F4xx_HAL_Driver/Src/stm32f4xx_hal_rcc.c ****   *            @arg RCC_MCO1SOURCE_PLLCLK: main PLL clock selected as MCO1 source
 750:Drivers/STM32F4xx_HAL_Driver/Src/stm32f4xx_hal_rcc.c ****   *            @arg RCC_MCO2SOURCE_SYSCLK: System clock (SYSCLK) selected as MCO2 source
 751:Drivers/STM32F4xx_HAL_Driver/Src/stm32f4xx_hal_rcc.c ****   *            @arg RCC_MCO2SOURCE_PLLI2SCLK: PLLI2S clock selected as MCO2 source, available for a
 752:Drivers/STM32F4xx_HAL_Driver/Src/stm32f4xx_hal_rcc.c ****   *            @arg RCC_MCO2SOURCE_I2SCLK: I2SCLK clock selected as MCO2 source, available only for
 753:Drivers/STM32F4xx_HAL_Driver/Src/stm32f4xx_hal_rcc.c ****   *            @arg RCC_MCO2SOURCE_HSE: HSE clock selected as MCO2 source
 754:Drivers/STM32F4xx_HAL_Driver/Src/stm32f4xx_hal_rcc.c ****   *            @arg RCC_MCO2SOURCE_PLLCLK: main PLL clock selected as MCO2 source
 755:Drivers/STM32F4xx_HAL_Driver/Src/stm32f4xx_hal_rcc.c ****   * @param  RCC_MCODiv specifies the MCOx prescaler.
 756:Drivers/STM32F4xx_HAL_Driver/Src/stm32f4xx_hal_rcc.c ****   *          This parameter can be one of the following values:
 757:Drivers/STM32F4xx_HAL_Driver/Src/stm32f4xx_hal_rcc.c ****   *            @arg RCC_MCODIV_1: no division applied to MCOx clock
 758:Drivers/STM32F4xx_HAL_Driver/Src/stm32f4xx_hal_rcc.c ****   *            @arg RCC_MCODIV_2: division by 2 applied to MCOx clock
 759:Drivers/STM32F4xx_HAL_Driver/Src/stm32f4xx_hal_rcc.c ****   *            @arg RCC_MCODIV_3: division by 3 applied to MCOx clock
 760:Drivers/STM32F4xx_HAL_Driver/Src/stm32f4xx_hal_rcc.c ****   *            @arg RCC_MCODIV_4: division by 4 applied to MCOx clock
 761:Drivers/STM32F4xx_HAL_Driver/Src/stm32f4xx_hal_rcc.c ****   *            @arg RCC_MCODIV_5: division by 5 applied to MCOx clock
 762:Drivers/STM32F4xx_HAL_Driver/Src/stm32f4xx_hal_rcc.c ****   * @note  For STM32F410Rx devices to output I2SCLK clock on MCO2 you should have
 763:Drivers/STM32F4xx_HAL_Driver/Src/stm32f4xx_hal_rcc.c ****   *        at last one of the SPI clocks enabled (SPI1, SPI2 or SPI5).
 764:Drivers/STM32F4xx_HAL_Driver/Src/stm32f4xx_hal_rcc.c ****   * @retval None
 765:Drivers/STM32F4xx_HAL_Driver/Src/stm32f4xx_hal_rcc.c ****   */
 766:Drivers/STM32F4xx_HAL_Driver/Src/stm32f4xx_hal_rcc.c **** void HAL_RCC_MCOConfig(uint32_t RCC_MCOx, uint32_t RCC_MCOSource, uint32_t RCC_MCODiv)
 767:Drivers/STM32F4xx_HAL_Driver/Src/stm32f4xx_hal_rcc.c **** {
ARM GAS  /tmp/ccbSUABi.s 			page 35


 961              		.loc 1 767 1 is_stmt 1 view -0
 962              		.cfi_startproc
 963              		@ args = 0, pretend = 0, frame = 32
 964              		@ frame_needed = 0, uses_anonymous_args = 0
 768:Drivers/STM32F4xx_HAL_Driver/Src/stm32f4xx_hal_rcc.c ****   GPIO_InitTypeDef GPIO_InitStruct;
 965              		.loc 1 768 3 view .LVU324
 769:Drivers/STM32F4xx_HAL_Driver/Src/stm32f4xx_hal_rcc.c ****   /* Check the parameters */
 770:Drivers/STM32F4xx_HAL_Driver/Src/stm32f4xx_hal_rcc.c ****   assert_param(IS_RCC_MCO(RCC_MCOx));
 966              		.loc 1 770 3 view .LVU325
 771:Drivers/STM32F4xx_HAL_Driver/Src/stm32f4xx_hal_rcc.c ****   assert_param(IS_RCC_MCODIV(RCC_MCODiv));
 967              		.loc 1 771 3 view .LVU326
 772:Drivers/STM32F4xx_HAL_Driver/Src/stm32f4xx_hal_rcc.c ****   /* RCC_MCO1 */
 773:Drivers/STM32F4xx_HAL_Driver/Src/stm32f4xx_hal_rcc.c ****   if(RCC_MCOx == RCC_MCO1)
 968              		.loc 1 773 3 view .LVU327
 767:Drivers/STM32F4xx_HAL_Driver/Src/stm32f4xx_hal_rcc.c ****   GPIO_InitTypeDef GPIO_InitStruct;
 969              		.loc 1 767 1 is_stmt 0 view .LVU328
 970 0000 70B5     		push	{r4, r5, r6, lr}
 971              	.LCFI10:
 972              		.cfi_def_cfa_offset 16
 973              		.cfi_offset 4, -16
 974              		.cfi_offset 5, -12
 975              		.cfi_offset 6, -8
 976              		.cfi_offset 14, -4
 977 0002 0D46     		mov	r5, r1
 978 0004 88B0     		sub	sp, sp, #32
 979              	.LCFI11:
 980              		.cfi_def_cfa_offset 48
 767:Drivers/STM32F4xx_HAL_Driver/Src/stm32f4xx_hal_rcc.c ****   GPIO_InitTypeDef GPIO_InitStruct;
 981              		.loc 1 767 1 view .LVU329
 982 0006 1446     		mov	r4, r2
 983              		.loc 1 773 5 view .LVU330
 984 0008 00BB     		cbnz	r0, .L119
 774:Drivers/STM32F4xx_HAL_Driver/Src/stm32f4xx_hal_rcc.c ****   {
 775:Drivers/STM32F4xx_HAL_Driver/Src/stm32f4xx_hal_rcc.c ****     assert_param(IS_RCC_MCO1SOURCE(RCC_MCOSource));
 985              		.loc 1 775 5 is_stmt 1 view .LVU331
 776:Drivers/STM32F4xx_HAL_Driver/Src/stm32f4xx_hal_rcc.c **** 
 777:Drivers/STM32F4xx_HAL_Driver/Src/stm32f4xx_hal_rcc.c ****     /* MCO1 Clock Enable */
 778:Drivers/STM32F4xx_HAL_Driver/Src/stm32f4xx_hal_rcc.c ****     __MCO1_CLK_ENABLE();
 986              		.loc 1 778 5 view .LVU332
 987              	.LBB13:
 988              		.loc 1 778 5 view .LVU333
 989 000a 224E     		ldr	r6, .L122
 990 000c 0190     		str	r0, [sp, #4]
 991              		.loc 1 778 5 view .LVU334
 992 000e 326B     		ldr	r2, [r6, #48]
 993              	.LVL78:
 994              		.loc 1 778 5 is_stmt 0 view .LVU335
 995 0010 42F00102 		orr	r2, r2, #1
 996 0014 3263     		str	r2, [r6, #48]
 997              		.loc 1 778 5 is_stmt 1 view .LVU336
 998 0016 326B     		ldr	r2, [r6, #48]
 999 0018 02F00102 		and	r2, r2, #1
 1000 001c 0346     		mov	r3, r0
 1001 001e 0192     		str	r2, [sp, #4]
 1002              		.loc 1 778 5 view .LVU337
 1003              	.LBE13:
 779:Drivers/STM32F4xx_HAL_Driver/Src/stm32f4xx_hal_rcc.c **** 
ARM GAS  /tmp/ccbSUABi.s 			page 36


 780:Drivers/STM32F4xx_HAL_Driver/Src/stm32f4xx_hal_rcc.c ****     /* Configure the MCO1 pin in alternate function mode */
 781:Drivers/STM32F4xx_HAL_Driver/Src/stm32f4xx_hal_rcc.c ****     GPIO_InitStruct.Pin = MCO1_PIN;
 1004              		.loc 1 781 25 is_stmt 0 view .LVU338
 1005 0020 4FF48071 		mov	r1, #256
 1006              	.LVL79:
 1007              	.LBB14:
 778:Drivers/STM32F4xx_HAL_Driver/Src/stm32f4xx_hal_rcc.c **** 
 1008              		.loc 1 778 5 view .LVU339
 1009 0024 019A     		ldr	r2, [sp, #4]
 1010              	.LBE14:
 778:Drivers/STM32F4xx_HAL_Driver/Src/stm32f4xx_hal_rcc.c **** 
 1011              		.loc 1 778 5 is_stmt 1 view .LVU340
 1012              		.loc 1 781 5 view .LVU341
 782:Drivers/STM32F4xx_HAL_Driver/Src/stm32f4xx_hal_rcc.c ****     GPIO_InitStruct.Mode = GPIO_MODE_AF_PP;
 783:Drivers/STM32F4xx_HAL_Driver/Src/stm32f4xx_hal_rcc.c ****     GPIO_InitStruct.Speed = GPIO_SPEED_FREQ_VERY_HIGH;
 784:Drivers/STM32F4xx_HAL_Driver/Src/stm32f4xx_hal_rcc.c ****     GPIO_InitStruct.Pull = GPIO_NOPULL;
 1013              		.loc 1 784 26 is_stmt 0 view .LVU342
 1014 0026 0593     		str	r3, [sp, #20]
 785:Drivers/STM32F4xx_HAL_Driver/Src/stm32f4xx_hal_rcc.c ****     GPIO_InitStruct.Alternate = GPIO_AF0_MCO;
 1015              		.loc 1 785 31 view .LVU343
 1016 0028 0793     		str	r3, [sp, #28]
 782:Drivers/STM32F4xx_HAL_Driver/Src/stm32f4xx_hal_rcc.c ****     GPIO_InitStruct.Mode = GPIO_MODE_AF_PP;
 1017              		.loc 1 782 26 view .LVU344
 1018 002a 0222     		movs	r2, #2
 781:Drivers/STM32F4xx_HAL_Driver/Src/stm32f4xx_hal_rcc.c ****     GPIO_InitStruct.Mode = GPIO_MODE_AF_PP;
 1019              		.loc 1 781 25 view .LVU345
 1020 002c 0391     		str	r1, [sp, #12]
 782:Drivers/STM32F4xx_HAL_Driver/Src/stm32f4xx_hal_rcc.c ****     GPIO_InitStruct.Mode = GPIO_MODE_AF_PP;
 1021              		.loc 1 782 5 is_stmt 1 view .LVU346
 783:Drivers/STM32F4xx_HAL_Driver/Src/stm32f4xx_hal_rcc.c ****     GPIO_InitStruct.Pull = GPIO_NOPULL;
 1022              		.loc 1 783 27 is_stmt 0 view .LVU347
 1023 002e 0323     		movs	r3, #3
 786:Drivers/STM32F4xx_HAL_Driver/Src/stm32f4xx_hal_rcc.c ****     HAL_GPIO_Init(MCO1_GPIO_PORT, &GPIO_InitStruct);
 1024              		.loc 1 786 5 view .LVU348
 1025 0030 1948     		ldr	r0, .L122+4
 1026              	.LVL80:
 782:Drivers/STM32F4xx_HAL_Driver/Src/stm32f4xx_hal_rcc.c ****     GPIO_InitStruct.Speed = GPIO_SPEED_FREQ_VERY_HIGH;
 1027              		.loc 1 782 26 view .LVU349
 1028 0032 0492     		str	r2, [sp, #16]
 783:Drivers/STM32F4xx_HAL_Driver/Src/stm32f4xx_hal_rcc.c ****     GPIO_InitStruct.Pull = GPIO_NOPULL;
 1029              		.loc 1 783 5 is_stmt 1 view .LVU350
 1030              		.loc 1 786 5 is_stmt 0 view .LVU351
 1031 0034 03A9     		add	r1, sp, #12
 783:Drivers/STM32F4xx_HAL_Driver/Src/stm32f4xx_hal_rcc.c ****     GPIO_InitStruct.Pull = GPIO_NOPULL;
 1032              		.loc 1 783 27 view .LVU352
 1033 0036 0693     		str	r3, [sp, #24]
 784:Drivers/STM32F4xx_HAL_Driver/Src/stm32f4xx_hal_rcc.c ****     GPIO_InitStruct.Alternate = GPIO_AF0_MCO;
 1034              		.loc 1 784 5 is_stmt 1 view .LVU353
 785:Drivers/STM32F4xx_HAL_Driver/Src/stm32f4xx_hal_rcc.c ****     HAL_GPIO_Init(MCO1_GPIO_PORT, &GPIO_InitStruct);
 1035              		.loc 1 785 5 view .LVU354
 1036              		.loc 1 786 5 view .LVU355
 1037 0038 FFF7FEFF 		bl	HAL_GPIO_Init
 1038              	.LVL81:
 787:Drivers/STM32F4xx_HAL_Driver/Src/stm32f4xx_hal_rcc.c **** 
 788:Drivers/STM32F4xx_HAL_Driver/Src/stm32f4xx_hal_rcc.c ****     /* Mask MCO1 and MCO1PRE[2:0] bits then Select MCO1 clock source and prescaler */
 789:Drivers/STM32F4xx_HAL_Driver/Src/stm32f4xx_hal_rcc.c ****     MODIFY_REG(RCC->CFGR, (RCC_CFGR_MCO1 | RCC_CFGR_MCO1PRE), (RCC_MCOSource | RCC_MCODiv));
 1039              		.loc 1 789 5 view .LVU356
ARM GAS  /tmp/ccbSUABi.s 			page 37


 1040 003c B268     		ldr	r2, [r6, #8]
 1041 003e 22F0EC62 		bic	r2, r2, #123731968
 1042 0042 2A43     		orrs	r2, r2, r5
 1043 0044 2243     		orrs	r2, r2, r4
 1044 0046 B260     		str	r2, [r6, #8]
 790:Drivers/STM32F4xx_HAL_Driver/Src/stm32f4xx_hal_rcc.c **** 
 791:Drivers/STM32F4xx_HAL_Driver/Src/stm32f4xx_hal_rcc.c ****    /* This RCC MCO1 enable feature is available only on STM32F410xx devices */
 792:Drivers/STM32F4xx_HAL_Driver/Src/stm32f4xx_hal_rcc.c **** #if defined(RCC_CFGR_MCO1EN)
 793:Drivers/STM32F4xx_HAL_Driver/Src/stm32f4xx_hal_rcc.c ****     __HAL_RCC_MCO1_ENABLE();
 794:Drivers/STM32F4xx_HAL_Driver/Src/stm32f4xx_hal_rcc.c **** #endif /* RCC_CFGR_MCO1EN */
 795:Drivers/STM32F4xx_HAL_Driver/Src/stm32f4xx_hal_rcc.c ****   }
 796:Drivers/STM32F4xx_HAL_Driver/Src/stm32f4xx_hal_rcc.c **** #if defined(RCC_CFGR_MCO2)
 797:Drivers/STM32F4xx_HAL_Driver/Src/stm32f4xx_hal_rcc.c ****   else
 798:Drivers/STM32F4xx_HAL_Driver/Src/stm32f4xx_hal_rcc.c ****   {
 799:Drivers/STM32F4xx_HAL_Driver/Src/stm32f4xx_hal_rcc.c ****     assert_param(IS_RCC_MCO2SOURCE(RCC_MCOSource));
 800:Drivers/STM32F4xx_HAL_Driver/Src/stm32f4xx_hal_rcc.c **** 
 801:Drivers/STM32F4xx_HAL_Driver/Src/stm32f4xx_hal_rcc.c ****     /* MCO2 Clock Enable */
 802:Drivers/STM32F4xx_HAL_Driver/Src/stm32f4xx_hal_rcc.c ****     __MCO2_CLK_ENABLE();
 803:Drivers/STM32F4xx_HAL_Driver/Src/stm32f4xx_hal_rcc.c **** 
 804:Drivers/STM32F4xx_HAL_Driver/Src/stm32f4xx_hal_rcc.c ****     /* Configure the MCO2 pin in alternate function mode */
 805:Drivers/STM32F4xx_HAL_Driver/Src/stm32f4xx_hal_rcc.c ****     GPIO_InitStruct.Pin = MCO2_PIN;
 806:Drivers/STM32F4xx_HAL_Driver/Src/stm32f4xx_hal_rcc.c ****     GPIO_InitStruct.Mode = GPIO_MODE_AF_PP;
 807:Drivers/STM32F4xx_HAL_Driver/Src/stm32f4xx_hal_rcc.c ****     GPIO_InitStruct.Speed = GPIO_SPEED_FREQ_VERY_HIGH;
 808:Drivers/STM32F4xx_HAL_Driver/Src/stm32f4xx_hal_rcc.c ****     GPIO_InitStruct.Pull = GPIO_NOPULL;
 809:Drivers/STM32F4xx_HAL_Driver/Src/stm32f4xx_hal_rcc.c ****     GPIO_InitStruct.Alternate = GPIO_AF0_MCO;
 810:Drivers/STM32F4xx_HAL_Driver/Src/stm32f4xx_hal_rcc.c ****     HAL_GPIO_Init(MCO2_GPIO_PORT, &GPIO_InitStruct);
 811:Drivers/STM32F4xx_HAL_Driver/Src/stm32f4xx_hal_rcc.c **** 
 812:Drivers/STM32F4xx_HAL_Driver/Src/stm32f4xx_hal_rcc.c ****     /* Mask MCO2 and MCO2PRE[2:0] bits then Select MCO2 clock source and prescaler */
 813:Drivers/STM32F4xx_HAL_Driver/Src/stm32f4xx_hal_rcc.c ****     MODIFY_REG(RCC->CFGR, (RCC_CFGR_MCO2 | RCC_CFGR_MCO2PRE), (RCC_MCOSource | (RCC_MCODiv << 3U)))
 814:Drivers/STM32F4xx_HAL_Driver/Src/stm32f4xx_hal_rcc.c **** 
 815:Drivers/STM32F4xx_HAL_Driver/Src/stm32f4xx_hal_rcc.c ****    /* This RCC MCO2 enable feature is available only on STM32F410Rx devices */
 816:Drivers/STM32F4xx_HAL_Driver/Src/stm32f4xx_hal_rcc.c **** #if defined(RCC_CFGR_MCO2EN)
 817:Drivers/STM32F4xx_HAL_Driver/Src/stm32f4xx_hal_rcc.c ****     __HAL_RCC_MCO2_ENABLE();
 818:Drivers/STM32F4xx_HAL_Driver/Src/stm32f4xx_hal_rcc.c **** #endif /* RCC_CFGR_MCO2EN */
 819:Drivers/STM32F4xx_HAL_Driver/Src/stm32f4xx_hal_rcc.c ****   }
 820:Drivers/STM32F4xx_HAL_Driver/Src/stm32f4xx_hal_rcc.c **** #endif /* RCC_CFGR_MCO2 */
 821:Drivers/STM32F4xx_HAL_Driver/Src/stm32f4xx_hal_rcc.c **** }
 1045              		.loc 1 821 1 is_stmt 0 view .LVU357
 1046 0048 08B0     		add	sp, sp, #32
 1047              	.LCFI12:
 1048              		.cfi_remember_state
 1049              		.cfi_def_cfa_offset 16
 1050              		@ sp needed
 1051 004a 70BD     		pop	{r4, r5, r6, pc}
 1052              	.LVL82:
 1053              	.L119:
 1054              	.LCFI13:
 1055              		.cfi_restore_state
 799:Drivers/STM32F4xx_HAL_Driver/Src/stm32f4xx_hal_rcc.c **** 
 1056              		.loc 1 799 5 is_stmt 1 view .LVU358
 802:Drivers/STM32F4xx_HAL_Driver/Src/stm32f4xx_hal_rcc.c **** 
 1057              		.loc 1 802 5 view .LVU359
 1058              	.LBB15:
 802:Drivers/STM32F4xx_HAL_Driver/Src/stm32f4xx_hal_rcc.c **** 
 1059              		.loc 1 802 5 view .LVU360
 1060 004c 114E     		ldr	r6, .L122
 1061              	.LBE15:
ARM GAS  /tmp/ccbSUABi.s 			page 38


 810:Drivers/STM32F4xx_HAL_Driver/Src/stm32f4xx_hal_rcc.c **** 
 1062              		.loc 1 810 5 is_stmt 0 view .LVU361
 1063 004e 1348     		ldr	r0, .L122+8
 1064              	.LVL83:
 1065              	.LBB16:
 802:Drivers/STM32F4xx_HAL_Driver/Src/stm32f4xx_hal_rcc.c **** 
 1066              		.loc 1 802 5 view .LVU362
 1067 0050 0023     		movs	r3, #0
 1068 0052 0293     		str	r3, [sp, #8]
 802:Drivers/STM32F4xx_HAL_Driver/Src/stm32f4xx_hal_rcc.c **** 
 1069              		.loc 1 802 5 is_stmt 1 view .LVU363
 1070 0054 326B     		ldr	r2, [r6, #48]
 1071              	.LVL84:
 802:Drivers/STM32F4xx_HAL_Driver/Src/stm32f4xx_hal_rcc.c **** 
 1072              		.loc 1 802 5 is_stmt 0 view .LVU364
 1073 0056 42F00402 		orr	r2, r2, #4
 1074 005a 3263     		str	r2, [r6, #48]
 802:Drivers/STM32F4xx_HAL_Driver/Src/stm32f4xx_hal_rcc.c **** 
 1075              		.loc 1 802 5 is_stmt 1 view .LVU365
 1076 005c 326B     		ldr	r2, [r6, #48]
 1077              	.LBE16:
 808:Drivers/STM32F4xx_HAL_Driver/Src/stm32f4xx_hal_rcc.c ****     GPIO_InitStruct.Alternate = GPIO_AF0_MCO;
 1078              		.loc 1 808 26 is_stmt 0 view .LVU366
 1079 005e 0593     		str	r3, [sp, #20]
 1080              	.LBB17:
 802:Drivers/STM32F4xx_HAL_Driver/Src/stm32f4xx_hal_rcc.c **** 
 1081              		.loc 1 802 5 view .LVU367
 1082 0060 02F00402 		and	r2, r2, #4
 1083 0064 0292     		str	r2, [sp, #8]
 802:Drivers/STM32F4xx_HAL_Driver/Src/stm32f4xx_hal_rcc.c **** 
 1084              		.loc 1 802 5 is_stmt 1 view .LVU368
 1085              	.LBE17:
 805:Drivers/STM32F4xx_HAL_Driver/Src/stm32f4xx_hal_rcc.c ****     GPIO_InitStruct.Mode = GPIO_MODE_AF_PP;
 1086              		.loc 1 805 25 is_stmt 0 view .LVU369
 1087 0066 4FF40071 		mov	r1, #512
 1088              	.LVL85:
 1089              	.LBB18:
 802:Drivers/STM32F4xx_HAL_Driver/Src/stm32f4xx_hal_rcc.c **** 
 1090              		.loc 1 802 5 view .LVU370
 1091 006a 029A     		ldr	r2, [sp, #8]
 1092              	.LBE18:
 802:Drivers/STM32F4xx_HAL_Driver/Src/stm32f4xx_hal_rcc.c **** 
 1093              		.loc 1 802 5 is_stmt 1 view .LVU371
 805:Drivers/STM32F4xx_HAL_Driver/Src/stm32f4xx_hal_rcc.c ****     GPIO_InitStruct.Mode = GPIO_MODE_AF_PP;
 1094              		.loc 1 805 5 view .LVU372
 809:Drivers/STM32F4xx_HAL_Driver/Src/stm32f4xx_hal_rcc.c ****     HAL_GPIO_Init(MCO2_GPIO_PORT, &GPIO_InitStruct);
 1095              		.loc 1 809 31 is_stmt 0 view .LVU373
 1096 006c 0793     		str	r3, [sp, #28]
 806:Drivers/STM32F4xx_HAL_Driver/Src/stm32f4xx_hal_rcc.c ****     GPIO_InitStruct.Speed = GPIO_SPEED_FREQ_VERY_HIGH;
 1097              		.loc 1 806 26 view .LVU374
 1098 006e 0222     		movs	r2, #2
 805:Drivers/STM32F4xx_HAL_Driver/Src/stm32f4xx_hal_rcc.c ****     GPIO_InitStruct.Mode = GPIO_MODE_AF_PP;
 1099              		.loc 1 805 25 view .LVU375
 1100 0070 0391     		str	r1, [sp, #12]
 806:Drivers/STM32F4xx_HAL_Driver/Src/stm32f4xx_hal_rcc.c ****     GPIO_InitStruct.Speed = GPIO_SPEED_FREQ_VERY_HIGH;
 1101              		.loc 1 806 5 is_stmt 1 view .LVU376
 807:Drivers/STM32F4xx_HAL_Driver/Src/stm32f4xx_hal_rcc.c ****     GPIO_InitStruct.Pull = GPIO_NOPULL;
ARM GAS  /tmp/ccbSUABi.s 			page 39


 1102              		.loc 1 807 27 is_stmt 0 view .LVU377
 1103 0072 0323     		movs	r3, #3
 810:Drivers/STM32F4xx_HAL_Driver/Src/stm32f4xx_hal_rcc.c **** 
 1104              		.loc 1 810 5 view .LVU378
 1105 0074 03A9     		add	r1, sp, #12
 807:Drivers/STM32F4xx_HAL_Driver/Src/stm32f4xx_hal_rcc.c ****     GPIO_InitStruct.Pull = GPIO_NOPULL;
 1106              		.loc 1 807 27 view .LVU379
 1107 0076 0693     		str	r3, [sp, #24]
 806:Drivers/STM32F4xx_HAL_Driver/Src/stm32f4xx_hal_rcc.c ****     GPIO_InitStruct.Speed = GPIO_SPEED_FREQ_VERY_HIGH;
 1108              		.loc 1 806 26 view .LVU380
 1109 0078 0492     		str	r2, [sp, #16]
 807:Drivers/STM32F4xx_HAL_Driver/Src/stm32f4xx_hal_rcc.c ****     GPIO_InitStruct.Pull = GPIO_NOPULL;
 1110              		.loc 1 807 5 is_stmt 1 view .LVU381
 808:Drivers/STM32F4xx_HAL_Driver/Src/stm32f4xx_hal_rcc.c ****     GPIO_InitStruct.Alternate = GPIO_AF0_MCO;
 1111              		.loc 1 808 5 view .LVU382
 809:Drivers/STM32F4xx_HAL_Driver/Src/stm32f4xx_hal_rcc.c ****     HAL_GPIO_Init(MCO2_GPIO_PORT, &GPIO_InitStruct);
 1112              		.loc 1 809 5 view .LVU383
 810:Drivers/STM32F4xx_HAL_Driver/Src/stm32f4xx_hal_rcc.c **** 
 1113              		.loc 1 810 5 view .LVU384
 1114 007a FFF7FEFF 		bl	HAL_GPIO_Init
 1115              	.LVL86:
 813:Drivers/STM32F4xx_HAL_Driver/Src/stm32f4xx_hal_rcc.c **** 
 1116              		.loc 1 813 5 view .LVU385
 1117 007e B368     		ldr	r3, [r6, #8]
 1118 0080 23F07843 		bic	r3, r3, #-134217728
 1119 0084 43EA0501 		orr	r1, r3, r5
 1120 0088 41EAC401 		orr	r1, r1, r4, lsl #3
 1121 008c B160     		str	r1, [r6, #8]
 1122              		.loc 1 821 1 is_stmt 0 view .LVU386
 1123 008e 08B0     		add	sp, sp, #32
 1124              	.LCFI14:
 1125              		.cfi_def_cfa_offset 16
 1126              		@ sp needed
 1127 0090 70BD     		pop	{r4, r5, r6, pc}
 1128              	.LVL87:
 1129              	.L123:
 1130              		.loc 1 821 1 view .LVU387
 1131 0092 00BF     		.align	2
 1132              	.L122:
 1133 0094 00380240 		.word	1073887232
 1134 0098 00000240 		.word	1073872896
 1135 009c 00080240 		.word	1073874944
 1136              		.cfi_endproc
 1137              	.LFE133:
 1139              		.section	.text.HAL_RCC_EnableCSS,"ax",%progbits
 1140              		.align	1
 1141              		.p2align 2,,3
 1142              		.global	HAL_RCC_EnableCSS
 1143              		.syntax unified
 1144              		.thumb
 1145              		.thumb_func
 1146              		.fpu fpv4-sp-d16
 1148              	HAL_RCC_EnableCSS:
 1149              	.LFB134:
 822:Drivers/STM32F4xx_HAL_Driver/Src/stm32f4xx_hal_rcc.c **** 
 823:Drivers/STM32F4xx_HAL_Driver/Src/stm32f4xx_hal_rcc.c **** /**
 824:Drivers/STM32F4xx_HAL_Driver/Src/stm32f4xx_hal_rcc.c ****   * @brief  Enables the Clock Security System.
ARM GAS  /tmp/ccbSUABi.s 			page 40


 825:Drivers/STM32F4xx_HAL_Driver/Src/stm32f4xx_hal_rcc.c ****   * @note   If a failure is detected on the HSE oscillator clock, this oscillator
 826:Drivers/STM32F4xx_HAL_Driver/Src/stm32f4xx_hal_rcc.c ****   *         is automatically disabled and an interrupt is generated to inform the
 827:Drivers/STM32F4xx_HAL_Driver/Src/stm32f4xx_hal_rcc.c ****   *         software about the failure (Clock Security System Interrupt, CSSI),
 828:Drivers/STM32F4xx_HAL_Driver/Src/stm32f4xx_hal_rcc.c ****   *         allowing the MCU to perform rescue operations. The CSSI is linked to
 829:Drivers/STM32F4xx_HAL_Driver/Src/stm32f4xx_hal_rcc.c ****   *         the Cortex-M4 NMI (Non-Maskable Interrupt) exception vector.
 830:Drivers/STM32F4xx_HAL_Driver/Src/stm32f4xx_hal_rcc.c ****   * @retval None
 831:Drivers/STM32F4xx_HAL_Driver/Src/stm32f4xx_hal_rcc.c ****   */
 832:Drivers/STM32F4xx_HAL_Driver/Src/stm32f4xx_hal_rcc.c **** void HAL_RCC_EnableCSS(void)
 833:Drivers/STM32F4xx_HAL_Driver/Src/stm32f4xx_hal_rcc.c **** {
 1150              		.loc 1 833 1 is_stmt 1 view -0
 1151              		.cfi_startproc
 1152              		@ args = 0, pretend = 0, frame = 0
 1153              		@ frame_needed = 0, uses_anonymous_args = 0
 1154              		@ link register save eliminated.
 834:Drivers/STM32F4xx_HAL_Driver/Src/stm32f4xx_hal_rcc.c ****   *(__IO uint32_t *) RCC_CR_CSSON_BB = (uint32_t)ENABLE;
 1155              		.loc 1 834 3 view .LVU389
 1156              		.loc 1 834 38 is_stmt 0 view .LVU390
 1157 0000 014B     		ldr	r3, .L125
 1158 0002 0122     		movs	r2, #1
 1159 0004 1A60     		str	r2, [r3]
 835:Drivers/STM32F4xx_HAL_Driver/Src/stm32f4xx_hal_rcc.c **** }
 1160              		.loc 1 835 1 view .LVU391
 1161 0006 7047     		bx	lr
 1162              	.L126:
 1163              		.align	2
 1164              	.L125:
 1165 0008 4C004742 		.word	1111949388
 1166              		.cfi_endproc
 1167              	.LFE134:
 1169              		.section	.text.HAL_RCC_DisableCSS,"ax",%progbits
 1170              		.align	1
 1171              		.p2align 2,,3
 1172              		.global	HAL_RCC_DisableCSS
 1173              		.syntax unified
 1174              		.thumb
 1175              		.thumb_func
 1176              		.fpu fpv4-sp-d16
 1178              	HAL_RCC_DisableCSS:
 1179              	.LFB135:
 836:Drivers/STM32F4xx_HAL_Driver/Src/stm32f4xx_hal_rcc.c **** 
 837:Drivers/STM32F4xx_HAL_Driver/Src/stm32f4xx_hal_rcc.c **** /**
 838:Drivers/STM32F4xx_HAL_Driver/Src/stm32f4xx_hal_rcc.c ****   * @brief  Disables the Clock Security System.
 839:Drivers/STM32F4xx_HAL_Driver/Src/stm32f4xx_hal_rcc.c ****   * @retval None
 840:Drivers/STM32F4xx_HAL_Driver/Src/stm32f4xx_hal_rcc.c ****   */
 841:Drivers/STM32F4xx_HAL_Driver/Src/stm32f4xx_hal_rcc.c **** void HAL_RCC_DisableCSS(void)
 842:Drivers/STM32F4xx_HAL_Driver/Src/stm32f4xx_hal_rcc.c **** {
 1180              		.loc 1 842 1 is_stmt 1 view -0
 1181              		.cfi_startproc
 1182              		@ args = 0, pretend = 0, frame = 0
 1183              		@ frame_needed = 0, uses_anonymous_args = 0
 1184              		@ link register save eliminated.
 843:Drivers/STM32F4xx_HAL_Driver/Src/stm32f4xx_hal_rcc.c ****   *(__IO uint32_t *) RCC_CR_CSSON_BB = (uint32_t)DISABLE;
 1185              		.loc 1 843 3 view .LVU393
 1186              		.loc 1 843 38 is_stmt 0 view .LVU394
 1187 0000 014B     		ldr	r3, .L128
 1188 0002 0022     		movs	r2, #0
 1189 0004 1A60     		str	r2, [r3]
ARM GAS  /tmp/ccbSUABi.s 			page 41


 844:Drivers/STM32F4xx_HAL_Driver/Src/stm32f4xx_hal_rcc.c **** }
 1190              		.loc 1 844 1 view .LVU395
 1191 0006 7047     		bx	lr
 1192              	.L129:
 1193              		.align	2
 1194              	.L128:
 1195 0008 4C004742 		.word	1111949388
 1196              		.cfi_endproc
 1197              	.LFE135:
 1199              		.global	__aeabi_uldivmod
 1200              		.global	__aeabi_ldivmod
 1201              		.section	.text.HAL_RCC_GetSysClockFreq,"ax",%progbits
 1202              		.align	1
 1203              		.p2align 2,,3
 1204              		.weak	HAL_RCC_GetSysClockFreq
 1205              		.syntax unified
 1206              		.thumb
 1207              		.thumb_func
 1208              		.fpu fpv4-sp-d16
 1210              	HAL_RCC_GetSysClockFreq:
 1211              	.LFB136:
 845:Drivers/STM32F4xx_HAL_Driver/Src/stm32f4xx_hal_rcc.c **** 
 846:Drivers/STM32F4xx_HAL_Driver/Src/stm32f4xx_hal_rcc.c **** /**
 847:Drivers/STM32F4xx_HAL_Driver/Src/stm32f4xx_hal_rcc.c ****   * @brief  Returns the SYSCLK frequency
 848:Drivers/STM32F4xx_HAL_Driver/Src/stm32f4xx_hal_rcc.c ****   *
 849:Drivers/STM32F4xx_HAL_Driver/Src/stm32f4xx_hal_rcc.c ****   * @note   The system frequency computed by this function is not the real
 850:Drivers/STM32F4xx_HAL_Driver/Src/stm32f4xx_hal_rcc.c ****   *         frequency in the chip. It is calculated based on the predefined
 851:Drivers/STM32F4xx_HAL_Driver/Src/stm32f4xx_hal_rcc.c ****   *         constant and the selected clock source:
 852:Drivers/STM32F4xx_HAL_Driver/Src/stm32f4xx_hal_rcc.c ****   * @note     If SYSCLK source is HSI, function returns values based on HSI_VALUE(*)
 853:Drivers/STM32F4xx_HAL_Driver/Src/stm32f4xx_hal_rcc.c ****   * @note     If SYSCLK source is HSE, function returns values based on HSE_VALUE(**)
 854:Drivers/STM32F4xx_HAL_Driver/Src/stm32f4xx_hal_rcc.c ****   * @note     If SYSCLK source is PLL, function returns values based on HSE_VALUE(**)
 855:Drivers/STM32F4xx_HAL_Driver/Src/stm32f4xx_hal_rcc.c ****   *           or HSI_VALUE(*) multiplied/divided by the PLL factors.
 856:Drivers/STM32F4xx_HAL_Driver/Src/stm32f4xx_hal_rcc.c ****   * @note     (*) HSI_VALUE is a constant defined in stm32f4xx_hal_conf.h file (default value
 857:Drivers/STM32F4xx_HAL_Driver/Src/stm32f4xx_hal_rcc.c ****   *               16 MHz) but the real value may vary depending on the variations
 858:Drivers/STM32F4xx_HAL_Driver/Src/stm32f4xx_hal_rcc.c ****   *               in voltage and temperature.
 859:Drivers/STM32F4xx_HAL_Driver/Src/stm32f4xx_hal_rcc.c ****   * @note     (**) HSE_VALUE is a constant defined in stm32f4xx_hal_conf.h file (default value
 860:Drivers/STM32F4xx_HAL_Driver/Src/stm32f4xx_hal_rcc.c ****   *                25 MHz), user has to ensure that HSE_VALUE is same as the real
 861:Drivers/STM32F4xx_HAL_Driver/Src/stm32f4xx_hal_rcc.c ****   *                frequency of the crystal used. Otherwise, this function may
 862:Drivers/STM32F4xx_HAL_Driver/Src/stm32f4xx_hal_rcc.c ****   *                have wrong result.
 863:Drivers/STM32F4xx_HAL_Driver/Src/stm32f4xx_hal_rcc.c ****   *
 864:Drivers/STM32F4xx_HAL_Driver/Src/stm32f4xx_hal_rcc.c ****   * @note   The result of this function could be not correct when using fractional
 865:Drivers/STM32F4xx_HAL_Driver/Src/stm32f4xx_hal_rcc.c ****   *         value for HSE crystal.
 866:Drivers/STM32F4xx_HAL_Driver/Src/stm32f4xx_hal_rcc.c ****   *
 867:Drivers/STM32F4xx_HAL_Driver/Src/stm32f4xx_hal_rcc.c ****   * @note   This function can be used by the user application to compute the
 868:Drivers/STM32F4xx_HAL_Driver/Src/stm32f4xx_hal_rcc.c ****   *         baudrate for the communication peripherals or configure other parameters.
 869:Drivers/STM32F4xx_HAL_Driver/Src/stm32f4xx_hal_rcc.c ****   *
 870:Drivers/STM32F4xx_HAL_Driver/Src/stm32f4xx_hal_rcc.c ****   * @note   Each time SYSCLK changes, this function must be called to update the
 871:Drivers/STM32F4xx_HAL_Driver/Src/stm32f4xx_hal_rcc.c ****   *         right SYSCLK value. Otherwise, any configuration based on this function will be incorre
 872:Drivers/STM32F4xx_HAL_Driver/Src/stm32f4xx_hal_rcc.c ****   *
 873:Drivers/STM32F4xx_HAL_Driver/Src/stm32f4xx_hal_rcc.c ****   *
 874:Drivers/STM32F4xx_HAL_Driver/Src/stm32f4xx_hal_rcc.c ****   * @retval SYSCLK frequency
 875:Drivers/STM32F4xx_HAL_Driver/Src/stm32f4xx_hal_rcc.c ****   */
 876:Drivers/STM32F4xx_HAL_Driver/Src/stm32f4xx_hal_rcc.c **** __weak uint32_t HAL_RCC_GetSysClockFreq(void)
 877:Drivers/STM32F4xx_HAL_Driver/Src/stm32f4xx_hal_rcc.c **** {
 1212              		.loc 1 877 1 is_stmt 1 view -0
 1213              		.cfi_startproc
 1214              		@ args = 0, pretend = 0, frame = 0
ARM GAS  /tmp/ccbSUABi.s 			page 42


 1215              		@ frame_needed = 0, uses_anonymous_args = 0
 878:Drivers/STM32F4xx_HAL_Driver/Src/stm32f4xx_hal_rcc.c ****   uint32_t pllm = 0U, pllvco = 0U, pllp = 0U;
 1216              		.loc 1 878 3 view .LVU397
 1217              	.LVL88:
 879:Drivers/STM32F4xx_HAL_Driver/Src/stm32f4xx_hal_rcc.c ****   uint32_t sysclockfreq = 0U;
 1218              		.loc 1 879 3 view .LVU398
 880:Drivers/STM32F4xx_HAL_Driver/Src/stm32f4xx_hal_rcc.c **** 
 881:Drivers/STM32F4xx_HAL_Driver/Src/stm32f4xx_hal_rcc.c ****   /* Get SYSCLK source -------------------------------------------------------*/
 882:Drivers/STM32F4xx_HAL_Driver/Src/stm32f4xx_hal_rcc.c ****   switch (RCC->CFGR & RCC_CFGR_SWS)
 1219              		.loc 1 882 3 view .LVU399
 1220              		.loc 1 882 14 is_stmt 0 view .LVU400
 1221 0000 1749     		ldr	r1, .L138
 877:Drivers/STM32F4xx_HAL_Driver/Src/stm32f4xx_hal_rcc.c ****   uint32_t pllm = 0U, pllvco = 0U, pllp = 0U;
 1222              		.loc 1 877 1 view .LVU401
 1223 0002 08B5     		push	{r3, lr}
 1224              	.LCFI15:
 1225              		.cfi_def_cfa_offset 8
 1226              		.cfi_offset 3, -8
 1227              		.cfi_offset 14, -4
 1228              		.loc 1 882 14 view .LVU402
 1229 0004 8B68     		ldr	r3, [r1, #8]
 1230              		.loc 1 882 21 view .LVU403
 1231 0006 03F00C03 		and	r3, r3, #12
 1232              		.loc 1 882 3 view .LVU404
 1233 000a 042B     		cmp	r3, #4
 1234 000c 1BD0     		beq	.L134
 1235 000e 082B     		cmp	r3, #8
 1236 0010 17D1     		bne	.L135
 1237              	.LBB21:
 1238              	.LBI21:
 876:Drivers/STM32F4xx_HAL_Driver/Src/stm32f4xx_hal_rcc.c **** {
 1239              		.loc 1 876 17 is_stmt 1 view .LVU405
 1240              	.LBB22:
 883:Drivers/STM32F4xx_HAL_Driver/Src/stm32f4xx_hal_rcc.c ****   {
 884:Drivers/STM32F4xx_HAL_Driver/Src/stm32f4xx_hal_rcc.c ****     case RCC_CFGR_SWS_HSI:  /* HSI used as system clock source */
 885:Drivers/STM32F4xx_HAL_Driver/Src/stm32f4xx_hal_rcc.c ****     {
 886:Drivers/STM32F4xx_HAL_Driver/Src/stm32f4xx_hal_rcc.c ****       sysclockfreq = HSI_VALUE;
 887:Drivers/STM32F4xx_HAL_Driver/Src/stm32f4xx_hal_rcc.c ****        break;
 888:Drivers/STM32F4xx_HAL_Driver/Src/stm32f4xx_hal_rcc.c ****     }
 889:Drivers/STM32F4xx_HAL_Driver/Src/stm32f4xx_hal_rcc.c ****     case RCC_CFGR_SWS_HSE:  /* HSE used as system clock  source */
 890:Drivers/STM32F4xx_HAL_Driver/Src/stm32f4xx_hal_rcc.c ****     {
 891:Drivers/STM32F4xx_HAL_Driver/Src/stm32f4xx_hal_rcc.c ****       sysclockfreq = HSE_VALUE;
 892:Drivers/STM32F4xx_HAL_Driver/Src/stm32f4xx_hal_rcc.c ****       break;
 893:Drivers/STM32F4xx_HAL_Driver/Src/stm32f4xx_hal_rcc.c ****     }
 894:Drivers/STM32F4xx_HAL_Driver/Src/stm32f4xx_hal_rcc.c ****     case RCC_CFGR_SWS_PLL:  /* PLL used as system clock  source */
 895:Drivers/STM32F4xx_HAL_Driver/Src/stm32f4xx_hal_rcc.c ****     {
 896:Drivers/STM32F4xx_HAL_Driver/Src/stm32f4xx_hal_rcc.c ****       /* PLL_VCO = (HSE_VALUE or HSI_VALUE / PLLM) * PLLN
 897:Drivers/STM32F4xx_HAL_Driver/Src/stm32f4xx_hal_rcc.c ****       SYSCLK = PLL_VCO / PLLP */
 898:Drivers/STM32F4xx_HAL_Driver/Src/stm32f4xx_hal_rcc.c ****       pllm = RCC->PLLCFGR & RCC_PLLCFGR_PLLM;
 1241              		.loc 1 898 7 view .LVU406
 1242              		.loc 1 898 17 is_stmt 0 view .LVU407
 1243 0012 4A68     		ldr	r2, [r1, #4]
 899:Drivers/STM32F4xx_HAL_Driver/Src/stm32f4xx_hal_rcc.c ****       if(__HAL_RCC_GET_PLL_OSCSOURCE() != RCC_PLLSOURCE_HSI)
 1244              		.loc 1 899 10 view .LVU408
 1245 0014 4B68     		ldr	r3, [r1, #4]
 1246              		.loc 1 899 9 view .LVU409
 1247 0016 13F48003 		ands	r3, r3, #4194304
ARM GAS  /tmp/ccbSUABi.s 			page 43


 898:Drivers/STM32F4xx_HAL_Driver/Src/stm32f4xx_hal_rcc.c ****       if(__HAL_RCC_GET_PLL_OSCSOURCE() != RCC_PLLSOURCE_HSI)
 1248              		.loc 1 898 12 view .LVU410
 1249 001a 02F03F02 		and	r2, r2, #63
 1250              	.LVL89:
 1251              		.loc 1 899 7 is_stmt 1 view .LVU411
 1252              		.loc 1 899 9 is_stmt 0 view .LVU412
 1253 001e 14D1     		bne	.L137
 900:Drivers/STM32F4xx_HAL_Driver/Src/stm32f4xx_hal_rcc.c ****       {
 901:Drivers/STM32F4xx_HAL_Driver/Src/stm32f4xx_hal_rcc.c ****         /* HSE used as PLL clock source */
 902:Drivers/STM32F4xx_HAL_Driver/Src/stm32f4xx_hal_rcc.c ****         pllvco = (uint32_t) ((((uint64_t) HSE_VALUE * ((uint64_t) ((RCC->PLLCFGR & RCC_PLLCFGR_PLLN
 903:Drivers/STM32F4xx_HAL_Driver/Src/stm32f4xx_hal_rcc.c ****       }
 904:Drivers/STM32F4xx_HAL_Driver/Src/stm32f4xx_hal_rcc.c ****       else
 905:Drivers/STM32F4xx_HAL_Driver/Src/stm32f4xx_hal_rcc.c ****       {
 906:Drivers/STM32F4xx_HAL_Driver/Src/stm32f4xx_hal_rcc.c ****         /* HSI used as PLL clock source */
 907:Drivers/STM32F4xx_HAL_Driver/Src/stm32f4xx_hal_rcc.c ****         pllvco = (uint32_t) ((((uint64_t) HSI_VALUE * ((uint64_t) ((RCC->PLLCFGR & RCC_PLLCFGR_PLLN
 1254              		.loc 1 907 9 is_stmt 1 view .LVU413
 1255              		.loc 1 907 72 is_stmt 0 view .LVU414
 1256 0020 4968     		ldr	r1, [r1, #4]
 1257              		.loc 1 907 53 view .LVU415
 1258 0022 1048     		ldr	r0, .L138+4
 1259 0024 C1F38811 		ubfx	r1, r1, #6, #9
 1260              		.loc 1 907 130 view .LVU416
 1261 0028 A1FB0001 		umull	r0, r1, r1, r0
 1262 002c FFF7FEFF 		bl	__aeabi_uldivmod
 1263              	.LVL90:
 1264              	.L133:
 908:Drivers/STM32F4xx_HAL_Driver/Src/stm32f4xx_hal_rcc.c ****       }
 909:Drivers/STM32F4xx_HAL_Driver/Src/stm32f4xx_hal_rcc.c ****       pllp = ((((RCC->PLLCFGR & RCC_PLLCFGR_PLLP) >> RCC_PLLCFGR_PLLP_Pos) + 1U) *2U);
 1265              		.loc 1 909 7 is_stmt 1 view .LVU417
 1266              		.loc 1 909 21 is_stmt 0 view .LVU418
 1267 0030 0B4B     		ldr	r3, .L138
 1268 0032 5B68     		ldr	r3, [r3, #4]
 1269              	.LVL91:
 910:Drivers/STM32F4xx_HAL_Driver/Src/stm32f4xx_hal_rcc.c **** 
 911:Drivers/STM32F4xx_HAL_Driver/Src/stm32f4xx_hal_rcc.c ****       sysclockfreq = pllvco/pllp;
 1270              		.loc 1 911 7 is_stmt 1 view .LVU419
 909:Drivers/STM32F4xx_HAL_Driver/Src/stm32f4xx_hal_rcc.c **** 
 1271              		.loc 1 909 51 is_stmt 0 view .LVU420
 1272 0034 C3F30143 		ubfx	r3, r3, #16, #2
 1273              	.LVL92:
 909:Drivers/STM32F4xx_HAL_Driver/Src/stm32f4xx_hal_rcc.c **** 
 1274              		.loc 1 909 76 view .LVU421
 1275 0038 0133     		adds	r3, r3, #1
 909:Drivers/STM32F4xx_HAL_Driver/Src/stm32f4xx_hal_rcc.c **** 
 1276              		.loc 1 909 12 view .LVU422
 1277 003a 5B00     		lsls	r3, r3, #1
 1278              		.loc 1 911 20 view .LVU423
 1279 003c B0FBF3F0 		udiv	r0, r0, r3
 1280              	.LVL93:
 912:Drivers/STM32F4xx_HAL_Driver/Src/stm32f4xx_hal_rcc.c ****       break;
 1281              		.loc 1 912 7 is_stmt 1 view .LVU424
 913:Drivers/STM32F4xx_HAL_Driver/Src/stm32f4xx_hal_rcc.c ****     }
 914:Drivers/STM32F4xx_HAL_Driver/Src/stm32f4xx_hal_rcc.c ****     default:
 915:Drivers/STM32F4xx_HAL_Driver/Src/stm32f4xx_hal_rcc.c ****     {
 916:Drivers/STM32F4xx_HAL_Driver/Src/stm32f4xx_hal_rcc.c ****       sysclockfreq = HSI_VALUE;
 917:Drivers/STM32F4xx_HAL_Driver/Src/stm32f4xx_hal_rcc.c ****       break;
 918:Drivers/STM32F4xx_HAL_Driver/Src/stm32f4xx_hal_rcc.c ****     }
ARM GAS  /tmp/ccbSUABi.s 			page 44


 919:Drivers/STM32F4xx_HAL_Driver/Src/stm32f4xx_hal_rcc.c ****   }
 920:Drivers/STM32F4xx_HAL_Driver/Src/stm32f4xx_hal_rcc.c ****   return sysclockfreq;
 1282              		.loc 1 920 3 view .LVU425
 1283              		.loc 1 920 3 is_stmt 0 view .LVU426
 1284              	.LBE22:
 1285              	.LBE21:
 921:Drivers/STM32F4xx_HAL_Driver/Src/stm32f4xx_hal_rcc.c **** }
 1286              		.loc 1 921 1 view .LVU427
 1287 0040 08BD     		pop	{r3, pc}
 1288              	.L135:
 886:Drivers/STM32F4xx_HAL_Driver/Src/stm32f4xx_hal_rcc.c ****        break;
 1289              		.loc 1 886 20 view .LVU428
 1290 0042 0848     		ldr	r0, .L138+4
 1291              	.LVL94:
 920:Drivers/STM32F4xx_HAL_Driver/Src/stm32f4xx_hal_rcc.c **** }
 1292              		.loc 1 920 3 is_stmt 1 view .LVU429
 1293              		.loc 1 921 1 is_stmt 0 view .LVU430
 1294 0044 08BD     		pop	{r3, pc}
 1295              	.LVL95:
 1296              	.L134:
 882:Drivers/STM32F4xx_HAL_Driver/Src/stm32f4xx_hal_rcc.c ****   {
 1297              		.loc 1 882 3 view .LVU431
 1298 0046 0848     		ldr	r0, .L138+8
 1299              		.loc 1 921 1 view .LVU432
 1300 0048 08BD     		pop	{r3, pc}
 1301              	.LVL96:
 1302              	.L137:
 1303              	.LBB24:
 1304              	.LBB23:
 902:Drivers/STM32F4xx_HAL_Driver/Src/stm32f4xx_hal_rcc.c ****       }
 1305              		.loc 1 902 9 is_stmt 1 view .LVU433
 902:Drivers/STM32F4xx_HAL_Driver/Src/stm32f4xx_hal_rcc.c ****       }
 1306              		.loc 1 902 72 is_stmt 0 view .LVU434
 1307 004a 4B68     		ldr	r3, [r1, #4]
 902:Drivers/STM32F4xx_HAL_Driver/Src/stm32f4xx_hal_rcc.c ****       }
 1308              		.loc 1 902 53 view .LVU435
 1309 004c 0648     		ldr	r0, .L138+8
 1310 004e C3F38813 		ubfx	r3, r3, #6, #9
 902:Drivers/STM32F4xx_HAL_Driver/Src/stm32f4xx_hal_rcc.c ****       }
 1311              		.loc 1 902 130 view .LVU436
 1312 0052 A3FB0001 		umull	r0, r1, r3, r0
 1313 0056 0023     		movs	r3, #0
 1314 0058 FFF7FEFF 		bl	__aeabi_uldivmod
 1315              	.LVL97:
 902:Drivers/STM32F4xx_HAL_Driver/Src/stm32f4xx_hal_rcc.c ****       }
 1316              		.loc 1 902 130 view .LVU437
 1317 005c E8E7     		b	.L133
 1318              	.L139:
 1319 005e 00BF     		.align	2
 1320              	.L138:
 1321 0060 00380240 		.word	1073887232
 1322 0064 0024F400 		.word	16000000
 1323 0068 00127A00 		.word	8000000
 1324              	.LBE23:
 1325              	.LBE24:
 1326              		.cfi_endproc
 1327              	.LFE136:
ARM GAS  /tmp/ccbSUABi.s 			page 45


 1329              		.section	.text.HAL_RCC_ClockConfig,"ax",%progbits
 1330              		.align	1
 1331              		.p2align 2,,3
 1332              		.global	HAL_RCC_ClockConfig
 1333              		.syntax unified
 1334              		.thumb
 1335              		.thumb_func
 1336              		.fpu fpv4-sp-d16
 1338              	HAL_RCC_ClockConfig:
 1339              	.LVL98:
 1340              	.LFB132:
 583:Drivers/STM32F4xx_HAL_Driver/Src/stm32f4xx_hal_rcc.c ****   uint32_t tickstart;
 1341              		.loc 1 583 1 is_stmt 1 view -0
 1342              		.cfi_startproc
 1343              		@ args = 0, pretend = 0, frame = 0
 1344              		@ frame_needed = 0, uses_anonymous_args = 0
 584:Drivers/STM32F4xx_HAL_Driver/Src/stm32f4xx_hal_rcc.c **** 
 1345              		.loc 1 584 3 view .LVU439
 587:Drivers/STM32F4xx_HAL_Driver/Src/stm32f4xx_hal_rcc.c ****   {
 1346              		.loc 1 587 3 view .LVU440
 587:Drivers/STM32F4xx_HAL_Driver/Src/stm32f4xx_hal_rcc.c ****   {
 1347              		.loc 1 587 5 is_stmt 0 view .LVU441
 1348 0000 0028     		cmp	r0, #0
 1349 0002 00F08780 		beq	.L184
 601:Drivers/STM32F4xx_HAL_Driver/Src/stm32f4xx_hal_rcc.c ****   {
 1350              		.loc 1 601 17 view .LVU442
 1351 0006 484A     		ldr	r2, .L187
 1352 0008 1368     		ldr	r3, [r2]
 1353 000a 03F00F03 		and	r3, r3, #15
 601:Drivers/STM32F4xx_HAL_Driver/Src/stm32f4xx_hal_rcc.c ****   {
 1354              		.loc 1 601 5 view .LVU443
 1355 000e 8B42     		cmp	r3, r1
 583:Drivers/STM32F4xx_HAL_Driver/Src/stm32f4xx_hal_rcc.c ****   uint32_t tickstart;
 1356              		.loc 1 583 1 view .LVU444
 1357 0010 2DE9F041 		push	{r4, r5, r6, r7, r8, lr}
 1358              	.LCFI16:
 1359              		.cfi_def_cfa_offset 24
 1360              		.cfi_offset 4, -24
 1361              		.cfi_offset 5, -20
 1362              		.cfi_offset 6, -16
 1363              		.cfi_offset 7, -12
 1364              		.cfi_offset 8, -8
 1365              		.cfi_offset 14, -4
 1366 0014 0D46     		mov	r5, r1
 1367 0016 0446     		mov	r4, r0
 593:Drivers/STM32F4xx_HAL_Driver/Src/stm32f4xx_hal_rcc.c ****   assert_param(IS_FLASH_LATENCY(FLatency));
 1368              		.loc 1 593 3 is_stmt 1 view .LVU445
 594:Drivers/STM32F4xx_HAL_Driver/Src/stm32f4xx_hal_rcc.c **** 
 1369              		.loc 1 594 3 view .LVU446
 601:Drivers/STM32F4xx_HAL_Driver/Src/stm32f4xx_hal_rcc.c ****   {
 1370              		.loc 1 601 3 view .LVU447
 601:Drivers/STM32F4xx_HAL_Driver/Src/stm32f4xx_hal_rcc.c ****   {
 1371              		.loc 1 601 5 is_stmt 0 view .LVU448
 1372 0018 09D2     		bcs	.L147
 604:Drivers/STM32F4xx_HAL_Driver/Src/stm32f4xx_hal_rcc.c **** 
 1373              		.loc 1 604 5 is_stmt 1 view .LVU449
 1374 001a CBB2     		uxtb	r3, r1
ARM GAS  /tmp/ccbSUABi.s 			page 46


 1375 001c 1370     		strb	r3, [r2]
 608:Drivers/STM32F4xx_HAL_Driver/Src/stm32f4xx_hal_rcc.c ****     {
 1376              		.loc 1 608 5 view .LVU450
 608:Drivers/STM32F4xx_HAL_Driver/Src/stm32f4xx_hal_rcc.c ****     {
 1377              		.loc 1 608 8 is_stmt 0 view .LVU451
 1378 001e 1368     		ldr	r3, [r2]
 1379 0020 03F00F03 		and	r3, r3, #15
 608:Drivers/STM32F4xx_HAL_Driver/Src/stm32f4xx_hal_rcc.c ****     {
 1380              		.loc 1 608 7 view .LVU452
 1381 0024 8B42     		cmp	r3, r1
 1382 0026 02D0     		beq	.L147
 1383              	.LVL99:
 1384              	.L146:
 589:Drivers/STM32F4xx_HAL_Driver/Src/stm32f4xx_hal_rcc.c ****   }
 1385              		.loc 1 589 12 view .LVU453
 1386 0028 0120     		movs	r0, #1
 1387              	.L142:
 716:Drivers/STM32F4xx_HAL_Driver/Src/stm32f4xx_hal_rcc.c **** 
 1388              		.loc 1 716 1 view .LVU454
 1389 002a BDE8F081 		pop	{r4, r5, r6, r7, r8, pc}
 1390              	.LVL100:
 1391              	.L147:
 615:Drivers/STM32F4xx_HAL_Driver/Src/stm32f4xx_hal_rcc.c ****   {
 1392              		.loc 1 615 3 is_stmt 1 view .LVU455
 615:Drivers/STM32F4xx_HAL_Driver/Src/stm32f4xx_hal_rcc.c ****   {
 1393              		.loc 1 615 25 is_stmt 0 view .LVU456
 1394 002e 2368     		ldr	r3, [r4]
 615:Drivers/STM32F4xx_HAL_Driver/Src/stm32f4xx_hal_rcc.c ****   {
 1395              		.loc 1 615 5 view .LVU457
 1396 0030 9807     		lsls	r0, r3, #30
 1397              	.LVL101:
 615:Drivers/STM32F4xx_HAL_Driver/Src/stm32f4xx_hal_rcc.c ****   {
 1398              		.loc 1 615 5 view .LVU458
 1399 0032 14D5     		bpl	.L145
 619:Drivers/STM32F4xx_HAL_Driver/Src/stm32f4xx_hal_rcc.c ****     {
 1400              		.loc 1 619 5 is_stmt 1 view .LVU459
 619:Drivers/STM32F4xx_HAL_Driver/Src/stm32f4xx_hal_rcc.c ****     {
 1401              		.loc 1 619 7 is_stmt 0 view .LVU460
 1402 0034 5907     		lsls	r1, r3, #29
 1403              	.LVL102:
 619:Drivers/STM32F4xx_HAL_Driver/Src/stm32f4xx_hal_rcc.c ****     {
 1404              		.loc 1 619 7 view .LVU461
 1405 0036 04D5     		bpl	.L148
 621:Drivers/STM32F4xx_HAL_Driver/Src/stm32f4xx_hal_rcc.c ****     }
 1406              		.loc 1 621 7 is_stmt 1 view .LVU462
 1407 0038 3C49     		ldr	r1, .L187+4
 1408 003a 8A68     		ldr	r2, [r1, #8]
 1409 003c 42F4E052 		orr	r2, r2, #7168
 1410 0040 8A60     		str	r2, [r1, #8]
 1411              	.L148:
 624:Drivers/STM32F4xx_HAL_Driver/Src/stm32f4xx_hal_rcc.c ****     {
 1412              		.loc 1 624 5 view .LVU463
 624:Drivers/STM32F4xx_HAL_Driver/Src/stm32f4xx_hal_rcc.c ****     {
 1413              		.loc 1 624 7 is_stmt 0 view .LVU464
 1414 0042 1A07     		lsls	r2, r3, #28
 1415 0044 04D5     		bpl	.L149
 626:Drivers/STM32F4xx_HAL_Driver/Src/stm32f4xx_hal_rcc.c ****     }
ARM GAS  /tmp/ccbSUABi.s 			page 47


 1416              		.loc 1 626 7 is_stmt 1 view .LVU465
 1417 0046 3949     		ldr	r1, .L187+4
 1418 0048 8A68     		ldr	r2, [r1, #8]
 1419 004a 42F46042 		orr	r2, r2, #57344
 1420 004e 8A60     		str	r2, [r1, #8]
 1421              	.L149:
 629:Drivers/STM32F4xx_HAL_Driver/Src/stm32f4xx_hal_rcc.c ****     MODIFY_REG(RCC->CFGR, RCC_CFGR_HPRE, RCC_ClkInitStruct->AHBCLKDivider);
 1422              		.loc 1 629 5 view .LVU466
 630:Drivers/STM32F4xx_HAL_Driver/Src/stm32f4xx_hal_rcc.c ****   }
 1423              		.loc 1 630 5 view .LVU467
 1424 0050 3649     		ldr	r1, .L187+4
 1425 0052 A068     		ldr	r0, [r4, #8]
 1426 0054 8A68     		ldr	r2, [r1, #8]
 1427 0056 22F0F002 		bic	r2, r2, #240
 1428 005a 0243     		orrs	r2, r2, r0
 1429 005c 8A60     		str	r2, [r1, #8]
 1430              	.L145:
 634:Drivers/STM32F4xx_HAL_Driver/Src/stm32f4xx_hal_rcc.c ****   {
 1431              		.loc 1 634 3 view .LVU468
 634:Drivers/STM32F4xx_HAL_Driver/Src/stm32f4xx_hal_rcc.c ****   {
 1432              		.loc 1 634 5 is_stmt 0 view .LVU469
 1433 005e DF07     		lsls	r7, r3, #31
 1434 0060 21D5     		bpl	.L158
 636:Drivers/STM32F4xx_HAL_Driver/Src/stm32f4xx_hal_rcc.c **** 
 1435              		.loc 1 636 5 is_stmt 1 view .LVU470
 639:Drivers/STM32F4xx_HAL_Driver/Src/stm32f4xx_hal_rcc.c ****     {
 1436              		.loc 1 639 5 view .LVU471
 639:Drivers/STM32F4xx_HAL_Driver/Src/stm32f4xx_hal_rcc.c ****     {
 1437              		.loc 1 639 25 is_stmt 0 view .LVU472
 1438 0062 6268     		ldr	r2, [r4, #4]
 639:Drivers/STM32F4xx_HAL_Driver/Src/stm32f4xx_hal_rcc.c ****     {
 1439              		.loc 1 639 7 view .LVU473
 1440 0064 012A     		cmp	r2, #1
 1441 0066 57D0     		beq	.L185
 648:Drivers/STM32F4xx_HAL_Driver/Src/stm32f4xx_hal_rcc.c ****             (RCC_ClkInitStruct->SYSCLKSource == RCC_SYSCLKSOURCE_PLLRCLK))
 1442              		.loc 1 648 10 is_stmt 1 view .LVU474
 648:Drivers/STM32F4xx_HAL_Driver/Src/stm32f4xx_hal_rcc.c ****             (RCC_ClkInitStruct->SYSCLKSource == RCC_SYSCLKSOURCE_PLLRCLK))
 1443              		.loc 1 648 76 is_stmt 0 view .LVU475
 1444 0068 931E     		subs	r3, r2, #2
 648:Drivers/STM32F4xx_HAL_Driver/Src/stm32f4xx_hal_rcc.c ****             (RCC_ClkInitStruct->SYSCLKSource == RCC_SYSCLKSOURCE_PLLRCLK))
 1445              		.loc 1 648 12 view .LVU476
 1446 006a 012B     		cmp	r3, #1
 652:Drivers/STM32F4xx_HAL_Driver/Src/stm32f4xx_hal_rcc.c ****       {
 1447              		.loc 1 652 10 view .LVU477
 1448 006c 2F4B     		ldr	r3, .L187+4
 1449 006e 1B68     		ldr	r3, [r3]
 648:Drivers/STM32F4xx_HAL_Driver/Src/stm32f4xx_hal_rcc.c ****             (RCC_ClkInitStruct->SYSCLKSource == RCC_SYSCLKSOURCE_PLLRCLK))
 1450              		.loc 1 648 12 view .LVU478
 1451 0070 4DD9     		bls	.L186
 661:Drivers/STM32F4xx_HAL_Driver/Src/stm32f4xx_hal_rcc.c ****       {
 1452              		.loc 1 661 7 is_stmt 1 view .LVU479
 661:Drivers/STM32F4xx_HAL_Driver/Src/stm32f4xx_hal_rcc.c ****       {
 1453              		.loc 1 661 9 is_stmt 0 view .LVU480
 1454 0072 9907     		lsls	r1, r3, #30
 1455 0074 D8D5     		bpl	.L146
 1456              	.L154:
 667:Drivers/STM32F4xx_HAL_Driver/Src/stm32f4xx_hal_rcc.c **** 
ARM GAS  /tmp/ccbSUABi.s 			page 48


 1457              		.loc 1 667 5 is_stmt 1 view .LVU481
 1458 0076 2D4E     		ldr	r6, .L187+4
 1459 0078 B368     		ldr	r3, [r6, #8]
 1460 007a 23F00303 		bic	r3, r3, #3
 1461 007e 1343     		orrs	r3, r3, r2
 1462 0080 B360     		str	r3, [r6, #8]
 670:Drivers/STM32F4xx_HAL_Driver/Src/stm32f4xx_hal_rcc.c **** 
 1463              		.loc 1 670 5 view .LVU482
 670:Drivers/STM32F4xx_HAL_Driver/Src/stm32f4xx_hal_rcc.c **** 
 1464              		.loc 1 670 17 is_stmt 0 view .LVU483
 1465 0082 FFF7FEFF 		bl	HAL_GetTick
 1466              	.LVL103:
 674:Drivers/STM32F4xx_HAL_Driver/Src/stm32f4xx_hal_rcc.c ****       {
 1467              		.loc 1 674 10 view .LVU484
 1468 0086 41F28838 		movw	r8, #5000
 670:Drivers/STM32F4xx_HAL_Driver/Src/stm32f4xx_hal_rcc.c **** 
 1469              		.loc 1 670 17 view .LVU485
 1470 008a 0746     		mov	r7, r0
 1471              	.LVL104:
 672:Drivers/STM32F4xx_HAL_Driver/Src/stm32f4xx_hal_rcc.c ****     {
 1472              		.loc 1 672 5 is_stmt 1 view .LVU486
 672:Drivers/STM32F4xx_HAL_Driver/Src/stm32f4xx_hal_rcc.c ****     {
 1473              		.loc 1 672 11 is_stmt 0 view .LVU487
 1474 008c 04E0     		b	.L156
 1475              	.LVL105:
 1476              	.L157:
 674:Drivers/STM32F4xx_HAL_Driver/Src/stm32f4xx_hal_rcc.c ****       {
 1477              		.loc 1 674 12 view .LVU488
 1478 008e FFF7FEFF 		bl	HAL_GetTick
 1479              	.LVL106:
 674:Drivers/STM32F4xx_HAL_Driver/Src/stm32f4xx_hal_rcc.c ****       {
 1480              		.loc 1 674 26 view .LVU489
 1481 0092 C01B     		subs	r0, r0, r7
 674:Drivers/STM32F4xx_HAL_Driver/Src/stm32f4xx_hal_rcc.c ****       {
 1482              		.loc 1 674 10 view .LVU490
 1483 0094 4045     		cmp	r0, r8
 1484 0096 44D8     		bhi	.L162
 1485              	.L156:
 674:Drivers/STM32F4xx_HAL_Driver/Src/stm32f4xx_hal_rcc.c ****       {
 1486              		.loc 1 674 7 is_stmt 1 view .LVU491
 672:Drivers/STM32F4xx_HAL_Driver/Src/stm32f4xx_hal_rcc.c ****     {
 1487              		.loc 1 672 11 view .LVU492
 672:Drivers/STM32F4xx_HAL_Driver/Src/stm32f4xx_hal_rcc.c ****     {
 1488              		.loc 1 672 12 is_stmt 0 view .LVU493
 1489 0098 B368     		ldr	r3, [r6, #8]
 672:Drivers/STM32F4xx_HAL_Driver/Src/stm32f4xx_hal_rcc.c ****     {
 1490              		.loc 1 672 78 view .LVU494
 1491 009a 6268     		ldr	r2, [r4, #4]
 672:Drivers/STM32F4xx_HAL_Driver/Src/stm32f4xx_hal_rcc.c ****     {
 1492              		.loc 1 672 12 view .LVU495
 1493 009c 03F00C03 		and	r3, r3, #12
 672:Drivers/STM32F4xx_HAL_Driver/Src/stm32f4xx_hal_rcc.c ****     {
 1494              		.loc 1 672 11 view .LVU496
 1495 00a0 B3EB820F 		cmp	r3, r2, lsl #2
 1496 00a4 F3D1     		bne	.L157
 1497              	.LVL107:
 1498              	.L158:
ARM GAS  /tmp/ccbSUABi.s 			page 49


 682:Drivers/STM32F4xx_HAL_Driver/Src/stm32f4xx_hal_rcc.c ****   {
 1499              		.loc 1 682 3 is_stmt 1 view .LVU497
 682:Drivers/STM32F4xx_HAL_Driver/Src/stm32f4xx_hal_rcc.c ****   {
 1500              		.loc 1 682 17 is_stmt 0 view .LVU498
 1501 00a6 204A     		ldr	r2, .L187
 1502 00a8 1368     		ldr	r3, [r2]
 1503 00aa 03F00F03 		and	r3, r3, #15
 682:Drivers/STM32F4xx_HAL_Driver/Src/stm32f4xx_hal_rcc.c ****   {
 1504              		.loc 1 682 5 view .LVU499
 1505 00ae AB42     		cmp	r3, r5
 1506 00b0 06D9     		bls	.L152
 685:Drivers/STM32F4xx_HAL_Driver/Src/stm32f4xx_hal_rcc.c **** 
 1507              		.loc 1 685 5 is_stmt 1 view .LVU500
 1508 00b2 EBB2     		uxtb	r3, r5
 1509 00b4 1370     		strb	r3, [r2]
 689:Drivers/STM32F4xx_HAL_Driver/Src/stm32f4xx_hal_rcc.c ****     {
 1510              		.loc 1 689 5 view .LVU501
 689:Drivers/STM32F4xx_HAL_Driver/Src/stm32f4xx_hal_rcc.c ****     {
 1511              		.loc 1 689 8 is_stmt 0 view .LVU502
 1512 00b6 1368     		ldr	r3, [r2]
 1513 00b8 03F00F03 		and	r3, r3, #15
 689:Drivers/STM32F4xx_HAL_Driver/Src/stm32f4xx_hal_rcc.c ****     {
 1514              		.loc 1 689 7 view .LVU503
 1515 00bc AB42     		cmp	r3, r5
 1516 00be B3D1     		bne	.L146
 1517              	.L152:
 696:Drivers/STM32F4xx_HAL_Driver/Src/stm32f4xx_hal_rcc.c ****   {
 1518              		.loc 1 696 3 is_stmt 1 view .LVU504
 696:Drivers/STM32F4xx_HAL_Driver/Src/stm32f4xx_hal_rcc.c ****   {
 1519              		.loc 1 696 25 is_stmt 0 view .LVU505
 1520 00c0 2368     		ldr	r3, [r4]
 696:Drivers/STM32F4xx_HAL_Driver/Src/stm32f4xx_hal_rcc.c ****   {
 1521              		.loc 1 696 5 view .LVU506
 1522 00c2 5A07     		lsls	r2, r3, #29
 1523 00c4 06D5     		bpl	.L160
 698:Drivers/STM32F4xx_HAL_Driver/Src/stm32f4xx_hal_rcc.c ****     MODIFY_REG(RCC->CFGR, RCC_CFGR_PPRE1, RCC_ClkInitStruct->APB1CLKDivider);
 1524              		.loc 1 698 5 is_stmt 1 view .LVU507
 699:Drivers/STM32F4xx_HAL_Driver/Src/stm32f4xx_hal_rcc.c ****   }
 1525              		.loc 1 699 5 view .LVU508
 1526 00c6 1949     		ldr	r1, .L187+4
 1527 00c8 E068     		ldr	r0, [r4, #12]
 1528 00ca 8A68     		ldr	r2, [r1, #8]
 1529 00cc 22F4E052 		bic	r2, r2, #7168
 1530 00d0 0243     		orrs	r2, r2, r0
 1531 00d2 8A60     		str	r2, [r1, #8]
 1532              	.L160:
 703:Drivers/STM32F4xx_HAL_Driver/Src/stm32f4xx_hal_rcc.c ****   {
 1533              		.loc 1 703 3 view .LVU509
 703:Drivers/STM32F4xx_HAL_Driver/Src/stm32f4xx_hal_rcc.c ****   {
 1534              		.loc 1 703 5 is_stmt 0 view .LVU510
 1535 00d4 1B07     		lsls	r3, r3, #28
 1536 00d6 07D5     		bpl	.L161
 705:Drivers/STM32F4xx_HAL_Driver/Src/stm32f4xx_hal_rcc.c ****     MODIFY_REG(RCC->CFGR, RCC_CFGR_PPRE2, ((RCC_ClkInitStruct->APB2CLKDivider) << 3U));
 1537              		.loc 1 705 5 is_stmt 1 view .LVU511
 706:Drivers/STM32F4xx_HAL_Driver/Src/stm32f4xx_hal_rcc.c ****   }
 1538              		.loc 1 706 5 view .LVU512
 1539 00d8 144A     		ldr	r2, .L187+4
ARM GAS  /tmp/ccbSUABi.s 			page 50


 1540 00da 2169     		ldr	r1, [r4, #16]
 1541 00dc 9368     		ldr	r3, [r2, #8]
 1542 00de 23F46043 		bic	r3, r3, #57344
 1543 00e2 43EAC103 		orr	r3, r3, r1, lsl #3
 1544 00e6 9360     		str	r3, [r2, #8]
 1545              	.L161:
 710:Drivers/STM32F4xx_HAL_Driver/Src/stm32f4xx_hal_rcc.c **** 
 1546              		.loc 1 710 3 view .LVU513
 710:Drivers/STM32F4xx_HAL_Driver/Src/stm32f4xx_hal_rcc.c **** 
 1547              		.loc 1 710 21 is_stmt 0 view .LVU514
 1548 00e8 FFF7FEFF 		bl	HAL_RCC_GetSysClockFreq
 1549              	.LVL108:
 710:Drivers/STM32F4xx_HAL_Driver/Src/stm32f4xx_hal_rcc.c **** 
 1550              		.loc 1 710 68 view .LVU515
 1551 00ec 0F4A     		ldr	r2, .L187+4
 710:Drivers/STM32F4xx_HAL_Driver/Src/stm32f4xx_hal_rcc.c **** 
 1552              		.loc 1 710 63 view .LVU516
 1553 00ee 104C     		ldr	r4, .L187+8
 1554              	.LVL109:
 710:Drivers/STM32F4xx_HAL_Driver/Src/stm32f4xx_hal_rcc.c **** 
 1555              		.loc 1 710 68 view .LVU517
 1556 00f0 9268     		ldr	r2, [r2, #8]
 710:Drivers/STM32F4xx_HAL_Driver/Src/stm32f4xx_hal_rcc.c **** 
 1557              		.loc 1 710 19 view .LVU518
 1558 00f2 1049     		ldr	r1, .L187+12
 710:Drivers/STM32F4xx_HAL_Driver/Src/stm32f4xx_hal_rcc.c **** 
 1559              		.loc 1 710 91 view .LVU519
 1560 00f4 C2F30312 		ubfx	r2, r2, #4, #4
 710:Drivers/STM32F4xx_HAL_Driver/Src/stm32f4xx_hal_rcc.c **** 
 1561              		.loc 1 710 21 view .LVU520
 1562 00f8 0346     		mov	r3, r0
 710:Drivers/STM32F4xx_HAL_Driver/Src/stm32f4xx_hal_rcc.c **** 
 1563              		.loc 1 710 63 view .LVU521
 1564 00fa A25C     		ldrb	r2, [r4, r2]	@ zero_extendqisi2
 713:Drivers/STM32F4xx_HAL_Driver/Src/stm32f4xx_hal_rcc.c **** 
 1565              		.loc 1 713 3 view .LVU522
 1566 00fc 0E48     		ldr	r0, .L187+16
 710:Drivers/STM32F4xx_HAL_Driver/Src/stm32f4xx_hal_rcc.c **** 
 1567              		.loc 1 710 47 view .LVU523
 1568 00fe D340     		lsrs	r3, r3, r2
 713:Drivers/STM32F4xx_HAL_Driver/Src/stm32f4xx_hal_rcc.c **** 
 1569              		.loc 1 713 3 view .LVU524
 1570 0100 0068     		ldr	r0, [r0]
 710:Drivers/STM32F4xx_HAL_Driver/Src/stm32f4xx_hal_rcc.c **** 
 1571              		.loc 1 710 19 view .LVU525
 1572 0102 0B60     		str	r3, [r1]
 713:Drivers/STM32F4xx_HAL_Driver/Src/stm32f4xx_hal_rcc.c **** 
 1573              		.loc 1 713 3 is_stmt 1 view .LVU526
 1574 0104 FFF7FEFF 		bl	HAL_InitTick
 1575              	.LVL110:
 715:Drivers/STM32F4xx_HAL_Driver/Src/stm32f4xx_hal_rcc.c **** }
 1576              		.loc 1 715 3 view .LVU527
 715:Drivers/STM32F4xx_HAL_Driver/Src/stm32f4xx_hal_rcc.c **** }
 1577              		.loc 1 715 10 is_stmt 0 view .LVU528
 1578 0108 0020     		movs	r0, #0
 716:Drivers/STM32F4xx_HAL_Driver/Src/stm32f4xx_hal_rcc.c **** 
 1579              		.loc 1 716 1 view .LVU529
ARM GAS  /tmp/ccbSUABi.s 			page 51


 1580 010a BDE8F081 		pop	{r4, r5, r6, r7, r8, pc}
 1581              	.LVL111:
 1582              	.L186:
 652:Drivers/STM32F4xx_HAL_Driver/Src/stm32f4xx_hal_rcc.c ****       {
 1583              		.loc 1 652 7 is_stmt 1 view .LVU530
 652:Drivers/STM32F4xx_HAL_Driver/Src/stm32f4xx_hal_rcc.c ****       {
 1584              		.loc 1 652 9 is_stmt 0 view .LVU531
 1585 010e 9801     		lsls	r0, r3, #6
 1586 0110 B1D4     		bmi	.L154
 1587 0112 89E7     		b	.L146
 1588              	.LVL112:
 1589              	.L184:
 1590              	.LCFI17:
 1591              		.cfi_def_cfa_offset 0
 1592              		.cfi_restore 4
 1593              		.cfi_restore 5
 1594              		.cfi_restore 6
 1595              		.cfi_restore 7
 1596              		.cfi_restore 8
 1597              		.cfi_restore 14
 589:Drivers/STM32F4xx_HAL_Driver/Src/stm32f4xx_hal_rcc.c ****   }
 1598              		.loc 1 589 12 view .LVU532
 1599 0114 0120     		movs	r0, #1
 1600              	.LVL113:
 716:Drivers/STM32F4xx_HAL_Driver/Src/stm32f4xx_hal_rcc.c **** 
 1601              		.loc 1 716 1 view .LVU533
 1602 0116 7047     		bx	lr
 1603              	.LVL114:
 1604              	.L185:
 1605              	.LCFI18:
 1606              		.cfi_def_cfa_offset 24
 1607              		.cfi_offset 4, -24
 1608              		.cfi_offset 5, -20
 1609              		.cfi_offset 6, -16
 1610              		.cfi_offset 7, -12
 1611              		.cfi_offset 8, -8
 1612              		.cfi_offset 14, -4
 642:Drivers/STM32F4xx_HAL_Driver/Src/stm32f4xx_hal_rcc.c ****       {
 1613              		.loc 1 642 7 is_stmt 1 view .LVU534
 642:Drivers/STM32F4xx_HAL_Driver/Src/stm32f4xx_hal_rcc.c ****       {
 1614              		.loc 1 642 10 is_stmt 0 view .LVU535
 1615 0118 044B     		ldr	r3, .L187+4
 1616 011a 1B68     		ldr	r3, [r3]
 642:Drivers/STM32F4xx_HAL_Driver/Src/stm32f4xx_hal_rcc.c ****       {
 1617              		.loc 1 642 9 view .LVU536
 1618 011c 9E03     		lsls	r6, r3, #14
 1619 011e AAD4     		bmi	.L154
 1620 0120 82E7     		b	.L146
 1621              	.LVL115:
 1622              	.L162:
 676:Drivers/STM32F4xx_HAL_Driver/Src/stm32f4xx_hal_rcc.c ****       }
 1623              		.loc 1 676 16 view .LVU537
 1624 0122 0320     		movs	r0, #3
 1625 0124 81E7     		b	.L142
 1626              	.L188:
 1627 0126 00BF     		.align	2
 1628              	.L187:
ARM GAS  /tmp/ccbSUABi.s 			page 52


 1629 0128 003C0240 		.word	1073888256
 1630 012c 00380240 		.word	1073887232
 1631 0130 00000000 		.word	AHBPrescTable
 1632 0134 00000000 		.word	SystemCoreClock
 1633 0138 00000000 		.word	uwTickPrio
 1634              		.cfi_endproc
 1635              	.LFE132:
 1637              		.section	.text.HAL_RCC_GetHCLKFreq,"ax",%progbits
 1638              		.align	1
 1639              		.p2align 2,,3
 1640              		.global	HAL_RCC_GetHCLKFreq
 1641              		.syntax unified
 1642              		.thumb
 1643              		.thumb_func
 1644              		.fpu fpv4-sp-d16
 1646              	HAL_RCC_GetHCLKFreq:
 1647              	.LFB137:
 922:Drivers/STM32F4xx_HAL_Driver/Src/stm32f4xx_hal_rcc.c **** 
 923:Drivers/STM32F4xx_HAL_Driver/Src/stm32f4xx_hal_rcc.c **** /**
 924:Drivers/STM32F4xx_HAL_Driver/Src/stm32f4xx_hal_rcc.c ****   * @brief  Returns the HCLK frequency
 925:Drivers/STM32F4xx_HAL_Driver/Src/stm32f4xx_hal_rcc.c ****   * @note   Each time HCLK changes, this function must be called to update the
 926:Drivers/STM32F4xx_HAL_Driver/Src/stm32f4xx_hal_rcc.c ****   *         right HCLK value. Otherwise, any configuration based on this function will be incorrect
 927:Drivers/STM32F4xx_HAL_Driver/Src/stm32f4xx_hal_rcc.c ****   *
 928:Drivers/STM32F4xx_HAL_Driver/Src/stm32f4xx_hal_rcc.c ****   * @note   The SystemCoreClock CMSIS variable is used to store System Clock Frequency
 929:Drivers/STM32F4xx_HAL_Driver/Src/stm32f4xx_hal_rcc.c ****   *         and updated within this function
 930:Drivers/STM32F4xx_HAL_Driver/Src/stm32f4xx_hal_rcc.c ****   * @retval HCLK frequency
 931:Drivers/STM32F4xx_HAL_Driver/Src/stm32f4xx_hal_rcc.c ****   */
 932:Drivers/STM32F4xx_HAL_Driver/Src/stm32f4xx_hal_rcc.c **** uint32_t HAL_RCC_GetHCLKFreq(void)
 933:Drivers/STM32F4xx_HAL_Driver/Src/stm32f4xx_hal_rcc.c **** {
 1648              		.loc 1 933 1 is_stmt 1 view -0
 1649              		.cfi_startproc
 1650              		@ args = 0, pretend = 0, frame = 0
 1651              		@ frame_needed = 0, uses_anonymous_args = 0
 1652              		@ link register save eliminated.
 934:Drivers/STM32F4xx_HAL_Driver/Src/stm32f4xx_hal_rcc.c ****   return SystemCoreClock;
 1653              		.loc 1 934 3 view .LVU539
 1654              		.loc 1 934 10 is_stmt 0 view .LVU540
 1655 0000 014B     		ldr	r3, .L190
 935:Drivers/STM32F4xx_HAL_Driver/Src/stm32f4xx_hal_rcc.c **** }
 1656              		.loc 1 935 1 view .LVU541
 1657 0002 1868     		ldr	r0, [r3]
 1658 0004 7047     		bx	lr
 1659              	.L191:
 1660 0006 00BF     		.align	2
 1661              	.L190:
 1662 0008 00000000 		.word	SystemCoreClock
 1663              		.cfi_endproc
 1664              	.LFE137:
 1666              		.section	.text.HAL_RCC_GetPCLK1Freq,"ax",%progbits
 1667              		.align	1
 1668              		.p2align 2,,3
 1669              		.global	HAL_RCC_GetPCLK1Freq
 1670              		.syntax unified
 1671              		.thumb
 1672              		.thumb_func
 1673              		.fpu fpv4-sp-d16
 1675              	HAL_RCC_GetPCLK1Freq:
ARM GAS  /tmp/ccbSUABi.s 			page 53


 1676              	.LFB138:
 936:Drivers/STM32F4xx_HAL_Driver/Src/stm32f4xx_hal_rcc.c **** 
 937:Drivers/STM32F4xx_HAL_Driver/Src/stm32f4xx_hal_rcc.c **** /**
 938:Drivers/STM32F4xx_HAL_Driver/Src/stm32f4xx_hal_rcc.c ****   * @brief  Returns the PCLK1 frequency
 939:Drivers/STM32F4xx_HAL_Driver/Src/stm32f4xx_hal_rcc.c ****   * @note   Each time PCLK1 changes, this function must be called to update the
 940:Drivers/STM32F4xx_HAL_Driver/Src/stm32f4xx_hal_rcc.c ****   *         right PCLK1 value. Otherwise, any configuration based on this function will be incorrec
 941:Drivers/STM32F4xx_HAL_Driver/Src/stm32f4xx_hal_rcc.c ****   * @retval PCLK1 frequency
 942:Drivers/STM32F4xx_HAL_Driver/Src/stm32f4xx_hal_rcc.c ****   */
 943:Drivers/STM32F4xx_HAL_Driver/Src/stm32f4xx_hal_rcc.c **** uint32_t HAL_RCC_GetPCLK1Freq(void)
 944:Drivers/STM32F4xx_HAL_Driver/Src/stm32f4xx_hal_rcc.c **** {
 1677              		.loc 1 944 1 is_stmt 1 view -0
 1678              		.cfi_startproc
 1679              		@ args = 0, pretend = 0, frame = 0
 1680              		@ frame_needed = 0, uses_anonymous_args = 0
 1681              		@ link register save eliminated.
 945:Drivers/STM32F4xx_HAL_Driver/Src/stm32f4xx_hal_rcc.c ****   /* Get HCLK source and Compute PCLK1 frequency ---------------------------*/
 946:Drivers/STM32F4xx_HAL_Driver/Src/stm32f4xx_hal_rcc.c ****   return (HAL_RCC_GetHCLKFreq() >> APBPrescTable[(RCC->CFGR & RCC_CFGR_PPRE1)>> RCC_CFGR_PPRE1_Pos]
 1682              		.loc 1 946 3 view .LVU543
 1683              	.LBB25:
 1684              	.LBI25:
 932:Drivers/STM32F4xx_HAL_Driver/Src/stm32f4xx_hal_rcc.c **** {
 1685              		.loc 1 932 10 view .LVU544
 1686              	.LBB26:
 934:Drivers/STM32F4xx_HAL_Driver/Src/stm32f4xx_hal_rcc.c **** }
 1687              		.loc 1 934 3 view .LVU545
 1688              	.LBE26:
 1689              	.LBE25:
 1690              		.loc 1 946 54 is_stmt 0 view .LVU546
 1691 0000 044B     		ldr	r3, .L193
 1692              		.loc 1 946 49 view .LVU547
 1693 0002 054A     		ldr	r2, .L193+4
 1694              		.loc 1 946 54 view .LVU548
 1695 0004 9B68     		ldr	r3, [r3, #8]
 1696              	.LBB28:
 1697              	.LBB27:
 934:Drivers/STM32F4xx_HAL_Driver/Src/stm32f4xx_hal_rcc.c **** }
 1698              		.loc 1 934 10 view .LVU549
 1699 0006 0549     		ldr	r1, .L193+8
 1700              	.LBE27:
 1701              	.LBE28:
 1702              		.loc 1 946 78 view .LVU550
 1703 0008 C3F38223 		ubfx	r3, r3, #10, #3
 1704              		.loc 1 946 33 view .LVU551
 1705 000c 0868     		ldr	r0, [r1]
 1706              		.loc 1 946 49 view .LVU552
 1707 000e D35C     		ldrb	r3, [r2, r3]	@ zero_extendqisi2
 947:Drivers/STM32F4xx_HAL_Driver/Src/stm32f4xx_hal_rcc.c **** }
 1708              		.loc 1 947 1 view .LVU553
 1709 0010 D840     		lsrs	r0, r0, r3
 1710 0012 7047     		bx	lr
 1711              	.L194:
 1712              		.align	2
 1713              	.L193:
 1714 0014 00380240 		.word	1073887232
 1715 0018 00000000 		.word	APBPrescTable
 1716 001c 00000000 		.word	SystemCoreClock
 1717              		.cfi_endproc
ARM GAS  /tmp/ccbSUABi.s 			page 54


 1718              	.LFE138:
 1720              		.section	.text.HAL_RCC_GetPCLK2Freq,"ax",%progbits
 1721              		.align	1
 1722              		.p2align 2,,3
 1723              		.global	HAL_RCC_GetPCLK2Freq
 1724              		.syntax unified
 1725              		.thumb
 1726              		.thumb_func
 1727              		.fpu fpv4-sp-d16
 1729              	HAL_RCC_GetPCLK2Freq:
 1730              	.LFB139:
 948:Drivers/STM32F4xx_HAL_Driver/Src/stm32f4xx_hal_rcc.c **** 
 949:Drivers/STM32F4xx_HAL_Driver/Src/stm32f4xx_hal_rcc.c **** /**
 950:Drivers/STM32F4xx_HAL_Driver/Src/stm32f4xx_hal_rcc.c ****   * @brief  Returns the PCLK2 frequency
 951:Drivers/STM32F4xx_HAL_Driver/Src/stm32f4xx_hal_rcc.c ****   * @note   Each time PCLK2 changes, this function must be called to update the
 952:Drivers/STM32F4xx_HAL_Driver/Src/stm32f4xx_hal_rcc.c ****   *         right PCLK2 value. Otherwise, any configuration based on this function will be incorrec
 953:Drivers/STM32F4xx_HAL_Driver/Src/stm32f4xx_hal_rcc.c ****   * @retval PCLK2 frequency
 954:Drivers/STM32F4xx_HAL_Driver/Src/stm32f4xx_hal_rcc.c ****   */
 955:Drivers/STM32F4xx_HAL_Driver/Src/stm32f4xx_hal_rcc.c **** uint32_t HAL_RCC_GetPCLK2Freq(void)
 956:Drivers/STM32F4xx_HAL_Driver/Src/stm32f4xx_hal_rcc.c **** {
 1731              		.loc 1 956 1 is_stmt 1 view -0
 1732              		.cfi_startproc
 1733              		@ args = 0, pretend = 0, frame = 0
 1734              		@ frame_needed = 0, uses_anonymous_args = 0
 1735              		@ link register save eliminated.
 957:Drivers/STM32F4xx_HAL_Driver/Src/stm32f4xx_hal_rcc.c ****   /* Get HCLK source and Compute PCLK2 frequency ---------------------------*/
 958:Drivers/STM32F4xx_HAL_Driver/Src/stm32f4xx_hal_rcc.c ****   return (HAL_RCC_GetHCLKFreq()>> APBPrescTable[(RCC->CFGR & RCC_CFGR_PPRE2)>> RCC_CFGR_PPRE2_Pos])
 1736              		.loc 1 958 3 view .LVU555
 1737              	.LBB29:
 1738              	.LBI29:
 932:Drivers/STM32F4xx_HAL_Driver/Src/stm32f4xx_hal_rcc.c **** {
 1739              		.loc 1 932 10 view .LVU556
 1740              	.LBB30:
 934:Drivers/STM32F4xx_HAL_Driver/Src/stm32f4xx_hal_rcc.c **** }
 1741              		.loc 1 934 3 view .LVU557
 1742              	.LBE30:
 1743              	.LBE29:
 1744              		.loc 1 958 53 is_stmt 0 view .LVU558
 1745 0000 044B     		ldr	r3, .L196
 1746              		.loc 1 958 48 view .LVU559
 1747 0002 054A     		ldr	r2, .L196+4
 1748              		.loc 1 958 53 view .LVU560
 1749 0004 9B68     		ldr	r3, [r3, #8]
 1750              	.LBB32:
 1751              	.LBB31:
 934:Drivers/STM32F4xx_HAL_Driver/Src/stm32f4xx_hal_rcc.c **** }
 1752              		.loc 1 934 10 view .LVU561
 1753 0006 0549     		ldr	r1, .L196+8
 1754              	.LBE31:
 1755              	.LBE32:
 1756              		.loc 1 958 77 view .LVU562
 1757 0008 C3F34233 		ubfx	r3, r3, #13, #3
 1758              		.loc 1 958 32 view .LVU563
 1759 000c 0868     		ldr	r0, [r1]
 1760              		.loc 1 958 48 view .LVU564
 1761 000e D35C     		ldrb	r3, [r2, r3]	@ zero_extendqisi2
 959:Drivers/STM32F4xx_HAL_Driver/Src/stm32f4xx_hal_rcc.c **** }
ARM GAS  /tmp/ccbSUABi.s 			page 55


 1762              		.loc 1 959 1 view .LVU565
 1763 0010 D840     		lsrs	r0, r0, r3
 1764 0012 7047     		bx	lr
 1765              	.L197:
 1766              		.align	2
 1767              	.L196:
 1768 0014 00380240 		.word	1073887232
 1769 0018 00000000 		.word	APBPrescTable
 1770 001c 00000000 		.word	SystemCoreClock
 1771              		.cfi_endproc
 1772              	.LFE139:
 1774              		.section	.text.HAL_RCC_GetOscConfig,"ax",%progbits
 1775              		.align	1
 1776              		.p2align 2,,3
 1777              		.weak	HAL_RCC_GetOscConfig
 1778              		.syntax unified
 1779              		.thumb
 1780              		.thumb_func
 1781              		.fpu fpv4-sp-d16
 1783              	HAL_RCC_GetOscConfig:
 1784              	.LVL116:
 1785              	.LFB140:
 960:Drivers/STM32F4xx_HAL_Driver/Src/stm32f4xx_hal_rcc.c **** 
 961:Drivers/STM32F4xx_HAL_Driver/Src/stm32f4xx_hal_rcc.c **** /**
 962:Drivers/STM32F4xx_HAL_Driver/Src/stm32f4xx_hal_rcc.c ****   * @brief  Configures the RCC_OscInitStruct according to the internal
 963:Drivers/STM32F4xx_HAL_Driver/Src/stm32f4xx_hal_rcc.c ****   * RCC configuration registers.
 964:Drivers/STM32F4xx_HAL_Driver/Src/stm32f4xx_hal_rcc.c ****   * @param  RCC_OscInitStruct pointer to an RCC_OscInitTypeDef structure that
 965:Drivers/STM32F4xx_HAL_Driver/Src/stm32f4xx_hal_rcc.c ****   * will be configured.
 966:Drivers/STM32F4xx_HAL_Driver/Src/stm32f4xx_hal_rcc.c ****   * @retval None
 967:Drivers/STM32F4xx_HAL_Driver/Src/stm32f4xx_hal_rcc.c ****   */
 968:Drivers/STM32F4xx_HAL_Driver/Src/stm32f4xx_hal_rcc.c **** __weak void HAL_RCC_GetOscConfig(RCC_OscInitTypeDef  *RCC_OscInitStruct)
 969:Drivers/STM32F4xx_HAL_Driver/Src/stm32f4xx_hal_rcc.c **** {
 1786              		.loc 1 969 1 is_stmt 1 view -0
 1787              		.cfi_startproc
 1788              		@ args = 0, pretend = 0, frame = 0
 1789              		@ frame_needed = 0, uses_anonymous_args = 0
 1790              		@ link register save eliminated.
 970:Drivers/STM32F4xx_HAL_Driver/Src/stm32f4xx_hal_rcc.c ****   /* Set all possible values for the Oscillator type parameter ---------------*/
 971:Drivers/STM32F4xx_HAL_Driver/Src/stm32f4xx_hal_rcc.c ****   RCC_OscInitStruct->OscillatorType = RCC_OSCILLATORTYPE_HSE | RCC_OSCILLATORTYPE_HSI | RCC_OSCILLA
 1791              		.loc 1 971 3 view .LVU567
 1792              		.loc 1 971 37 is_stmt 0 view .LVU568
 1793 0000 0F22     		movs	r2, #15
 972:Drivers/STM32F4xx_HAL_Driver/Src/stm32f4xx_hal_rcc.c **** 
 973:Drivers/STM32F4xx_HAL_Driver/Src/stm32f4xx_hal_rcc.c ****   /* Get the HSE configuration -----------------------------------------------*/
 974:Drivers/STM32F4xx_HAL_Driver/Src/stm32f4xx_hal_rcc.c ****   if((RCC->CR &RCC_CR_HSEBYP) == RCC_CR_HSEBYP)
 1794              		.loc 1 974 10 view .LVU569
 1795 0002 244B     		ldr	r3, .L207
 971:Drivers/STM32F4xx_HAL_Driver/Src/stm32f4xx_hal_rcc.c **** 
 1796              		.loc 1 971 37 view .LVU570
 1797 0004 0260     		str	r2, [r0]
 1798              		.loc 1 974 3 is_stmt 1 view .LVU571
 1799              		.loc 1 974 10 is_stmt 0 view .LVU572
 1800 0006 1A68     		ldr	r2, [r3]
 1801              		.loc 1 974 5 view .LVU573
 1802 0008 5103     		lsls	r1, r2, #13
 1803 000a 34D5     		bpl	.L199
 975:Drivers/STM32F4xx_HAL_Driver/Src/stm32f4xx_hal_rcc.c ****   {
ARM GAS  /tmp/ccbSUABi.s 			page 56


 976:Drivers/STM32F4xx_HAL_Driver/Src/stm32f4xx_hal_rcc.c ****     RCC_OscInitStruct->HSEState = RCC_HSE_BYPASS;
 1804              		.loc 1 976 5 is_stmt 1 view .LVU574
 1805              		.loc 1 976 33 is_stmt 0 view .LVU575
 1806 000c 4FF4A023 		mov	r3, #327680
 1807 0010 4360     		str	r3, [r0, #4]
 1808              	.L200:
 977:Drivers/STM32F4xx_HAL_Driver/Src/stm32f4xx_hal_rcc.c ****   }
 978:Drivers/STM32F4xx_HAL_Driver/Src/stm32f4xx_hal_rcc.c ****   else if((RCC->CR &RCC_CR_HSEON) == RCC_CR_HSEON)
 979:Drivers/STM32F4xx_HAL_Driver/Src/stm32f4xx_hal_rcc.c ****   {
 980:Drivers/STM32F4xx_HAL_Driver/Src/stm32f4xx_hal_rcc.c ****     RCC_OscInitStruct->HSEState = RCC_HSE_ON;
 981:Drivers/STM32F4xx_HAL_Driver/Src/stm32f4xx_hal_rcc.c ****   }
 982:Drivers/STM32F4xx_HAL_Driver/Src/stm32f4xx_hal_rcc.c ****   else
 983:Drivers/STM32F4xx_HAL_Driver/Src/stm32f4xx_hal_rcc.c ****   {
 984:Drivers/STM32F4xx_HAL_Driver/Src/stm32f4xx_hal_rcc.c ****     RCC_OscInitStruct->HSEState = RCC_HSE_OFF;
 985:Drivers/STM32F4xx_HAL_Driver/Src/stm32f4xx_hal_rcc.c ****   }
 986:Drivers/STM32F4xx_HAL_Driver/Src/stm32f4xx_hal_rcc.c **** 
 987:Drivers/STM32F4xx_HAL_Driver/Src/stm32f4xx_hal_rcc.c ****   /* Get the HSI configuration -----------------------------------------------*/
 988:Drivers/STM32F4xx_HAL_Driver/Src/stm32f4xx_hal_rcc.c ****   if((RCC->CR &RCC_CR_HSION) == RCC_CR_HSION)
 1809              		.loc 1 988 3 is_stmt 1 view .LVU576
 1810              		.loc 1 988 10 is_stmt 0 view .LVU577
 1811 0012 204B     		ldr	r3, .L207
 1812 0014 1A68     		ldr	r2, [r3]
 1813              		.loc 1 988 15 view .LVU578
 1814 0016 02F00102 		and	r2, r2, #1
 1815 001a C260     		str	r2, [r0, #12]
 989:Drivers/STM32F4xx_HAL_Driver/Src/stm32f4xx_hal_rcc.c ****   {
 990:Drivers/STM32F4xx_HAL_Driver/Src/stm32f4xx_hal_rcc.c ****     RCC_OscInitStruct->HSIState = RCC_HSI_ON;
 991:Drivers/STM32F4xx_HAL_Driver/Src/stm32f4xx_hal_rcc.c ****   }
 992:Drivers/STM32F4xx_HAL_Driver/Src/stm32f4xx_hal_rcc.c ****   else
 993:Drivers/STM32F4xx_HAL_Driver/Src/stm32f4xx_hal_rcc.c ****   {
 994:Drivers/STM32F4xx_HAL_Driver/Src/stm32f4xx_hal_rcc.c ****     RCC_OscInitStruct->HSIState = RCC_HSI_OFF;
 995:Drivers/STM32F4xx_HAL_Driver/Src/stm32f4xx_hal_rcc.c ****   }
 996:Drivers/STM32F4xx_HAL_Driver/Src/stm32f4xx_hal_rcc.c **** 
 997:Drivers/STM32F4xx_HAL_Driver/Src/stm32f4xx_hal_rcc.c ****   RCC_OscInitStruct->HSICalibrationValue = (uint32_t)((RCC->CR &RCC_CR_HSITRIM) >> RCC_CR_HSITRIM_P
 1816              		.loc 1 997 3 is_stmt 1 view .LVU579
 1817              		.loc 1 997 59 is_stmt 0 view .LVU580
 1818 001c 1A68     		ldr	r2, [r3]
 1819              		.loc 1 997 44 view .LVU581
 1820 001e C2F3C402 		ubfx	r2, r2, #3, #5
 1821              		.loc 1 997 42 view .LVU582
 1822 0022 0261     		str	r2, [r0, #16]
 998:Drivers/STM32F4xx_HAL_Driver/Src/stm32f4xx_hal_rcc.c **** 
 999:Drivers/STM32F4xx_HAL_Driver/Src/stm32f4xx_hal_rcc.c ****   /* Get the LSE configuration -----------------------------------------------*/
1000:Drivers/STM32F4xx_HAL_Driver/Src/stm32f4xx_hal_rcc.c ****   if((RCC->BDCR &RCC_BDCR_LSEBYP) == RCC_BDCR_LSEBYP)
 1823              		.loc 1 1000 3 is_stmt 1 view .LVU583
 1824              		.loc 1 1000 10 is_stmt 0 view .LVU584
 1825 0024 1A6F     		ldr	r2, [r3, #112]
 1826              		.loc 1 1000 5 view .LVU585
 1827 0026 5207     		lsls	r2, r2, #29
 1828 0028 2DD5     		bpl	.L202
1001:Drivers/STM32F4xx_HAL_Driver/Src/stm32f4xx_hal_rcc.c ****   {
1002:Drivers/STM32F4xx_HAL_Driver/Src/stm32f4xx_hal_rcc.c ****     RCC_OscInitStruct->LSEState = RCC_LSE_BYPASS;
 1829              		.loc 1 1002 5 is_stmt 1 view .LVU586
 1830              		.loc 1 1002 33 is_stmt 0 view .LVU587
 1831 002a 0523     		movs	r3, #5
 1832 002c 8360     		str	r3, [r0, #8]
 1833              	.L203:
ARM GAS  /tmp/ccbSUABi.s 			page 57


1003:Drivers/STM32F4xx_HAL_Driver/Src/stm32f4xx_hal_rcc.c ****   }
1004:Drivers/STM32F4xx_HAL_Driver/Src/stm32f4xx_hal_rcc.c ****   else if((RCC->BDCR &RCC_BDCR_LSEON) == RCC_BDCR_LSEON)
1005:Drivers/STM32F4xx_HAL_Driver/Src/stm32f4xx_hal_rcc.c ****   {
1006:Drivers/STM32F4xx_HAL_Driver/Src/stm32f4xx_hal_rcc.c ****     RCC_OscInitStruct->LSEState = RCC_LSE_ON;
1007:Drivers/STM32F4xx_HAL_Driver/Src/stm32f4xx_hal_rcc.c ****   }
1008:Drivers/STM32F4xx_HAL_Driver/Src/stm32f4xx_hal_rcc.c ****   else
1009:Drivers/STM32F4xx_HAL_Driver/Src/stm32f4xx_hal_rcc.c ****   {
1010:Drivers/STM32F4xx_HAL_Driver/Src/stm32f4xx_hal_rcc.c ****     RCC_OscInitStruct->LSEState = RCC_LSE_OFF;
1011:Drivers/STM32F4xx_HAL_Driver/Src/stm32f4xx_hal_rcc.c ****   }
1012:Drivers/STM32F4xx_HAL_Driver/Src/stm32f4xx_hal_rcc.c **** 
1013:Drivers/STM32F4xx_HAL_Driver/Src/stm32f4xx_hal_rcc.c ****   /* Get the LSI configuration -----------------------------------------------*/
1014:Drivers/STM32F4xx_HAL_Driver/Src/stm32f4xx_hal_rcc.c ****   if((RCC->CSR &RCC_CSR_LSION) == RCC_CSR_LSION)
 1834              		.loc 1 1014 3 is_stmt 1 view .LVU588
 1835              		.loc 1 1014 10 is_stmt 0 view .LVU589
 1836 002e 194B     		ldr	r3, .L207
 1837 0030 5A6F     		ldr	r2, [r3, #116]
 1838              		.loc 1 1014 16 view .LVU590
 1839 0032 02F00102 		and	r2, r2, #1
 1840 0036 4261     		str	r2, [r0, #20]
1015:Drivers/STM32F4xx_HAL_Driver/Src/stm32f4xx_hal_rcc.c ****   {
1016:Drivers/STM32F4xx_HAL_Driver/Src/stm32f4xx_hal_rcc.c ****     RCC_OscInitStruct->LSIState = RCC_LSI_ON;
1017:Drivers/STM32F4xx_HAL_Driver/Src/stm32f4xx_hal_rcc.c ****   }
1018:Drivers/STM32F4xx_HAL_Driver/Src/stm32f4xx_hal_rcc.c ****   else
1019:Drivers/STM32F4xx_HAL_Driver/Src/stm32f4xx_hal_rcc.c ****   {
1020:Drivers/STM32F4xx_HAL_Driver/Src/stm32f4xx_hal_rcc.c ****     RCC_OscInitStruct->LSIState = RCC_LSI_OFF;
1021:Drivers/STM32F4xx_HAL_Driver/Src/stm32f4xx_hal_rcc.c ****   }
1022:Drivers/STM32F4xx_HAL_Driver/Src/stm32f4xx_hal_rcc.c **** 
1023:Drivers/STM32F4xx_HAL_Driver/Src/stm32f4xx_hal_rcc.c ****   /* Get the PLL configuration -----------------------------------------------*/
1024:Drivers/STM32F4xx_HAL_Driver/Src/stm32f4xx_hal_rcc.c ****   if((RCC->CR &RCC_CR_PLLON) == RCC_CR_PLLON)
 1841              		.loc 1 1024 3 is_stmt 1 view .LVU591
 1842              		.loc 1 1024 10 is_stmt 0 view .LVU592
 1843 0038 1A68     		ldr	r2, [r3]
1025:Drivers/STM32F4xx_HAL_Driver/Src/stm32f4xx_hal_rcc.c ****   {
1026:Drivers/STM32F4xx_HAL_Driver/Src/stm32f4xx_hal_rcc.c ****     RCC_OscInitStruct->PLL.PLLState = RCC_PLL_ON;
1027:Drivers/STM32F4xx_HAL_Driver/Src/stm32f4xx_hal_rcc.c ****   }
1028:Drivers/STM32F4xx_HAL_Driver/Src/stm32f4xx_hal_rcc.c ****   else
1029:Drivers/STM32F4xx_HAL_Driver/Src/stm32f4xx_hal_rcc.c ****   {
1030:Drivers/STM32F4xx_HAL_Driver/Src/stm32f4xx_hal_rcc.c ****     RCC_OscInitStruct->PLL.PLLState = RCC_PLL_OFF;
 1844              		.loc 1 1030 37 view .LVU593
 1845 003a 12F0807F 		tst	r2, #16777216
 1846 003e 14BF     		ite	ne
 1847 0040 0222     		movne	r2, #2
 1848 0042 0122     		moveq	r2, #1
 1849 0044 8261     		str	r2, [r0, #24]
1031:Drivers/STM32F4xx_HAL_Driver/Src/stm32f4xx_hal_rcc.c ****   }
1032:Drivers/STM32F4xx_HAL_Driver/Src/stm32f4xx_hal_rcc.c ****   RCC_OscInitStruct->PLL.PLLSource = (uint32_t)(RCC->PLLCFGR & RCC_PLLCFGR_PLLSRC);
 1850              		.loc 1 1032 3 is_stmt 1 view .LVU594
 1851              		.loc 1 1032 52 is_stmt 0 view .LVU595
 1852 0046 5A68     		ldr	r2, [r3, #4]
 1853              		.loc 1 1032 38 view .LVU596
 1854 0048 02F48002 		and	r2, r2, #4194304
 1855              		.loc 1 1032 36 view .LVU597
 1856 004c C261     		str	r2, [r0, #28]
1033:Drivers/STM32F4xx_HAL_Driver/Src/stm32f4xx_hal_rcc.c ****   RCC_OscInitStruct->PLL.PLLM = (uint32_t)(RCC->PLLCFGR & RCC_PLLCFGR_PLLM);
 1857              		.loc 1 1033 3 is_stmt 1 view .LVU598
 1858              		.loc 1 1033 47 is_stmt 0 view .LVU599
 1859 004e 5A68     		ldr	r2, [r3, #4]
ARM GAS  /tmp/ccbSUABi.s 			page 58


 1860              		.loc 1 1033 33 view .LVU600
 1861 0050 02F03F02 		and	r2, r2, #63
 1862              		.loc 1 1033 31 view .LVU601
 1863 0054 0262     		str	r2, [r0, #32]
1034:Drivers/STM32F4xx_HAL_Driver/Src/stm32f4xx_hal_rcc.c ****   RCC_OscInitStruct->PLL.PLLN = (uint32_t)((RCC->PLLCFGR & RCC_PLLCFGR_PLLN) >> RCC_PLLCFGR_PLLN_Po
 1864              		.loc 1 1034 3 is_stmt 1 view .LVU602
 1865              		.loc 1 1034 48 is_stmt 0 view .LVU603
 1866 0056 5A68     		ldr	r2, [r3, #4]
 1867              		.loc 1 1034 33 view .LVU604
 1868 0058 C2F38812 		ubfx	r2, r2, #6, #9
 1869              		.loc 1 1034 31 view .LVU605
 1870 005c 4262     		str	r2, [r0, #36]
1035:Drivers/STM32F4xx_HAL_Driver/Src/stm32f4xx_hal_rcc.c ****   RCC_OscInitStruct->PLL.PLLP = (uint32_t)((((RCC->PLLCFGR & RCC_PLLCFGR_PLLP) + RCC_PLLCFGR_PLLP_0
 1871              		.loc 1 1035 3 is_stmt 1 view .LVU606
 1872              		.loc 1 1035 50 is_stmt 0 view .LVU607
 1873 005e 5A68     		ldr	r2, [r3, #4]
 1874              		.loc 1 1035 60 view .LVU608
 1875 0060 02F44032 		and	r2, r2, #196608
 1876              		.loc 1 1035 80 view .LVU609
 1877 0064 02F58032 		add	r2, r2, #65536
 1878              		.loc 1 1035 33 view .LVU610
 1879 0068 D20B     		lsrs	r2, r2, #15
 1880              		.loc 1 1035 31 view .LVU611
 1881 006a 8262     		str	r2, [r0, #40]
1036:Drivers/STM32F4xx_HAL_Driver/Src/stm32f4xx_hal_rcc.c ****   RCC_OscInitStruct->PLL.PLLQ = (uint32_t)((RCC->PLLCFGR & RCC_PLLCFGR_PLLQ) >> RCC_PLLCFGR_PLLQ_Po
 1882              		.loc 1 1036 3 is_stmt 1 view .LVU612
 1883              		.loc 1 1036 48 is_stmt 0 view .LVU613
 1884 006c 5B68     		ldr	r3, [r3, #4]
 1885              		.loc 1 1036 33 view .LVU614
 1886 006e C3F30363 		ubfx	r3, r3, #24, #4
 1887              		.loc 1 1036 31 view .LVU615
 1888 0072 C362     		str	r3, [r0, #44]
1037:Drivers/STM32F4xx_HAL_Driver/Src/stm32f4xx_hal_rcc.c **** }
 1889              		.loc 1 1037 1 view .LVU616
 1890 0074 7047     		bx	lr
 1891              	.L199:
 978:Drivers/STM32F4xx_HAL_Driver/Src/stm32f4xx_hal_rcc.c ****   {
 1892              		.loc 1 978 8 is_stmt 1 view .LVU617
 978:Drivers/STM32F4xx_HAL_Driver/Src/stm32f4xx_hal_rcc.c ****   {
 1893              		.loc 1 978 15 is_stmt 0 view .LVU618
 1894 0076 1B68     		ldr	r3, [r3]
 978:Drivers/STM32F4xx_HAL_Driver/Src/stm32f4xx_hal_rcc.c ****   {
 1895              		.loc 1 978 10 view .LVU619
 1896 0078 13F48033 		ands	r3, r3, #65536
 980:Drivers/STM32F4xx_HAL_Driver/Src/stm32f4xx_hal_rcc.c ****   }
 1897              		.loc 1 980 5 is_stmt 1 view .LVU620
 980:Drivers/STM32F4xx_HAL_Driver/Src/stm32f4xx_hal_rcc.c ****   }
 1898              		.loc 1 980 33 is_stmt 0 view .LVU621
 1899 007c 18BF     		it	ne
 1900 007e 4FF48033 		movne	r3, #65536
 984:Drivers/STM32F4xx_HAL_Driver/Src/stm32f4xx_hal_rcc.c ****   }
 1901              		.loc 1 984 5 is_stmt 1 view .LVU622
 984:Drivers/STM32F4xx_HAL_Driver/Src/stm32f4xx_hal_rcc.c ****   }
 1902              		.loc 1 984 33 is_stmt 0 view .LVU623
 1903 0082 4360     		str	r3, [r0, #4]
 1904 0084 C5E7     		b	.L200
 1905              	.L202:
ARM GAS  /tmp/ccbSUABi.s 			page 59


1004:Drivers/STM32F4xx_HAL_Driver/Src/stm32f4xx_hal_rcc.c ****   {
 1906              		.loc 1 1004 8 is_stmt 1 view .LVU624
1004:Drivers/STM32F4xx_HAL_Driver/Src/stm32f4xx_hal_rcc.c ****   {
 1907              		.loc 1 1004 15 is_stmt 0 view .LVU625
 1908 0086 1B6F     		ldr	r3, [r3, #112]
1004:Drivers/STM32F4xx_HAL_Driver/Src/stm32f4xx_hal_rcc.c ****   {
 1909              		.loc 1 1004 10 view .LVU626
 1910 0088 13F00103 		ands	r3, r3, #1
1006:Drivers/STM32F4xx_HAL_Driver/Src/stm32f4xx_hal_rcc.c ****   }
 1911              		.loc 1 1006 5 is_stmt 1 view .LVU627
1006:Drivers/STM32F4xx_HAL_Driver/Src/stm32f4xx_hal_rcc.c ****   }
 1912              		.loc 1 1006 33 is_stmt 0 view .LVU628
 1913 008c 18BF     		it	ne
 1914 008e 0123     		movne	r3, #1
1010:Drivers/STM32F4xx_HAL_Driver/Src/stm32f4xx_hal_rcc.c ****   }
 1915              		.loc 1 1010 5 is_stmt 1 view .LVU629
1010:Drivers/STM32F4xx_HAL_Driver/Src/stm32f4xx_hal_rcc.c ****   }
 1916              		.loc 1 1010 33 is_stmt 0 view .LVU630
 1917 0090 8360     		str	r3, [r0, #8]
 1918 0092 CCE7     		b	.L203
 1919              	.L208:
 1920              		.align	2
 1921              	.L207:
 1922 0094 00380240 		.word	1073887232
 1923              		.cfi_endproc
 1924              	.LFE140:
 1926              		.section	.text.HAL_RCC_GetClockConfig,"ax",%progbits
 1927              		.align	1
 1928              		.p2align 2,,3
 1929              		.global	HAL_RCC_GetClockConfig
 1930              		.syntax unified
 1931              		.thumb
 1932              		.thumb_func
 1933              		.fpu fpv4-sp-d16
 1935              	HAL_RCC_GetClockConfig:
 1936              	.LVL117:
 1937              	.LFB141:
1038:Drivers/STM32F4xx_HAL_Driver/Src/stm32f4xx_hal_rcc.c **** 
1039:Drivers/STM32F4xx_HAL_Driver/Src/stm32f4xx_hal_rcc.c **** /**
1040:Drivers/STM32F4xx_HAL_Driver/Src/stm32f4xx_hal_rcc.c ****   * @brief  Configures the RCC_ClkInitStruct according to the internal
1041:Drivers/STM32F4xx_HAL_Driver/Src/stm32f4xx_hal_rcc.c ****   * RCC configuration registers.
1042:Drivers/STM32F4xx_HAL_Driver/Src/stm32f4xx_hal_rcc.c ****   * @param  RCC_ClkInitStruct pointer to an RCC_ClkInitTypeDef structure that
1043:Drivers/STM32F4xx_HAL_Driver/Src/stm32f4xx_hal_rcc.c ****   * will be configured.
1044:Drivers/STM32F4xx_HAL_Driver/Src/stm32f4xx_hal_rcc.c ****   * @param  pFLatency Pointer on the Flash Latency.
1045:Drivers/STM32F4xx_HAL_Driver/Src/stm32f4xx_hal_rcc.c ****   * @retval None
1046:Drivers/STM32F4xx_HAL_Driver/Src/stm32f4xx_hal_rcc.c ****   */
1047:Drivers/STM32F4xx_HAL_Driver/Src/stm32f4xx_hal_rcc.c **** void HAL_RCC_GetClockConfig(RCC_ClkInitTypeDef  *RCC_ClkInitStruct, uint32_t *pFLatency)
1048:Drivers/STM32F4xx_HAL_Driver/Src/stm32f4xx_hal_rcc.c **** {
 1938              		.loc 1 1048 1 is_stmt 1 view -0
 1939              		.cfi_startproc
 1940              		@ args = 0, pretend = 0, frame = 0
 1941              		@ frame_needed = 0, uses_anonymous_args = 0
 1942              		@ link register save eliminated.
1049:Drivers/STM32F4xx_HAL_Driver/Src/stm32f4xx_hal_rcc.c ****   /* Set all possible values for the Clock type parameter --------------------*/
1050:Drivers/STM32F4xx_HAL_Driver/Src/stm32f4xx_hal_rcc.c ****   RCC_ClkInitStruct->ClockType = RCC_CLOCKTYPE_SYSCLK | RCC_CLOCKTYPE_HCLK | RCC_CLOCKTYPE_PCLK1 | 
 1943              		.loc 1 1050 3 view .LVU632
1051:Drivers/STM32F4xx_HAL_Driver/Src/stm32f4xx_hal_rcc.c **** 
ARM GAS  /tmp/ccbSUABi.s 			page 60


1052:Drivers/STM32F4xx_HAL_Driver/Src/stm32f4xx_hal_rcc.c ****   /* Get the SYSCLK configuration --------------------------------------------*/
1053:Drivers/STM32F4xx_HAL_Driver/Src/stm32f4xx_hal_rcc.c ****   RCC_ClkInitStruct->SYSCLKSource = (uint32_t)(RCC->CFGR & RCC_CFGR_SW);
 1944              		.loc 1 1053 51 is_stmt 0 view .LVU633
 1945 0000 0E4B     		ldr	r3, .L211
1050:Drivers/STM32F4xx_HAL_Driver/Src/stm32f4xx_hal_rcc.c **** 
 1946              		.loc 1 1050 32 view .LVU634
 1947 0002 0F22     		movs	r2, #15
 1948 0004 0260     		str	r2, [r0]
 1949              		.loc 1 1053 3 is_stmt 1 view .LVU635
 1950              		.loc 1 1053 51 is_stmt 0 view .LVU636
 1951 0006 9A68     		ldr	r2, [r3, #8]
 1952              		.loc 1 1053 37 view .LVU637
 1953 0008 02F00302 		and	r2, r2, #3
 1954              		.loc 1 1053 35 view .LVU638
 1955 000c 4260     		str	r2, [r0, #4]
1054:Drivers/STM32F4xx_HAL_Driver/Src/stm32f4xx_hal_rcc.c **** 
1055:Drivers/STM32F4xx_HAL_Driver/Src/stm32f4xx_hal_rcc.c ****   /* Get the HCLK configuration ----------------------------------------------*/
1056:Drivers/STM32F4xx_HAL_Driver/Src/stm32f4xx_hal_rcc.c ****   RCC_ClkInitStruct->AHBCLKDivider = (uint32_t)(RCC->CFGR & RCC_CFGR_HPRE);
 1956              		.loc 1 1056 3 is_stmt 1 view .LVU639
 1957              		.loc 1 1056 52 is_stmt 0 view .LVU640
 1958 000e 9A68     		ldr	r2, [r3, #8]
 1959              		.loc 1 1056 38 view .LVU641
 1960 0010 02F0F002 		and	r2, r2, #240
 1961              		.loc 1 1056 36 view .LVU642
 1962 0014 8260     		str	r2, [r0, #8]
1057:Drivers/STM32F4xx_HAL_Driver/Src/stm32f4xx_hal_rcc.c **** 
1058:Drivers/STM32F4xx_HAL_Driver/Src/stm32f4xx_hal_rcc.c ****   /* Get the APB1 configuration ----------------------------------------------*/
1059:Drivers/STM32F4xx_HAL_Driver/Src/stm32f4xx_hal_rcc.c ****   RCC_ClkInitStruct->APB1CLKDivider = (uint32_t)(RCC->CFGR & RCC_CFGR_PPRE1);
 1963              		.loc 1 1059 3 is_stmt 1 view .LVU643
 1964              		.loc 1 1059 53 is_stmt 0 view .LVU644
 1965 0016 9A68     		ldr	r2, [r3, #8]
 1966              		.loc 1 1059 39 view .LVU645
 1967 0018 02F4E052 		and	r2, r2, #7168
 1968              		.loc 1 1059 37 view .LVU646
 1969 001c C260     		str	r2, [r0, #12]
1060:Drivers/STM32F4xx_HAL_Driver/Src/stm32f4xx_hal_rcc.c **** 
1061:Drivers/STM32F4xx_HAL_Driver/Src/stm32f4xx_hal_rcc.c ****   /* Get the APB2 configuration ----------------------------------------------*/
1062:Drivers/STM32F4xx_HAL_Driver/Src/stm32f4xx_hal_rcc.c ****   RCC_ClkInitStruct->APB2CLKDivider = (uint32_t)((RCC->CFGR & RCC_CFGR_PPRE2) >> 3U);
 1970              		.loc 1 1062 3 is_stmt 1 view .LVU647
 1971              		.loc 1 1062 54 is_stmt 0 view .LVU648
 1972 001e 9B68     		ldr	r3, [r3, #8]
 1973              		.loc 1 1062 39 view .LVU649
 1974 0020 DB08     		lsrs	r3, r3, #3
1048:Drivers/STM32F4xx_HAL_Driver/Src/stm32f4xx_hal_rcc.c ****   /* Set all possible values for the Clock type parameter --------------------*/
 1975              		.loc 1 1048 1 view .LVU650
 1976 0022 10B4     		push	{r4}
 1977              	.LCFI19:
 1978              		.cfi_def_cfa_offset 4
 1979              		.cfi_offset 4, -4
 1980              		.loc 1 1062 39 view .LVU651
 1981 0024 03F4E053 		and	r3, r3, #7168
1063:Drivers/STM32F4xx_HAL_Driver/Src/stm32f4xx_hal_rcc.c **** 
1064:Drivers/STM32F4xx_HAL_Driver/Src/stm32f4xx_hal_rcc.c ****   /* Get the Flash Wait State (Latency) configuration ------------------------*/
1065:Drivers/STM32F4xx_HAL_Driver/Src/stm32f4xx_hal_rcc.c ****   *pFLatency = (uint32_t)(FLASH->ACR & FLASH_ACR_LATENCY);
 1982              		.loc 1 1065 32 view .LVU652
 1983 0028 054C     		ldr	r4, .L211+4
1062:Drivers/STM32F4xx_HAL_Driver/Src/stm32f4xx_hal_rcc.c **** 
ARM GAS  /tmp/ccbSUABi.s 			page 61


 1984              		.loc 1 1062 37 view .LVU653
 1985 002a 0361     		str	r3, [r0, #16]
 1986              		.loc 1 1065 3 is_stmt 1 view .LVU654
 1987              		.loc 1 1065 32 is_stmt 0 view .LVU655
 1988 002c 2368     		ldr	r3, [r4]
1066:Drivers/STM32F4xx_HAL_Driver/Src/stm32f4xx_hal_rcc.c **** }
 1989              		.loc 1 1066 1 view .LVU656
 1990 002e 5DF8044B 		ldr	r4, [sp], #4
 1991              	.LCFI20:
 1992              		.cfi_restore 4
 1993              		.cfi_def_cfa_offset 0
1065:Drivers/STM32F4xx_HAL_Driver/Src/stm32f4xx_hal_rcc.c **** }
 1994              		.loc 1 1065 16 view .LVU657
 1995 0032 03F00F03 		and	r3, r3, #15
1065:Drivers/STM32F4xx_HAL_Driver/Src/stm32f4xx_hal_rcc.c **** }
 1996              		.loc 1 1065 14 view .LVU658
 1997 0036 0B60     		str	r3, [r1]
 1998              		.loc 1 1066 1 view .LVU659
 1999 0038 7047     		bx	lr
 2000              	.L212:
 2001 003a 00BF     		.align	2
 2002              	.L211:
 2003 003c 00380240 		.word	1073887232
 2004 0040 003C0240 		.word	1073888256
 2005              		.cfi_endproc
 2006              	.LFE141:
 2008              		.section	.text.HAL_RCC_CSSCallback,"ax",%progbits
 2009              		.align	1
 2010              		.p2align 2,,3
 2011              		.weak	HAL_RCC_CSSCallback
 2012              		.syntax unified
 2013              		.thumb
 2014              		.thumb_func
 2015              		.fpu fpv4-sp-d16
 2017              	HAL_RCC_CSSCallback:
 2018              	.LFB143:
1067:Drivers/STM32F4xx_HAL_Driver/Src/stm32f4xx_hal_rcc.c **** 
1068:Drivers/STM32F4xx_HAL_Driver/Src/stm32f4xx_hal_rcc.c **** /**
1069:Drivers/STM32F4xx_HAL_Driver/Src/stm32f4xx_hal_rcc.c ****   * @brief This function handles the RCC CSS interrupt request.
1070:Drivers/STM32F4xx_HAL_Driver/Src/stm32f4xx_hal_rcc.c ****   * @note This API should be called under the NMI_Handler().
1071:Drivers/STM32F4xx_HAL_Driver/Src/stm32f4xx_hal_rcc.c ****   * @retval None
1072:Drivers/STM32F4xx_HAL_Driver/Src/stm32f4xx_hal_rcc.c ****   */
1073:Drivers/STM32F4xx_HAL_Driver/Src/stm32f4xx_hal_rcc.c **** void HAL_RCC_NMI_IRQHandler(void)
1074:Drivers/STM32F4xx_HAL_Driver/Src/stm32f4xx_hal_rcc.c **** {
1075:Drivers/STM32F4xx_HAL_Driver/Src/stm32f4xx_hal_rcc.c ****   /* Check RCC CSSF flag  */
1076:Drivers/STM32F4xx_HAL_Driver/Src/stm32f4xx_hal_rcc.c ****   if(__HAL_RCC_GET_IT(RCC_IT_CSS))
1077:Drivers/STM32F4xx_HAL_Driver/Src/stm32f4xx_hal_rcc.c ****   {
1078:Drivers/STM32F4xx_HAL_Driver/Src/stm32f4xx_hal_rcc.c ****     /* RCC Clock Security System interrupt user callback */
1079:Drivers/STM32F4xx_HAL_Driver/Src/stm32f4xx_hal_rcc.c ****     HAL_RCC_CSSCallback();
1080:Drivers/STM32F4xx_HAL_Driver/Src/stm32f4xx_hal_rcc.c **** 
1081:Drivers/STM32F4xx_HAL_Driver/Src/stm32f4xx_hal_rcc.c ****     /* Clear RCC CSS pending bit */
1082:Drivers/STM32F4xx_HAL_Driver/Src/stm32f4xx_hal_rcc.c ****     __HAL_RCC_CLEAR_IT(RCC_IT_CSS);
1083:Drivers/STM32F4xx_HAL_Driver/Src/stm32f4xx_hal_rcc.c ****   }
1084:Drivers/STM32F4xx_HAL_Driver/Src/stm32f4xx_hal_rcc.c **** }
1085:Drivers/STM32F4xx_HAL_Driver/Src/stm32f4xx_hal_rcc.c **** 
1086:Drivers/STM32F4xx_HAL_Driver/Src/stm32f4xx_hal_rcc.c **** /**
1087:Drivers/STM32F4xx_HAL_Driver/Src/stm32f4xx_hal_rcc.c ****   * @brief  RCC Clock Security System interrupt callback
ARM GAS  /tmp/ccbSUABi.s 			page 62


1088:Drivers/STM32F4xx_HAL_Driver/Src/stm32f4xx_hal_rcc.c ****   * @retval None
1089:Drivers/STM32F4xx_HAL_Driver/Src/stm32f4xx_hal_rcc.c ****   */
1090:Drivers/STM32F4xx_HAL_Driver/Src/stm32f4xx_hal_rcc.c **** __weak void HAL_RCC_CSSCallback(void)
1091:Drivers/STM32F4xx_HAL_Driver/Src/stm32f4xx_hal_rcc.c **** {
 2019              		.loc 1 1091 1 is_stmt 1 view -0
 2020              		.cfi_startproc
 2021              		@ args = 0, pretend = 0, frame = 0
 2022              		@ frame_needed = 0, uses_anonymous_args = 0
 2023              		@ link register save eliminated.
1092:Drivers/STM32F4xx_HAL_Driver/Src/stm32f4xx_hal_rcc.c ****   /* NOTE : This function Should not be modified, when the callback is needed,
1093:Drivers/STM32F4xx_HAL_Driver/Src/stm32f4xx_hal_rcc.c ****             the HAL_RCC_CSSCallback could be implemented in the user file
1094:Drivers/STM32F4xx_HAL_Driver/Src/stm32f4xx_hal_rcc.c ****    */
1095:Drivers/STM32F4xx_HAL_Driver/Src/stm32f4xx_hal_rcc.c **** }
 2024              		.loc 1 1095 1 view .LVU661
 2025 0000 7047     		bx	lr
 2026              		.cfi_endproc
 2027              	.LFE143:
 2029 0002 00BF     		.section	.text.HAL_RCC_NMI_IRQHandler,"ax",%progbits
 2030              		.align	1
 2031              		.p2align 2,,3
 2032              		.global	HAL_RCC_NMI_IRQHandler
 2033              		.syntax unified
 2034              		.thumb
 2035              		.thumb_func
 2036              		.fpu fpv4-sp-d16
 2038              	HAL_RCC_NMI_IRQHandler:
 2039              	.LFB142:
1074:Drivers/STM32F4xx_HAL_Driver/Src/stm32f4xx_hal_rcc.c ****   /* Check RCC CSSF flag  */
 2040              		.loc 1 1074 1 view -0
 2041              		.cfi_startproc
 2042              		@ args = 0, pretend = 0, frame = 0
 2043              		@ frame_needed = 0, uses_anonymous_args = 0
1076:Drivers/STM32F4xx_HAL_Driver/Src/stm32f4xx_hal_rcc.c ****   {
 2044              		.loc 1 1076 3 view .LVU663
1074:Drivers/STM32F4xx_HAL_Driver/Src/stm32f4xx_hal_rcc.c ****   /* Check RCC CSSF flag  */
 2045              		.loc 1 1074 1 is_stmt 0 view .LVU664
 2046 0000 08B5     		push	{r3, lr}
 2047              	.LCFI21:
 2048              		.cfi_def_cfa_offset 8
 2049              		.cfi_offset 3, -8
 2050              		.cfi_offset 14, -4
1076:Drivers/STM32F4xx_HAL_Driver/Src/stm32f4xx_hal_rcc.c ****   {
 2051              		.loc 1 1076 6 view .LVU665
 2052 0002 054B     		ldr	r3, .L221
 2053 0004 DB68     		ldr	r3, [r3, #12]
1076:Drivers/STM32F4xx_HAL_Driver/Src/stm32f4xx_hal_rcc.c ****   {
 2054              		.loc 1 1076 5 view .LVU666
 2055 0006 1B06     		lsls	r3, r3, #24
 2056 0008 00D4     		bmi	.L220
1084:Drivers/STM32F4xx_HAL_Driver/Src/stm32f4xx_hal_rcc.c **** 
 2057              		.loc 1 1084 1 view .LVU667
 2058 000a 08BD     		pop	{r3, pc}
 2059              	.L220:
1079:Drivers/STM32F4xx_HAL_Driver/Src/stm32f4xx_hal_rcc.c **** 
 2060              		.loc 1 1079 5 is_stmt 1 view .LVU668
 2061 000c FFF7FEFF 		bl	HAL_RCC_CSSCallback
 2062              	.LVL118:
ARM GAS  /tmp/ccbSUABi.s 			page 63


1082:Drivers/STM32F4xx_HAL_Driver/Src/stm32f4xx_hal_rcc.c ****   }
 2063              		.loc 1 1082 5 view .LVU669
 2064 0010 024B     		ldr	r3, .L221+4
 2065 0012 8022     		movs	r2, #128
 2066 0014 1A70     		strb	r2, [r3]
1084:Drivers/STM32F4xx_HAL_Driver/Src/stm32f4xx_hal_rcc.c **** 
 2067              		.loc 1 1084 1 is_stmt 0 view .LVU670
 2068 0016 08BD     		pop	{r3, pc}
 2069              	.L222:
 2070              		.align	2
 2071              	.L221:
 2072 0018 00380240 		.word	1073887232
 2073 001c 0E380240 		.word	1073887246
 2074              		.cfi_endproc
 2075              	.LFE142:
 2077              		.text
 2078              	.Letext0:
 2079              		.file 2 "/usr/lib/gcc/arm-none-eabi/9.2.1/include/stdint.h"
 2080              		.file 3 "Drivers/CMSIS/Include/core_cm4.h"
 2081              		.file 4 "Drivers/CMSIS/Device/ST/STM32F4xx/Include/system_stm32f4xx.h"
 2082              		.file 5 "Drivers/CMSIS/Device/ST/STM32F4xx/Include/stm32f446xx.h"
 2083              		.file 6 "Drivers/CMSIS/Device/ST/STM32F4xx/Include/stm32f4xx.h"
 2084              		.file 7 "Drivers/STM32F4xx_HAL_Driver/Inc/stm32f4xx_hal_def.h"
 2085              		.file 8 "Drivers/STM32F4xx_HAL_Driver/Inc/stm32f4xx_hal_rcc_ex.h"
 2086              		.file 9 "Drivers/STM32F4xx_HAL_Driver/Inc/stm32f4xx_hal_rcc.h"
 2087              		.file 10 "Drivers/STM32F4xx_HAL_Driver/Inc/stm32f4xx_hal_gpio.h"
 2088              		.file 11 "Drivers/STM32F4xx_HAL_Driver/Inc/stm32f4xx_hal.h"
ARM GAS  /tmp/ccbSUABi.s 			page 64

